((dp0
S'arm_dbg_args'
p1
S'-via:"c:\\Users\\lab422\\Desktop\\FYP\\Learning Resources\\Sprint 3 Minimal Example\\FinalYearProject\\build_finalyearproject_vc12\\FinalYearProject_vc12_arm_debug.via" -qemu'
p2
sS'game-icf'
p3
S''
p4
sS'dist'
p5
NsS'csproj'
p6
g4
sS'module_path_append'
p7
NsS'global_path'
p8
S'c:\\users\\lab422\\desktop\\fyp\\learning resources\\sprint 3 minimal example'
p9
sS'system_path'
p10
S'c:\\marmalade\\7.4\\s3e\\makefile_builder'
p11
sS'android_x86_dbg_args'
p12
S'../../tools/DeployTool/DeployTool.exe --dir "c:\\Users\\lab422\\Desktop\\FYP\\Learning Resources\\Sprint 3 Minimal Example\\FinalYearProject\\build_finalyearproject_vc12"'
p13
sS'no-emit'
p14
NsS'arm-float-abi'
p15
g4
sS'arm_rel_rtsm_args'
p16
S'-via:"c:\\Users\\lab422\\Desktop\\FYP\\Learning Resources\\Sprint 3 Minimal Example\\FinalYearProject\\build_finalyearproject_vc12\\FinalYearProject_vc12_arm_release.via" -qemu'
p17
sS'amd64'
p18
NsS'line-width'
p19
I80
sS'gcc_dbg_args'
p20
S'-via:"c:\\Users\\lab422\\Desktop\\FYP\\Learning Resources\\Sprint 3 Minimal Example\\FinalYearProject\\build_finalyearproject_vc12\\FinalYearProject_vc12_gcc_debug.via" -qemu'
p21
sS'android-x86'
p22
NsS'x86_dbg_exe'
p23
S'c:/marmalade/7.4/s3e\\win32\\s3e_simulator_debug.exe'
p24
sS'disable-runtime-checks'
p25
NsS'release'
p26
NsS'no-make'
p27
NsS'xcode-x86-build-settings'
p28
g4
sS'optimise-size'
p29
NsS'output-name-debug'
p30
g4
sS'arm-fpu'
p31
g4
sS'proj_name'
p32
S'FinalYearProject_vc12'
p33
sS'rvct-version'
p34
S'none'
p35
sS'compiler'
p36
g4
sS'execute'
p37
NsS'compile-static'
p38
NsS'msvc-project'
p39
I01
sS'buildenv'
p40
g4
sS'quick'
p41
NsS'module_path'
p42
NsS'use-release-std-libs'
p43
NsS'using_perforce'
p44
I00
sS'tizen-x86'
p45
NsS'mips-s3e'
p46
NsS's3e-api-lib-name'
p47
S's3e_api_iwgl'
p48
sS'ios-no-pic'
p49
NsS'shared-arm-lib'
p50
NsS'arm-cpu'
p51
g4
sS'compile-thumb'
p52
NsS'no-ide'
p53
NsS'msvc-version'
p54
S'6.0'
p55
sS'arm'
p56
NsS'builddir'
p57
g4
sS'compile-debug-as-release'
p58
I0
sS'arm-arch'
p59
g4
sS'brief'
p60
NsS'dll'
p61
NsS'buildenv-toolset'
p62
g4
sS'version'
p63
NsS'ccache'
p64
I0
sS'offline'
p65
NsS'ios-version'
p66
g4
sS'hub_data'
p67
g4
sS'fake_vc_call'
p68
NsS'jobs'
p69
I0
sS'linkflags'
p70
NsS'debug'
p71
NsS'xcode-build-order'
p72
g4
sS'gcc_rel_rtsm_args'
p73
S'-via:"c:\\Users\\lab422\\Desktop\\FYP\\Learning Resources\\Sprint 3 Minimal Example\\FinalYearProject\\build_finalyearproject_vc12\\FinalYearProject_vc12_gcc_release.via" -qemu'
p74
sS'done_defaults'
p75
I1
sS'path'
p76
NsS's3e-data-dir'
p77
S'c:/Users/lab422/Desktop/FYP/Learning Resources/Sprint 3 Minimal Example/FinalYearProject\\data'
p78
sS'enable-exceptions'
p79
NsS'osx-dll'
p80
NsS'extension'
p81
g4
sS'no-vc6'
p82
NsS'non-interactive'
p83
NsS'win32-console'
p84
NsS'dist-format'
p85
g4
sS's3e-force-arch'
p86
NsS'dump_defines'
p87
NsS'use_prebuilt'
p88
NsS'gcc-version'
p89
g4
sS'x86_dbg_args'
p90
S'-via:"c:\\Users\\lab422\\Desktop\\FYP\\Learning Resources\\Sprint 3 Minimal Example\\FinalYearProject\\build_finalyearproject_vc12\\FinalYearProject_vc12_debug.via"'
p91
sS'tizen_x86_dbg_args'
p92
g13
sS'arm-debugger'
p93
g4
sS'use_temp_extension'
p94
NsS'verbose'
p95
I0
sS'log'
p96
NsS'no-strip'
p97
NsS'rebuild'
p98
NsS'win32-simulator-dll'
p99
NsS'strict'
p100
NsS'mips_dbg_args'
p101
g13
sS'enable-global-path'
p102
NsS'cflags'
p103
NsS'dist-dir'
p104
g4
sS'xcode-arm-build-settings'
p105
g4
sS'jflags'
p106
NsS'csprojSDKRefs'
p107
g4
sS'tizen_x86_rel_exe'
p108
S'c:\\marmalade\\7.4\\s3e\\makefile_builder\\tool_launcher.exe'
p109
sS'test-assets'
p110
g4
sS'distcc'
p111
NsS'external-compiler'
p112
NsS'no-distcc'
p113
NsS'preinclude'
p114
NsS'using_sdk'
p115
I01
sS'nologo'
p116
NsS'warn-level'
p117
I2
sS'mips_dbg_exe'
p118
g109
sS'mkb_in'
p119
S'c:/Users/lab422/Desktop/FYP/Learning Resources/Sprint 3 Minimal Example/FinalYearProject/FinalYearProject.mkb'
p120
sS'tizen_x86_dbg_exe'
p121
g109
sS'arm_dbg_exe'
p122
S'c:/marmalade/7.4/s3e\\bin\\armdebug.exe'
p123
sS'csprojDLLRef'
p124
NsS'tizen_x86_rel_args'
p125
g13
sS'android_x86_dbg_exe'
p126
g109
sS'test-config'
p127
g4
sS'list-targets'
p128
NsS'arm_rel_exe'
p129
g109
sS'arm_rel_args'
p130
g13
sS'makedeps'
p131
NsS'android_x86_rel_exe'
p132
g109
sS'default-buildenv'
p133
S'vc12'
p134
sS'x86_rel_exe'
p135
g24
sS'preprocess-java'
p136
NsS'mips_rel_args'
p137
g13
sS'defines'
p138
NsS'lib'
p139
NsS'global_argv'
p140
(lp141
S'C:\\Marmalade\\7.4\\s3e\\makefile_builder\\mkb.py'
p142
aS'c:/Users/lab422/Desktop/FYP/Learning Resources/Sprint 3 Minimal Example/FinalYearProject/FinalYearProject.mkb'
p143
aS'--default-buildenv=vc12'
p144
aS'--msvc-project'
p145
asS'make'
p146
NsS'optimise-speed'
p147
NsS'internal'
p148
NsS'enable-stdinc'
p149
NsS'deploy-only'
p150
NsS'x86'
p151
NsS'deploy'
p152
g4
sS'x86_run_exe'
p153
S'c:/marmalade/7.4/s3e\\win32\\s3e_console.exe'
p154
sS'x86_rel_args'
p155
S'-via:"c:\\Users\\lab422\\Desktop\\FYP\\Learning Resources\\Sprint 3 Minimal Example\\FinalYearProject\\build_finalyearproject_vc12\\FinalYearProject_vc12_release.via"'
p156
sS'gcc_rel_args'
p157
g13
sS'mips'
p158
NsS'xcode-build-settings'
p159
g4
sS'incredibuild'
p160
NsS'strict-compile'
p161
NsS'use-auto-subdirs'
p162
NsS'mips_rel_exe'
p163
g109
sS'android_x86_rel_args'
p164
g13
sS'app-icf'
p165
g4
sS'deployargs'
p166
NsS'iosnativedebug'
p167
NsS'mkf_in'
p168
(lp169
S'c:\\marmalade\\7.4\\modules\\iwutil\\iwutil.mkf'
p170
aS'c:\\marmalade\\7.4\\modules\\third_party\\libjpeg\\libjpeg.mkf'
p171
aS'c:\\marmalade\\7.4\\modules\\third_party\\libpng\\libpng.mkf'
p172
aS'c:\\marmalade\\7.4\\modules\\third_party\\zlib\\zlib.mkf'
p173
aS'c:\\marmalade\\7.4\\modules\\iw2dscenegraphcore\\iw2dscenegraphcore.mkf'
p174
aS'c:\\marmalade\\7.4\\modules\\iw2dscenegraph\\iw2dscenegraph.mkf'
p175
aS'c:\\marmalade\\7.4\\modules\\iw2d\\iw2d.mkf'
p176
aS'c:\\marmalade\\7.4\\modules\\iwgx\\iwgx.mkf'
p177
aS'c:\\marmalade\\7.4\\modules\\iwgl\\iwgl.mkf'
p178
aS'c:\\marmalade\\7.4\\modules\\iwgeom\\iwgeom.mkf'
p179
aS'c:\\marmalade\\7.4\\modules\\iwresmanager\\iwresmanager.mkf'
p180
aS'c:\\marmalade\\7.4\\extensions\\pvrtextool\\pvrtextool.mkf'
p181
aS'c:\\marmalade\\7.4\\modules\\iwgxfont\\iwgxfont.mkf'
p182
aS'c:\\marmalade\\7.4\\modules\\third_party\\tiniconv\\tiniconv.mkf'
p183
aS'c:\\users\\lab422\\desktop\\fyp\\learning resources\\sprint 3 minimal example\\finalyearproject\\soundengine\\soundengine.mkf'
p184
aS'c:\\marmalade\\7.4\\modules\\iwtween\\iwtween.mkf'
p185
asS'strict-mkb'
p186
NsS'executeargs'
p187
NsS'clean'
p188
NsS'no-asm'
p189
NsS'output-name'
p190
g4
sS'no-modules'
p191
NsS'find_define'
p192
g4
s(dp193
S'c:\\marmalade\\7.4\\s3e\\makefile_builder\\plugins\\Emitter.pyc'
p194
F1409106506.0
sS'c:\\marmalade\\7.4\\s3e\\makefile_builder\\templates\\ws8_ext_sln.pyc'
p195
F1409106508.0
sS'c:\\marmalade\\7.4\\s3e\\makefile_builder\\templates\\MainWindow.xib'
p196
F1409103204.0
sS'c:\\marmalade\\7.4\\s3e\\makefile_builder\\templates\\template.suo'
p197
F1409103204.0
sS'c:\\marmalade\\7.4\\s3e\\makefile_builder\\plugins\\xcode4_schememanagement.py'
p198
F1409103204.0
sS'c:\\marmalade\\7.4\\s3e\\makefile_builder\\templates\\ws81_sln.pyc'
p199
F1409106508.0
sS'c:\\marmalade\\7.4\\s3e\\makefile_builder\\templates\\win8_ext_csproj.pyc'
p200
F1409106508.0
sS'c:\\marmalade\\7.4\\s3e\\makefile_builder\\mkb_option.pyc'
p201
F1409106506.0
sS'c:\\marmalade\\7.4\\s3e\\makefile_builder\\plugins\\s3e_xcode.py'
p202
F1409103204.0
sS'c:\\marmalade\\7.4\\s3e\\makefile_builder\\plugins\\s3e_scons.pyc'
p203
F1409106506.0
sS'c:\\marmalade\\7.4\\s3e\\makefile_builder\\templates\\win8_vcxproj.pyc'
p204
F1409106508.0
sS'c:\\marmalade\\7.4\\s3e\\makefile_builder\\plugins\\null.pyc'
p205
F1409106506.0
sS'c:\\marmalade\\7.4\\s3e\\makefile_builder\\templates\\vc8_user.pyc'
p206
F1409106506.0
sS'c:\\marmalade\\7.4\\s3e\\makefile_builder\\templates\\wp81_ext_sln.pyc'
p207
F1409106508.0
sS'c:\\marmalade\\7.4\\s3e\\makefile_builder\\templates\\scons.pyc'
p208
F1409106506.0
sS'c:\\marmalade\\7.4\\s3e\\makefile_builder\\templates\\wp8_ext_csproj.pyc'
p209
F1409106508.0
sS'c:\\marmalade\\7.4\\s3e\\makefile_builder\\templates\\xcode_pbxuser.py'
p210
F1409103204.0
sS'c:\\marmalade\\7.4\\s3e\\makefile_builder\\plugins\\s3e_qmake.py'
p211
F1409103204.0
sS'c:\\marmalade\\7.4\\s3e\\makefile_builder\\plugins\\iphone.pyc'
p212
F1409106506.0
sS'c:\\marmalade\\7.4\\s3e\\makefile_builder\\templates\\ws81_ext_csproj.pyc'
p213
F1409106508.0
sS'c:\\marmalade\\7.4\\s3e\\makefile_builder\\templates\\vc6_opt.pyc'
p214
F1409106506.0
sS'c:\\marmalade\\7.4\\s3e\\makefile_builder\\plugins\\s3e_win8.pyc'
p215
F1409106506.0
sS'c:\\marmalade\\7.4\\s3e\\makefile_builder\\mkb_main.pyc'
p216
F1409106506.0
sS'c:\\marmalade\\7.4\\s3e\\makefile_builder\\templates\\wp8_csproj.pyc'
p217
F1409106508.0
sS'c:\\marmalade\\7.4\\s3e\\makefile_builder\\templates\\win32_vcproj.pyc'
p218
F1409106506.0
sS'c:\\marmalade\\7.4\\s3e\\makefile_builder\\templates\\win8_sln.pyc'
p219
F1409106508.0
sS'c:\\marmalade\\7.4\\s3e\\makefile_builder\\mkb_launcher.exe'
p220
F1409103760.0
sS'c:\\marmalade\\7.4\\s3e\\makefile_builder\\plugins\\osx_xcode.pyc'
p221
F1409106506.0
sS'c:\\marmalade\\7.4\\s3e\\makefile_builder\\plugins'
p222
F1411126710.2346628
sS'c:\\marmalade\\7.4\\s3e\\makefile_builder\\templates\\wp8_csproj_user.pyc'
p223
F1409106508.0
sS'c:\\marmalade\\7.4\\s3e\\makefile_builder\\plugins\\win32_vc6.pyc'
p224
F1409106506.0
sS'c:\\marmalade\\7.4\\s3e\\makefile_builder\\plugins\\s3e_vc6.pyc'
p225
F1409106506.0
sS'c:\\marmalade\\7.4\\s3e\\makefile_builder\\templates\\vc10_user.pyc'
p226
F1409106506.0
sS'c:\\marmalade\\7.4\\s3e\\makefile_builder\\docs\\deprecated.defines.txt'
p227
F1409103204.0
sS'c:\\marmalade\\7.4\\s3e\\makefile_builder\\templates\\wp81_csproj_user.pyc'
p228
F1409106508.0
sS'c:\\marmalade\\7.4\\s3e\\makefile_builder\\templates\\ws81_ext_sln.pyc'
p229
F1409106508.0
sS'c:\\marmalade\\7.4\\s3e\\makefile_builder\\templates\\make.py'
p230
F1409103204.0
sS'c:\\marmalade\\7.4\\s3e\\makefile_builder\\plugins\\wp81_wp81.pyc'
p231
F1409106506.0
sS'c:\\marmalade\\7.4\\s3e\\makefile_builder\\plugins\\s3e_qmake.pyc'
p232
F1411126710.1536582
sS'c:\\marmalade\\7.4\\s3e\\makefile_builder\\templates\\mips_linker_script'
p233
F1409103204.0
sS'c:\\marmalade\\7.4\\s3e\\makefile_builder\\plugins\\deploy.pyc'
p234
F1409106506.0
sS'c:\\marmalade\\7.4\\s3e\\makefile_builder\\plugins\\ws81_ws81.pyc'
p235
F1409106506.0
sS'c:\\marmalade\\7.4\\s3e\\makefile_builder\\mkb.py'
p236
F1409103204.0
sS'c:\\marmalade\\7.4\\s3e\\makefile_builder\\docs\\options.txt'
p237
F1409103204.0
sS'c:\\marmalade\\7.4\\s3e\\makefile_builder\\mkb_parser.pyc'
p238
F1409106506.0
sS'c:\\marmalade\\7.4\\s3e\\makefile_builder\\templates\\qmake_user.py'
p239
F1409103204.0
sS'c:\\marmalade\\7.4\\s3e\\makefile_builder\\docs\\mkb.defines.txt'
p240
F1409103204.0
sS'c:\\marmalade\\7.4\\s3e\\makefile_builder\\deployment.pyc'
p241
F1409106506.0
sS'c:\\marmalade\\7.4\\s3e\\makefile_builder\\plugins\\wp8_wp8.pyc'
p242
F1409106506.0
sS'c:\\marmalade\\7.4\\s3e\\makefile_builder\\plugins\\linux_scons.pyc'
p243
F1409106506.0
sS'c:\\marmalade\\7.4\\s3e\\makefile_builder\\plugins\\s3e_web.pyc'
p244
F1409106506.0
sS'c:\\marmalade\\7.4\\s3e\\makefile_builder\\plugins\\S3EEmitter.pyc'
p245
F1409106506.0
sS'c:\\marmalade\\7.4\\s3e\\makefile_builder\\plugins\\Win8Emitter.pyc'
p246
F1409106506.0
sS'c:\\marmalade\\7.4\\s3e\\makefile_builder\\templates\\xcode4_arm.xcscheme'
p247
F1409103204.0
sS'c:\\marmalade\\7.4\\s3e\\makefile_builder\\plugins\\vc6_utils.pyc'
p248
F1409106506.0
sS'c:\\marmalade\\7.4\\s3e\\makefile_builder\\templates\\wp8_vcxproj.pyc'
p249
F1409106508.0
sS'c:\\marmalade\\7.4\\s3e\\makefile_builder\\templates\\xcode4.xcscheme'
p250
F1409103204.0
sS'c:\\marmalade\\7.4\\s3e\\makefile_builder\\plugins\\MakeEmitter.pyc'
p251
F1409106506.0
sS'c:\\marmalade\\7.4\\s3e\\makefile_builder\\plugins\\java.pyc'
p252
F1409106506.0
sS'c:\\marmalade\\7.4\\s3e\\makefile_builder\\plugins\\XcodeEmitter.pyc'
p253
F1411126709.9866486
sS'c:\\marmalade\\7.4\\s3e\\makefile_builder\\plugins\\XcodeEmitter.py'
p254
F1409103204.0
sS'c:\\marmalade\\7.4\\s3e\\makefile_builder\\mkb_globals.pyc'
p255
F1409106506.0
sS'c:\\marmalade\\7.4\\s3e\\makefile_builder\\tool_launcher.exe'
p256
F1409103760.0
sS'c:\\marmalade\\7.4\\s3e\\makefile_builder\\mkb_util.pyc'
p257
F1409106506.0
sS'c:\\marmalade\\7.4\\s3e\\makefile_builder\\plugins\\xcode4_schememanagement.pyc'
p258
F1411126709.995649
sS'c:\\marmalade\\7.4\\s3e\\makefile_builder\\templates\\ws8_sln.pyc'
p259
F1409106508.0
sS'c:\\marmalade\\7.4\\s3e\\makefile_builder\\templates\\win32_sln.pyc'
p260
F1409106506.0
sS'c:\\marmalade\\7.4\\s3e\\makefile_builder\\templates\\wp81_ext_csproj.pyc'
p261
F1409106508.0
sS'c:\\marmalade\\7.4\\s3e\\makefile_builder\\plugins\\s3e_wp81.pyc'
p262
F1409106506.0
sS'c:\\marmalade\\7.4\\s3e\\makefile_builder\\plugins\\s3e_wp8.pyc'
p263
F1409106506.0
sS'c:\\marmalade\\7.4\\s3e\\makefile_builder\\templates\\qmake.py'
p264
F1409103204.0
sS'c:\\marmalade\\7.4\\s3e\\makefile_builder\\templates\\gdb_start.txt'
p265
F1409103204.0
sS'c:\\marmalade\\7.4\\s3e\\makefile_builder\\templates'
p266
F1411126377.7216442
sS'c:\\marmalade\\7.4\\s3e\\makefile_builder\\templates\\ws8_ext_csproj.pyc'
p267
F1409106508.0
sS'c:\\marmalade\\7.4\\s3e\\makefile_builder\\templates\\win8_csproj_user.pyc'
p268
F1409106508.0
sS'c:\\marmalade\\7.4\\s3e\\makefile_builder\\templates\\vc7_suo.pyc'
p269
F1409106506.0
sS'c:\\marmalade\\7.4\\s3e\\makefile_builder\\plugins\\VisualStudioEmitter.pyc'
p270
F1409106506.0
sS'c:\\marmalade\\7.4\\s3e\\makefile_builder\\templates\\linker_script'
p271
F1409103204.0
sS'c:\\marmalade\\7.4\\s3e\\makefile_builder\\docs\\deprecated.options.txt'
p272
F1409103204.0
sS'c:\\marmalade\\7.4\\s3e\\makefile_builder\\plugins\\s3e_xcode.pyc'
p273
F1411126710.2356627
sS'c:\\marmalade\\7.4\\s3e\\makefile_builder\\plugins\\s3e_ws8.pyc'
p274
F1409106506.0
sS'c:\\marmalade\\7.4\\s3e\\makefile_builder\\templates\\xcode4_DeployTool.xcscheme'
p275
F1409103204.0
sS'c:\\marmalade\\7.4\\s3e\\makefile_builder\\templates\\ws8_csproj_user.pyc'
p276
F1409106508.0
sS'c:\\marmalade\\7.4\\s3e\\makefile_builder\\plugins\\osx_scons.pyc'
p277
F1409106506.0
sS'c:\\marmalade\\7.4\\s3e\\makefile_builder\\templates\\ws81_csproj.pyc'
p278
F1409106508.0
sS'c:\\marmalade\\7.4\\s3e\\makefile_builder\\templates\\wp8_sln.pyc'
p279
F1409106508.0
sS'c:\\marmalade\\7.4\\s3e\\makefile_builder\\docs'
p280
F1411126377.7456455
sS'c:\\marmalade\\7.4\\s3e\\makefile_builder\\plugins\\ws8_ws8.pyc'
p281
F1409106506.0
sS'c:\\marmalade\\7.4\\s3e\\makefile_builder\\docs\\deployment_options.txt'
p282
F1409103204.0
sS'c:\\marmalade\\7.4\\s3e\\makefile_builder\\templates\\win32_vcxproj_filters.pyc'
p283
F1409106506.0
sS'c:\\marmalade\\7.4\\s3e\\makefile_builder\\templates\\win32_dsw.pyc'
p284
F1409106506.0
sS'c:\\marmalade\\7.4\\s3e\\makefile_builder\\plugins\\s3e_ws81.pyc'
p285
F1409106506.0
sS'c:\\marmalade\\7.4\\s3e\\makefile_builder\\plugins\\SConsEmitter.pyc'
p286
F1409106506.0
sS'c:\\marmalade\\7.4\\s3e\\makefile_builder\\templates\\wp81_vcxproj.pyc'
p287
F1409106508.0
sS'c:\\marmalade\\7.4\\s3e\\makefile_builder\\plugins\\win8_utils.pyc'
p288
F1409106506.0
sS'c:\\marmalade\\7.4\\s3e\\makefile_builder\\templates\\template.opt'
p289
F1409103204.0
sS'c:\\marmalade\\7.4\\s3e\\makefile_builder\\plugins\\vc7_utils.pyc'
p290
F1409106506.0
sS'c:\\marmalade\\7.4\\s3e\\makefile_builder\\templates\\win32_dsp.pyc'
p291
F1409106506.0
sS'c:\\marmalade\\7.4\\s3e\\makefile_builder\\plugins\\s3e_make.pyc'
p292
F1409106506.0
sS'c:\\marmalade\\7.4\\s3e\\makefile_builder\\templates\\rvct_linker_script'
p293
F1409103204.0
sS'c:\\marmalade\\7.4\\s3e\\makefile_builder\\templates\\win8_csproj.pyc'
p294
F1409106508.0
sS'c:\\marmalade\\7.4\\s3e\\makefile_builder\\templates\\xcode.py'
p295
F1409103204.0
sS'c:\\marmalade\\7.4\\s3e\\makefile_builder\\templates\\ws8_vcxproj.pyc'
p296
F1409106508.0
sS'c:\\marmalade\\7.4\\s3e\\makefile_builder\\templates\\wp81_csproj.pyc'
p297
F1409106508.0
sS'c:\\marmalade\\7.4\\s3e\\makefile_builder\\mkb_upstream.pyc'
p298
F1409106506.0
sS'c:\\marmalade\\7.4\\s3e\\makefile_builder\\templates\\win32_vcxproj.pyc'
p299
F1409106506.0
sS'c:\\marmalade\\7.4\\s3e\\makefile_builder\\templates\\ws8_csproj.pyc'
p300
F1409106508.0
sS'c:\\marmalade\\7.4\\s3e\\makefile_builder\\docs\\parse_options.pyc'
p301
F1409106508.0
sS'c:\\marmalade\\7.4\\s3e\\makefile_builder\\templates\\Info.plist'
p302
F1409103204.0
sS'c:\\marmalade\\7.4\\s3e\\makefile_builder\\templates\\wp81_sln.pyc'
p303
F1409106508.0
sS'c:\\marmalade\\7.4\\s3e\\makefile_builder\\templates\\ws81_csproj_user.pyc'
p304
F1409106508.0
sS'c:\\marmalade\\7.4\\s3e\\makefile_builder\\templates\\ws81_vcxproj.pyc'
p305
F1409106508.0
sccopy_reg
_reconstructor
p306
(cmkb_main
MkbFile
p307
c__builtin__
object
p308
Ntp309
Rp310
(dp311
g5
(lp312
sS'target_name'
p313
S'FinalYearProject'
p314
sS'current_file'
p315
g120
sS'package_path'
p316
(lp317
sS'post_build'
p318
(lp319
(lp320
S'c:/marmalade/7.4/s3e/tools'
p321
aS'C:\\Marmalade\\7.4\\s3e\\python\\python.exe .\\process_map.py "$(TargetPath)"'
p322
aa(S'c:\\marmalade\\7.4\\s3e\\bin'
p323
S'"s3e_plink" -l "$(TargetPath)" '
p324
g151
tp325
asS'librarys'
p326
(lp327
g306
(cmkb_main
Library
p328
g308
Ntp329
Rp330
(dp331
S'name'
p332
S'vc6_compat.lib'
p333
sS'expand_name'
p334
I00
sS'include_spec_rvct_objs'
p335
(lp336
sS'include_all_objs'
p337
I00
sS'share_arm'
p338
I00
sS'arch'
p339
S'x86'
p340
sS'nodebug'
p341
I00
sg36
Nsbag306
(g328
g308
Ntp342
Rp343
(dp344
g332
S'iwutil'
p345
sg334
I01
sg335
(lp346
sg337
Nsg338
Nsg339
Nsg341
I00
sg36
Nsbag306
(g328
g308
Ntp347
Rp348
(dp349
g332
S'jpeg'
p350
sg334
I01
sg335
g346
sg337
Nsg338
Nsg339
Nsg341
I00
sg36
Nsbag306
(g328
g308
Ntp351
Rp352
(dp353
g332
S'z'
p354
sg334
I01
sg335
g346
sg337
Nsg338
Nsg339
Nsg341
I00
sg36
Nsbag306
(g328
g308
Ntp355
Rp356
(dp357
g332
S'png'
p358
sg334
I01
sg335
g346
sg337
Nsg338
Nsg339
Nsg341
I00
sg36
Nsbag306
(g328
g308
Ntp359
Rp360
(dp361
g332
S'iw2d'
p362
sg334
I01
sg335
g346
sg337
Nsg338
Nsg339
Nsg341
I00
sg36
Nsbag306
(g328
g308
Ntp363
Rp364
(dp365
g332
S'ATI_Compress_MT_VC7.lib'
p366
sg334
I00
sg335
g346
sg337
Nsg338
Nsg339
S'x86'
p367
sg341
I00
sg36
Nsbag306
(g328
g308
Ntp368
Rp369
(dp370
g332
S'iwgx'
p371
sg334
I01
sg335
g346
sg337
Nsg338
Nsg339
Nsg341
I00
sg36
Nsbag306
(g328
g308
Ntp372
Rp373
(dp374
g332
S'iwgl'
p375
sg334
I01
sg335
g346
sg337
Nsg338
Nsg339
Nsg341
I00
sg36
Nsbag306
(g328
g308
Ntp376
Rp377
(dp378
g332
S'iwgeom'
p379
sg334
I01
sg335
g346
sg337
Nsg338
Nsg339
Nsg341
I00
sg36
Nsbag306
(g328
g308
Ntp380
Rp381
(dp382
g332
S'iwresmanager'
p383
sg334
I01
sg335
g346
sg337
Nsg338
Nsg339
Nsg341
I00
sg36
Nsbag306
(g328
g308
Ntp384
Rp385
(dp386
g332
S'iwgxfont'
p387
sg334
I01
sg335
g346
sg337
Nsg338
Nsg339
Nsg341
I00
sg36
Nsbag306
(g328
g308
Ntp388
Rp389
(dp390
g332
S'tiniconv'
p391
sg334
I01
sg335
g346
sg337
Nsg338
Nsg339
Nsg341
I00
sg36
Nsbag306
(g328
g308
Ntp392
Rp393
(dp394
g332
S's3e_cpp'
p395
sg334
I01
sg335
g336
sg337
I00
sg338
I00
sg339
Nsg341
I00
sg36
Nsbag306
(g328
g308
Ntp396
Rp397
(dp398
g332
S's3e'
p399
sg334
I01
sg335
(lp400
S'iwcrt.o'
p401
asg337
I00
sg338
I00
sg339
Nsg341
I00
sg36
Nsbag306
(g328
g308
Ntp402
Rp403
(dp404
g332
g48
sg334
I01
sg335
g336
sg337
I00
sg338
I00
sg339
S'x86'
p405
sg341
I01
sg36
Nsbag306
(g328
g308
Ntp406
Rp407
(dp408
g332
g48
sg334
I01
sg335
g336
sg337
I00
sg338
I00
sg339
S'!x86'
p409
sg341
I01
sg36
Nsbag306
(g328
g308
Ntp410
Rp411
(dp412
g332
S'stdc++'
p413
sg334
I00
sg335
g336
sg337
I00
sg338
I00
sg339
S'mips'
p414
sg341
I00
sg36
Nsbag306
(g328
g308
Ntp415
Rp416
(dp417
g332
S'c'
p418
sg334
I00
sg335
g336
sg337
I00
sg338
I00
sg339
S'mips'
p419
sg341
I00
sg36
Nsbag306
(g328
g308
Ntp420
Rp421
(dp422
g332
S'm'
p423
sg334
I00
sg335
g336
sg337
I00
sg338
I00
sg339
S'mips'
p424
sg341
I00
sg36
Nsbag306
(g328
g308
Ntp425
Rp426
(dp427
g332
S'gcc'
p428
sg334
I00
sg335
g336
sg337
I00
sg338
I00
sg339
S'mips'
p429
sg341
I00
sg36
Nsbag306
(g328
g308
Ntp430
Rp431
(dp432
g332
S'stdc++'
p433
sg334
I00
sg335
g336
sg337
I00
sg338
I00
sg339
S'gcc_x86_android'
p434
sg341
I00
sg36
Nsbag306
(g328
g308
Ntp435
Rp436
(dp437
g332
g418
sg334
I00
sg335
g336
sg337
I00
sg338
I00
sg339
S'gcc_x86_android'
p438
sg341
I00
sg36
Nsbag306
(g328
g308
Ntp439
Rp440
(dp441
g332
g423
sg334
I00
sg335
g336
sg337
I00
sg338
I00
sg339
S'gcc_x86_android'
p442
sg341
I00
sg36
Nsbag306
(g328
g308
Ntp443
Rp444
(dp445
g332
g428
sg334
I00
sg335
g336
sg337
I00
sg338
I00
sg339
S'gcc_x86_android'
p446
sg341
I00
sg36
NsbasS'library_paths'
p447
(lp448
g306
(cmkb_main
LibraryPath
p449
g308
Ntp450
Rp451
(dp452
S'expand_path'
p453
I01
sg332
S'c:/marmalade/7.4/modules/iwutil'
p454
sbag306
(g449
g308
Ntp455
Rp456
(dp457
g453
I01
sg332
S'c:/marmalade/7.4/modules/third_party/libjpeg'
p458
sbag306
(g449
g308
Ntp459
Rp460
(dp461
g453
I01
sg332
S'c:/marmalade/7.4/modules/third_party/zlib'
p462
sbag306
(g449
g308
Ntp463
Rp464
(dp465
g453
I01
sg332
S'c:/marmalade/7.4/modules/third_party/libpng'
p466
sbag306
(g449
g308
Ntp467
Rp468
(dp469
g453
I01
sg332
S'c:/marmalade/7.4/modules/iw2d'
p470
sbag306
(g449
g308
Ntp471
Rp472
(dp473
g453
I00
sg332
S'c:/marmalade/7.4/modules/iwgx/atitools'
p474
sbag306
(g449
g308
Ntp475
Rp476
(dp477
g453
I01
sg332
S'c:/marmalade/7.4/modules/iwgx'
p478
sbag306
(g449
g308
Ntp479
Rp480
(dp481
g453
I01
sg332
S'c:/marmalade/7.4/modules/iwgl'
p482
sbag306
(g449
g308
Ntp483
Rp484
(dp485
g453
I01
sg332
S'c:/marmalade/7.4/modules/iwgeom'
p486
sbag306
(g449
g308
Ntp487
Rp488
(dp489
g453
I01
sg332
S'c:/marmalade/7.4/modules/iwresmanager'
p490
sbag306
(g449
g308
Ntp491
Rp492
(dp493
g453
I01
sg332
S'c:/marmalade/7.4/modules/iwgxfont'
p494
sbag306
(g449
g308
Ntp495
Rp496
(dp497
g453
I01
sg332
S'c:/marmalade/7.4/modules/third_party/tiniconv'
p498
sbag306
(g449
g308
Ntp499
Rp500
(dp501
g453
I01
sg332
S'c:/marmalade/7.4/s3e'
p502
sbasS'macros'
p503
(dp504
S'IW_USE_CALLSTACK'
p505
NsS'IW_MKF_IWGEOM'
p506
NsS'I3D_PLATFORM_S3E'
p507
NsS'IW_MKF_IW2DSCENEGRAPHCORE'
p508
NsS'IW_MKF_LIBJPEG'
p509
NsS'I3D_OS_S3E'
p510
NsS'IW_MKF_PVRTEXTOOL'
p511
NsS'IW_MKF_TINICONV'
p512
NsS'IW_APP_VERSION'
p513
S'"1.0"'
p514
sS'__S3E__'
p515
NsS'IW_MKF_IWRESMANAGER'
p516
NsS'IW_MKF_IWUTIL'
p517
NsS'IW_PLATFORM_S3E'
p518
NsS'IW_ASSERTION_CHANNEL_2D'
p519
S'1'
p520
sS'IW_APP_NAME'
p521
S'"FinalYearProject"'
p522
sS'IW_MKF_IWGXFONT'
p523
NsS'IW_MKF_IWTWEEN'
p524
NsS'IW_MKF_ZLIB'
p525
NsS'IW_MKF_IWGX'
p526
NsS'IW_MKF_IW2DSCENEGRAPH'
p527
NsS'IW_MKF_SOUNDENGINE'
p528
NsS'IW_USE_ASSERTIONS'
p529
NsS'_CRT_SECURE_NO_DEPRECATE'
p530
NsS'IW_MKF_IWGL'
p531
NsS'IW_MKF_LIBPNG'
p532
NsS'IW_TRACE_CHANNEL_IW_2DSCENEGRAPH'
p533
g520
sS'IW_DEBUG'
p534
NsS'IW_USE_TRACING'
p535
NsS'IW_ASSERTION_CHANNEL_IW_2DSCENEGRAPH'
p536
g520
sS'IW_TRACE_CHANNEL_PVRTEXTOOL'
p537
g520
sS'IW_SDK'
p538
NsS'S3E_INCLUDE_LEGACY'
p539
NsS'IW_TRACE_CHANNEL_PVRTEXTOOL_VERBOSE'
p540
S'2'
p541
sS'IW_MKF_IW2D'
p542
NsS'IW_ASSERTION_CHANNEL_PVRTEXTOOL'
p543
g520
ssS'done_warnings'
p544
(dp545
sS'subprojects'
p546
(dp547
g173
S'zlib'
p548
sg171
S'libjpeg'
p549
sg174
S'iw2dscenegraphcore'
p550
sg184
S'SoundEngine'
p551
sg177
S'iwgx'
p552
sg179
S'iwgeom'
p553
sg170
S'iwutil'
p554
sg175
S'iw2dscenegraph'
p555
sg183
S'tiniconv'
p556
sg178
S'iwgl'
p557
sg176
S'iw2d'
p558
sg182
S'iwgxfont'
p559
sg180
S'iwresmanager'
p560
sg172
S'libpng'
p561
sg185
S'iwtween'
p562
sg181
S'PVRTexTool'
p563
ssS'deployments'
p564
(dp565
S'Default'
p566
g306
(cdeployment
Deployment
p567
g308
Ntp568
Rp569
(dp570
S'got_version'
p571
I0
sS'assets'
p572
g566
sS'mkb'
p573
g310
sS'target'
p574
Nsg339
(lp575
sS'options'
p576
(dp577
S'iphone-link-lib'
p578
(lp579
sS'game-icf'
p580
NsS'android-tm'
p581
NsS'winmobile-icon32'
p582
NsS'ws8-logo-image150x150'
p583
NsS'wp81-logo-image150x150'
p584
NsS'ws81-product-version'
p585
NsS'osx-ext-dll'
p586
(lp587
S'c:/marmalade/7.4/extensions/pvrtextool/lib/osx/libPVRTexTool.dylib'
p588
asS'iphone-provisioning-profile'
p589
NsS'ws8-splash-screen-image620x300'
p590
NsS'wp81-extra-pri'
p591
(lp592
sS'ws8-ext-capabilities'
p593
(lp594
sS'android-icon-hdpi'
p595
NsS'brew-icon-large'
p596
NsS'iphone-splash-full-orient'
p597
NsS'wp8-tile-fliptemplate-supports-large'
p598
NsS'iphone-show-status-bar'
p599
NsS'roku-requires-mkv'
p600
NsS'long-caption'
p601
NsS'android-pkgname'
p602
NsS'wp81-publisher-display-name'
p603
NsS'blackberry-permissions-read-device-identifying-information'
p604
NsS'ws81-certificate-end-date'
p605
NsS'psp-dlgcontentid'
p606
NsS'iphone-minimum-ios-version'
p607
NsS'target-folder'
p608
NsS'tizen-dist1-CA-path'
p609
NsS'symbian-icon2-format'
p610
NsS'tizen-author-key'
p611
NsS'firefoxos-icon-128X128'
p612
NsS'iphone-region'
p613
NsS'uiq3-icon3-mask'
p614
NsS'brew-encoding'
p615
NsS'android-x86'
p616
NsS'nds-initialcode'
p617
NsS'iphone-persistent-wifi'
p618
NsS'psp-snd0'
p619
NsS'roku-icon-focus-hd'
p620
NsS'winmobile-install-folder'
p621
NsS'android-external-res'
p622
(lp623
sS'ws8-product-version'
p624
NsS'brew-priviledges'
p625
NsS'iphone-icon-ipad-search'
p626
NsS'iphone-icon-ipad'
p627
NsS'roku-hidden'
p628
NsS'psp-titlename'
p629
NsS'wp81-product-version'
p630
NsS'symbian-icon1-mask'
p631
NsS'psp-parentallevel'
p632
NsS'splashscreen-use-all'
p633
NsS'wp8-author'
p634
NsS'symbian-disable-ecompxl'
p635
NsS'splashscreen-auto-onblack'
p636
NsS'win32-ext-dll'
p637
(lp638
S'c:/marmalade/7.4/extensions/pvrtextool/lib/win32/PVRTexTool.dll'
p639
asS'iphone-development-key'
p640
NsS'winmobile-icon48'
p641
NsS'android-unsigned'
p642
NsS'osx-appstore-category'
p643
NsS'version-revision'
p644
NsS'roku-icon-focus-sd'
p645
NsS'android-keystore'
p646
NsS'winmobile-png90'
p647
NsS'iphone-icon-ipad-high-res'
p648
NsS'iphone-disable-ipad'
p649
NsS'wp8-product-id'
p650
NsS'ws81-splash-screen-background'
p651
NsS'wp8-ext-capabilities'
p652
(lp653
sS'iphone-ipad-only'
p654
NsS'symbian-icon1-mask-black'
p655
NsS'iphone-nosign'
p656
NsS'iphone-bundle-localisations'
p657
NsS'winmobile-png60'
p658
NsS'blackberry-permissions-access-shared'
p659
NsS'blackberry-author'
p660
NsS'android-icon-xxxhdpi'
p661
NsS'olddeploytoolstyle'
p662
NsS'android_icon_gallery'
p663
NsS'wp81-splash-screen-background'
p664
NsS'winmobile-cab-compress'
p665
NsS'iphone-info-plist'
p666
NsS'ws81-ext-managed-dll'
p667
(lp668
sS'playbook-cskpass'
p669
NsS'ws8-distribution-pfx-password'
p670
NsS'symbian-key'
p671
NsS'app-icf'
p672
NsS'blackberry-storepass'
p673
NsS'wp8-tile-fliptemplate-back-title'
p674
NsS'brew-compress-loader'
p675
NsS'win32-pref-windowposy'
p676
NsS'win32-pref-windowposx'
p677
NsS'roku-requires-audiometadata'
p678
NsS'wp8-exclude-low-mem'
p679
NsS'iphone-icon-ipad-search-high-res'
p680
NsS'iphone-link-libdir'
p681
(lp682
sS'wp81-ext-capabilities'
p683
(lp684
sS'blackberry-permissions-read-geolocation'
p685
NsS'ws81-ext-device-capabilities'
p686
(lp687
sS'tizen-signed'
p688
NsS'android-extra-application-manifest'
p689
(lp690
sS'ws8-ext-native-dll'
p691
(lp692
sS'symbian-icon2-mask'
p693
NsS'iphone-backgroundmode-audio'
p694
NsS'webos-memory'
p695
NsS'android-keypass'
p696
NsS'name'
p697
NsS'uiq3-icon2-format'
p698
NsS'roku-splash-screen-sd'
p699
NsS'auto-derbh'
p700
NsS'roku-icon-side-sd'
p701
NsS'android-external-assets'
p702
(lp703
sS'nds-publicsavedatasize'
p704
NsS'splashscreen'
p705
NsS'brew-mif'
p706
NsS'iphone-icon-settings-high-res'
p707
NsS'android-manifest'
p708
NsS'ws81-splash-screen-image620x300'
p709
NsS'wp81-product-name'
p710
NsS's3e-compression'
p711
NsS'tizen-author-password'
p712
NsS'wp8-tile-fliptemplate-back-content'
p713
NsS'blackberry-extra-descriptor'
p714
(lp715
sS'symbian-icon1'
p716
NsS'symbian-icon2'
p717
NsS'android-extra-styles-file'
p718
NsS'wp81-publisher-id'
p719
NsS'nds-bannertitle-jp'
p720
NsS'wp81-logo-image44x44'
p721
NsS'osx-sign-for-store'
p722
NsS'symbian7-uid'
p723
NsS'wp8-tile-fliptemplate-large-back-content'
p724
NsS'wp81-phone-publisher-id'
p725
NsS'nds-bannertitle-cn'
p726
NsS'iphone-distribution-key'
p727
NsS'android-icon-gallery'
p728
NsS'blackberry-keystore'
p729
NsS'ws8-extra-res'
p730
(lp731
sS'caption'
p732
NsS'android-extra-manifest'
p733
(lp734
sS'wp81-ext-sdk-ref'
p735
(lp736
sS'android-icon-xxhdpi'
p737
NsS'version-minor'
p738
NsS'iphone-link-libdirs'
p739
(lp740
sS'iphone-icon-large'
p741
NsS'symbian-keypwd'
p742
NsS'symbian8-uid'
p743
NsS'symbian-cert-key'
p744
NsS'winmobile-ampd-part-number'
p745
NsS'arch'
p746
NsS'nds-romheadertemplate'
p747
NsS'webos-icon'
p748
NsS'wp81-ext-device-capabilities'
p749
(lp750
sS'psp-dlgprotectdocument'
p751
NsS'ws8-splash-screen-background'
p752
NsS'android-icon-mdpi'
p753
NsS'nds-icon'
p754
NsS'ws8-custom-manifest-fill'
p755
NsS'iphone-development-cert'
p756
NsS'blackberry-phone-icon'
p757
NsS'iphone-enable-4inch-retina'
p758
NsS'ws8-custom-manifest'
p759
NsS'version-major'
p760
NsS'wp8-genre-isgame'
p761
NsS'uiq3-uid'
p762
NsS'iphone-splash-retina-generate'
p763
NsS'tizen-hw-acceleration'
p764
NsS'iphone_bundle_localisations'
p765
NsS'tizen-dist1-key'
p766
NsS'wp81-custom-manifest-fill'
p767
NsS'wp8-custom-manifest'
p768
NsS'nds-bannertitle-ge'
p769
NsS'iphone-sign-for-distribution'
p770
NsS'wp8-tile-fliptemplate-medium-back-image'
p771
NsS'wp8-publisher-id'
p772
NsS'icon'
p773
NsS'wp8-exclude-wxga'
p774
NsS'wp81-identity-name'
p775
NsS'uiq3-icon2-mask'
p776
NsS'iphone-splashscreen-portrait'
p777
NsS'iphone-icon-high-res'
p778
NsS'ws81-distribution-pfx-password'
p779
NsS'playbook-author'
p780
NsS'android-icon-xhdpi'
p781
NsS'linux-ext-lib'
p782
(lp783
sS'blackberry-permissions-access-internet'
p784
NsS'wp8-exclude-720p'
p785
NsS'lgtv-use-drm'
p786
NsS'symbian-platsecflags'
p787
NsS'ws8-description'
p788
NsS'blackberry-playbook-icon'
p789
NsS'copyright'
p790
NsS'win32-gles-directory'
p791
NsS'version'
p792
NsS'ws81-logo-image150x150'
p793
NsS'osx-signing-identity-app'
p794
NsS'tizen-project-url'
p795
NsS'symbian-icon-svg'
p796
NsS'android-aliasname'
p797
NsS'psp-dlgmanual'
p798
NsS'brew-uid'
p799
NsS'symbian-locationsupport'
p800
NsS'wp81-logo-image50x50'
p801
NsS'ws8-ext-managed-dll'
p802
(lp803
sS'nds-bannertitle-it'
p804
NsS'ws81-custom-manifest-fill'
p805
NsS'ws8-ext-sdk-manifest-part'
p806
(lp807
sS'uiq3-icon1-mask'
p808
NsS'winmobile-icon16'
p809
NsS'ws8-product-name'
p810
NsS'blackberry-cskpass'
p811
NsS'winmobile-start-menu-folder'
p812
NsS'brew-clsid'
p813
NsS'roku-requires-bluetooth'
p814
NsS'ws8-ext-device-capabilities'
p815
(lp816
sS'blackberry-permissions-use-camera'
p817
NsS'ws81-extra-pri'
p818
(lp819
sS'iphone-prerendered-icon'
p820
NsS'iphone-appid'
p821
NsS'ws8-identity-name'
p822
NsS'tizen-dist2-CA-path'
p823
NsS'android-external-jars'
p824
(lp825
sS'winmobile-icon64'
p826
NsS'blackberry-permissions-post-notification'
p827
NsS'winmobile-setup-dll'
p828
NsS'firefoxos-manifest'
p829
NsS'win8-winrt-extra-res'
p830
(lp831
sS'wp81-ext-sdk-manifest-part'
p832
(lp833
sS'symbian9-uid'
p834
NsS'iphone-icon-ipad-ios7'
p835
NsS'winmobile-trace-file'
p836
NsS'roku-splash-color'
p837
NsS'psp-appversion'
p838
NsS'ws8-publisher-id'
p839
NsS'android-supports-gl-texture'
p840
(lp841
sS'winmobile-png45'
p842
NsS'wp81-extra-res'
p843
(lp844
sS'android-storepass'
p845
NsS'osx-signing-identity-inst'
p846
NsS'android-custom-activity'
p847
NsS'psp-discversion'
p848
NsS'wp81-ext-managed-dll'
p849
(lp850
sS'psp-copyright'
p851
NsS'embed-icf'
p852
NsS'tizen-manifest'
p853
NsS'osx-icon'
p854
NsS'webos-appinfo'
p855
NsS'psp-dlghealthwarning'
p856
NsS'webos-appid'
p857
NsS'roku-icon-side-hd'
p858
NsS'iphone-icon-ipad-search-high-res-ios7'
p859
NsS'ws81-ext-sdk-manifest-part'
p860
(lp861
sS'loader_name_prefix'
p862
NsS'nds-titlename'
p863
NsS'ws81-logo-image50x50'
p864
NsS'wp81-custom-manifest'
p865
NsS'osx-entitlements-plist'
p866
NsS'psp-dlgicon0'
p867
NsS'winmobile-nouninstall'
p868
NsS'psp-discid'
p869
NsS'tizen-dist2-password'
p870
NsS'ws8-ext-sdk-ref'
p871
(lp872
sS'iphone-extra-string'
p873
(lp874
sS'version-string'
p875
NsS'iphone-icon-high-res-ios7'
p876
NsS'blackberry-permissions-record-audio'
p877
NsS'ws8-certificate-end-date'
p878
NsS'tizen-so'
p879
(lp880
sS'wp8-tile-fliptemplate-small-image'
p881
NsS'playbook-authorid'
p882
NsS'iphone-signing-identity'
p883
NsS'roku-persist-quota'
p884
NsS'nds-bannertitle-fr'
p885
NsS'ws8-distribution-pfx'
p886
NsS'ws8-publisher-display-name'
p887
NsS'brew-icon-small'
p888
NsS'psp-dlgpic2'
p889
NsS'psp-dlgpic0'
p890
NsS'psp-pic0'
p891
NsS'psp-pic1'
p892
NsS'win32-pref-windowtitle'
p893
NsS'psp-icon0'
p894
NsS'psp-icon1'
p895
NsS'ws81-identity-name'
p896
NsS'winmobile-icon'
p897
NsS'iphone-no-splash'
p898
NsS'iphone-splash'
p899
NsS'iphone-app-fonts'
p900
NsS'wp8-ext-native-dll'
p901
(lp902
sS'wp81-splash-screen-image480x800'
p903
NsS'ws81-distribution-cer'
p904
NsS'uiq3-icon2'
p905
NsS'uiq3-icon3'
p906
NsS'uiq3-icon1'
p907
NsS'uiq3-icon1-format'
p908
NsS'ws8-logo-image50x50'
p909
NsS'symbian-icon2-mask-black'
p910
NsS'symbian-run-on-install'
p911
NsS'wp81-description'
p912
NsS'ws81-publisher-display-name'
p913
NsS'firefoxos-xulrunner'
p914
NsS'symbian-soundrecordsupport'
p915
NsS'nds-bannertitle-sp'
p916
NsS'psp-producer'
p917
NsS'iphone-apple-wwdr-cert'
p918
NsS'android-icon-nonstandard'
p919
NsS'win32-pref-processtitle'
p920
NsS'nds-bannertitle-hn'
p921
NsS'tizen-dist2-key'
p922
NsS'brew-depends'
p923
NsS'ws81-custom-manifest'
p924
NsS'iphone-icon-ipad-search-ios7'
p925
NsS'brew-icon-medium'
p926
NsS'iphone-bundle-url-name'
p927
NsS'wp8-tile-fliptemplate-large-front-image'
p928
NsS'tizen-dist2-CA-root-path'
p929
NsS'ws81-description'
p930
NsS'uiq3-icon3-format'
p931
NsS'ws81-logo-image30x30'
p932
NsS'win8-phone-extra-res'
p933
(lp934
sS'iphone-signing-host'
p935
NsS'tizen-icon'
p936
NsS'osx-info-plist'
p937
NsS'symbian-icon1-format'
p938
NsS'win8-store-extra-res'
p939
(lp940
sS'blackberry-authorid'
p941
NsS'ws81-publisher-id'
p942
NsS'ws81-distribution-pfx'
p943
NsS'wp8-description'
p944
NsS'iphone-link-opts'
p945
(lp946
sS'ws81-ext-sdk-ref'
p947
(lp948
sS'roku-splash-min-time'
p949
NsS'wp8-tile-fliptemplate-medium-front-image'
p950
NsS'provider'
p951
NsS'playbook-keystore'
p952
NsS'tizen-appid'
p953
NsS'wp8-extra-res'
p954
(lp955
sS'symbian-osexecsupport'
p956
NsS'android-install-location'
p957
NsS'nds-privatesavedatasize'
p958
NsS'playbook-storepass'
p959
NsS'android-icon-ldpi'
p960
NsS'manufacturer'
p961
NsS'itunes-artwork'
p962
NsS'iphone-extra-sections'
p963
NsS'ws81-product-name'
p964
NsS'ws81-ext-native-dll'
p965
(lp966
sS'ws8-extra-pri'
p967
(lp968
sS'win32-icon'
p969
NsS'ws8-logo-image30x30'
p970
NsS'wp8-ext-managed-dll'
p971
(lp972
sS'iphone-splashscreen-landscape'
p973
NsS'symbian-maxheapsize'
p974
NsS'nds-makercode'
p975
NsS'priv-sign-key'
p976
NsS'networking'
p977
NsS'android-icon'
p978
NsS'iphone-icon-settings'
p979
NsS'wp81-phone-product-id'
p980
NsS'firefoxos-icon-60X60'
p981
NsS'iphone-distribution-cert'
p982
NsS'android_extra_strings'
p983
NsS'nds-bannertitle-en'
p984
NsS'wp8-tile-fliptemplate-title'
p985
NsS'android-so'
p986
(lp987
sS'wp8-higher-mem'
p988
NsS'wp8-ext-sdk-ref'
p989
(lp990
sS'roku-splash-screen-hd'
p991
NsS'iphone-bundle-url-schemes'
p992
NsS'roku-screensaver-private'
p993
NsS'osx-extra-res'
p994
(lp995
sS'ws81-extra-res'
p996
(lp997
sS'playbook-icon'
p998
NsS'uid'
p999
NsS'pkguid-as-uid'
p1000
NsS'wp81-ext-native-dll'
p1001
(lp1002
sS'tizen-dist1-password'
p1003
NsS'roku-screensaver-title'
p1004
NsS'osx-minimum-osx-version'
p1005
NsS'symbian-cert'
p1006
NsS'iphone-icon'
p1007
NsS'ws81-ext-capabilities'
p1008
(lp1009
sS'ws8-distribution-cer'
p1010
NsS'playbook-access-shared'
p1011
NsS'iphone-icon-ipad-high-res-ios7'
p1012
NsS'iphone-link-libs'
p1013
(lp1014
sS'wp8-exclude-wvga'
p1015
NsS'assets'
p1016
NsS'wp8-tile-fliptemplate-large-back-image'
p1017
NsS'wp8-custom-manifest-fill'
p1018
NsS'pub-sign-key'
p1019
NsS'android-extra-strings'
p1020
NsS'tizen-author-CA-path'
p1021
Nssg332
g566
sbssS'platform'
p1022
S'S3E'
p1023
sg63
S'1.0'
p1024
sS'arcade_platform'
p1025
g4
sS'extensions'
p1026
(dp1027
sS'source_groups_tree'
p1028
(dp1029
S'(libpng)'
p1030
(dp1031
S'h'
p1032
(dp1033
S'c:/marmalade/7.4/modules/third_party/libpng/h/png.h'
p1034
(lp1035
I1
a(dp1036
asS'c:/marmalade/7.4/modules/third_party/libpng/h/pngconf.h'
p1037
(lp1038
I1
ag1036
assS'c:/marmalade/7.4/modules/third_party/libpng/libpng.mkf'
p1039
(lp1040
I1
a(dp1041
assS'(libjpeg)'
p1042
(dp1043
g1032
(dp1044
S'c:/marmalade/7.4/modules/third_party/libjpeg/h/jerror.h'
p1045
(lp1046
I1
a(dp1047
asS'c:/marmalade/7.4/modules/third_party/libjpeg/h/jmemsys.h'
p1048
(lp1049
I1
ag1047
asS'c:/marmalade/7.4/modules/third_party/libjpeg/h/jchuff.h'
p1050
(lp1051
I1
ag1047
asS'c:/marmalade/7.4/modules/third_party/libjpeg/h/jpeglib.h'
p1052
(lp1053
I1
ag1047
asS'c:/marmalade/7.4/modules/third_party/libjpeg/h/cdjpeg.h'
p1054
(lp1055
I1
ag1047
asS'c:/marmalade/7.4/modules/third_party/libjpeg/h/jinclude.h'
p1056
(lp1057
I1
ag1047
asS'c:/marmalade/7.4/modules/third_party/libjpeg/h/jconfig.h'
p1058
(lp1059
I1
ag1047
asS'c:/marmalade/7.4/modules/third_party/libjpeg/h/cderror.h'
p1060
(lp1061
I1
ag1047
asS'c:/marmalade/7.4/modules/third_party/libjpeg/h/jdct.h'
p1062
(lp1063
I1
ag1047
asS'c:/marmalade/7.4/modules/third_party/libjpeg/h/jversion.h'
p1064
(lp1065
I1
ag1047
asS'c:/marmalade/7.4/modules/third_party/libjpeg/h/transupp.h'
p1066
(lp1067
I1
ag1047
asS'c:/marmalade/7.4/modules/third_party/libjpeg/h/jdhuff.h'
p1068
(lp1069
I1
ag1047
asS'c:/marmalade/7.4/modules/third_party/libjpeg/h/jpegint.h'
p1070
(lp1071
I1
ag1047
asS'c:/marmalade/7.4/modules/third_party/libjpeg/h/jmorecfg.h'
p1072
(lp1073
I1
ag1047
assS'c:/marmalade/7.4/modules/third_party/libjpeg/libjpeg.mkf'
p1074
(lp1075
I1
a(dp1076
assS'(tiniconv)'
p1077
(dp1078
S'c:/marmalade/7.4/modules/third_party/tiniconv/source/tiniconv_int.h'
p1079
(lp1080
I1
a(dp1081
asS'c:/marmalade/7.4/modules/third_party/tiniconv/tiniconv.mkf'
p1082
(lp1083
I1
a(dp1084
asS'c:/marmalade/7.4/modules/third_party/tiniconv/source/tiniconv.h'
p1085
(lp1086
I1
ag1081
assS'(SoundEngine)'
p1087
(dp1088
S'c:/users/lab422/desktop/fyp/learning resources/sprint 3 minimal example/finalyearproject/soundengine/source/IwSoundWAV.cpp'
p1089
(lp1090
I1
a(dp1091
asS'c:/users/lab422/desktop/fyp/learning resources/sprint 3 minimal example/finalyearproject/soundengine/source/IwSoundPCM.cpp'
p1092
(lp1093
I1
ag1091
asS'c:/users/lab422/desktop/fyp/learning resources/sprint 3 minimal example/finalyearproject/soundengine/h/IwSoundParams.h'
p1094
(lp1095
I1
ag1091
asS'c:/users/lab422/desktop/fyp/learning resources/sprint 3 minimal example/finalyearproject/soundengine/h/IwResHandlerWAV.h'
p1096
(lp1097
I1
ag1091
asS'c:/users/lab422/desktop/fyp/learning resources/sprint 3 minimal example/finalyearproject/soundengine/h/IwSoundManager.h'
p1098
(lp1099
I1
ag1091
asS'c:/users/lab422/desktop/fyp/learning resources/sprint 3 minimal example/finalyearproject/soundengine/h/IwSoundGroup.h'
p1100
(lp1101
I1
ag1091
asS'c:/users/lab422/desktop/fyp/learning resources/sprint 3 minimal example/finalyearproject/soundengine/source/IwSoundManager.cpp'
p1102
(lp1103
I1
ag1091
asS'c:/users/lab422/desktop/fyp/learning resources/sprint 3 minimal example/finalyearproject/soundengine/source/IwSoundInst.cpp'
p1104
(lp1105
I1
ag1091
asS'c:/users/lab422/desktop/fyp/learning resources/sprint 3 minimal example/finalyearproject/soundengine/h/IwSound.h'
p1106
(lp1107
I1
ag1091
asS'c:/users/lab422/desktop/fyp/learning resources/sprint 3 minimal example/finalyearproject/soundengine/h/IwSoundSpec.h'
p1108
(lp1109
I1
ag1091
asS'c:/users/lab422/desktop/fyp/learning resources/sprint 3 minimal example/finalyearproject/soundengine/h/IwSoundWAV.h'
p1110
(lp1111
I1
ag1091
asS'c:/users/lab422/desktop/fyp/learning resources/sprint 3 minimal example/finalyearproject/soundengine/h/IwSoundADPCM.h'
p1112
(lp1113
I1
ag1091
asS'c:/users/lab422/desktop/fyp/learning resources/sprint 3 minimal example/finalyearproject/soundengine/source/IwSoundParams.cpp'
p1114
(lp1115
I1
ag1091
asS'c:/users/lab422/desktop/fyp/learning resources/sprint 3 minimal example/finalyearproject/soundengine/soundengine.mkf'
p1116
(lp1117
I1
a(dp1118
asS'c:/users/lab422/desktop/fyp/learning resources/sprint 3 minimal example/finalyearproject/soundengine/h/IwSoundPCM.h'
p1119
(lp1120
I1
ag1091
asS'c:/users/lab422/desktop/fyp/learning resources/sprint 3 minimal example/finalyearproject/soundengine/h/IwSoundData.h'
p1121
(lp1122
I1
ag1091
asS'c:/users/lab422/desktop/fyp/learning resources/sprint 3 minimal example/finalyearproject/soundengine/source/IwSoundSpec.cpp'
p1123
(lp1124
I1
ag1091
asS'c:/users/lab422/desktop/fyp/learning resources/sprint 3 minimal example/finalyearproject/soundengine/source/IwSoundData.cpp'
p1125
(lp1126
I1
ag1091
asS'c:/users/lab422/desktop/fyp/learning resources/sprint 3 minimal example/finalyearproject/soundengine/h/IwSoundInst.h'
p1127
(lp1128
I1
ag1091
asS'c:/users/lab422/desktop/fyp/learning resources/sprint 3 minimal example/finalyearproject/soundengine/source/IwResHandlerWAV.cpp'
p1129
(lp1130
I1
ag1091
asS'c:/users/lab422/desktop/fyp/learning resources/sprint 3 minimal example/finalyearproject/soundengine/source/IwSoundGroup.cpp'
p1131
(lp1132
I1
ag1091
asS'Docs'
p1133
(dp1134
S'c:/users/lab422/desktop/fyp/learning resources/sprint 3 minimal example/finalyearproject/soundengine/docs/iwsound.config.txt'
p1135
(lp1136
I1
ag1091
assS'c:/users/lab422/desktop/fyp/learning resources/sprint 3 minimal example/finalyearproject/soundengine/source/IwSoundADPCM.cpp'
p1137
(lp1138
I1
ag1091
assS'source'
p1139
(dp1140
S'c:/Users/lab422/Desktop/FYP/Learning Resources/Sprint 3 Minimal Example/FinalYearProject/source/Game.cpp'
p1141
(lp1142
I1
a(dp1143
asS'c:/Users/lab422/Desktop/FYP/Learning Resources/Sprint 3 Minimal Example/FinalYearProject/source/resources.h'
p1144
(lp1145
I1
ag1143
asS'c:/Users/lab422/Desktop/FYP/Learning Resources/Sprint 3 Minimal Example/FinalYearProject/source/audio.h'
p1146
(lp1147
I1
ag1143
asS'c:/Users/lab422/Desktop/FYP/Learning Resources/Sprint 3 Minimal Example/FinalYearProject/source/audio.cpp'
p1148
(lp1149
I1
ag1143
asS'c:/Users/lab422/Desktop/FYP/Learning Resources/Sprint 3 Minimal Example/FinalYearProject/source/resources.cpp'
p1150
(lp1151
I1
ag1143
asS'c:/Users/lab422/Desktop/FYP/Learning Resources/Sprint 3 Minimal Example/FinalYearProject/source/scene.cpp'
p1152
(lp1153
I1
ag1143
asS'c:/Users/lab422/Desktop/FYP/Learning Resources/Sprint 3 Minimal Example/FinalYearProject/source/FinalYearProject.cpp'
p1154
(lp1155
I1
ag1143
asS'c:/Users/lab422/Desktop/FYP/Learning Resources/Sprint 3 Minimal Example/FinalYearProject/source/scene.h'
p1156
(lp1157
I1
ag1143
asS'c:/Users/lab422/Desktop/FYP/Learning Resources/Sprint 3 Minimal Example/FinalYearProject/source/Game.h'
p1158
(lp1159
I1
ag1143
assS'Extensions'
p1160
(dp1161
S'PVRTexTool'
p1162
(dp1163
S'interface'
p1164
(dp1165
S'c:/marmalade/7.4/extensions/pvrtextool/interface/PVRTexTool_interface.cpp'
p1166
(lp1167
I1
a(dp1168
asS'c:/marmalade/7.4/extensions/pvrtextool/interface/PVRTexTool.defines.txt'
p1169
(lp1170
I1
ag1168
assS'c:/marmalade/7.4/extensions/pvrtextool/pvrtextool.mkf'
p1171
(lp1172
I1
a(dp1173
asS'c:/marmalade/7.4/extensions/pvrtextool/h/PVRTexTool.h'
p1174
(lp1175
I1
ag1168
asssS"'Marmalade Studio'"
p1176
(dp1177
S'iw2dscenegraph'
p1178
(dp1179
S'c:/marmalade/7.4/modules/iw2dscenegraph/docs/iw2dscenegraph.defines.txt'
p1180
(lp1181
I1
a(dp1182
asS'c:/marmalade/7.4/modules/iw2dscenegraph/source/Iw2DSceneGraph.cpp'
p1183
(lp1184
I1
ag1182
asS'c:/marmalade/7.4/modules/iw2dscenegraph/iw2dscenegraph.mkf'
p1185
(lp1186
I1
a(dp1187
asS'c:/marmalade/7.4/modules/iw2dscenegraph/h/Iw2DSceneGraph.h'
p1188
(lp1189
I1
ag1182
assS'iwgl'
p1190
(dp1191
S'c:/marmalade/7.4/modules/iwgl/iwgl.mkf'
p1192
(lp1193
I1
a(dp1194
asS'c:/marmalade/7.4/modules/iwgl/docs/iwgl.config.txt'
p1195
(lp1196
I1
a(dp1197
asS'c:/marmalade/7.4/modules/iwgl/h/IwGL.h'
p1198
(lp1199
I1
ag1197
asS'c:/marmalade/7.4/modules/iwgl/h/IwGLExt.h'
p1200
(lp1201
I1
ag1197
assS'iw2d'
p1202
(dp1203
S'c:/marmalade/7.4/modules/iw2d/docs/iw2d.config.txt'
p1204
(lp1205
I1
a(dp1206
asS'c:/marmalade/7.4/modules/iw2d/iw2d.mkf'
p1207
(lp1208
I1
a(dp1209
asS'c:/marmalade/7.4/modules/iw2d/h/Iw2D.h'
p1210
(lp1211
I1
ag1206
asS'c:/marmalade/7.4/modules/iw2d/docs/iw2d_public.defines.txt'
p1212
(lp1213
I1
ag1206
assS'iwgxfont'
p1214
(dp1215
S'c:/marmalade/7.4/modules/iwgxfont/docs/iwgxfont_public.defines.txt'
p1216
(lp1217
I1
a(dp1218
asS'c:/marmalade/7.4/modules/iwgxfont/h/IwGxFontGlyph.h'
p1219
(lp1220
I1
ag1218
asS'c:/marmalade/7.4/modules/iwgxfont/docs/iwgxfont.config.txt'
p1221
(lp1222
I1
ag1218
asS'c:/marmalade/7.4/modules/iwgxfont/h/IwGxFont.h'
p1223
(lp1224
I1
ag1218
asS'c:/marmalade/7.4/modules/iwgxfont/h/IwGxFontTypes.h'
p1225
(lp1226
I1
ag1218
asS'c:/marmalade/7.4/modules/iwgxfont/h/IwGxFontPreparedData.h'
p1227
(lp1228
I1
ag1218
asS'c:/marmalade/7.4/modules/iwgxfont/h/IwGxFontState.h'
p1229
(lp1230
I1
ag1218
asS'c:/marmalade/7.4/modules/iwgxfont/h/IwGxFontContainer.h'
p1231
(lp1232
I1
ag1218
asS'c:/marmalade/7.4/modules/iwgxfont/iwgxfont.mkf'
p1233
(lp1234
I1
a(dp1235
assS'iwgeom'
p1236
(dp1237
S'c:/marmalade/7.4/modules/iwgeom/docs/iwgeom.config.txt'
p1238
(lp1239
I1
a(dp1240
asS'c:/marmalade/7.4/modules/iwgeom/h/IwGeomFIntersect.h'
p1241
(lp1242
I1
ag1240
asS'c:/marmalade/7.4/modules/iwgeom/h/IwGeomMat2D.h.tpl'
p1243
(lp1244
I1
ag1240
asS'c:/marmalade/7.4/modules/iwgeom/iwgeom.mkf'
p1245
(lp1246
I1
a(dp1247
asS'c:/marmalade/7.4/modules/iwgeom/h/IwGeomVec.h.tpl'
p1248
(lp1249
I1
ag1240
asS'c:/marmalade/7.4/modules/iwgeom/h/IwGeomFSphere.h'
p1250
(lp1251
I1
ag1240
asS'c:/marmalade/7.4/modules/iwgeom/h/IwGeomFQuat.h'
p1252
(lp1253
I1
ag1240
asS'c:/marmalade/7.4/modules/iwgeom/h/IwGeomMenu.h'
p1254
(lp1255
I1
ag1240
asS'c:/marmalade/7.4/modules/iwgeom/h/IwGeomFMat2D.h'
p1256
(lp1257
I1
ag1240
asS'c:/marmalade/7.4/modules/iwgeom/h/IwGeomFVec4.h'
p1258
(lp1259
I1
ag1240
asS'c:/marmalade/7.4/modules/iwgeom/h/IwGeomQuat.h'
p1260
(lp1261
I1
ag1240
asS'c:/marmalade/7.4/modules/iwgeom/h/IwGeomFBBox.h'
p1262
(lp1263
I1
ag1240
asS'c:/marmalade/7.4/modules/iwgeom/h/IwGeomSVec4.h'
p1264
(lp1265
I1
ag1240
asS'c:/marmalade/7.4/modules/iwgeom/h/IwGeomFVec2.h'
p1266
(lp1267
I1
ag1240
asS'c:/marmalade/7.4/modules/iwgeom/h/IwGeomVec.h'
p1268
(lp1269
I1
ag1240
asS'c:/marmalade/7.4/modules/iwgeom/h/IwGeomPlane.h'
p1270
(lp1271
I1
ag1240
asS'c:/marmalade/7.4/modules/iwgeom/h/IwGeomQuat.h.tpl'
p1272
(lp1273
I1
ag1240
asS'c:/marmalade/7.4/modules/iwgeom/h/IwGeomSVec3.h'
p1274
(lp1275
I1
ag1240
asS'c:/marmalade/7.4/modules/iwgeom/h/IwGeomMat.h'
p1276
(lp1277
I1
ag1240
asS'c:/marmalade/7.4/modules/iwgeom/h/IwGeomVec3.h'
p1278
(lp1279
I1
ag1240
asS'c:/marmalade/7.4/modules/iwgeom/h/IwGeomVec2.h'
p1280
(lp1281
I1
ag1240
asS'c:/marmalade/7.4/modules/iwgeom/h/IwGeomLegacy.h'
p1282
(lp1283
I1
ag1240
asS'c:/marmalade/7.4/modules/iwgeom/h/IwGeomSQuat.h'
p1284
(lp1285
I1
ag1240
asS'c:/marmalade/7.4/modules/iwgeom/h/IwGeomCore.h'
p1286
(lp1287
I1
ag1240
asS'c:/marmalade/7.4/modules/iwgeom/h/IwGeomVec4.h'
p1288
(lp1289
I1
ag1240
asS'c:/marmalade/7.4/modules/iwgeom/h/IwGeomBBox.h'
p1290
(lp1291
I1
ag1240
asS'c:/marmalade/7.4/modules/iwgeom/h/IwGeomIntersect.h'
p1292
(lp1293
I1
ag1240
asS'c:/marmalade/7.4/modules/iwgeom/h/IwGeomSVec2.h'
p1294
(lp1295
I1
ag1240
asS'c:/marmalade/7.4/modules/iwgeom/h/IwGeomMat2D.h'
p1296
(lp1297
I1
ag1240
asS'c:/marmalade/7.4/modules/iwgeom/h/IwGeomSphere.h'
p1298
(lp1299
I1
ag1240
asS'c:/marmalade/7.4/modules/iwgeom/h/IwGeomFVec3.h'
p1300
(lp1301
I1
ag1240
asS'c:/marmalade/7.4/modules/iwgeom/h/IwGeom.h'
p1302
(lp1303
I1
ag1240
asS'c:/marmalade/7.4/modules/iwgeom/h/IwGeomMat.h.tpl'
p1304
(lp1305
I1
ag1240
asS'c:/marmalade/7.4/modules/iwgeom/h/IwGeomFPlane.h'
p1306
(lp1307
I1
ag1240
asS'c:/marmalade/7.4/modules/iwgeom/h/IwGeomFMat.h'
p1308
(lp1309
I1
ag1240
asS'c:/marmalade/7.4/modules/iwgeom/h/IwGeomSqrt.h'
p1310
(lp1311
I1
ag1240
assS'iwresmanager'
p1312
(dp1313
S'c:/marmalade/7.4/modules/iwresmanager/h/IwResGroup.h'
p1314
(lp1315
I1
a(dp1316
asS'c:/marmalade/7.4/modules/iwresmanager/h/IwResManager.h'
p1317
(lp1318
I1
ag1316
asS'c:/marmalade/7.4/modules/iwresmanager/h/IwResHandlerITX.h'
p1319
(lp1320
I1
ag1316
asS'c:/marmalade/7.4/modules/iwresmanager/h/IwResSerialise.h'
p1321
(lp1322
I1
ag1316
asS'c:/marmalade/7.4/modules/iwresmanager/h/IwResHandlerGROUP.h'
p1323
(lp1324
I1
ag1316
asS'c:/marmalade/7.4/modules/iwresmanager/iwresmanager.mkf'
p1325
(lp1326
I1
a(dp1327
asS'c:/marmalade/7.4/modules/iwresmanager/h/IwResHandlerImage.h'
p1328
(lp1329
I1
ag1316
asS'c:/marmalade/7.4/modules/iwresmanager/h/IwResHandler.h'
p1330
(lp1331
I1
ag1316
asS'c:/marmalade/7.4/modules/iwresmanager/docs/iwresmanager.config.txt'
p1332
(lp1333
I1
ag1316
asS'c:/marmalade/7.4/modules/iwresmanager/h/IwResManagerClass.h'
p1334
(lp1335
I1
ag1316
assS'iwgx'
p1336
(dp1337
S'c:/marmalade/7.4/modules/iwgx/h/IwDebugPrim.h'
p1338
(lp1339
I1
a(dp1340
asS'c:/marmalade/7.4/modules/iwgx/h/IwGxFuncTable.h'
p1341
(lp1342
I1
ag1340
asS'c:/marmalade/7.4/modules/iwgx/h/IwClip.inl'
p1343
(lp1344
I1
ag1340
asS'c:/marmalade/7.4/modules/iwgx/h/IwGxPrint.h'
p1345
(lp1346
I1
ag1340
asS'c:/marmalade/7.4/modules/iwgx/h/IwGx.h'
p1347
(lp1348
I1
ag1340
asS'c:/marmalade/7.4/modules/iwgx/h/IwTexture.h'
p1349
(lp1350
I1
ag1340
asS'c:/marmalade/7.4/modules/iwgx/h/IwFColour.h'
p1351
(lp1352
I1
ag1340
asS'c:/marmalade/7.4/modules/iwgx/h/IwColour.h'
p1353
(lp1354
I1
ag1340
asS'c:/marmalade/7.4/modules/iwgx/h/IwGxState.h'
p1355
(lp1356
I1
ag1340
asS'c:/marmalade/7.4/modules/iwgx/h/IwClip.h'
p1357
(lp1358
I1
ag1340
asS'c:/marmalade/7.4/modules/iwgx/h/IwTPage.h'
p1359
(lp1360
I1
ag1340
asS'c:/marmalade/7.4/modules/iwgx/h/IwMaterial.h'
p1361
(lp1362
I1
ag1340
asS'c:/marmalade/7.4/modules/iwgx/h/IwGxDebug.h'
p1363
(lp1364
I1
ag1340
asS'c:/marmalade/7.4/modules/iwgx/h/IwMatAnim.h'
p1365
(lp1366
I1
ag1340
asS'c:/marmalade/7.4/modules/iwgx/h/IwGxStream.h'
p1367
(lp1368
I1
ag1340
asS'c:/marmalade/7.4/modules/iwgx/h/IwResHandlerMTL.h'
p1369
(lp1370
I1
ag1340
asS'c:/marmalade/7.4/modules/iwgx/h/IwGxMetrics.h'
p1371
(lp1372
I1
ag1340
asS'c:/marmalade/7.4/modules/iwgx/h/IwGxError.h'
p1373
(lp1374
I1
ag1340
asS'c:/marmalade/7.4/modules/iwgx/docs/iwgx.config.txt'
p1375
(lp1376
I1
ag1340
asS'c:/marmalade/7.4/modules/iwgx/h/IwGxTransformSW.h'
p1377
(lp1378
I1
ag1340
asS'c:/marmalade/7.4/modules/iwgx/iwgx.mkf'
p1379
(lp1380
I1
a(dp1381
asS'c:/marmalade/7.4/modules/iwgx/docs/iwgx_public.defines.txt'
p1382
(lp1383
I1
ag1340
asS'c:/marmalade/7.4/modules/iwgx/h/IwGxShaderTechnique.h'
p1384
(lp1385
I1
ag1340
asS'c:/marmalade/7.4/modules/iwgx/h/IwGxTypes.h'
p1386
(lp1387
I1
ag1340
asS'c:/marmalade/7.4/modules/iwgx/h/IwGxSurface.h'
p1388
(lp1389
I1
ag1340
assS'iw2dscenegraphcore'
p1390
(dp1391
S'c:/marmalade/7.4/modules/iw2dscenegraphcore/iw2dscenegraphcore.mkf'
p1392
(lp1393
I1
a(dp1394
asS'c:/marmalade/7.4/modules/iw2dscenegraphcore/source/Iw2DSceneGraphCore.cpp'
p1395
(lp1396
I1
a(dp1397
asS'c:/marmalade/7.4/modules/iw2dscenegraphcore/h/Iw2DSceneGraphCore.h'
p1398
(lp1399
I1
ag1397
assS'iwutil'
p1400
(dp1401
S'c:/marmalade/7.4/modules/iwutil/h/IwTextParser.h'
p1402
(lp1403
I1
a(dp1404
asS'c:/marmalade/7.4/modules/iwutil/h/IwMenu.h'
p1405
(lp1406
I1
ag1404
asS'c:/marmalade/7.4/modules/iwutil/h/IwUtilInitTerm.h'
p1407
(lp1408
I1
ag1404
asS'c:/marmalade/7.4/modules/iwutil/h/IwCopyingPtr.h'
p1409
(lp1410
I1
ag1404
asS'c:/marmalade/7.4/modules/iwutil/h/IwDebug.h'
p1411
(lp1412
I1
ag1404
asS'c:/marmalade/7.4/modules/iwutil/h/IwVariableBitField.h'
p1413
(lp1414
I1
ag1404
asS'c:/marmalade/7.4/modules/iwutil/h/IwBuffer.h'
p1415
(lp1416
I1
ag1404
asS'c:/marmalade/7.4/modules/iwutil/h/IwRandom.h'
p1417
(lp1418
I1
ag1404
asS'c:/marmalade/7.4/modules/iwutil/h/IwKeymap.h'
p1419
(lp1420
I1
ag1404
asS'c:/marmalade/7.4/modules/iwutil/h/IwResource.h'
p1421
(lp1422
I1
ag1404
asS'c:/marmalade/7.4/modules/iwutil/h/IwCore.h'
p1423
(lp1424
I1
ag1404
asS'c:/marmalade/7.4/modules/iwutil/h/IwTextParserITX.h'
p1425
(lp1426
I1
ag1404
asS'c:/marmalade/7.4/modules/iwutil/h/IwManaged.h'
p1427
(lp1428
I1
ag1404
asS'c:/marmalade/7.4/modules/iwutil/h/IwHashString.h'
p1429
(lp1430
I1
ag1404
asS'c:/marmalade/7.4/modules/iwutil/h/IwProfileMenu.h'
p1431
(lp1432
I1
ag1404
asS'c:/marmalade/7.4/modules/iwutil/h/IwManagedList.h'
p1433
(lp1434
I1
ag1404
asS'c:/marmalade/7.4/modules/iwutil/h/IwList.h'
p1435
(lp1436
I1
ag1404
asS'c:/marmalade/7.4/modules/iwutil/h/IwSerialise.h'
p1437
(lp1438
I1
ag1404
asS'c:/marmalade/7.4/modules/iwutil/h/IwClassFactory.h'
p1439
(lp1440
I1
ag1404
asS'c:/marmalade/7.4/modules/iwutil/h/IwTypes.h'
p1441
(lp1442
I1
ag1404
asS'c:/marmalade/7.4/modules/iwutil/h/IwAllocator.h'
p1443
(lp1444
I1
ag1404
asS'c:/marmalade/7.4/modules/iwutil/h/IwMemory.h'
p1445
(lp1446
I1
ag1404
asS'c:/marmalade/7.4/modules/iwutil/h/IwTextParseable.h'
p1447
(lp1448
I1
ag1404
asS'c:/marmalade/7.4/modules/iwutil/h/IwFile.h'
p1449
(lp1450
I1
ag1404
asS'c:/marmalade/7.4/modules/iwutil/h/IwRuntime.h'
p1451
(lp1452
I1
ag1404
asS'c:/marmalade/7.4/modules/iwutil/h/IwMemBucketHelpers.h'
p1453
(lp1454
I1
ag1404
asS'c:/marmalade/7.4/modules/iwutil/h/IwUncopyable.h'
p1455
(lp1456
I1
ag1404
asS'c:/marmalade/7.4/modules/iwutil/h/IwChar.h'
p1457
(lp1458
I1
ag1404
asS'c:/marmalade/7.4/modules/iwutil/h/IwOptimiseARM.h'
p1459
(lp1460
I1
ag1404
asS'c:/marmalade/7.4/modules/iwutil/h/IwImage.h'
p1461
(lp1462
I1
ag1404
asS'c:/marmalade/7.4/modules/iwutil/h/IwImageHelper.h'
p1463
(lp1464
I1
ag1404
asS'c:/marmalade/7.4/modules/iwutil/h/IwMemBucket.h'
p1465
(lp1466
I1
ag1404
asS'c:/marmalade/7.4/modules/iwutil/h/IwDivide.h'
p1467
(lp1468
I1
ag1404
asS'c:/marmalade/7.4/modules/iwutil/h/IwOptimiseSpeed.h'
p1469
(lp1470
I1
ag1404
asS'c:/marmalade/7.4/modules/iwutil/h/IwArray.h'
p1471
(lp1472
I1
ag1404
asS'c:/marmalade/7.4/modules/iwutil/docs/iwutil.config.txt'
p1473
(lp1474
I1
ag1404
asS'c:/marmalade/7.4/modules/iwutil/h/IwUTF8.h'
p1475
(lp1476
I1
ag1404
asS'c:/marmalade/7.4/modules/iwutil/h/IwEvent.h'
p1477
(lp1478
I1
ag1404
asS'c:/marmalade/7.4/modules/iwutil/h/IwMath.h'
p1479
(lp1480
I1
ag1404
asS'c:/marmalade/7.4/modules/iwutil/h/IwFibre.h'
p1481
(lp1482
I1
ag1404
asS'c:/marmalade/7.4/modules/iwutil/h/IwString.h'
p1483
(lp1484
I1
ag1404
asS'c:/marmalade/7.4/modules/iwutil/iwutil.mkf'
p1485
(lp1486
I1
a(dp1487
asS'c:/marmalade/7.4/modules/iwutil/h/IwSingleton.h'
p1488
(lp1489
I1
ag1404
asS'c:/marmalade/7.4/modules/iwutil/h/IwAutoFile.h'
p1490
(lp1491
I1
ag1404
asS'c:/marmalade/7.4/modules/iwutil/h/IwOptimiseThumb.h'
p1492
(lp1493
I1
ag1404
asS'c:/marmalade/7.4/modules/iwutil/h/IwUtil.h'
p1494
(lp1495
I1
ag1404
asS'c:/marmalade/7.4/modules/iwutil/h/IwPath.h'
p1496
(lp1497
I1
ag1404
asS'c:/marmalade/7.4/modules/iwutil/h/IwMemManagerDL.h'
p1498
(lp1499
I1
ag1404
asS'c:/marmalade/7.4/modules/iwutil/h/IwDivTable.h'
p1500
(lp1501
I1
ag1404
asS'c:/marmalade/7.4/modules/iwutil/h/IwOptimiseSize.h'
p1502
(lp1503
I1
ag1404
asssS'(zlib)'
p1504
(dp1505
g1032
(dp1506
S'c:/marmalade/7.4/modules/third_party/zlib/h/zconf.h'
p1507
(lp1508
I1
a(dp1509
asS'c:/marmalade/7.4/modules/third_party/zlib/h/zlib.h'
p1510
(lp1511
I1
ag1509
assS'c:/marmalade/7.4/modules/third_party/zlib/zlib.mkf'
p1512
(lp1513
I1
a(dp1514
assS'(iwtween)'
p1515
(dp1516
S'c:/marmalade/7.4/modules/iwtween/source/IwTween.cpp'
p1517
(lp1518
I1
a(dp1519
asS'c:/marmalade/7.4/modules/iwtween/h/IwTween.h'
p1520
(lp1521
I1
ag1519
asS'c:/marmalade/7.4/modules/iwtween/iwtween.mkf'
p1522
(lp1523
I1
a(dp1524
asssS'files'
p1525
(dp1526
S'IwGxFontPreparedData.h'
p1527
g306
(cmkb_main
File
p1528
g308
Ntp1529
Rp1530
(dp1531
S'flags'
p1532
g1218
sS'group'
p1533
(lp1534
S"'Marmalade Studio'"
p1535
ag1214
asg332
g1227
sbsS'iterator'
p1536
g306
(g1528
g308
Ntp1537
Rp1538
(dp1539
g1532
(dp1540
sg1533
(lp1541
S"'Marmalade System (S3E)'"
p1542
aS'stdc headers'
p1543
aS'c++'
p1544
asg332
S'c:/marmalade/7.4/s3e/h/std/c++/iterator'
p1545
sbsS'IwGL.h'
p1546
g306
(g1528
g308
Ntp1547
Rp1548
(dp1549
g1532
g1197
sg1533
(lp1550
S"'Marmalade Studio'"
p1551
ag1190
asg332
g1198
sbsS's3e.h'
p1552
g306
(g1528
g308
Ntp1553
Rp1554
(dp1555
g1532
g1540
sg1533
(lp1556
g1542
asg332
S'c:/marmalade/7.4/s3e/h/s3e.h'
p1557
sbsS'errno.h'
p1558
g306
(g1528
g308
Ntp1559
Rp1560
(dp1561
g1532
g1540
sg1533
(lp1562
g1542
aS'stdc headers'
p1563
asg332
S'c:/marmalade/7.4/s3e/h/std/errno.h'
p1564
sbsS'IwSingleton.h'
p1565
g306
(g1528
g308
Ntp1566
Rp1567
(dp1568
g1532
g1404
sg1533
(lp1569
S"'Marmalade Studio'"
p1570
ag1400
asg332
g1488
sbsS'dlfcn.h'
p1571
g306
(g1528
g308
Ntp1572
Rp1573
(dp1574
g1532
g1540
sg1533
g1562
sg332
S'c:/marmalade/7.4/s3e/h/std/dlfcn.h'
p1575
sbsS'IwSoundWAV.cpp'
p1576
g306
(g1528
g308
Ntp1577
Rp1578
(dp1579
g1532
g1091
sg1533
(lp1580
g1087
asg332
g1089
sbsS'sched.h'
p1581
g306
(g1528
g308
Ntp1582
Rp1583
(dp1584
g1532
g1540
sg1533
g1562
sg332
S'c:/marmalade/7.4/s3e/h/std/sched.h'
p1585
sbsS'IwSoundPCM.h'
p1586
g306
(g1528
g308
Ntp1587
Rp1588
(dp1589
g1532
g1091
sg1533
g1580
sg332
g1119
sbsS'IwGeomFMat2D.h'
p1590
g306
(g1528
g308
Ntp1591
Rp1592
(dp1593
g1532
g1240
sg1533
(lp1594
S"'Marmalade Studio'"
p1595
ag1236
asg332
g1256
sbsS'cassert'
p1596
g306
(g1528
g308
Ntp1597
Rp1598
(dp1599
g1532
g1540
sg1533
g1541
sg332
S'c:/marmalade/7.4/s3e/h/std/c++/cassert'
p1600
sbsS'grp.h'
p1601
g306
(g1528
g308
Ntp1602
Rp1603
(dp1604
g1532
g1540
sg1533
g1562
sg332
S'c:/marmalade/7.4/s3e/h/std/grp.h'
p1605
sbsS'list'
p1606
g306
(g1528
g308
Ntp1607
Rp1608
(dp1609
g1532
g1540
sg1533
g1541
sg332
S'c:/marmalade/7.4/s3e/h/std/c++/list'
p1610
sbsS'IwSoundSpec.cpp'
p1611
g306
(g1528
g308
Ntp1612
Rp1613
(dp1614
g1532
g1091
sg1533
g1580
sg332
g1123
sbsS'FinalYearProject.cpp'
p1615
g306
(g1528
g308
Ntp1616
Rp1617
(dp1618
g1532
g1143
sg1533
(lp1619
g1139
asg332
g1154
sbsS'IwGeomMat.h.tpl'
p1620
g306
(g1528
g308
Ntp1621
Rp1622
(dp1623
g1532
g1240
sg1533
g1594
sg332
g1304
sbsS'istream'
p1624
g306
(g1528
g308
Ntp1625
Rp1626
(dp1627
g1532
g1540
sg1533
g1541
sg332
S'c:/marmalade/7.4/s3e/h/std/c++/istream'
p1628
sbsS'jpeglib.h'
p1629
g306
(g1528
g308
Ntp1630
Rp1631
(dp1632
g1532
g1047
sg1533
(lp1633
g1042
ag1032
asg332
g1052
sbsS'iw2d_public.defines.txt'
p1634
g306
(g1528
g308
Ntp1635
Rp1636
(dp1637
g1532
g1206
sg1533
(lp1638
S"'Marmalade Studio'"
p1639
ag1202
asg332
g1212
sbsS'iostream.h'
p1640
g306
(g1528
g308
Ntp1641
Rp1642
(dp1643
g1532
g1540
sg1533
g1541
sg332
S'c:/marmalade/7.4/s3e/h/std/c++/iostream.h'
p1644
sbsS'IwSoundADPCM.h'
p1645
g306
(g1528
g308
Ntp1646
Rp1647
(dp1648
g1532
g1091
sg1533
g1580
sg332
g1112
sbsS'string'
p1649
g306
(g1528
g308
Ntp1650
Rp1651
(dp1652
g1532
g1540
sg1533
g1541
sg332
S'c:/marmalade/7.4/s3e/h/std/c++/string'
p1653
sbsS'IwMemory.h'
p1654
g306
(g1528
g308
Ntp1655
Rp1656
(dp1657
g1532
g1404
sg1533
g1569
sg332
g1445
sbsS'IwGeomPlane.h'
p1658
g306
(g1528
g308
Ntp1659
Rp1660
(dp1661
g1532
g1240
sg1533
g1594
sg332
g1270
sbsS'iw2d.config.txt'
p1662
g306
(g1528
g308
Ntp1663
Rp1664
(dp1665
g1532
g1206
sg1533
g1638
sg332
g1204
sbsS'iomanip'
p1666
g306
(g1528
g308
Ntp1667
Rp1668
(dp1669
g1532
g1540
sg1533
g1541
sg332
S'c:/marmalade/7.4/s3e/h/std/c++/iomanip'
p1670
sbsS'iwgeom.mkf'
p1671
g306
(g1528
g308
Ntp1672
Rp1673
(dp1674
g1532
g1247
sg1533
g1594
sg332
g1245
sbsS'IwGxError.h'
p1675
g306
(g1528
g308
Ntp1676
Rp1677
(dp1678
g1532
g1340
sg1533
(lp1679
S"'Marmalade Studio'"
p1680
ag1336
asg332
g1373
sbsS'IwGeom.h'
p1681
g306
(g1528
g308
Ntp1682
Rp1683
(dp1684
g1532
g1240
sg1533
g1594
sg332
g1302
sbsS'scene.cpp'
p1685
g306
(g1528
g308
Ntp1686
Rp1687
(dp1688
g1532
g1143
sg1533
g1619
sg332
g1152
sbsS'IwGeomVec4.h'
p1689
g306
(g1528
g308
Ntp1690
Rp1691
(dp1692
g1532
g1240
sg1533
g1594
sg332
g1288
sbsS'dir.h'
p1693
g306
(g1528
g308
Ntp1694
Rp1695
(dp1696
g1532
g1540
sg1533
(lp1697
g1542
aS'stdc headers'
p1698
aS'sys'
p1699
asg332
S'c:/marmalade/7.4/s3e/h/std/sys/dir.h'
p1700
sbsS'locale.h'
p1701
g306
(g1528
g308
Ntp1702
Rp1703
(dp1704
g1532
g1540
sg1533
g1562
sg332
S'c:/marmalade/7.4/s3e/h/std/locale.h'
p1705
sbsS'vector'
p1706
g306
(g1528
g308
Ntp1707
Rp1708
(dp1709
g1532
g1540
sg1533
g1541
sg332
S'c:/marmalade/7.4/s3e/h/std/c++/vector'
p1710
sbsS'IwManaged.h'
p1711
g306
(g1528
g308
Ntp1712
Rp1713
(dp1714
g1532
g1404
sg1533
g1569
sg332
g1427
sbsS's3eCompass.h'
p1715
g306
(g1528
g308
Ntp1716
Rp1717
(dp1718
g1532
g1540
sg1533
g1556
sg332
S'c:/marmalade/7.4/s3e/h/s3eCompass.h'
p1719
sbsS'cderror.h'
p1720
g306
(g1528
g308
Ntp1721
Rp1722
(dp1723
g1532
g1047
sg1533
g1633
sg332
g1060
sbsS'climits'
p1724
g306
(g1528
g308
Ntp1725
Rp1726
(dp1727
g1532
g1540
sg1533
g1541
sg332
S'c:/marmalade/7.4/s3e/h/std/c++/climits'
p1728
sbsS'ipc.h'
p1729
g306
(g1528
g308
Ntp1730
Rp1731
(dp1732
g1532
g1540
sg1533
g1697
sg332
S'c:/marmalade/7.4/s3e/h/std/sys/ipc.h'
p1733
sbsS'jversion.h'
p1734
g306
(g1528
g308
Ntp1735
Rp1736
(dp1737
g1532
g1047
sg1533
g1633
sg332
g1064
sbsS'fnmatch.h'
p1738
g306
(g1528
g308
Ntp1739
Rp1740
(dp1741
g1532
g1540
sg1533
g1562
sg332
S'c:/marmalade/7.4/s3e/h/std/fnmatch.h'
p1742
sbsS'IwGxState.h'
p1743
g306
(g1528
g308
Ntp1744
Rp1745
(dp1746
g1532
g1340
sg1533
g1679
sg332
g1355
sbsS'rope'
p1747
g306
(g1528
g308
Ntp1748
Rp1749
(dp1750
g1532
g1540
sg1533
g1541
sg332
S'c:/marmalade/7.4/s3e/h/std/c++/rope'
p1751
sbsS's3eAudio.h'
p1752
g306
(g1528
g308
Ntp1753
Rp1754
(dp1755
g1532
g1540
sg1533
g1556
sg332
S'c:/marmalade/7.4/s3e/h/s3eAudio.h'
p1756
sbsS's3eSurface.h'
p1757
g306
(g1528
g308
Ntp1758
Rp1759
(dp1760
g1532
g1540
sg1533
g1556
sg332
S'c:/marmalade/7.4/s3e/h/s3eSurface.h'
p1761
sbsS'new'
p1762
g306
(g1528
g308
Ntp1763
Rp1764
(dp1765
g1532
g1540
sg1533
g1541
sg332
S'c:/marmalade/7.4/s3e/h/std/c++/new'
p1766
sbsS's3eWindow.h'
p1767
g306
(g1528
g308
Ntp1768
Rp1769
(dp1770
g1532
g1540
sg1533
(lp1771
g1542
aS'Extensions'
p1772
asg332
S'c:/marmalade/7.4/s3e/h/ext/s3eWindow.h'
p1773
sbsS'IwBuffer.h'
p1774
g306
(g1528
g308
Ntp1775
Rp1776
(dp1777
g1532
g1404
sg1533
g1569
sg332
g1415
sbsS'stdio_streambuf'
p1778
g306
(g1528
g308
Ntp1779
Rp1780
(dp1781
g1532
g1540
sg1533
g1541
sg332
S'c:/marmalade/7.4/s3e/h/std/c++/stdio_streambuf'
p1782
sbsS'IwGeomQuat.h.tpl'
p1783
g306
(g1528
g308
Ntp1784
Rp1785
(dp1786
g1532
g1240
sg1533
g1594
sg332
g1272
sbsS's3eOSExec.h'
p1787
g306
(g1528
g308
Ntp1788
Rp1789
(dp1790
g1532
g1540
sg1533
g1771
sg332
S'c:/marmalade/7.4/s3e/h/ext/s3eOSExec.h'
p1791
sbsS'IwGxTransformSW.h'
p1792
g306
(g1528
g308
Ntp1793
Rp1794
(dp1795
g1532
g1340
sg1533
g1679
sg332
g1377
sbsS'IwGxMetrics.h'
p1796
g306
(g1528
g308
Ntp1797
Rp1798
(dp1799
g1532
g1340
sg1533
g1679
sg332
g1371
sbsS'iwgxfont.config.txt'
p1800
g306
(g1528
g308
Ntp1801
Rp1802
(dp1803
g1532
g1218
sg1533
g1534
sg332
g1221
sbsS'gl2platform.h'
p1804
g306
(g1528
g308
Ntp1805
Rp1806
(dp1807
g1532
g1540
sg1533
(lp1808
g1542
aS'GL'
p1809
aS'GLES 2.0'
p1810
asg332
S'c:/marmalade/7.4/s3e/h/GLES2/gl2platform.h'
p1811
sbsS'iw2dscenegraph.defines.txt'
p1812
g306
(g1528
g308
Ntp1813
Rp1814
(dp1815
g1532
g1182
sg1533
(lp1816
S"'Marmalade Studio'"
p1817
ag1178
asg332
g1180
sbsS'queue'
p1818
g306
(g1528
g308
Ntp1819
Rp1820
(dp1821
g1532
g1540
sg1533
g1541
sg332
S'c:/marmalade/7.4/s3e/h/std/c++/queue'
p1822
sbsS'time_1.h'
p1823
g306
(g1528
g308
Ntp1824
Rp1825
(dp1826
g1532
g1540
sg1533
g1697
sg332
S'c:/marmalade/7.4/s3e/h/std/sys/time.h'
p1827
sbsS'Iw2D.h'
p1828
g306
(g1528
g308
Ntp1829
Rp1830
(dp1831
g1532
g1206
sg1533
g1638
sg332
g1210
sbsS'IwGeomVec2.h'
p1832
g306
(g1528
g308
Ntp1833
Rp1834
(dp1835
g1532
g1240
sg1533
g1594
sg332
g1280
sbsS's3eDevice.h'
p1836
g306
(g1528
g308
Ntp1837
Rp1838
(dp1839
g1532
g1540
sg1533
g1556
sg332
S'c:/marmalade/7.4/s3e/h/s3eDevice.h'
p1840
sbsS'malloc.h'
p1841
g306
(g1528
g308
Ntp1842
Rp1843
(dp1844
g1532
g1540
sg1533
g1562
sg332
S'c:/marmalade/7.4/s3e/h/std/malloc.h'
p1845
sbsS'stdarg.h'
p1846
g306
(g1528
g308
Ntp1847
Rp1848
(dp1849
g1532
g1540
sg1533
g1562
sg332
S'c:/marmalade/7.4/s3e/h/std/stdarg.h'
p1850
sbsS'IwGeomCore.h'
p1851
g306
(g1528
g308
Ntp1852
Rp1853
(dp1854
g1532
g1240
sg1533
g1594
sg332
g1286
sbsS'Iw2DSceneGraph.h'
p1855
g306
(g1528
g308
Ntp1856
Rp1857
(dp1858
g1532
g1182
sg1533
g1816
sg332
g1188
sbsS'endian.h'
p1859
g306
(g1528
g308
Ntp1860
Rp1861
(dp1862
g1532
g1540
sg1533
g1562
sg332
S'c:/marmalade/7.4/s3e/h/std/endian.h'
p1863
sbsS'gl3ext.h'
p1864
g306
(g1528
g308
Ntp1865
Rp1866
(dp1867
g1532
g1540
sg1533
(lp1868
g1542
aS'GL'
p1869
aS'GLES 3.0'
p1870
asg332
S'c:/marmalade/7.4/s3e/h/GLES3/gl3ext.h'
p1871
sbsS'glob.h'
p1872
g306
(g1528
g308
Ntp1873
Rp1874
(dp1875
g1532
g1540
sg1533
g1562
sg332
S'c:/marmalade/7.4/s3e/h/std/glob.h'
p1876
sbsS'fstream'
p1877
g306
(g1528
g308
Ntp1878
Rp1879
(dp1880
g1532
g1540
sg1533
g1541
sg332
S'c:/marmalade/7.4/s3e/h/std/c++/fstream'
p1881
sbsS's3eCamera.h'
p1882
g306
(g1528
g308
Ntp1883
Rp1884
(dp1885
g1532
g1540
sg1533
g1556
sg332
S'c:/marmalade/7.4/s3e/h/s3eCamera.h'
p1886
sbsS'jconfig.h'
p1887
g306
(g1528
g308
Ntp1888
Rp1889
(dp1890
g1532
g1047
sg1533
g1633
sg332
g1058
sbsS'memory'
p1891
g306
(g1528
g308
Ntp1892
Rp1893
(dp1894
g1532
g1540
sg1533
g1541
sg332
S'c:/marmalade/7.4/s3e/h/std/c++/memory'
p1895
sbsS'egl.h'
p1896
g306
(g1528
g308
Ntp1897
Rp1898
(dp1899
g1532
g1540
sg1533
(lp1900
g1542
aS'GL'
p1901
aS'EGL'
p1902
asg332
S'c:/marmalade/7.4/s3e/h/EGL/egl.h'
p1903
sbsS'IwClip.inl'
p1904
g306
(g1528
g308
Ntp1905
Rp1906
(dp1907
g1532
g1340
sg1533
g1679
sg332
g1343
sbsS'IwMemManagerDL.h'
p1908
g306
(g1528
g308
Ntp1909
Rp1910
(dp1911
g1532
g1404
sg1533
g1569
sg332
g1498
sbsS'deque'
p1912
g306
(g1528
g308
Ntp1913
Rp1914
(dp1915
g1532
g1540
sg1533
g1541
sg332
S'c:/marmalade/7.4/s3e/h/std/c++/deque'
p1916
sbsS'IwString.h'
p1917
g306
(g1528
g308
Ntp1918
Rp1919
(dp1920
g1532
g1404
sg1533
g1569
sg332
g1483
sbsS'cwchar'
p1921
g306
(g1528
g308
Ntp1922
Rp1923
(dp1924
g1532
g1540
sg1533
g1541
sg332
S'c:/marmalade/7.4/s3e/h/std/c++/cwchar'
p1925
sbsS'iwutil.mkf'
p1926
g306
(g1528
g308
Ntp1927
Rp1928
(dp1929
g1532
g1487
sg1533
g1569
sg332
g1485
sbsS'csignal'
p1930
g306
(g1528
g308
Ntp1931
Rp1932
(dp1933
g1532
g1540
sg1533
g1541
sg332
S'c:/marmalade/7.4/s3e/h/std/c++/csignal'
p1934
sbsS'pthread_types.h'
p1935
g306
(g1528
g308
Ntp1936
Rp1937
(dp1938
g1532
g1540
sg1533
g1562
sg332
S'c:/marmalade/7.4/s3e/h/std/pthread_types.h'
p1939
sbsS'pthread_alloc'
p1940
g306
(g1528
g308
Ntp1941
Rp1942
(dp1943
g1532
g1540
sg1533
g1541
sg332
S'c:/marmalade/7.4/s3e/h/std/c++/pthread_alloc'
p1944
sbsS'getopt.h'
p1945
g306
(g1528
g308
Ntp1946
Rp1947
(dp1948
g1532
g1540
sg1533
g1562
sg332
S'c:/marmalade/7.4/s3e/h/std/getopt.h'
p1949
sbsS'IwOptimiseARM.h'
p1950
g306
(g1528
g308
Ntp1951
Rp1952
(dp1953
g1532
g1404
sg1533
g1569
sg332
g1459
sbsS'times.h'
p1954
g306
(g1528
g308
Ntp1955
Rp1956
(dp1957
g1532
g1540
sg1533
g1697
sg332
S'c:/marmalade/7.4/s3e/h/std/sys/times.h'
p1958
sbsS'IwGeomFSphere.h'
p1959
g306
(g1528
g308
Ntp1960
Rp1961
(dp1962
g1532
g1240
sg1533
g1594
sg332
g1250
sbsS'IwTypes.h'
p1963
g306
(g1528
g308
Ntp1964
Rp1965
(dp1966
g1532
g1404
sg1533
g1569
sg332
g1441
sbsS'unistd.h'
p1967
g306
(g1528
g308
Ntp1968
Rp1969
(dp1970
g1532
g1540
sg1533
g1562
sg332
S'c:/marmalade/7.4/s3e/h/std/unistd.h'
p1971
sbsS'audio.cpp'
p1972
g306
(g1528
g308
Ntp1973
Rp1974
(dp1975
g1532
g1143
sg1533
g1619
sg332
g1148
sbsS's3eCompression.h'
p1976
g306
(g1528
g308
Ntp1977
Rp1978
(dp1979
g1532
g1540
sg1533
g1556
sg332
S'c:/marmalade/7.4/s3e/h/s3eCompression.h'
p1980
sbsS'langinfo.h'
p1981
g306
(g1528
g308
Ntp1982
Rp1983
(dp1984
g1532
g1540
sg1533
g1562
sg332
S'c:/marmalade/7.4/s3e/h/std/langinfo.h'
p1985
sbsS's3edebugHeap.h'
p1986
g306
(g1528
g308
Ntp1987
Rp1988
(dp1989
g1532
g1540
sg1533
g1771
sg332
S'c:/marmalade/7.4/s3e/h/ext/s3edebugHeap.h'
p1990
sbsS'AirplayVersion.h'
p1991
g306
(g1528
g308
Ntp1992
Rp1993
(dp1994
g1532
g1540
sg1533
g1556
sg332
S'c:/marmalade/7.4/s3e/h/AirplayVersion.h'
p1995
sbsS'gl2extimg.h'
p1996
g306
(g1528
g308
Ntp1997
Rp1998
(dp1999
g1532
g1540
sg1533
g1808
sg332
S'c:/marmalade/7.4/s3e/h/GLES2/gl2extimg.h'
p2000
sbsS'app.config.txt'
p2001
g306
(g1528
g308
Ntp2002
Rp2003
(dp2004
g1532
(dp2005
sg1533
g4
sg332
S'c:/Users/lab422/Desktop/FYP/Learning Resources/Sprint 3 Minimal Example/FinalYearProject/data/app.config.txt'
p2006
sbsS'IwGeomSqrt.h'
p2007
g306
(g1528
g308
Ntp2008
Rp2009
(dp2010
g1532
g1240
sg1533
g1594
sg332
g1310
sbsS'tiniconv_int.h'
p2011
g306
(g1528
g308
Ntp2012
Rp2013
(dp2014
g1532
g1081
sg1533
(lp2015
g1077
asg332
g1079
sbsS'syslog.h'
p2016
g306
(g1528
g308
Ntp2017
Rp2018
(dp2019
g1532
g1540
sg1533
g1562
sg332
S'c:/marmalade/7.4/s3e/h/std/syslog.h'
p2020
sbsS'IwGxFontTypes.h'
p2021
g306
(g1528
g308
Ntp2022
Rp2023
(dp2024
g1532
g1218
sg1533
g1534
sg332
g1225
sbsS'IwGeomFIntersect.h'
p2025
g306
(g1528
g308
Ntp2026
Rp2027
(dp2028
g1532
g1240
sg1533
g1594
sg332
g1241
sbsS'hash_map'
p2029
g306
(g1528
g308
Ntp2030
Rp2031
(dp2032
g1532
g1540
sg1533
g1541
sg332
S'c:/marmalade/7.4/s3e/h/std/c++/hash_map'
p2033
sbsS's3e.mkf'
p2034
g306
(g1528
g308
Ntp2035
Rp2036
(dp2037
g1532
(dp2038
sg1533
g1556
sg332
S'c:/marmalade/7.4/s3e/s3e.mkf'
p2039
sbsS'IwGeomMat2D.h.tpl'
p2040
g306
(g1528
g308
Ntp2041
Rp2042
(dp2043
g1532
g1240
sg1533
g1594
sg332
g1243
sbsS's3eOSReadString.h'
p2044
g306
(g1528
g308
Ntp2045
Rp2046
(dp2047
g1532
g1540
sg1533
g1771
sg332
S'c:/marmalade/7.4/s3e/h/ext/s3eOSReadString.h'
p2048
sbsS'IwSound.h'
p2049
g306
(g1528
g308
Ntp2050
Rp2051
(dp2052
g1532
g1091
sg1533
g1580
sg332
g1106
sbsS'map'
p2053
g306
(g1528
g308
Ntp2054
Rp2055
(dp2056
g1532
g1540
sg1533
g1541
sg332
S'c:/marmalade/7.4/s3e/h/std/c++/map'
p2057
sbsS'iwtween.mkf'
p2058
g306
(g1528
g308
Ntp2059
Rp2060
(dp2061
g1532
g1524
sg1533
(lp2062
g1515
asg332
g1522
sbsS'IwOptimiseSpeed.h'
p2063
g306
(g1528
g308
Ntp2064
Rp2065
(dp2066
g1532
g1404
sg1533
g1569
sg332
g1469
sbsS'ostream'
p2067
g306
(g1528
g308
Ntp2068
Rp2069
(dp2070
g1532
g1540
sg1533
g1541
sg332
S'c:/marmalade/7.4/s3e/h/std/c++/ostream'
p2071
sbsS'msl_string.h'
p2072
g306
(g1528
g308
Ntp2073
Rp2074
(dp2075
g1532
g1540
sg1533
g1541
sg332
S'c:/marmalade/7.4/s3e/h/std/c++/msl_string.h'
p2076
sbsS'select.h'
p2077
g306
(g1528
g308
Ntp2078
Rp2079
(dp2080
g1532
g1540
sg1533
g1697
sg332
S'c:/marmalade/7.4/s3e/h/std/sys/select.h'
p2081
sbsS'zlib.mkf'
p2082
g306
(g1528
g308
Ntp2083
Rp2084
(dp2085
g1532
g1514
sg1533
(lp2086
g1504
asg332
g1512
sbsS'signal.h'
p2087
g306
(g1528
g308
Ntp2088
Rp2089
(dp2090
g1532
g1540
sg1533
g1562
sg332
S'c:/marmalade/7.4/s3e/h/std/signal.h'
p2091
sbsS'sigcontext.h'
p2092
g306
(g1528
g308
Ntp2093
Rp2094
(dp2095
g1532
g1540
sg1533
g1562
sg332
S'c:/marmalade/7.4/s3e/h/std/sigcontext.h'
p2096
sbsS'libpng.mkf'
p2097
g306
(g1528
g308
Ntp2098
Rp2099
(dp2100
g1532
g1041
sg1533
(lp2101
g1030
asg332
g1039
sbsS's3eClipboard.h'
p2102
g306
(g1528
g308
Ntp2103
Rp2104
(dp2105
g1532
g1540
sg1533
g1556
sg332
S'c:/marmalade/7.4/s3e/h/s3eClipboard.h'
p2106
sbsS'IwGxFuncTable.h'
p2107
g306
(g1528
g308
Ntp2108
Rp2109
(dp2110
g1532
g1340
sg1533
g1679
sg332
g1341
sbsS'IwResHandlerGROUP.h'
p2111
g306
(g1528
g308
Ntp2112
Rp2113
(dp2114
g1532
g1316
sg1533
(lp2115
g1176
ag1312
asg332
g1323
sbsS's3eDebug.h'
p2116
g306
(g1528
g308
Ntp2117
Rp2118
(dp2119
g1532
g1540
sg1533
g1556
sg332
S'c:/marmalade/7.4/s3e/h/s3eDebug.h'
p2120
sbsS'socket.h'
p2121
g306
(g1528
g308
Ntp2122
Rp2123
(dp2124
g1532
g1540
sg1533
g1697
sg332
S'c:/marmalade/7.4/s3e/h/std/sys/socket.h'
p2125
sbsS'glext.h'
p2126
g306
(g1528
g308
Ntp2127
Rp2128
(dp2129
g1532
g1540
sg1533
(lp2130
g1542
aS'GL'
p2131
aS'GLES 1.x'
p2132
asg332
S'c:/marmalade/7.4/s3e/h/GLES/glext.h'
p2133
sbsS'typeinfo.h'
p2134
g306
(g1528
g308
Ntp2135
Rp2136
(dp2137
g1532
g1540
sg1533
g1541
sg332
S'c:/marmalade/7.4/s3e/h/std/c++/typeinfo.h'
p2138
sbsS'typeinfo'
p2139
g306
(g1528
g308
Ntp2140
Rp2141
(dp2142
g1532
g1540
sg1533
g1541
sg332
S'c:/marmalade/7.4/s3e/h/std/c++/typeinfo'
p2143
sbsS'iwsound.config.txt'
p2144
g306
(g1528
g308
Ntp2145
Rp2146
(dp2147
g1532
g1091
sg1533
(lp2148
g1087
ag1133
asg332
g1135
sbsS'fstream.h'
p2149
g306
(g1528
g308
Ntp2150
Rp2151
(dp2152
g1532
g1540
sg1533
g1541
sg332
S'c:/marmalade/7.4/s3e/h/std/c++/fstream.h'
p2153
sbsS's3ePointer.h'
p2154
g306
(g1528
g308
Ntp2155
Rp2156
(dp2157
g1532
g1540
sg1533
g1556
sg332
S'c:/marmalade/7.4/s3e/h/s3ePointer.h'
p2158
sbsS'iw2d.mkf'
p2159
g306
(g1528
g308
Ntp2160
Rp2161
(dp2162
g1532
g1209
sg1533
g1638
sg332
g1207
sbsS'PVRTexTool.h'
p2163
g306
(g1528
g308
Ntp2164
Rp2165
(dp2166
g1532
g1168
sg1533
(lp2167
g1160
ag1162
asg332
g1174
sbsS's3eGL.h'
p2168
g306
(g1528
g308
Ntp2169
Rp2170
(dp2171
g1532
g1540
sg1533
g1556
sg332
S'c:/marmalade/7.4/s3e/h/s3eGL.h'
p2172
sbsS'IwGeomFVec2.h'
p2173
g306
(g1528
g308
Ntp2174
Rp2175
(dp2176
g1532
g1240
sg1533
g1594
sg332
g1266
sbsS'IwGeomSVec4.h'
p2177
g306
(g1528
g308
Ntp2178
Rp2179
(dp2180
g1532
g1240
sg1533
g1594
sg332
g1264
sbsS'poll.h'
p2181
g306
(g1528
g308
Ntp2182
Rp2183
(dp2184
g1532
g1540
sg1533
g1562
sg332
S'c:/marmalade/7.4/s3e/h/std/poll.h'
p2185
sbsS'IwMatAnim.h'
p2186
g306
(g1528
g308
Ntp2187
Rp2188
(dp2189
g1532
g1340
sg1533
g1679
sg332
g1365
sbsS'IwGeomFVec4.h'
p2190
g306
(g1528
g308
Ntp2191
Rp2192
(dp2193
g1532
g1240
sg1533
g1594
sg332
g1258
sbsS'IwGx.h'
p2194
g306
(g1528
g308
Ntp2195
Rp2196
(dp2197
g1532
g1340
sg1533
g1679
sg332
g1347
sbsS'valarray'
p2198
g306
(g1528
g308
Ntp2199
Rp2200
(dp2201
g1532
g1540
sg1533
g1541
sg332
S'c:/marmalade/7.4/s3e/h/std/c++/valarray'
p2202
sbsS'iosfwd'
p2203
g306
(g1528
g308
Ntp2204
Rp2205
(dp2206
g1532
g1540
sg1533
g1541
sg332
S'c:/marmalade/7.4/s3e/h/std/c++/iosfwd'
p2207
sbsS'gl2.h'
p2208
g306
(g1528
g308
Ntp2209
Rp2210
(dp2211
g1532
g1540
sg1533
g1808
sg332
S'c:/marmalade/7.4/s3e/h/GLES2/gl2.h'
p2212
sbsS'jpegint.h'
p2213
g306
(g1528
g308
Ntp2214
Rp2215
(dp2216
g1532
g1047
sg1533
g1633
sg332
g1070
sbsS'stdiostream.h'
p2217
g306
(g1528
g308
Ntp2218
Rp2219
(dp2220
g1532
g1540
sg1533
g1541
sg332
S'c:/marmalade/7.4/s3e/h/std/c++/stdiostream.h'
p2221
sbsS'mem.h'
p2222
g306
(g1528
g308
Ntp2223
Rp2224
(dp2225
g1532
g1540
sg1533
g1541
sg332
S'c:/marmalade/7.4/s3e/h/std/c++/mem.h'
p2226
sbsS'jerror.h'
p2227
g306
(g1528
g308
Ntp2228
Rp2229
(dp2230
g1532
g1047
sg1533
g1633
sg332
g1045
sbsS'zconf.h'
p2231
g306
(g1528
g308
Ntp2232
Rp2233
(dp2234
g1532
g1509
sg1533
(lp2235
g1504
ag1032
asg332
g1507
sbsS's3e.config.txt'
p2236
g306
(g1528
g308
Ntp2237
Rp2238
(dp2239
g1532
g1540
sg1533
g1556
sg332
S'c:/marmalade/7.4/s3e/s3e.config.txt'
p2240
sbsS'numeric'
p2241
g306
(g1528
g308
Ntp2242
Rp2243
(dp2244
g1532
g1540
sg1533
g1541
sg332
S'c:/marmalade/7.4/s3e/h/std/c++/numeric'
p2245
sbsS'utime.h'
p2246
g306
(g1528
g308
Ntp2247
Rp2248
(dp2249
g1532
g1540
sg1533
g1562
sg332
S'c:/marmalade/7.4/s3e/h/std/utime.h'
p2250
sbsS'jdhuff.h'
p2251
g306
(g1528
g308
Ntp2252
Rp2253
(dp2254
g1532
g1047
sg1533
g1633
sg332
g1068
sbsS'IwResHandlerWAV.cpp'
p2255
g306
(g1528
g308
Ntp2256
Rp2257
(dp2258
g1532
g1091
sg1533
g1580
sg332
g1129
sbsS'un.h'
p2259
g306
(g1528
g308
Ntp2260
Rp2261
(dp2262
g1532
g1540
sg1533
g1697
sg332
S'c:/marmalade/7.4/s3e/h/std/sys/un.h'
p2263
sbsS'IwImage.h'
p2264
g306
(g1528
g308
Ntp2265
Rp2266
(dp2267
g1532
g1404
sg1533
g1569
sg332
g1461
sbsS's3eImagePicker.h'
p2268
g306
(g1528
g308
Ntp2269
Rp2270
(dp2271
g1532
g1540
sg1533
g1771
sg332
S'c:/marmalade/7.4/s3e/h/ext/s3eImagePicker.h'
p2272
sbsS'stdlib.h'
p2273
g306
(g1528
g308
Ntp2274
Rp2275
(dp2276
g1532
g1540
sg1533
g1562
sg332
S'c:/marmalade/7.4/s3e/h/std/stdlib.h'
p2277
sbsS'IwCopyingPtr.h'
p2278
g306
(g1528
g308
Ntp2279
Rp2280
(dp2281
g1532
g1404
sg1533
g1569
sg332
g1409
sbsS'iostream'
p2282
g306
(g1528
g308
Ntp2283
Rp2284
(dp2285
g1532
g1540
sg1533
g1541
sg332
S'c:/marmalade/7.4/s3e/h/std/c++/iostream'
p2286
sbsS'png.h'
p2287
g306
(g1528
g308
Ntp2288
Rp2289
(dp2290
g1532
g1036
sg1533
(lp2291
g1030
ag1032
asg332
g1034
sbsS'stddef.h'
p2292
g306
(g1528
g308
Ntp2293
Rp2294
(dp2295
g1532
g1540
sg1533
g1562
sg332
S'c:/marmalade/7.4/s3e/h/std/stddef.h'
p2296
sbsS'setjmp_win32.h'
p2297
g306
(g1528
g308
Ntp2298
Rp2299
(dp2300
g1532
g1540
sg1533
g1562
sg332
S'c:/marmalade/7.4/s3e/h/std/setjmp_win32.h'
p2301
sbsS'IwGxPrint.h'
p2302
g306
(g1528
g308
Ntp2303
Rp2304
(dp2305
g1532
g1340
sg1533
g1679
sg332
g1345
sbsS'iwgx_public.defines.txt'
p2306
g306
(g1528
g308
Ntp2307
Rp2308
(dp2309
g1532
g1340
sg1533
g1679
sg332
g1382
sbsS'streambuf.h'
p2310
g306
(g1528
g308
Ntp2311
Rp2312
(dp2313
g1532
g1540
sg1533
g1541
sg332
S'c:/marmalade/7.4/s3e/h/std/c++/streambuf.h'
p2314
sbsS'resources.cpp'
p2315
g306
(g1528
g308
Ntp2316
Rp2317
(dp2318
g1532
g1143
sg1533
g1619
sg332
g1150
sbsS'IwGeomFPlane.h'
p2319
g306
(g1528
g308
Ntp2320
Rp2321
(dp2322
g1532
g1240
sg1533
g1594
sg332
g1306
sbsS'wchar.h'
p2323
g306
(g1528
g308
Ntp2324
Rp2325
(dp2326
g1532
g1540
sg1533
g1562
sg332
S'c:/marmalade/7.4/s3e/h/std/wchar.h'
p2327
sbsS's3eCameraCapture.h'
p2328
g306
(g1528
g308
Ntp2329
Rp2330
(dp2331
g1532
g1540
sg1533
g1771
sg332
S'c:/marmalade/7.4/s3e/h/ext/s3eCameraCapture.h'
p2332
sbsS'eglext.h'
p2333
g306
(g1528
g308
Ntp2334
Rp2335
(dp2336
g1532
g1540
sg1533
g1900
sg332
S'c:/marmalade/7.4/s3e/h/EGL/eglext.h'
p2337
sbsS'IwResHandlerImage.h'
p2338
g306
(g1528
g308
Ntp2339
Rp2340
(dp2341
g1532
g1316
sg1533
g2115
sg332
g1328
sbsS'strstream.h'
p2342
g306
(g1528
g308
Ntp2343
Rp2344
(dp2345
g1532
g1540
sg1533
g1541
sg332
S'c:/marmalade/7.4/s3e/h/std/c++/strstream.h'
p2346
sbsS'tiniconv.h'
p2347
g306
(g1528
g308
Ntp2348
Rp2349
(dp2350
g1532
g1081
sg1533
g2015
sg332
g1085
sbsS'IwGLExt.h'
p2351
g306
(g1528
g308
Ntp2352
Rp2353
(dp2354
g1532
g1197
sg1533
g1550
sg332
g1200
sbsS'app.icf'
p2355
g306
(g1528
g308
Ntp2356
Rp2357
(dp2358
g1532
(dp2359
sg1533
g4
sg332
S'c:/Users/lab422/Desktop/FYP/Learning Resources/Sprint 3 Minimal Example/FinalYearProject/data/app.icf'
p2360
sbsS'IwClassFactory.h'
p2361
g306
(g1528
g308
Ntp2362
Rp2363
(dp2364
g1532
g1404
sg1533
g1569
sg332
g1439
sbsS'file.h'
p2365
g306
(g1528
g308
Ntp2366
Rp2367
(dp2368
g1532
g1540
sg1533
g1697
sg332
S'c:/marmalade/7.4/s3e/h/std/sys/file.h'
p2369
sbsS'cstring'
p2370
g306
(g1528
g308
Ntp2371
Rp2372
(dp2373
g1532
g1540
sg1533
g1541
sg332
S'c:/marmalade/7.4/s3e/h/std/c++/cstring'
p2374
sbsS'IwSoundInst.cpp'
p2375
g306
(g1528
g308
Ntp2376
Rp2377
(dp2378
g1532
g1091
sg1533
g1580
sg332
g1104
sbsS'iwutil.config.txt'
p2379
g306
(g1528
g308
Ntp2380
Rp2381
(dp2382
g1532
g1404
sg1533
g1569
sg332
g1473
sbsS's3eSMS.h'
p2383
g306
(g1528
g308
Ntp2384
Rp2385
(dp2386
g1532
g1540
sg1533
g1771
sg332
S'c:/marmalade/7.4/s3e/h/ext/s3eSMS.h'
p2387
sbsS'limits.h'
p2388
g306
(g1528
g308
Ntp2389
Rp2390
(dp2391
g1532
g1540
sg1533
g1562
sg332
S'c:/marmalade/7.4/s3e/h/std/limits.h'
p2392
sbsS'scene.h'
p2393
g306
(g1528
g308
Ntp2394
Rp2395
(dp2396
g1532
g1143
sg1533
g1619
sg332
g1156
sbsS'IwMaterial.h'
p2397
g306
(g1528
g308
Ntp2398
Rp2399
(dp2400
g1532
g1340
sg1533
g1679
sg332
g1361
sbsS'PVRTexTool_interface.cpp'
p2401
g306
(g1528
g308
Ntp2402
Rp2403
(dp2404
g1532
g1168
sg1533
(lp2405
g1160
ag1162
ag1164
asg332
g1166
sbsS'IwGxSurface.h'
p2406
g306
(g1528
g308
Ntp2407
Rp2408
(dp2409
g1532
g1340
sg1533
g1679
sg332
g1388
sbsS's3eSocket.h'
p2410
g306
(g1528
g308
Ntp2411
Rp2412
(dp2413
g1532
g1540
sg1533
g1556
sg332
S'c:/marmalade/7.4/s3e/h/s3eSocket.h'
p2414
sbsS'IwAutoFile.h'
p2415
g306
(g1528
g308
Ntp2416
Rp2417
(dp2418
g1532
g1404
sg1533
g1569
sg332
g1490
sbsS's3eVibra.h'
p2419
g306
(g1528
g308
Ntp2420
Rp2421
(dp2422
g1532
g1540
sg1533
g1556
sg332
S'c:/marmalade/7.4/s3e/h/s3eVibra.h'
p2423
sbsS'poll_1.h'
p2424
g306
(g1528
g308
Ntp2425
Rp2426
(dp2427
g1532
g1540
sg1533
g1697
sg332
S'c:/marmalade/7.4/s3e/h/std/sys/poll.h'
p2428
sbsS's3eThread.h'
p2429
g306
(g1528
g308
Ntp2430
Rp2431
(dp2432
g1532
g1540
sg1533
g1556
sg332
S'c:/marmalade/7.4/s3e/h/s3eThread.h'
p2433
sbsS'ucontext.h'
p2434
g306
(g1528
g308
Ntp2435
Rp2436
(dp2437
g1532
g1540
sg1533
g1562
sg332
S'c:/marmalade/7.4/s3e/h/std/ucontext.h'
p2438
sbsS'time.h'
p2439
g306
(g1528
g308
Ntp2440
Rp2441
(dp2442
g1532
g1540
sg1533
g1562
sg332
S'c:/marmalade/7.4/s3e/h/std/time.h'
p2443
sbsS'jchuff.h'
p2444
g306
(g1528
g308
Ntp2445
Rp2446
(dp2447
g1532
g1047
sg1533
g1633
sg332
g1050
sbsS'IwSoundPCM.cpp'
p2448
g306
(g1528
g308
Ntp2449
Rp2450
(dp2451
g1532
g1091
sg1533
g1580
sg332
g1092
sbsS's3eSoundRecord.h'
p2452
g306
(g1528
g308
Ntp2453
Rp2454
(dp2455
g1532
g1540
sg1533
g1556
sg332
S'c:/marmalade/7.4/s3e/h/s3eSoundRecord.h'
p2456
sbsS'IwFibre.h'
p2457
g306
(g1528
g308
Ntp2458
Rp2459
(dp2460
g1532
g1404
sg1533
g1569
sg332
g1481
sbsS's3eVersion.h'
p2461
g306
(g1528
g308
Ntp2462
Rp2463
(dp2464
g1532
g1540
sg1533
g1556
sg332
S'c:/marmalade/7.4/s3e/h/s3eVersion.h'
p2465
sbsS'IwSoundGroup.h'
p2466
g306
(g1528
g308
Ntp2467
Rp2468
(dp2469
g1532
g1091
sg1533
g1580
sg332
g1100
sbsS'IwSoundWAV.h'
p2470
g306
(g1528
g308
Ntp2471
Rp2472
(dp2473
g1532
g1091
sg1533
g1580
sg332
g1110
sbsS'IwGxFontGlyph.h'
p2474
g306
(g1528
g308
Ntp2475
Rp2476
(dp2477
g1532
g1218
sg1533
g1534
sg332
g1219
sbsS's3eTypes.h'
p2478
g306
(g1528
g308
Ntp2479
Rp2480
(dp2481
g1532
g1540
sg1533
g1556
sg332
S'c:/marmalade/7.4/s3e/h/s3eTypes.h'
p2482
sbsS'IwSoundSpec.h'
p2483
g306
(g1528
g308
Ntp2484
Rp2485
(dp2486
g1532
g1091
sg1533
g1580
sg332
g1108
sbsS'signal_2.h'
p2487
g306
(g1528
g308
Ntp2488
Rp2489
(dp2490
g1532
g1540
sg1533
g1541
sg332
S'c:/marmalade/7.4/s3e/h/std/c++/signal.h'
p2491
sbsS'termios.h'
p2492
g306
(g1528
g308
Ntp2493
Rp2494
(dp2495
g1532
g1540
sg1533
g1562
sg332
S'c:/marmalade/7.4/s3e/h/std/termios.h'
p2496
sbsS'iw2dscenegraph.mkf'
p2497
g306
(g1528
g308
Ntp2498
Rp2499
(dp2500
g1532
g1187
sg1533
g1816
sg332
g1185
sbsS'slist'
p2501
g306
(g1528
g308
Ntp2502
Rp2503
(dp2504
g1532
g1540
sg1533
g1541
sg332
S'c:/marmalade/7.4/s3e/h/std/c++/slist'
p2505
sbsS'cstdlib'
p2506
g306
(g1528
g308
Ntp2507
Rp2508
(dp2509
g1532
g1540
sg1533
g1541
sg332
S'c:/marmalade/7.4/s3e/h/std/c++/cstdlib'
p2510
sbsS's3eLocation.h'
p2511
g306
(g1528
g308
Ntp2512
Rp2513
(dp2514
g1532
g1540
sg1533
g1556
sg332
S'c:/marmalade/7.4/s3e/h/s3eLocation.h'
p2515
sbsS'IwMemBucketHelpers.h'
p2516
g306
(g1528
g308
Ntp2517
Rp2518
(dp2519
g1532
g1404
sg1533
g1569
sg332
g1453
sbsS's3eHash.h'
p2520
g306
(g1528
g308
Ntp2521
Rp2522
(dp2523
g1532
g1540
sg1533
g1556
sg332
S'c:/marmalade/7.4/s3e/h/s3eHash.h'
p2524
sbsS'IwSoundGroup.cpp'
p2525
g306
(g1528
g308
Ntp2526
Rp2527
(dp2528
g1532
g1091
sg1533
g1580
sg332
g1131
sbsS'IwGeomFMat.h'
p2529
g306
(g1528
g308
Ntp2530
Rp2531
(dp2532
g1532
g1240
sg1533
g1594
sg332
g1308
sbsS'type_traits.h'
p2533
g306
(g1528
g308
Ntp2534
Rp2535
(dp2536
g1532
g1540
sg1533
g1541
sg332
S'c:/marmalade/7.4/s3e/h/std/c++/type_traits.h'
p2537
sbsS'IwMenu.h'
p2538
g306
(g1528
g308
Ntp2539
Rp2540
(dp2541
g1532
g1404
sg1533
g1569
sg332
g1405
sbsS'IwResHandlerITX.h'
p2542
g306
(g1528
g308
Ntp2543
Rp2544
(dp2545
g1532
g1316
sg1533
g2115
sg332
g1319
sbsS'IwSoundData.h'
p2546
g306
(g1528
g308
Ntp2547
Rp2548
(dp2549
g1532
g1091
sg1533
g1580
sg332
g1121
sbsS'IwArray.h'
p2550
g306
(g1528
g308
Ntp2551
Rp2552
(dp2553
g1532
g1404
sg1533
g1569
sg332
g1471
sbsS'IwUTF8.h'
p2554
g306
(g1528
g308
Ntp2555
Rp2556
(dp2557
g1532
g1404
sg1533
g1569
sg332
g1475
sbsS'math_rvct.h'
p2558
g306
(g1528
g308
Ntp2559
Rp2560
(dp2561
g1532
g1540
sg1533
g1562
sg332
S'c:/marmalade/7.4/s3e/h/std/math_rvct.h'
p2562
sbsS'IwUtil.h'
p2563
g306
(g1528
g308
Ntp2564
Rp2565
(dp2566
g1532
g1404
sg1533
g1569
sg332
g1494
sbsS'IwFColour.h'
p2567
g306
(g1528
g308
Ntp2568
Rp2569
(dp2570
g1532
g1340
sg1533
g1679
sg332
g1351
sbsS'wctype.h'
p2571
g306
(g1528
g308
Ntp2572
Rp2573
(dp2574
g1532
g1540
sg1533
g1562
sg332
S'c:/marmalade/7.4/s3e/h/std/wctype.h'
p2575
sbsS'cstddef'
p2576
g306
(g1528
g308
Ntp2577
Rp2578
(dp2579
g1532
g1540
sg1533
g1541
sg332
S'c:/marmalade/7.4/s3e/h/std/c++/cstddef'
p2580
sbsS'assert.h'
p2581
g306
(g1528
g308
Ntp2582
Rp2583
(dp2584
g1532
g1540
sg1533
g1562
sg332
S'c:/marmalade/7.4/s3e/h/std/assert.h'
p2585
sbsS'mman.h'
p2586
g306
(g1528
g308
Ntp2587
Rp2588
(dp2589
g1532
g1540
sg1533
g1697
sg332
S'c:/marmalade/7.4/s3e/h/std/sys/mman.h'
p2590
sbsS'IwRandom.h'
p2591
g306
(g1528
g308
Ntp2592
Rp2593
(dp2594
g1532
g1404
sg1533
g1569
sg332
g1417
sbsS'libgen.h'
p2595
g306
(g1528
g308
Ntp2596
Rp2597
(dp2598
g1532
g1540
sg1533
g1562
sg332
S'c:/marmalade/7.4/s3e/h/std/libgen.h'
p2599
sbsS'utsname.h'
p2600
g306
(g1528
g308
Ntp2601
Rp2602
(dp2603
g1532
g1540
sg1533
g1697
sg332
S'c:/marmalade/7.4/s3e/h/std/sys/utsname.h'
p2604
sbsS'wait.h'
p2605
g306
(g1528
g308
Ntp2606
Rp2607
(dp2608
g1532
g1540
sg1533
g1697
sg332
S'c:/marmalade/7.4/s3e/h/std/sys/wait.h'
p2609
sbsS'param.h'
p2610
g306
(g1528
g308
Ntp2611
Rp2612
(dp2613
g1532
g1540
sg1533
g1697
sg332
S'c:/marmalade/7.4/s3e/h/std/sys/param.h'
p2614
sbsS'IwDivide.h'
p2615
g306
(g1528
g308
Ntp2616
Rp2617
(dp2618
g1532
g1404
sg1533
g1569
sg332
g1467
sbsS'Iw2DSceneGraphCore.cpp'
p2619
g306
(g1528
g308
Ntp2620
Rp2621
(dp2622
g1532
g1397
sg1533
(lp2623
S"'Marmalade Studio'"
p2624
ag1390
asg332
g1395
sbsS'IwResManager.h'
p2625
g306
(g1528
g308
Ntp2626
Rp2627
(dp2628
g1532
g1316
sg1533
g2115
sg332
g1317
sbsS'IwSoundManager.h'
p2629
g306
(g1528
g308
Ntp2630
Rp2631
(dp2632
g1532
g1091
sg1533
g1580
sg332
g1098
sbsS'cwctype'
p2633
g306
(g1528
g308
Ntp2634
Rp2635
(dp2636
g1532
g1540
sg1533
g1541
sg332
S'c:/marmalade/7.4/s3e/h/std/c++/cwctype'
p2637
sbsS'set'
p2638
g306
(g1528
g308
Ntp2639
Rp2640
(dp2641
g1532
g1540
sg1533
g1541
sg332
S'c:/marmalade/7.4/s3e/h/std/c++/set'
p2642
sbsS'IwGeomSQuat.h'
p2643
g306
(g1528
g308
Ntp2644
Rp2645
(dp2646
g1532
g1240
sg1533
g1594
sg332
g1284
sbsS'locale'
p2647
g306
(g1528
g308
Ntp2648
Rp2649
(dp2650
g1532
g1540
sg1533
g1541
sg332
S'c:/marmalade/7.4/s3e/h/std/c++/locale'
p2651
sbsS'cstdio'
p2652
g306
(g1528
g308
Ntp2653
Rp2654
(dp2655
g1532
g1540
sg1533
g1541
sg332
S'c:/marmalade/7.4/s3e/h/std/c++/cstdio'
p2656
sbsS'cdjpeg.h'
p2657
g306
(g1528
g308
Ntp2658
Rp2659
(dp2660
g1532
g1047
sg1533
g1633
sg332
g1054
sbsS'audio.h'
p2661
g306
(g1528
g308
Ntp2662
Rp2663
(dp2664
g1532
g1143
sg1533
g1619
sg332
g1146
sbsS'IwList.h'
p2665
g306
(g1528
g308
Ntp2666
Rp2667
(dp2668
g1532
g1404
sg1533
g1569
sg332
g1435
sbsS'inttypes.h'
p2669
g306
(g1528
g308
Ntp2670
Rp2671
(dp2672
g1532
g1540
sg1533
g1562
sg332
S'c:/marmalade/7.4/s3e/h/std/inttypes.h'
p2673
sbsS'dirent.h'
p2674
g306
(g1528
g308
Ntp2675
Rp2676
(dp2677
g1532
g1540
sg1533
g1562
sg332
S'c:/marmalade/7.4/s3e/h/std/dirent.h'
p2678
sbsS'IwGeomVec3.h'
p2679
g306
(g1528
g308
Ntp2680
Rp2681
(dp2682
g1532
g1240
sg1533
g1594
sg332
g1278
sbsS'transupp.h'
p2683
g306
(g1528
g308
Ntp2684
Rp2685
(dp2686
g1532
g1047
sg1533
g1633
sg332
g1066
sbsS'IwMath.h'
p2687
g306
(g1528
g308
Ntp2688
Rp2689
(dp2690
g1532
g1404
sg1533
g1569
sg332
g1479
sbsS'IwGeomQuat.h'
p2691
g306
(g1528
g308
Ntp2692
Rp2693
(dp2694
g1532
g1240
sg1533
g1594
sg332
g1260
sbsS'glplatform.h'
p2695
g306
(g1528
g308
Ntp2696
Rp2697
(dp2698
g1532
g1540
sg1533
g2130
sg332
S'c:/marmalade/7.4/s3e/h/GLES/glplatform.h'
p2699
sbsS'iwgl.config.txt'
p2700
g306
(g1528
g308
Ntp2701
Rp2702
(dp2703
g1532
g1197
sg1533
g1550
sg332
g1195
sbsS'bitset'
p2704
g306
(g1528
g308
Ntp2705
Rp2706
(dp2707
g1532
g1540
sg1533
g1541
sg332
S'c:/marmalade/7.4/s3e/h/std/c++/bitset'
p2708
sbsS'alloca.h'
p2709
g306
(g1528
g308
Ntp2710
Rp2711
(dp2712
g1532
g1540
sg1533
g1562
sg332
S'c:/marmalade/7.4/s3e/h/std/alloca.h'
p2713
sbsS'IwResHandler.h'
p2714
g306
(g1528
g308
Ntp2715
Rp2716
(dp2717
g1532
g1316
sg1533
g2115
sg332
g1330
sbsS'IwResHandlerMTL.h'
p2718
g306
(g1528
g308
Ntp2719
Rp2720
(dp2721
g1532
g1340
sg1533
g1679
sg332
g1369
sbsS'IwRuntime.h'
p2722
g306
(g1528
g308
Ntp2723
Rp2724
(dp2725
g1532
g1404
sg1533
g1569
sg332
g1451
sbsS'limits'
p2726
g306
(g1528
g308
Ntp2727
Rp2728
(dp2729
g1532
g1540
sg1533
g1541
sg332
S'c:/marmalade/7.4/s3e/h/std/c++/limits'
p2730
sbsS'IwGeomBBox.h'
p2731
g306
(g1528
g308
Ntp2732
Rp2733
(dp2734
g1532
g1240
sg1533
g1594
sg332
g1290
sbsS's3eContacts.h'
p2735
g306
(g1528
g308
Ntp2736
Rp2737
(dp2738
g1532
g1540
sg1533
g1556
sg332
S'c:/marmalade/7.4/s3e/h/s3eContacts.h'
p2739
sbsS's3eLicense.h'
p2740
g306
(g1528
g308
Ntp2741
Rp2742
(dp2743
g1532
g1540
sg1533
g1556
sg332
S'c:/marmalade/7.4/s3e/h/s3eLicense.h'
p2744
sbsS'iwgx.config.txt'
p2745
g306
(g1528
g308
Ntp2746
Rp2747
(dp2748
g1532
g1340
sg1533
g1679
sg332
g1375
sbsS'IwTextParser.h'
p2749
g306
(g1528
g308
Ntp2750
Rp2751
(dp2752
g1532
g1404
sg1533
g1569
sg332
g1402
sbsS's3eTimer.h'
p2753
g306
(g1528
g308
Ntp2754
Rp2755
(dp2756
g1532
g1540
sg1533
g1556
sg332
S'c:/marmalade/7.4/s3e/h/s3eTimer.h'
p2757
sbsS'IwGeomVec.h'
p2758
g306
(g1528
g308
Ntp2759
Rp2760
(dp2761
g1532
g1240
sg1533
g1594
sg332
g1268
sbsS'IwSerialise.h'
p2762
g306
(g1528
g308
Ntp2763
Rp2764
(dp2765
g1532
g1404
sg1533
g1569
sg332
g1437
sbsS'cstdarg'
p2766
g306
(g1528
g308
Ntp2767
Rp2768
(dp2769
g1532
g1540
sg1533
g1541
sg332
S'c:/marmalade/7.4/s3e/h/std/c++/cstdarg'
p2770
sbsS'gl2ext.h'
p2771
g306
(g1528
g308
Ntp2772
Rp2773
(dp2774
g1532
g1540
sg1533
g1808
sg332
S'c:/marmalade/7.4/s3e/h/GLES2/gl2ext.h'
p2775
sbsS'IwChar.h'
p2776
g306
(g1528
g308
Ntp2777
Rp2778
(dp2779
g1532
g1404
sg1533
g1569
sg332
g1457
sbsS's3eSound.h'
p2780
g306
(g1528
g308
Ntp2781
Rp2782
(dp2783
g1532
g1540
sg1533
g1556
sg332
S'c:/marmalade/7.4/s3e/h/s3eSound.h'
p2784
sbsS'IwOptimiseThumb.h'
p2785
g306
(g1528
g308
Ntp2786
Rp2787
(dp2788
g1532
g1404
sg1533
g1569
sg332
g1492
sbsS'exception.h'
p2789
g306
(g1528
g308
Ntp2790
Rp2791
(dp2792
g1532
g1540
sg1533
g1541
sg332
S'c:/marmalade/7.4/s3e/h/std/c++/exception.h'
p2793
sbsS'iwgeom.config.txt'
p2794
g306
(g1528
g308
Ntp2795
Rp2796
(dp2797
g1532
g1240
sg1533
g1594
sg332
g1238
sbsS'iwgx.mkf'
p2798
g306
(g1528
g308
Ntp2799
Rp2800
(dp2801
g1532
g1381
sg1533
g1679
sg332
g1379
sbsS'gl.h'
p2802
g306
(g1528
g308
Ntp2803
Rp2804
(dp2805
g1532
g1540
sg1533
g2130
sg332
S'c:/marmalade/7.4/s3e/h/GLES/gl.h'
p2806
sbsS'zlib.h'
p2807
g306
(g1528
g308
Ntp2808
Rp2809
(dp2810
g1532
g1509
sg1533
g2235
sg332
g1510
sbsS'temp_defines_release.h'
p2811
g306
(g1528
g308
Ntp2812
Rp2813
(dp2814
g1532
(lp2815
sg1533
(lp2816
S"'generated files'"
p2817
asg332
S'c:/Users/lab422/Desktop/FYP/Learning Resources/Sprint 3 Minimal Example/FinalYearProject/build_finalyearproject_vc12/temp_defines_release.h'
p2818
sbsS'iwgl.mkf'
p2819
g306
(g1528
g308
Ntp2820
Rp2821
(dp2822
g1532
g1194
sg1533
g1550
sg332
g1192
sbsS'IwColour.h'
p2823
g306
(g1528
g308
Ntp2824
Rp2825
(dp2826
g1532
g1340
sg1533
g1679
sg332
g1353
sbsS's3eLibrary.h'
p2827
g306
(g1528
g308
Ntp2828
Rp2829
(dp2830
g1532
g1540
sg1533
g1771
sg332
S'c:/marmalade/7.4/s3e/h/ext/s3eLibrary.h'
p2831
sbsS'types.h'
p2832
g306
(g1528
g308
Ntp2833
Rp2834
(dp2835
g1532
g1540
sg1533
g1697
sg332
S'c:/marmalade/7.4/s3e/h/std/sys/types.h'
p2836
sbsS'ifaddrs.h'
p2837
g306
(g1528
g308
Ntp2838
Rp2839
(dp2840
g1532
g1540
sg1533
g1562
sg332
S'c:/marmalade/7.4/s3e/h/std/ifaddrs.h'
p2841
sbsS'strstream'
p2842
g306
(g1528
g308
Ntp2843
Rp2844
(dp2845
g1532
g1540
sg1533
g1541
sg332
S'c:/marmalade/7.4/s3e/h/std/c++/strstream'
p2846
sbsS'IwTween.cpp'
p2847
g306
(g1528
g308
Ntp2848
Rp2849
(dp2850
g1532
g1519
sg1533
g2062
sg332
g1517
sbsS'exception'
p2851
g306
(g1528
g308
Ntp2852
Rp2853
(dp2854
g1532
g1540
sg1533
g1541
sg332
S'c:/marmalade/7.4/s3e/h/std/c++/exception'
p2855
sbsS'rlocks.h'
p2856
g306
(g1528
g308
Ntp2857
Rp2858
(dp2859
g1532
g1540
sg1533
g1541
sg332
S'c:/marmalade/7.4/s3e/h/std/c++/rlocks.h'
p2860
sbsS'ioctl.h'
p2861
g306
(g1528
g308
Ntp2862
Rp2863
(dp2864
g1532
g1540
sg1533
g1697
sg332
S'c:/marmalade/7.4/s3e/h/std/sys/ioctl.h'
p2865
sbsS'sem.h'
p2866
g306
(g1528
g308
Ntp2867
Rp2868
(dp2869
g1532
g1540
sg1533
g1697
sg332
S'c:/marmalade/7.4/s3e/h/std/sys/sem.h'
p2870
sbsS'jinclude.h'
p2871
g306
(g1528
g308
Ntp2872
Rp2873
(dp2874
g1532
g1047
sg1533
g1633
sg332
g1056
sbsS'IwEvent.h'
p2875
g306
(g1528
g308
Ntp2876
Rp2877
(dp2878
g1532
g1404
sg1533
g1569
sg332
g1477
sbsS'IwOptimiseSize.h'
p2879
g306
(g1528
g308
Ntp2880
Rp2881
(dp2882
g1532
g1404
sg1533
g1569
sg332
g1502
sbsS'iwgxfont_public.defines.txt'
p2883
g306
(g1528
g308
Ntp2884
Rp2885
(dp2886
g1532
g1218
sg1533
g1534
sg332
g1216
sbsS'iconv.h'
p2887
g306
(g1528
g308
Ntp2888
Rp2889
(dp2890
g1532
g1540
sg1533
g1562
sg332
S'c:/marmalade/7.4/s3e/h/std/iconv.h'
p2891
sbsS'sendfile.h'
p2892
g306
(g1528
g308
Ntp2893
Rp2894
(dp2895
g1532
g1540
sg1533
g1697
sg332
S'c:/marmalade/7.4/s3e/h/std/sys/sendfile.h'
p2896
sbsS'IwGeomSphere.h'
p2897
g306
(g1528
g308
Ntp2898
Rp2899
(dp2900
g1532
g1240
sg1533
g1594
sg332
g1298
sbsS'tiniconv.mkf'
p2901
g306
(g1528
g308
Ntp2902
Rp2903
(dp2904
g1532
g1084
sg1533
g2015
sg332
g1082
sbsS'IwResManagerClass.h'
p2905
g306
(g1528
g308
Ntp2906
Rp2907
(dp2908
g1532
g1316
sg1533
g2115
sg332
g1334
sbsS'jdct.h'
p2909
g306
(g1528
g308
Ntp2910
Rp2911
(dp2912
g1532
g1047
sg1533
g1633
sg332
g1062
sbsS'cctype'
p2913
g306
(g1528
g308
Ntp2914
Rp2915
(dp2916
g1532
g1540
sg1533
g1541
sg332
S'c:/marmalade/7.4/s3e/h/std/c++/cctype'
p2917
sbsS'IwSoundADPCM.cpp'
p2918
g306
(g1528
g308
Ntp2919
Rp2920
(dp2921
g1532
g1091
sg1533
g1580
sg332
g1137
sbsS's3eConfig.h'
p2922
g306
(g1528
g308
Ntp2923
Rp2924
(dp2925
g1532
g1540
sg1533
g1556
sg332
S'c:/marmalade/7.4/s3e/h/s3eConfig.h'
p2926
sbsS'IwHashString.h'
p2927
g306
(g1528
g308
Ntp2928
Rp2929
(dp2930
g1532
g1404
sg1533
g1569
sg332
g1429
sbsS'stat.h'
p2931
g306
(g1528
g308
Ntp2932
Rp2933
(dp2934
g1532
g1540
sg1533
g1697
sg332
S'c:/marmalade/7.4/s3e/h/std/sys/stat.h'
p2935
sbsS'byteswap.h'
p2936
g306
(g1528
g308
Ntp2937
Rp2938
(dp2939
g1532
g1540
sg1533
g1562
sg332
S'c:/marmalade/7.4/s3e/h/std/byteswap.h'
p2940
sbsS'iwresmanager.mkf'
p2941
g306
(g1528
g308
Ntp2942
Rp2943
(dp2944
g1532
g1327
sg1533
g2115
sg332
g1325
sbsS'IwUtilInitTerm.h'
p2945
g306
(g1528
g308
Ntp2946
Rp2947
(dp2948
g1532
g1404
sg1533
g1569
sg332
g1407
sbsS'pthread_1.h'
p2949
g306
(g1528
g308
Ntp2950
Rp2951
(dp2952
g1532
g1540
sg1533
g1541
sg332
S'c:/marmalade/7.4/s3e/h/std/c++/pthread.h'
p2953
sbsS'IwMemBucket.h'
p2954
g306
(g1528
g308
Ntp2955
Rp2956
(dp2957
g1532
g1404
sg1533
g1569
sg332
g1465
sbsS'complex'
p2958
g306
(g1528
g308
Ntp2959
Rp2960
(dp2961
g1532
g1540
sg1533
g1541
sg332
S'c:/marmalade/7.4/s3e/h/std/c++/complex'
p2962
sbsS'algorithm'
p2963
g306
(g1528
g308
Ntp2964
Rp2965
(dp2966
g1532
g1540
sg1533
g1541
sg332
S'c:/marmalade/7.4/s3e/h/std/c++/algorithm'
p2967
sbsS's3e.icf'
p2968
g306
(g1528
g308
Ntp2969
Rp2970
(dp2971
g1532
g1540
sg1533
g1556
sg332
S'c:/marmalade/7.4/s3e/s3e.icf'
p2972
sbsS'IwVariableBitField.h'
p2973
g306
(g1528
g308
Ntp2974
Rp2975
(dp2976
g1532
g1404
sg1533
g1569
sg332
g1413
sbsS'resources.h'
p2977
g306
(g1528
g308
Ntp2978
Rp2979
(dp2980
g1532
g1143
sg1533
g1619
sg332
g1144
sbsS'IwGxFontState.h'
p2981
g306
(g1528
g308
Ntp2982
Rp2983
(dp2984
g1532
g1218
sg1533
g1534
sg332
g1229
sbsS'stdio.h'
p2985
g306
(g1528
g308
Ntp2986
Rp2987
(dp2988
g1532
g1540
sg1533
g1562
sg332
S'c:/marmalade/7.4/s3e/h/std/stdio.h'
p2989
sbsS'Game.h'
p2990
g306
(g1528
g308
Ntp2991
Rp2992
(dp2993
g1532
g1143
sg1533
g1619
sg332
g1158
sbsS'jmemsys.h'
p2994
g306
(g1528
g308
Ntp2995
Rp2996
(dp2997
g1532
g1047
sg1533
g1633
sg332
g1048
sbsS'ios'
p2998
g306
(g1528
g308
Ntp2999
Rp3000
(dp3001
g1532
g1540
sg1533
g1541
sg332
S'c:/marmalade/7.4/s3e/h/std/c++/ios'
p3002
sbsS'IwTween.h'
p3003
g306
(g1528
g308
Ntp3004
Rp3005
(dp3006
g1532
g1519
sg1533
g2062
sg332
g1520
sbsS'PVRTexTool.defines.txt'
p3007
g306
(g1528
g308
Ntp3008
Rp3009
(dp3010
g1532
g1168
sg1533
g2405
sg332
g1169
sbsS'stack'
p3011
g306
(g1528
g308
Ntp3012
Rp3013
(dp3014
g1532
g1540
sg1533
g1541
sg332
S'c:/marmalade/7.4/s3e/h/std/c++/stack'
p3015
sbsS'IwSoundParams.h'
p3016
g306
(g1528
g308
Ntp3017
Rp3018
(dp3019
g1532
g1091
sg1533
g1580
sg332
g1094
sbsS'new.h'
p3020
g306
(g1528
g308
Ntp3021
Rp3022
(dp3023
g1532
g1540
sg1533
g1541
sg332
S'c:/marmalade/7.4/s3e/h/std/c++/new.h'
p3024
sbsS's3eEMail.h'
p3025
g306
(g1528
g308
Ntp3026
Rp3027
(dp3028
g1532
g1540
sg1533
g1771
sg332
S'c:/marmalade/7.4/s3e/h/ext/s3eEMail.h'
p3029
sbsS's3eVideo.h'
p3030
g306
(g1528
g308
Ntp3031
Rp3032
(dp3033
g1532
g1540
sg1533
g1556
sg332
S'c:/marmalade/7.4/s3e/h/s3eVideo.h'
p3034
sbsS'pngconf.h'
p3035
g306
(g1528
g308
Ntp3036
Rp3037
(dp3038
g1532
g1036
sg1533
g2291
sg332
g1037
sbsS'pwd.h'
p3039
g306
(g1528
g308
Ntp3040
Rp3041
(dp3042
g1532
g1540
sg1533
g1562
sg332
S'c:/marmalade/7.4/s3e/h/std/pwd.h'
p3043
sbsS'gl3.h'
p3044
g306
(g1528
g308
Ntp3045
Rp3046
(dp3047
g1532
g1540
sg1533
g1868
sg332
S'c:/marmalade/7.4/s3e/h/GLES3/gl3.h'
p3048
sbsS'IwClip.h'
p3049
g306
(g1528
g308
Ntp3050
Rp3051
(dp3052
g1532
g1340
sg1533
g1679
sg332
g1357
sbsS'IwSoundInst.h'
p3053
g306
(g1528
g308
Ntp3054
Rp3055
(dp3056
g1532
g1091
sg1533
g1580
sg332
g1127
sbsS'iwresmanager.config.txt'
p3057
g306
(g1528
g308
Ntp3058
Rp3059
(dp3060
g1532
g1316
sg1533
g2115
sg332
g1332
sbsS'IwGxShaderTechnique.h'
p3061
g306
(g1528
g308
Ntp3062
Rp3063
(dp3064
g1532
g1340
sg1533
g1679
sg332
g1384
sbsS'IwCore.h'
p3065
g306
(g1528
g308
Ntp3066
Rp3067
(dp3068
g1532
g1404
sg1533
g1569
sg332
g1423
sbsS'cfloat'
p3069
g306
(g1528
g308
Ntp3070
Rp3071
(dp3072
g1532
g1540
sg1533
g1541
sg332
S'c:/marmalade/7.4/s3e/h/std/c++/cfloat'
p3073
sbsS'IwGeomMat2D.h'
p3074
g306
(g1528
g308
Ntp3075
Rp3076
(dp3077
g1532
g1240
sg1533
g1594
sg332
g1296
sbsS'IwAllocator.h'
p3078
g306
(g1528
g308
Ntp3079
Rp3080
(dp3081
g1532
g1404
sg1533
g1569
sg332
g1443
sbsS'IwPath.h'
p3082
g306
(g1528
g308
Ntp3083
Rp3084
(dp3085
g1532
g1404
sg1533
g1569
sg332
g1496
sbsS'iwgxfont.mkf'
p3086
g306
(g1528
g308
Ntp3087
Rp3088
(dp3089
g1532
g1235
sg1533
g1534
sg332
g1233
sbsS'IwTexture.h'
p3090
g306
(g1528
g308
Ntp3091
Rp3092
(dp3093
g1532
g1340
sg1533
g1679
sg332
g1349
sbsS'IwGeomVec.h.tpl'
p3094
g306
(g1528
g308
Ntp3095
Rp3096
(dp3097
g1532
g1240
sg1533
g1594
sg332
g1248
sbsS's3eAccelerometer.h'
p3098
g306
(g1528
g308
Ntp3099
Rp3100
(dp3101
g1532
g1540
sg1533
g1556
sg332
S'c:/marmalade/7.4/s3e/h/s3eAccelerometer.h'
p3102
sbsS'setjmp.h'
p3103
g306
(g1528
g308
Ntp3104
Rp3105
(dp3106
g1532
g1540
sg1533
g1562
sg332
S'c:/marmalade/7.4/s3e/h/std/setjmp.h'
p3107
sbsS'IwSoundParams.cpp'
p3108
g306
(g1528
g308
Ntp3109
Rp3110
(dp3111
g1532
g1091
sg1533
g1580
sg332
g1114
sbsS'IwFile.h'
p3112
g306
(g1528
g308
Ntp3113
Rp3114
(dp3115
g1532
g1404
sg1533
g1569
sg332
g1449
sbsS'IwTextParseable.h'
p3116
g306
(g1528
g308
Ntp3117
Rp3118
(dp3119
g1532
g1404
sg1533
g1569
sg332
g1447
sbsS'istream.h'
p3120
g306
(g1528
g308
Ntp3121
Rp3122
(dp3123
g1532
g1540
sg1533
g1541
sg332
S'c:/marmalade/7.4/s3e/h/std/c++/istream.h'
p3124
sbsS'stdint.h'
p3125
g306
(g1528
g308
Ntp3126
Rp3127
(dp3128
g1532
g1540
sg1533
g1562
sg332
S'c:/marmalade/7.4/s3e/h/std/stdint.h'
p3129
sbsS'semaphore.h'
p3130
g306
(g1528
g308
Ntp3131
Rp3132
(dp3133
g1532
g1540
sg1533
g1562
sg332
S'c:/marmalade/7.4/s3e/h/std/semaphore.h'
p3134
sbsS'ctime'
p3135
g306
(g1528
g308
Ntp3136
Rp3137
(dp3138
g1532
g1540
sg1533
g1541
sg332
S'c:/marmalade/7.4/s3e/h/std/c++/ctime'
p3139
sbsS'sstream'
p3140
g306
(g1528
g308
Ntp3141
Rp3142
(dp3143
g1532
g1540
sg1533
g1541
sg332
S'c:/marmalade/7.4/s3e/h/std/c++/sstream'
p3144
sbsS'IwGeomFBBox.h'
p3145
g306
(g1528
g308
Ntp3146
Rp3147
(dp3148
g1532
g1240
sg1533
g1594
sg332
g1262
sbsS'IwDebugPrim.h'
p3149
g306
(g1528
g308
Ntp3150
Rp3151
(dp3152
g1532
g1340
sg1533
g1679
sg332
g1338
sbsS'IwGxFontContainer.h'
p3153
g306
(g1528
g308
Ntp3154
Rp3155
(dp3156
g1532
g1218
sg1533
g1534
sg332
g1231
sbsS'IwGeomSVec3.h'
p3157
g306
(g1528
g308
Ntp3158
Rp3159
(dp3160
g1532
g1240
sg1533
g1594
sg332
g1274
sbsS'iw2dscenegraphcore.mkf'
p3161
g306
(g1528
g308
Ntp3162
Rp3163
(dp3164
g1532
g1394
sg1533
g2623
sg332
g1392
sbsS's3eExt.h'
p3165
g306
(g1528
g308
Ntp3166
Rp3167
(dp3168
g1532
g1540
sg1533
g1556
sg332
S'c:/marmalade/7.4/s3e/h/s3eExt.h'
p3169
sbsS'IwGeomFVec3.h'
p3170
g306
(g1528
g308
Ntp3171
Rp3172
(dp3173
g1532
g1240
sg1533
g1594
sg332
g1300
sbsS'streambuf'
p3174
g306
(g1528
g308
Ntp3175
Rp3176
(dp3177
g1532
g1540
sg1533
g1541
sg332
S'c:/marmalade/7.4/s3e/h/std/c++/streambuf'
p3178
sbsS's3eMetrics.h'
p3179
g306
(g1528
g308
Ntp3180
Rp3181
(dp3182
g1532
g1540
sg1533
g1771
sg332
S'c:/marmalade/7.4/s3e/h/ext/s3eMetrics.h'
p3183
sbsS'IwGxFont.h'
p3184
g306
(g1528
g308
Ntp3185
Rp3186
(dp3187
g1532
g1218
sg1533
g1534
sg332
g1223
sbsS's3eSecureStorage.h'
p3188
g306
(g1528
g308
Ntp3189
Rp3190
(dp3191
g1532
g1540
sg1533
g1556
sg332
S'c:/marmalade/7.4/s3e/h/s3eSecureStorage.h'
p3192
sbsS'string.h'
p3193
g306
(g1528
g308
Ntp3194
Rp3195
(dp3196
g1532
g1540
sg1533
g1562
sg332
S'c:/marmalade/7.4/s3e/h/std/string.h'
p3197
sbsS'IwResource.h'
p3198
g306
(g1528
g308
Ntp3199
Rp3200
(dp3201
g1532
g1404
sg1533
g1569
sg332
g1421
sbsS'IwGeomSVec2.h'
p3202
g306
(g1528
g308
Ntp3203
Rp3204
(dp3205
g1532
g1240
sg1533
g1594
sg332
g1294
sbsS'libjpeg.mkf'
p3206
g306
(g1528
g308
Ntp3207
Rp3208
(dp3209
g1532
g1076
sg1533
(lp3210
g1042
asg332
g1074
sbsS'IwGxDebug.h'
p3211
g306
(g1528
g308
Ntp3212
Rp3213
(dp3214
g1532
g1340
sg1533
g1679
sg332
g1363
sbsS'float.h'
p3215
g306
(g1528
g308
Ntp3216
Rp3217
(dp3218
g1532
g1540
sg1533
g1562
sg332
S'c:/marmalade/7.4/s3e/h/std/float.h'
p3219
sbsS'iomanip.h'
p3220
g306
(g1528
g308
Ntp3221
Rp3222
(dp3223
g1532
g1540
sg1533
g1541
sg332
S'c:/marmalade/7.4/s3e/h/std/c++/iomanip.h'
p3224
sbsS'IwKeymap.h'
p3225
g306
(g1528
g308
Ntp3226
Rp3227
(dp3228
g1532
g1404
sg1533
g1569
sg332
g1419
sbsS'IwDebug.h'
p3229
g306
(g1528
g308
Ntp3230
Rp3231
(dp3232
g1532
g1404
sg1533
g1569
sg332
g1411
sbsS's3eIOSBackgroundAudio.h'
p3233
g306
(g1528
g308
Ntp3234
Rp3235
(dp3236
g1532
g1540
sg1533
g1771
sg332
S'c:/marmalade/7.4/s3e/h/ext/s3eIOSBackgroundAudio.h'
p3237
sbsS'IwGeomMenu.h'
p3238
g306
(g1528
g308
Ntp3239
Rp3240
(dp3241
g1532
g1240
sg1533
g1594
sg332
g1254
sbsS'IwDivTable.h'
p3242
g306
(g1528
g308
Ntp3243
Rp3244
(dp3245
g1532
g1404
sg1533
g1569
sg332
g1500
sbsS'ctype.h'
p3246
g306
(g1528
g308
Ntp3247
Rp3248
(dp3249
g1532
g1540
sg1533
g1562
sg332
S'c:/marmalade/7.4/s3e/h/std/ctype.h'
p3250
sbsS'IwGeomMat.h'
p3251
g306
(g1528
g308
Ntp3252
Rp3253
(dp3254
g1532
g1240
sg1533
g1594
sg332
g1276
sbsS'IwResGroup.h'
p3255
g306
(g1528
g308
Ntp3256
Rp3257
(dp3258
g1532
g1316
sg1533
g2115
sg332
g1314
sbsS'signal_1.h'
p3259
g306
(g1528
g308
Ntp3260
Rp3261
(dp3262
g1532
g1540
sg1533
g1697
sg332
S'c:/marmalade/7.4/s3e/h/std/sys/signal.h'
p3263
sbsS'IwSoundData.cpp'
p3264
g306
(g1528
g308
Ntp3265
Rp3266
(dp3267
g1532
g1091
sg1533
g1580
sg332
g1125
sbsS'functional'
p3268
g306
(g1528
g308
Ntp3269
Rp3270
(dp3271
g1532
g1540
sg1533
g1541
sg332
S'c:/marmalade/7.4/s3e/h/std/c++/functional'
p3272
sbsS'shm.h'
p3273
g306
(g1528
g308
Ntp3274
Rp3275
(dp3276
g1532
g1540
sg1533
g1697
sg332
S'c:/marmalade/7.4/s3e/h/std/sys/shm.h'
p3277
sbsS'IwManagedList.h'
p3278
g306
(g1528
g308
Ntp3279
Rp3280
(dp3281
g1532
g1404
sg1533
g1569
sg332
g1433
sbsS'Game.cpp'
p3282
g306
(g1528
g308
Ntp3283
Rp3284
(dp3285
g1532
g1143
sg1533
g1619
sg332
g1141
sbsS'prctl.h'
p3286
g306
(g1528
g308
Ntp3287
Rp3288
(dp3289
g1532
g1540
sg1533
g1697
sg332
S'c:/marmalade/7.4/s3e/h/std/sys/prctl.h'
p3290
sbsS'IwGxStream.h'
p3291
g306
(g1528
g308
Ntp3292
Rp3293
(dp3294
g1532
g1340
sg1533
g1679
sg332
g1367
sbsS'temp_defines_debug.h'
p3295
g306
(g1528
g308
Ntp3296
Rp3297
(dp3298
g1532
(lp3299
sg1533
(lp3300
g2817
asg332
S'c:/Users/lab422/Desktop/FYP/Learning Resources/Sprint 3 Minimal Example/FinalYearProject/build_finalyearproject_vc12/temp_defines_debug.h'
p3301
sbsS'utility'
p3302
g306
(g1528
g308
Ntp3303
Rp3304
(dp3305
g1532
g1540
sg1533
g1541
sg332
S'c:/marmalade/7.4/s3e/h/std/c++/utility'
p3306
sbsS'IwGeomLegacy.h'
p3307
g306
(g1528
g308
Ntp3308
Rp3309
(dp3310
g1532
g1240
sg1533
g1594
sg332
g1282
sbsS'IwTPage.h'
p3311
g306
(g1528
g308
Ntp3312
Rp3313
(dp3314
g1532
g1340
sg1533
g1679
sg332
g1359
sbsS'IwResSerialise.h'
p3315
g306
(g1528
g308
Ntp3316
Rp3317
(dp3318
g1532
g1316
sg1533
g2115
sg332
g1321
sbsS's3eCrypto.h'
p3319
g306
(g1528
g308
Ntp3320
Rp3321
(dp3322
g1532
g1540
sg1533
g1556
sg332
S'c:/marmalade/7.4/s3e/h/s3eCrypto.h'
p3323
sbsS's3eKeyboard.h'
p3324
g306
(g1528
g308
Ntp3325
Rp3326
(dp3327
g1532
g1540
sg1533
g1556
sg332
S'c:/marmalade/7.4/s3e/h/s3eKeyboard.h'
p3328
sbsS'fcntl.h'
p3329
g306
(g1528
g308
Ntp3330
Rp3331
(dp3332
g1532
g1540
sg1533
g1562
sg332
S'c:/marmalade/7.4/s3e/h/std/fcntl.h'
p3333
sbsS'Iw2DSceneGraphCore.h'
p3334
g306
(g1528
g308
Ntp3335
Rp3336
(dp3337
g1532
g1397
sg1533
g2623
sg332
g1398
sbsS'memory.h'
p3338
g306
(g1528
g308
Ntp3339
Rp3340
(dp3341
g1532
g1540
sg1533
g1562
sg332
S'c:/marmalade/7.4/s3e/h/std/memory.h'
p3342
sbsS'pthread.h'
p3343
g306
(g1528
g308
Ntp3344
Rp3345
(dp3346
g1532
g1540
sg1533
g1562
sg332
S'c:/marmalade/7.4/s3e/h/std/pthread.h'
p3347
sbsS'IwGeomIntersect.h'
p3348
g306
(g1528
g308
Ntp3349
Rp3350
(dp3351
g1532
g1240
sg1533
g1594
sg332
g1292
sbsS'IwTextParserITX.h'
p3352
g306
(g1528
g308
Ntp3353
Rp3354
(dp3355
g1532
g1404
sg1533
g1569
sg332
g1425
sbsS'egl_1.h'
p3356
g306
(g1528
g308
Ntp3357
Rp3358
(dp3359
g1532
g1540
sg1533
g2130
sg332
S'c:/marmalade/7.4/s3e/h/GLES/egl.h'
p3360
sbsS'Iw2DSceneGraph.cpp'
p3361
g306
(g1528
g308
Ntp3362
Rp3363
(dp3364
g1532
g1182
sg1533
g1816
sg332
g1183
sbsS'ostream.h'
p3365
g306
(g1528
g308
Ntp3366
Rp3367
(dp3368
g1532
g1540
sg1533
g1541
sg332
S'c:/marmalade/7.4/s3e/h/std/c++/ostream.h'
p3369
sbsS'stl_user_config.h'
p3370
g306
(g1528
g308
Ntp3371
Rp3372
(dp3373
g1532
g1540
sg1533
g1541
sg332
S'c:/marmalade/7.4/s3e/h/std/c++/stl_user_config.h'
p3374
sbsS'IwProfileMenu.h'
p3375
g306
(g1528
g308
Ntp3376
Rp3377
(dp3378
g1532
g1404
sg1533
g1569
sg332
g1431
sbsS'MarmaladeVersion.h'
p3379
g306
(g1528
g308
Ntp3380
Rp3381
(dp3382
g1532
g1540
sg1533
g1556
sg332
S'c:/marmalade/7.4/s3e/h/MarmaladeVersion.h'
p3383
sbsS'IwResHandlerWAV.h'
p3384
g306
(g1528
g308
Ntp3385
Rp3386
(dp3387
g1532
g1091
sg1533
g1580
sg332
g1096
sbsS'gl3platform.h'
p3388
g306
(g1528
g308
Ntp3389
Rp3390
(dp3391
g1532
g1540
sg1533
g1868
sg332
S'c:/marmalade/7.4/s3e/h/GLES3/gl3platform.h'
p3392
sbsS'ios.h'
p3393
g306
(g1528
g308
Ntp3394
Rp3395
(dp3396
g1532
g1540
sg1533
g1541
sg332
S'c:/marmalade/7.4/s3e/h/std/c++/ios.h'
p3397
sbsS'IwImageHelper.h'
p3398
g306
(g1528
g308
Ntp3399
Rp3400
(dp3401
g1532
g1404
sg1533
g1569
sg332
g1463
sbsS'hash_set'
p3402
g306
(g1528
g308
Ntp3403
Rp3404
(dp3405
g1532
g1540
sg1533
g1541
sg332
S'c:/marmalade/7.4/s3e/h/std/c++/hash_set'
p3406
sbsS'IwGeomFQuat.h'
p3407
g306
(g1528
g308
Ntp3408
Rp3409
(dp3410
g1532
g1240
sg1533
g1594
sg332
g1252
sbsS'jmorecfg.h'
p3411
g306
(g1528
g308
Ntp3412
Rp3413
(dp3414
g1532
g1047
sg1533
g1633
sg332
g1072
sbsS'eglplatform.h'
p3415
g306
(g1528
g308
Ntp3416
Rp3417
(dp3418
g1532
g1540
sg1533
g1900
sg332
S'c:/marmalade/7.4/s3e/h/EGL/eglplatform.h'
p3419
sbsS'cmath'
p3420
g306
(g1528
g308
Ntp3421
Rp3422
(dp3423
g1532
g1540
sg1533
g1541
sg332
S'c:/marmalade/7.4/s3e/h/std/c++/cmath'
p3424
sbsS'math_gcc.h'
p3425
g306
(g1528
g308
Ntp3426
Rp3427
(dp3428
g1532
g1540
sg1533
g1562
sg332
S'c:/marmalade/7.4/s3e/h/std/math_gcc.h'
p3429
sbsS's3eMemory.h'
p3430
g306
(g1528
g308
Ntp3431
Rp3432
(dp3433
g1532
g1540
sg1533
g1556
sg332
S'c:/marmalade/7.4/s3e/h/s3eMemory.h'
p3434
sbsS'strings.h'
p3435
g306
(g1528
g308
Ntp3436
Rp3437
(dp3438
g1532
g1540
sg1533
g1562
sg332
S'c:/marmalade/7.4/s3e/h/std/strings.h'
p3439
sbsS's3eFile.h'
p3440
g306
(g1528
g308
Ntp3441
Rp3442
(dp3443
g1532
g1540
sg1533
g1556
sg332
S'c:/marmalade/7.4/s3e/h/s3eFile.h'
p3444
sbsS'IwGxTypes.h'
p3445
g306
(g1528
g308
Ntp3446
Rp3447
(dp3448
g1532
g1340
sg1533
g1679
sg332
g1386
sbsS'cerrno'
p3449
g306
(g1528
g308
Ntp3450
Rp3451
(dp3452
g1532
g1540
sg1533
g1541
sg332
S'c:/marmalade/7.4/s3e/h/std/c++/cerrno'
p3453
sbsS'IwSoundManager.cpp'
p3454
g306
(g1528
g308
Ntp3455
Rp3456
(dp3457
g1532
g1091
sg1533
g1580
sg332
g1102
sbsS'soundengine.mkf'
p3458
g306
(g1528
g308
Ntp3459
Rp3460
(dp3461
g1532
g1118
sg1533
g1580
sg332
g1116
sbsS'resource.h'
p3462
g306
(g1528
g308
Ntp3463
Rp3464
(dp3465
g1532
g1540
sg1533
g1697
sg332
S'c:/marmalade/7.4/s3e/h/std/sys/resource.h'
p3466
sbsS'clocale'
p3467
g306
(g1528
g308
Ntp3468
Rp3469
(dp3470
g1532
g1540
sg1533
g1541
sg332
S'c:/marmalade/7.4/s3e/h/std/c++/clocale'
p3471
sbsS'pvrtextool.mkf'
p3472
g306
(g1528
g308
Ntp3473
Rp3474
(dp3475
g1532
g1173
sg1533
g2167
sg332
g1171
sbsS'csetjmp'
p3476
g306
(g1528
g308
Ntp3477
Rp3478
(dp3479
g1532
g1540
sg1533
g1541
sg332
S'c:/marmalade/7.4/s3e/h/std/c++/csetjmp'
p3480
sbsS'netdb.h'
p3481
g306
(g1528
g308
Ntp3482
Rp3483
(dp3484
g1532
g1540
sg1533
g1562
sg332
S'c:/marmalade/7.4/s3e/h/std/netdb.h'
p3485
sbsS's3eAndroidJNI.h'
p3486
g306
(g1528
g308
Ntp3487
Rp3488
(dp3489
g1532
g1540
sg1533
g1771
sg332
S'c:/marmalade/7.4/s3e/h/ext/s3eAndroidJNI.h'
p3490
sbsS'stdexcept'
p3491
g306
(g1528
g308
Ntp3492
Rp3493
(dp3494
g1532
g1540
sg1533
g1541
sg332
S'c:/marmalade/7.4/s3e/h/std/c++/stdexcept'
p3495
sbsS'math.h'
p3496
g306
(g1528
g308
Ntp3497
Rp3498
(dp3499
g1532
g1540
sg1533
g1562
sg332
S'c:/marmalade/7.4/s3e/h/std/math.h'
p3500
sbsS'stdbool.h'
p3501
g306
(g1528
g308
Ntp3502
Rp3503
(dp3504
g1532
g1540
sg1533
g1562
sg332
S'c:/marmalade/7.4/s3e/h/std/stdbool.h'
p3505
sbsS'uio.h'
p3506
g306
(g1528
g308
Ntp3507
Rp3508
(dp3509
g1532
g1540
sg1533
g1697
sg332
S'c:/marmalade/7.4/s3e/h/std/sys/uio.h'
p3510
sbsS'IwUncopyable.h'
p3511
g306
(g1528
g308
Ntp3512
Rp3513
(dp3514
g1532
g1404
sg1533
g1569
sg332
g1455
sbssS'juice_build_type'
p3515
g4
sS'tests'
p3516
(lp3517
sS'project_name'
p3518
g314
sS'root_file'
p3519
g120
sS'current_root'
p3520
S'c:/Users/lab422/Desktop/FYP/Learning Resources/Sprint 3 Minimal Example/FinalYearProject'
p3521
sS'dependencies'
p3522
(lp3523
sS'include_paths'
p3524
(lp3525
S'c:/marmalade/7.4/modules/iwutil/h'
p3526
aS'c:/marmalade/7.4/modules/third_party/libjpeg/h'
p3527
aS'c:/marmalade/7.4/modules/third_party/zlib/h'
p3528
aS'c:/marmalade/7.4/modules/third_party/libpng/h'
p3529
aS'c:/marmalade/7.4/modules/iw2dscenegraphcore/h'
p3530
aS'c:/marmalade/7.4/modules/iw2dscenegraph/h'
p3531
aS'c:/marmalade/7.4/modules/iw2d/h'
p3532
aS'c:/marmalade/7.4/modules/iwgx/h'
p3533
aS'c:/marmalade/7.4/modules/iwgl/h'
p3534
aS'c:/marmalade/7.4/modules/iwgeom/h'
p3535
aS'c:/marmalade/7.4/modules/iwresmanager/h'
p3536
aS'c:/marmalade/7.4/extensions/pvrtextool/h'
p3537
aS'c:/marmalade/7.4/modules/iwgxfont/h'
p3538
aS'c:/marmalade/7.4/modules/third_party/tiniconv/source'
p3539
aS'c:/users/lab422/desktop/fyp/learning resources/sprint 3 minimal example/finalyearproject/soundengine/h'
p3540
aS'c:/users/lab422/desktop/fyp/learning resources/sprint 3 minimal example/finalyearproject/soundengine/source'
p3541
aS'c:/marmalade/7.4/modules/iwtween/h'
p3542
aS'c:/marmalade/7.4/s3e/h'
p3543
aS'c:/marmalade/7.4/s3e/h/ext'
p3544
aS'c:/marmalade/7.4/s3e/h/std'
p3545
aS'c:/marmalade/7.4/s3e/h/std/c++'
p3546
aS'c:/marmalade/7.4/s3e/h/ext_legacy'
p3547
aS'c:/marmalade/7.4/s3e/h/legacy'
p3548
asS'weak_frameworks'
p3549
(lp3550
sS'extprojects'
p3551
(dp3552
sg572
(dp3553
g566
(lp3554
(g78
S'.'
p3555
I0
tp3556
assS'macro_types'
p3557
(dp3558
g505
I1
sg506
I0
sg507
I0
sg508
I0
sg509
I0
sg510
I0
sg511
I0
sg512
I0
sg513
I0
sg515
I0
sg516
I0
sg517
I0
sg518
I0
sg519
I0
sg521
I0
sg523
I0
sg524
I0
sg525
I0
sg526
I0
sg527
I0
sg528
I0
sg529
I1
sg530
I0
sg531
I0
sg532
I0
sg533
I0
sg534
I01
sg535
I1
sg536
I0
sg537
I0
sg538
I0
sg539
I0
sg540
I0
sg542
I0
sg543
I0
ssS'commands'
p3559
(lp3560
sg574
(g1023
S'VC12'
p3561
S'X86ARM'
p3562
tp3563
sS'build_libs'
p3564
(dp3565
sg576
g0
sS'frameworks'
p3566
(lp3567
sS'environ'
p3568
(dp3569
sS'target_name_debug'
p3570
g314
sS'builders'
p3571
(dp3572
g566
(dp3573
S'.S'
p3574
(dp3575
S'rvct'
p3576
(lp3577
S'.obj'
p3578
aS'echo ARM Assembling(RVCT) ${SOURCE}...'
p3579
aS'c:/marmalade/7.4/s3e\\rvct\\bin\\armasm -o ${TARGET} ${SOURCE}'
p3580
asg428
(lp3581
g3578
aS'echo ARM Assembling(GCC) ${SOURCE}...'
p3582
aS'c:/marmalade/7.4/s3e\\gcc\\bin\\arm-none-eabi-gcc -c -o ${TARGET} ${SOURCE}'
p3583
asS'ppu'
p3584
(lp3585
S'.a'
p3586
aS'echo PPU Assembling(SNC) ${SOURCE}...'
p3587
aS'c:/marmalade/7.4/s3e\\rvct\\bin\\armasm -o ${TARGET} ${SOURCE}'
p3588
assS'.s'
p3589
g3575
sS'.vp'
p3590
(lp3591
NaS'"C:/Marmalade/7.4/s3e/python/python.exe" "c:/marmalade/7.4/modules/iwgx/tools/compile_shaders.py" ${SOURCE}'
p3592
asssS'extproject_names'
p3593
(lp3594
sbtp3595
.