	.arch armv6
	.fpu softvfp
	.eabi_attribute 20, 1
	.eabi_attribute 21, 1
	.eabi_attribute 23, 3
	.eabi_attribute 24, 1
	.eabi_attribute 25, 1
	.eabi_attribute 26, 2
	.eabi_attribute 30, 6
	.eabi_attribute 34, 1
	.eabi_attribute 18, 2
	.file	"b2BroadPhase.cpp"
	.text
.Ltext0:
	.cfi_sections	.debug_frame
	.section	.text._ZN12b2BroadPhaseC2Ev,"ax",%progbits
	.align	2
	.global	_ZN12b2BroadPhaseC2Ev
	.hidden	_ZN12b2BroadPhaseC2Ev
	.type	_ZN12b2BroadPhaseC2Ev, %function
_ZN12b2BroadPhaseC2Ev:
.LFB560:
	.file 1 "c:/Users/Ben/Desktop/FYP/FinalYearProject/box2d/Box2D/Collision/b2BroadPhase.cpp"
	.loc 1 21 0
	.cfi_startproc
	@ args = 0, pretend = 0, frame = 8
	@ frame_needed = 0, uses_anonymous_args = 0
	str	lr, [sp, #-4]!
.LCFI0:
	.cfi_def_cfa_offset 4
	.cfi_offset 14, -4
	sub	sp, sp, #12
.LCFI1:
	.cfi_def_cfa_offset 16
	str	r0, [sp, #4]
.LBB2:
	.loc 1 21 0
	ldr	r3, [sp, #4]
	mov	r0, r3
	bl	_ZN13b2DynamicTreeC1Ev(PLT)
	.loc 1 23 0
	ldr	r3, [sp, #4]
	mov	r2, #0
	str	r2, [r3, #28]
	.loc 1 25 0
	ldr	r3, [sp, #4]
	mov	r2, #16
	str	r2, [r3, #48]
	.loc 1 26 0
	ldr	r3, [sp, #4]
	mov	r2, #0
	str	r2, [r3, #52]
	.loc 1 27 0
	ldr	r3, [sp, #4]
	ldr	r3, [r3, #48]
	mov	r3, r3, asl #3
	mov	r0, r3
	bl	_Z7b2Alloci(PLT)
	mov	r2, r0
	ldr	r3, [sp, #4]
	str	r2, [r3, #44]
	.loc 1 29 0
	ldr	r3, [sp, #4]
	mov	r2, #16
	str	r2, [r3, #36]
	.loc 1 30 0
	ldr	r3, [sp, #4]
	mov	r2, #0
	str	r2, [r3, #40]
	.loc 1 31 0
	ldr	r3, [sp, #4]
	ldr	r3, [r3, #36]
	mov	r3, r3, asl #2
	mov	r0, r3
	bl	_Z7b2Alloci(PLT)
	mov	r2, r0
	ldr	r3, [sp, #4]
	str	r2, [r3, #32]
.LBE2:
	.loc 1 32 0
	ldr	r3, [sp, #4]
	mov	r0, r3
	add	sp, sp, #12
	@ sp needed
	ldr	pc, [sp], #4
	.cfi_endproc
.LFE560:
	.size	_ZN12b2BroadPhaseC2Ev, .-_ZN12b2BroadPhaseC2Ev
	.global	_ZN12b2BroadPhaseC1Ev
	.hidden	_ZN12b2BroadPhaseC1Ev
	.set	_ZN12b2BroadPhaseC1Ev,_ZN12b2BroadPhaseC2Ev
	.section	.text._ZN12b2BroadPhaseD2Ev,"ax",%progbits
	.align	2
	.global	_ZN12b2BroadPhaseD2Ev
	.hidden	_ZN12b2BroadPhaseD2Ev
	.type	_ZN12b2BroadPhaseD2Ev, %function
_ZN12b2BroadPhaseD2Ev:
.LFB563:
	.loc 1 34 0
	.cfi_startproc
	@ args = 0, pretend = 0, frame = 8
	@ frame_needed = 0, uses_anonymous_args = 0
	str	lr, [sp, #-4]!
.LCFI2:
	.cfi_def_cfa_offset 4
	.cfi_offset 14, -4
	sub	sp, sp, #12
.LCFI3:
	.cfi_def_cfa_offset 16
	str	r0, [sp, #4]
.LBB3:
	.loc 1 36 0
	ldr	r3, [sp, #4]
	ldr	r3, [r3, #32]
	mov	r0, r3
	bl	_Z6b2FreePv(PLT)
	.loc 1 37 0
	ldr	r3, [sp, #4]
	ldr	r3, [r3, #44]
	mov	r0, r3
	bl	_Z6b2FreePv(PLT)
	.loc 1 34 0
	ldr	r3, [sp, #4]
	.loc 1 38 0
	mov	r0, r3
	bl	_ZN13b2DynamicTreeD1Ev(PLT)
.LBE3:
	ldr	r3, [sp, #4]
	mov	r0, r3
	add	sp, sp, #12
	@ sp needed
	ldr	pc, [sp], #4
	.cfi_endproc
.LFE563:
	.size	_ZN12b2BroadPhaseD2Ev, .-_ZN12b2BroadPhaseD2Ev
	.global	_ZN12b2BroadPhaseD1Ev
	.hidden	_ZN12b2BroadPhaseD1Ev
	.set	_ZN12b2BroadPhaseD1Ev,_ZN12b2BroadPhaseD2Ev
	.section	.text._ZN12b2BroadPhase11CreateProxyERK6b2AABBPv,"ax",%progbits
	.align	2
	.global	_ZN12b2BroadPhase11CreateProxyERK6b2AABBPv
	.hidden	_ZN12b2BroadPhase11CreateProxyERK6b2AABBPv
	.type	_ZN12b2BroadPhase11CreateProxyERK6b2AABBPv, %function
_ZN12b2BroadPhase11CreateProxyERK6b2AABBPv:
.LFB565:
	.loc 1 41 0
	.cfi_startproc
	@ args = 0, pretend = 0, frame = 24
	@ frame_needed = 0, uses_anonymous_args = 0
	str	lr, [sp, #-4]!
.LCFI4:
	.cfi_def_cfa_offset 4
	.cfi_offset 14, -4
	sub	sp, sp, #28
.LCFI5:
	.cfi_def_cfa_offset 32
	str	r0, [sp, #12]
	str	r1, [sp, #8]
	str	r2, [sp, #4]
.LBB4:
	.loc 1 42 0
	ldr	r3, [sp, #12]
	mov	r0, r3
	ldr	r1, [sp, #8]
	ldr	r2, [sp, #4]
	bl	_ZN13b2DynamicTree11CreateProxyERK6b2AABBPv(PLT)
	str	r0, [sp, #20]
	.loc 1 43 0
	ldr	r3, [sp, #12]
	ldr	r3, [r3, #28]
	add	r2, r3, #1
	ldr	r3, [sp, #12]
	str	r2, [r3, #28]
	.loc 1 44 0
	ldr	r0, [sp, #12]
	ldr	r1, [sp, #20]
	bl	_ZN12b2BroadPhase10BufferMoveEi(PLT)
	.loc 1 45 0
	ldr	r3, [sp, #20]
.LBE4:
	.loc 1 46 0
	mov	r0, r3
	add	sp, sp, #28
	@ sp needed
	ldr	pc, [sp], #4
	.cfi_endproc
.LFE565:
	.size	_ZN12b2BroadPhase11CreateProxyERK6b2AABBPv, .-_ZN12b2BroadPhase11CreateProxyERK6b2AABBPv
	.section	.text._ZN12b2BroadPhase12DestroyProxyEi,"ax",%progbits
	.align	2
	.global	_ZN12b2BroadPhase12DestroyProxyEi
	.hidden	_ZN12b2BroadPhase12DestroyProxyEi
	.type	_ZN12b2BroadPhase12DestroyProxyEi, %function
_ZN12b2BroadPhase12DestroyProxyEi:
.LFB566:
	.loc 1 49 0
	.cfi_startproc
	@ args = 0, pretend = 0, frame = 8
	@ frame_needed = 0, uses_anonymous_args = 0
	str	lr, [sp, #-4]!
.LCFI6:
	.cfi_def_cfa_offset 4
	.cfi_offset 14, -4
	sub	sp, sp, #12
.LCFI7:
	.cfi_def_cfa_offset 16
	str	r0, [sp, #4]
	str	r1, [sp]
	.loc 1 50 0
	ldr	r0, [sp, #4]
	ldr	r1, [sp]
	bl	_ZN12b2BroadPhase12UnBufferMoveEi(PLT)
	.loc 1 51 0
	ldr	r3, [sp, #4]
	ldr	r3, [r3, #28]
	sub	r2, r3, #1
	ldr	r3, [sp, #4]
	str	r2, [r3, #28]
	.loc 1 52 0
	ldr	r3, [sp, #4]
	mov	r0, r3
	ldr	r1, [sp]
	bl	_ZN13b2DynamicTree12DestroyProxyEi(PLT)
	.loc 1 53 0
	add	sp, sp, #12
	@ sp needed
	ldr	pc, [sp], #4
	.cfi_endproc
.LFE566:
	.size	_ZN12b2BroadPhase12DestroyProxyEi, .-_ZN12b2BroadPhase12DestroyProxyEi
	.section	.text._ZN12b2BroadPhase9MoveProxyEiRK6b2AABBRK6b2Vec2,"ax",%progbits
	.align	2
	.global	_ZN12b2BroadPhase9MoveProxyEiRK6b2AABBRK6b2Vec2
	.hidden	_ZN12b2BroadPhase9MoveProxyEiRK6b2AABBRK6b2Vec2
	.type	_ZN12b2BroadPhase9MoveProxyEiRK6b2AABBRK6b2Vec2, %function
_ZN12b2BroadPhase9MoveProxyEiRK6b2AABBRK6b2Vec2:
.LFB567:
	.loc 1 56 0
	.cfi_startproc
	@ args = 0, pretend = 0, frame = 24
	@ frame_needed = 0, uses_anonymous_args = 0
	str	lr, [sp, #-4]!
.LCFI8:
	.cfi_def_cfa_offset 4
	.cfi_offset 14, -4
	sub	sp, sp, #28
.LCFI9:
	.cfi_def_cfa_offset 32
	str	r0, [sp, #12]
	str	r1, [sp, #8]
	str	r2, [sp, #4]
	str	r3, [sp]
.LBB5:
	.loc 1 57 0
	ldr	r3, [sp, #12]
	mov	r0, r3
	ldr	r1, [sp, #8]
	ldr	r2, [sp, #4]
	ldr	r3, [sp]
	bl	_ZN13b2DynamicTree9MoveProxyEiRK6b2AABBRK6b2Vec2(PLT)
	mov	r3, r0
	strb	r3, [sp, #23]
	.loc 1 58 0
	ldrb	r3, [sp, #23]	@ zero_extendqisi2
	cmp	r3, #0
	beq	.L10
	.loc 1 60 0
	ldr	r0, [sp, #12]
	ldr	r1, [sp, #8]
	bl	_ZN12b2BroadPhase10BufferMoveEi(PLT)
.L10:
.LBE5:
	.loc 1 62 0
	add	sp, sp, #28
	@ sp needed
	ldr	pc, [sp], #4
	.cfi_endproc
.LFE567:
	.size	_ZN12b2BroadPhase9MoveProxyEiRK6b2AABBRK6b2Vec2, .-_ZN12b2BroadPhase9MoveProxyEiRK6b2AABBRK6b2Vec2
	.section	.text._ZN12b2BroadPhase10TouchProxyEi,"ax",%progbits
	.align	2
	.global	_ZN12b2BroadPhase10TouchProxyEi
	.hidden	_ZN12b2BroadPhase10TouchProxyEi
	.type	_ZN12b2BroadPhase10TouchProxyEi, %function
_ZN12b2BroadPhase10TouchProxyEi:
.LFB568:
	.loc 1 65 0
	.cfi_startproc
	@ args = 0, pretend = 0, frame = 8
	@ frame_needed = 0, uses_anonymous_args = 0
	str	lr, [sp, #-4]!
.LCFI10:
	.cfi_def_cfa_offset 4
	.cfi_offset 14, -4
	sub	sp, sp, #12
.LCFI11:
	.cfi_def_cfa_offset 16
	str	r0, [sp, #4]
	str	r1, [sp]
	.loc 1 66 0
	ldr	r0, [sp, #4]
	ldr	r1, [sp]
	bl	_ZN12b2BroadPhase10BufferMoveEi(PLT)
	.loc 1 67 0
	add	sp, sp, #12
	@ sp needed
	ldr	pc, [sp], #4
	.cfi_endproc
.LFE568:
	.size	_ZN12b2BroadPhase10TouchProxyEi, .-_ZN12b2BroadPhase10TouchProxyEi
	.section	.text._ZN12b2BroadPhase10BufferMoveEi,"ax",%progbits
	.align	2
	.global	_ZN12b2BroadPhase10BufferMoveEi
	.hidden	_ZN12b2BroadPhase10BufferMoveEi
	.type	_ZN12b2BroadPhase10BufferMoveEi, %function
_ZN12b2BroadPhase10BufferMoveEi:
.LFB569:
	.loc 1 70 0
	.cfi_startproc
	@ args = 0, pretend = 0, frame = 16
	@ frame_needed = 0, uses_anonymous_args = 0
	str	lr, [sp, #-4]!
.LCFI12:
	.cfi_def_cfa_offset 4
	.cfi_offset 14, -4
	sub	sp, sp, #20
.LCFI13:
	.cfi_def_cfa_offset 24
	str	r0, [sp, #4]
	str	r1, [sp]
.LBB6:
.LBB7:
	.loc 1 71 0
	ldr	r3, [sp, #4]
	ldr	r2, [r3, #40]
	ldr	r3, [sp, #4]
	ldr	r3, [r3, #36]
	cmp	r2, r3
	bne	.L14
.LBB8:
	.loc 1 73 0
	ldr	r3, [sp, #4]
	ldr	r3, [r3, #32]
	str	r3, [sp, #12]
	.loc 1 74 0
	ldr	r3, [sp, #4]
	ldr	r3, [r3, #36]
	mov	r2, r3, asl #1
	ldr	r3, [sp, #4]
	str	r2, [r3, #36]
	.loc 1 75 0
	ldr	r3, [sp, #4]
	ldr	r3, [r3, #36]
	mov	r3, r3, asl #2
	mov	r0, r3
	bl	_Z7b2Alloci(PLT)
	mov	r2, r0
	ldr	r3, [sp, #4]
	str	r2, [r3, #32]
	.loc 1 76 0
	ldr	r3, [sp, #4]
	ldr	r2, [r3, #32]
	ldr	r3, [sp, #4]
	ldr	r3, [r3, #40]
	mov	r3, r3, asl #2
	mov	r0, r2
	ldr	r1, [sp, #12]
	mov	r2, r3
	bl	memcpy(PLT)
	.loc 1 77 0
	ldr	r0, [sp, #12]
	bl	_Z6b2FreePv(PLT)
.L14:
.LBE8:
.LBE7:
	.loc 1 80 0
	ldr	r3, [sp, #4]
	ldr	r2, [r3, #32]
	ldr	r3, [sp, #4]
	ldr	r3, [r3, #40]
	mov	r3, r3, asl #2
	add	r3, r2, r3
	ldr	r2, [sp]
	str	r2, [r3]
	.loc 1 81 0
	ldr	r3, [sp, #4]
	ldr	r3, [r3, #40]
	add	r2, r3, #1
	ldr	r3, [sp, #4]
	str	r2, [r3, #40]
.LBE6:
	.loc 1 82 0
	add	sp, sp, #20
	@ sp needed
	ldr	pc, [sp], #4
	.cfi_endproc
.LFE569:
	.size	_ZN12b2BroadPhase10BufferMoveEi, .-_ZN12b2BroadPhase10BufferMoveEi
	.section	.text._ZN12b2BroadPhase12UnBufferMoveEi,"ax",%progbits
	.align	2
	.global	_ZN12b2BroadPhase12UnBufferMoveEi
	.hidden	_ZN12b2BroadPhase12UnBufferMoveEi
	.type	_ZN12b2BroadPhase12UnBufferMoveEi, %function
_ZN12b2BroadPhase12UnBufferMoveEi:
.LFB570:
	.loc 1 85 0
	.cfi_startproc
	@ args = 0, pretend = 0, frame = 16
	@ frame_needed = 0, uses_anonymous_args = 0
	@ link register save eliminated.
	sub	sp, sp, #16
.LCFI14:
	.cfi_def_cfa_offset 16
	str	r0, [sp, #4]
	str	r1, [sp]
.LBB9:
.LBB10:
	.loc 1 86 0
	mov	r3, #0
	str	r3, [sp, #12]
	b	.L16
.L18:
	.loc 1 88 0
	ldr	r3, [sp, #4]
	ldr	r2, [r3, #32]
	ldr	r3, [sp, #12]
	mov	r3, r3, asl #2
	add	r3, r2, r3
	ldr	r2, [r3]
	ldr	r3, [sp]
	cmp	r2, r3
	bne	.L17
	.loc 1 90 0
	ldr	r3, [sp, #4]
	ldr	r2, [r3, #32]
	ldr	r3, [sp, #12]
	mov	r3, r3, asl #2
	add	r3, r2, r3
	mvn	r2, #0
	str	r2, [r3]
.L17:
	.loc 1 86 0
	ldr	r3, [sp, #12]
	add	r3, r3, #1
	str	r3, [sp, #12]
.L16:
	.loc 1 86 0 is_stmt 0 discriminator 1
	ldr	r3, [sp, #4]
	ldr	r2, [r3, #40]
	ldr	r3, [sp, #12]
	cmp	r2, r3
	bgt	.L18
.LBE10:
.LBE9:
	.loc 1 93 0 is_stmt 1
	add	sp, sp, #16
	@ sp needed
	bx	lr
	.cfi_endproc
.LFE570:
	.size	_ZN12b2BroadPhase12UnBufferMoveEi, .-_ZN12b2BroadPhase12UnBufferMoveEi
	.section	.text._ZN12b2BroadPhase13QueryCallbackEi,"ax",%progbits
	.align	2
	.global	_ZN12b2BroadPhase13QueryCallbackEi
	.hidden	_ZN12b2BroadPhase13QueryCallbackEi
	.type	_ZN12b2BroadPhase13QueryCallbackEi, %function
_ZN12b2BroadPhase13QueryCallbackEi:
.LFB571:
	.loc 1 97 0
	.cfi_startproc
	@ args = 0, pretend = 0, frame = 16
	@ frame_needed = 0, uses_anonymous_args = 0
	stmfd	sp!, {r4, lr}
.LCFI15:
	.cfi_def_cfa_offset 8
	.cfi_offset 4, -8
	.cfi_offset 14, -4
	sub	sp, sp, #16
.LCFI16:
	.cfi_def_cfa_offset 24
	str	r0, [sp, #4]
	str	r1, [sp]
.LBB11:
	.loc 1 99 0
	ldr	r3, [sp, #4]
	ldr	r2, [r3, #56]
	ldr	r3, [sp]
	cmp	r2, r3
	bne	.L20
	.loc 1 101 0
	mov	r3, #1
	b	.L21
.L20:
.LBB12:
	.loc 1 105 0
	ldr	r3, [sp, #4]
	ldr	r2, [r3, #52]
	ldr	r3, [sp, #4]
	ldr	r3, [r3, #48]
	cmp	r2, r3
	bne	.L22
.LBB13:
	.loc 1 107 0
	ldr	r3, [sp, #4]
	ldr	r3, [r3, #44]
	str	r3, [sp, #12]
	.loc 1 108 0
	ldr	r3, [sp, #4]
	ldr	r3, [r3, #48]
	mov	r2, r3, asl #1
	ldr	r3, [sp, #4]
	str	r2, [r3, #48]
	.loc 1 109 0
	ldr	r3, [sp, #4]
	ldr	r3, [r3, #48]
	mov	r3, r3, asl #3
	mov	r0, r3
	bl	_Z7b2Alloci(PLT)
	mov	r2, r0
	ldr	r3, [sp, #4]
	str	r2, [r3, #44]
	.loc 1 110 0
	ldr	r3, [sp, #4]
	ldr	r2, [r3, #44]
	ldr	r3, [sp, #4]
	ldr	r3, [r3, #52]
	mov	r3, r3, asl #3
	mov	r0, r2
	ldr	r1, [sp, #12]
	mov	r2, r3
	bl	memcpy(PLT)
	.loc 1 111 0
	ldr	r0, [sp, #12]
	bl	_Z6b2FreePv(PLT)
.L22:
.LBE13:
.LBE12:
	.loc 1 114 0
	ldr	r3, [sp, #4]
	ldr	r2, [r3, #44]
	ldr	r3, [sp, #4]
	ldr	r3, [r3, #52]
	mov	r3, r3, asl #3
	add	r4, r2, r3
	ldr	r3, [sp, #4]
	ldr	r3, [r3, #56]
	ldr	r0, [sp]
	mov	r1, r3
	bl	_Z5b2MinIiET_S0_S0_(PLT)
	mov	r3, r0
	str	r3, [r4]
	.loc 1 115 0
	ldr	r3, [sp, #4]
	ldr	r2, [r3, #44]
	ldr	r3, [sp, #4]
	ldr	r3, [r3, #52]
	mov	r3, r3, asl #3
	add	r4, r2, r3
	ldr	r3, [sp, #4]
	ldr	r3, [r3, #56]
	ldr	r0, [sp]
	mov	r1, r3
	bl	_Z5b2MaxIiET_S0_S0_(PLT)
	mov	r3, r0
	str	r3, [r4, #4]
	.loc 1 116 0
	ldr	r3, [sp, #4]
	ldr	r3, [r3, #52]
	add	r2, r3, #1
	ldr	r3, [sp, #4]
	str	r2, [r3, #52]
	.loc 1 118 0
	mov	r3, #1
.L21:
.LBE11:
	.loc 1 119 0
	mov	r0, r3
	add	sp, sp, #16
	@ sp needed
	ldmfd	sp!, {r4, pc}
	.cfi_endproc
.LFE571:
	.size	_ZN12b2BroadPhase13QueryCallbackEi, .-_ZN12b2BroadPhase13QueryCallbackEi
	.section	.text._Z5b2MinIiET_S0_S0_,"axG",%progbits,_Z5b2MinIiET_S0_S0_,comdat
	.align	2
	.weak	_Z5b2MinIiET_S0_S0_
	.hidden	_Z5b2MinIiET_S0_S0_
	.type	_Z5b2MinIiET_S0_S0_, %function
_Z5b2MinIiET_S0_S0_:
.LFB577:
	.file 2 "c:/users/ben/desktop/fyp/finalyearproject/box2d/Box2D/Common/b2Math.h"
	.loc 2 632 0
	.cfi_startproc
	@ args = 0, pretend = 0, frame = 8
	@ frame_needed = 0, uses_anonymous_args = 0
	@ link register save eliminated.
	sub	sp, sp, #8
.LCFI17:
	.cfi_def_cfa_offset 8
	str	r0, [sp, #4]
	str	r1, [sp]
	.loc 2 634 0
	ldr	r2, [sp, #4]
	ldr	r3, [sp]
	cmp	r2, r3
	bge	.L24
	.loc 2 634 0 is_stmt 0 discriminator 1
	ldr	r3, [sp, #4]
	b	.L25
.L24:
	.loc 2 634 0 discriminator 2
	ldr	r3, [sp]
.L25:
	.loc 2 635 0 is_stmt 1 discriminator 3
	mov	r0, r3
	add	sp, sp, #8
	@ sp needed
	bx	lr
	.cfi_endproc
.LFE577:
	.size	_Z5b2MinIiET_S0_S0_, .-_Z5b2MinIiET_S0_S0_
	.section	.text._Z5b2MaxIiET_S0_S0_,"axG",%progbits,_Z5b2MaxIiET_S0_S0_,comdat
	.align	2
	.weak	_Z5b2MaxIiET_S0_S0_
	.hidden	_Z5b2MaxIiET_S0_S0_
	.type	_Z5b2MaxIiET_S0_S0_, %function
_Z5b2MaxIiET_S0_S0_:
.LFB578:
	.loc 2 643 0
	.cfi_startproc
	@ args = 0, pretend = 0, frame = 8
	@ frame_needed = 0, uses_anonymous_args = 0
	@ link register save eliminated.
	sub	sp, sp, #8
.LCFI18:
	.cfi_def_cfa_offset 8
	str	r0, [sp, #4]
	str	r1, [sp]
	.loc 2 645 0
	ldr	r2, [sp, #4]
	ldr	r3, [sp]
	cmp	r2, r3
	ble	.L28
	.loc 2 645 0 is_stmt 0 discriminator 1
	ldr	r3, [sp, #4]
	b	.L29
.L28:
	.loc 2 645 0 discriminator 2
	ldr	r3, [sp]
.L29:
	.loc 2 646 0 is_stmt 1 discriminator 3
	mov	r0, r3
	add	sp, sp, #8
	@ sp needed
	bx	lr
	.cfi_endproc
.LFE578:
	.size	_Z5b2MaxIiET_S0_S0_, .-_Z5b2MaxIiET_S0_S0_
	.section	.rodata
	.type	_ZL14b2_nullFeature, %object
	.size	_ZL14b2_nullFeature, 1
_ZL14b2_nullFeature:
	.byte	-1
	.align	2
	.type	_ZN4_STLL16__stl_chunk_sizeE, %object
	.size	_ZN4_STLL16__stl_chunk_sizeE, 4
_ZN4_STLL16__stl_chunk_sizeE:
	.word	7
	.text
.Letext0:
	.file 3 "c:/marmalade/7.4/s3e/h/std/stddef.h"
	.file 4 "c:/marmalade/7.4/s3e/h/s3eTypes.h"
	.file 5 "c:/users/ben/desktop/fyp/finalyearproject/box2d/Box2D/Common/b2Settings.h"
	.file 6 "c:/users/ben/desktop/fyp/finalyearproject/box2d/Box2D/Collision/b2Collision.h"
	.file 7 "c:/users/ben/desktop/fyp/finalyearproject/box2d/Box2D/Collision/b2DynamicTree.h"
	.file 8 "c:/marmalade/7.4/s3e/h/std/c++/cstddef"
	.file 9 "c:/marmalade/7.4/s3e/h/std/c++/using/cstring"
	.file 10 "c:/marmalade/7.4/s3e/h/std/c++/cstdlib"
	.file 11 "c:/marmalade/7.4/s3e/h/std/c++/exception"
	.file 12 "c:/marmalade/7.4/s3e/h/std/c++/stl/_config.h"
	.file 13 "c:/marmalade/7.4/s3e/h/std/string.h"
	.file 14 "c:/marmalade/7.4/s3e/h/ext/../std/stdlib.h"
	.file 15 "c:/users/ben/desktop/fyp/finalyearproject/box2d/Box2D/Collision/b2BroadPhase.h"
	.file 16 "<built-in>"
	.file 17 "c:/marmalade/7.4/s3e/h/std/c++/stl/_algo.c"