	.arch armv6
	.fpu softvfp
	.eabi_attribute 20, 1
	.eabi_attribute 21, 1
	.eabi_attribute 23, 3
	.eabi_attribute 24, 1
	.eabi_attribute 25, 1
	.eabi_attribute 26, 2
	.eabi_attribute 30, 6
	.eabi_attribute 34, 1
	.eabi_attribute 18, 2
	.file	"b2CircleContact.cpp"
	.text
.Ltext0:
	.cfi_sections	.debug_frame
	.section	.text._ZNK7b2Shape7GetTypeEv,"axG",%progbits,_ZNK7b2Shape7GetTypeEv,comdat
	.align	2
	.weak	_ZNK7b2Shape7GetTypeEv
	.hidden	_ZNK7b2Shape7GetTypeEv
	.type	_ZNK7b2Shape7GetTypeEv, %function
_ZNK7b2Shape7GetTypeEv:
.LFB132:
	.file 1 "c:/users/ben/desktop/fyp/finalyearproject/box2d/Box2D/Collision/Shapes/b2Shape.h"
	.loc 1 97 0
	.cfi_startproc
	@ args = 0, pretend = 0, frame = 8
	@ frame_needed = 0, uses_anonymous_args = 0
	@ link register save eliminated.
	sub	sp, sp, #8
.LCFI0:
	.cfi_def_cfa_offset 8
	str	r0, [sp, #4]
	.loc 1 98 0
	ldr	r3, [sp, #4]
	ldr	r3, [r3, #4]
	.loc 1 99 0
	mov	r0, r3
	add	sp, sp, #8
	@ sp needed
	bx	lr
	.cfi_endproc
.LFE132:
	.size	_ZNK7b2Shape7GetTypeEv, .-_ZNK7b2Shape7GetTypeEv
	.section	.text._ZnwjPv,"axG",%progbits,_ZnwjPv,comdat
	.align	2
	.weak	_ZnwjPv
	.hidden	_ZnwjPv
	.type	_ZnwjPv, %function
_ZnwjPv:
.LFB153:
	.file 2 "c:/marmalade/7.4/s3e/h/std/c++/new.h"
	.loc 2 52 0
	.cfi_startproc
	@ args = 0, pretend = 0, frame = 8
	@ frame_needed = 0, uses_anonymous_args = 0
	@ link register save eliminated.
	sub	sp, sp, #8
.LCFI1:
	.cfi_def_cfa_offset 8
	str	r0, [sp, #4]
	str	r1, [sp]
	.loc 2 52 0
	ldr	r3, [sp]
	mov	r0, r3
	add	sp, sp, #8
	@ sp needed
	bx	lr
	.cfi_endproc
.LFE153:
	.size	_ZnwjPv, .-_ZnwjPv
	.section	.text._ZNK9b2Fixture7GetTypeEv,"axG",%progbits,_ZNK9b2Fixture7GetTypeEv,comdat
	.align	2
	.weak	_ZNK9b2Fixture7GetTypeEv
	.hidden	_ZNK9b2Fixture7GetTypeEv
	.type	_ZNK9b2Fixture7GetTypeEv, %function
_ZNK9b2Fixture7GetTypeEv:
.LFB492:
	.file 3 "c:/users/ben/desktop/fyp/finalyearproject/box2d/Box2D/Dynamics/b2Fixture.h"
	.loc 3 239 0
	.cfi_startproc
	@ args = 0, pretend = 0, frame = 8
	@ frame_needed = 0, uses_anonymous_args = 0
	str	lr, [sp, #-4]!
.LCFI2:
	.cfi_def_cfa_offset 4
	.cfi_offset 14, -4
	sub	sp, sp, #12
.LCFI3:
	.cfi_def_cfa_offset 16
	str	r0, [sp, #4]
	.loc 3 240 0
	ldr	r3, [sp, #4]
	ldr	r3, [r3, #12]
	mov	r0, r3
	bl	_ZNK7b2Shape7GetTypeEv(PLT)
	mov	r3, r0
	.loc 3 241 0
	mov	r0, r3
	add	sp, sp, #12
	@ sp needed
	ldr	pc, [sp], #4
	.cfi_endproc
.LFE492:
	.size	_ZNK9b2Fixture7GetTypeEv, .-_ZNK9b2Fixture7GetTypeEv
	.section	.text._ZN9b2Fixture8GetShapeEv,"axG",%progbits,_ZN9b2Fixture8GetShapeEv,comdat
	.align	2
	.weak	_ZN9b2Fixture8GetShapeEv
	.hidden	_ZN9b2Fixture8GetShapeEv
	.type	_ZN9b2Fixture8GetShapeEv, %function
_ZN9b2Fixture8GetShapeEv:
.LFB493:
	.loc 3 244 0
	.cfi_startproc
	@ args = 0, pretend = 0, frame = 8
	@ frame_needed = 0, uses_anonymous_args = 0
	@ link register save eliminated.
	sub	sp, sp, #8
.LCFI4:
	.cfi_def_cfa_offset 8
	str	r0, [sp, #4]
	.loc 3 245 0
	ldr	r3, [sp, #4]
	ldr	r3, [r3, #12]
	.loc 3 246 0
	mov	r0, r3
	add	sp, sp, #8
	@ sp needed
	bx	lr
	.cfi_endproc
.LFE493:
	.size	_ZN9b2Fixture8GetShapeEv, .-_ZN9b2Fixture8GetShapeEv
	.section	.text._ZN9b2ContactD2Ev,"axG",%progbits,_ZN9b2ContactD5Ev,comdat
	.align	2
	.weak	_ZN9b2ContactD2Ev
	.hidden	_ZN9b2ContactD2Ev
	.type	_ZN9b2ContactD2Ev, %function
_ZN9b2ContactD2Ev:
.LFB525:
	.file 4 "c:/users/ben/desktop/fyp/finalyearproject/box2d/Box2D/Dynamics/Contacts/b2Contact.h"
	.loc 4 188 0
	.cfi_startproc
	@ args = 0, pretend = 0, frame = 8
	@ frame_needed = 0, uses_anonymous_args = 0
	str	lr, [sp, #-4]!
.LCFI5:
	.cfi_def_cfa_offset 4
	.cfi_offset 14, -4
	sub	sp, sp, #12
.LCFI6:
	.cfi_def_cfa_offset 16
	str	r0, [sp, #4]
.LBB2:
	.loc 4 188 0
	ldr	r3, [sp, #4]
	ldr	r2, .L13
.LPIC0:
	add	r2, pc, r2
	add	r2, r2, #8
	str	r2, [r3]
.LBE2:
	mov	r3, #0
	cmp	r3, #0
	beq	.L11
	.loc 4 188 0 is_stmt 0 discriminator 1
	ldr	r0, [sp, #4]
	bl	_ZdlPv(PLT)
.L11:
	.loc 4 188 0 discriminator 2
	ldr	r3, [sp, #4]
	mov	r0, r3
	add	sp, sp, #12
	@ sp needed
	ldr	pc, [sp], #4
.L14:
	.align	2
.L13:
	.word	_ZTV9b2Contact-(.LPIC0+8)
	.cfi_endproc
.LFE525:
	.size	_ZN9b2ContactD2Ev, .-_ZN9b2ContactD2Ev
	.weak	_ZN9b2ContactD1Ev
	.hidden	_ZN9b2ContactD1Ev
	.set	_ZN9b2ContactD1Ev,_ZN9b2ContactD2Ev
	.section	.text._ZN9b2ContactD0Ev,"axG",%progbits,_ZN9b2ContactD0Ev,comdat
	.align	2
	.weak	_ZN9b2ContactD0Ev
	.hidden	_ZN9b2ContactD0Ev
	.type	_ZN9b2ContactD0Ev, %function
_ZN9b2ContactD0Ev:
.LFB527:
	.loc 4 188 0 is_stmt 1
	.cfi_startproc
	@ args = 0, pretend = 0, frame = 8
	@ frame_needed = 0, uses_anonymous_args = 0
	str	lr, [sp, #-4]!
.LCFI7:
	.cfi_def_cfa_offset 4
	.cfi_offset 14, -4
	sub	sp, sp, #12
.LCFI8:
	.cfi_def_cfa_offset 16
	str	r0, [sp, #4]
	.loc 4 188 0
	ldr	r0, [sp, #4]
	bl	_ZN9b2ContactD1Ev(PLT)
	ldr	r0, [sp, #4]
	bl	_ZdlPv(PLT)
	ldr	r3, [sp, #4]
	mov	r0, r3
	add	sp, sp, #12
	@ sp needed
	ldr	pc, [sp], #4
	.cfi_endproc
.LFE527:
	.size	_ZN9b2ContactD0Ev, .-_ZN9b2ContactD0Ev
	.section	.text._ZN15b2CircleContactD2Ev,"axG",%progbits,_ZN15b2CircleContactD5Ev,comdat
	.align	2
	.weak	_ZN15b2CircleContactD2Ev
	.hidden	_ZN15b2CircleContactD2Ev
	.type	_ZN15b2CircleContactD2Ev, %function
_ZN15b2CircleContactD2Ev:
.LFB552:
	.file 5 "c:/users/ben/desktop/fyp/finalyearproject/box2d/Box2D/Dynamics/Contacts/b2CircleContact.h"
	.loc 5 34 0
	.cfi_startproc
	@ args = 0, pretend = 0, frame = 8
	@ frame_needed = 0, uses_anonymous_args = 0
	str	lr, [sp, #-4]!
.LCFI9:
	.cfi_def_cfa_offset 4
	.cfi_offset 14, -4
	sub	sp, sp, #12
.LCFI10:
	.cfi_def_cfa_offset 16
	str	r0, [sp, #4]
.LBB3:
	.loc 5 34 0
	ldr	r3, [sp, #4]
	ldr	r2, .L22
.LPIC1:
	add	r2, pc, r2
	add	r2, r2, #8
	str	r2, [r3]
	ldr	r3, [sp, #4]
	mov	r0, r3
	bl	_ZN9b2ContactD2Ev(PLT)
.LBE3:
	mov	r3, #0
	cmp	r3, #0
	beq	.L20
	.loc 5 34 0 is_stmt 0 discriminator 1
	ldr	r0, [sp, #4]
	bl	_ZdlPv(PLT)
.L20:
	.loc 5 34 0 discriminator 2
	ldr	r3, [sp, #4]
	mov	r0, r3
	add	sp, sp, #12
	@ sp needed
	ldr	pc, [sp], #4
.L23:
	.align	2
.L22:
	.word	_ZTV15b2CircleContact-(.LPIC1+8)
	.cfi_endproc
.LFE552:
	.size	_ZN15b2CircleContactD2Ev, .-_ZN15b2CircleContactD2Ev
	.weak	_ZN15b2CircleContactD1Ev
	.hidden	_ZN15b2CircleContactD1Ev
	.set	_ZN15b2CircleContactD1Ev,_ZN15b2CircleContactD2Ev
	.section	.text._ZN15b2CircleContactD0Ev,"axG",%progbits,_ZN15b2CircleContactD0Ev,comdat
	.align	2
	.weak	_ZN15b2CircleContactD0Ev
	.hidden	_ZN15b2CircleContactD0Ev
	.type	_ZN15b2CircleContactD0Ev, %function
_ZN15b2CircleContactD0Ev:
.LFB554:
	.loc 5 34 0 is_stmt 1
	.cfi_startproc
	@ args = 0, pretend = 0, frame = 8
	@ frame_needed = 0, uses_anonymous_args = 0
	str	lr, [sp, #-4]!
.LCFI11:
	.cfi_def_cfa_offset 4
	.cfi_offset 14, -4
	sub	sp, sp, #12
.LCFI12:
	.cfi_def_cfa_offset 16
	str	r0, [sp, #4]
	.loc 5 34 0
	ldr	r0, [sp, #4]
	bl	_ZN15b2CircleContactD1Ev(PLT)
	ldr	r0, [sp, #4]
	bl	_ZdlPv(PLT)
	ldr	r3, [sp, #4]
	mov	r0, r3
	add	sp, sp, #12
	@ sp needed
	ldr	pc, [sp], #4
	.cfi_endproc
.LFE554:
	.size	_ZN15b2CircleContactD0Ev, .-_ZN15b2CircleContactD0Ev
	.section	.text._ZN15b2CircleContact6CreateEP9b2FixtureiS1_iP16b2BlockAllocator,"ax",%progbits
	.align	2
	.global	_ZN15b2CircleContact6CreateEP9b2FixtureiS1_iP16b2BlockAllocator
	.hidden	_ZN15b2CircleContact6CreateEP9b2FixtureiS1_iP16b2BlockAllocator
	.type	_ZN15b2CircleContact6CreateEP9b2FixtureiS1_iP16b2BlockAllocator, %function
_ZN15b2CircleContact6CreateEP9b2FixtureiS1_iP16b2BlockAllocator:
.LFB586:
	.file 6 "c:/Users/Ben/Desktop/FYP/FinalYearProject/box2d/Box2D/Dynamics/Contacts/b2CircleContact.cpp"
	.loc 6 29 0
	.cfi_startproc
	@ args = 4, pretend = 0, frame = 24
	@ frame_needed = 0, uses_anonymous_args = 0
	stmfd	sp!, {r4, lr}
.LCFI13:
	.cfi_def_cfa_offset 8
	.cfi_offset 4, -8
	.cfi_offset 14, -4
	sub	sp, sp, #24
.LCFI14:
	.cfi_def_cfa_offset 32
	str	r0, [sp, #12]
	str	r1, [sp, #8]
	str	r2, [sp, #4]
	str	r3, [sp]
.LBB4:
	.loc 6 30 0
	ldr	r0, [sp, #32]
	mov	r1, #148
	bl	_ZN16b2BlockAllocator8AllocateEi(PLT)
	str	r0, [sp, #20]
	.loc 6 31 0
	ldr	r3, [sp, #20]
	mov	r0, #148
	mov	r1, r3
	bl	_ZnwjPv(PLT)
	mov	r4, r0
	mov	r0, r4
	ldr	r1, [sp, #12]
	ldr	r2, [sp, #4]
	bl	_ZN15b2CircleContactC1EP9b2FixtureS1_(PLT)
	mov	r3, r4
.LBE4:
	.loc 6 32 0
	mov	r0, r3
	add	sp, sp, #24
	@ sp needed
	ldmfd	sp!, {r4, pc}
	.cfi_endproc
.LFE586:
	.size	_ZN15b2CircleContact6CreateEP9b2FixtureiS1_iP16b2BlockAllocator, .-_ZN15b2CircleContact6CreateEP9b2FixtureiS1_iP16b2BlockAllocator
	.section	.text._ZN15b2CircleContact7DestroyEP9b2ContactP16b2BlockAllocator,"ax",%progbits
	.align	2
	.global	_ZN15b2CircleContact7DestroyEP9b2ContactP16b2BlockAllocator
	.hidden	_ZN15b2CircleContact7DestroyEP9b2ContactP16b2BlockAllocator
	.type	_ZN15b2CircleContact7DestroyEP9b2ContactP16b2BlockAllocator, %function
_ZN15b2CircleContact7DestroyEP9b2ContactP16b2BlockAllocator:
.LFB587:
	.loc 6 35 0
	.cfi_startproc
	@ args = 0, pretend = 0, frame = 8
	@ frame_needed = 0, uses_anonymous_args = 0
	str	lr, [sp, #-4]!
.LCFI15:
	.cfi_def_cfa_offset 4
	.cfi_offset 14, -4
	sub	sp, sp, #12
.LCFI16:
	.cfi_def_cfa_offset 16
	str	r0, [sp, #4]
	str	r1, [sp]
	.loc 6 36 0
	ldr	r3, [sp, #4]
	ldr	r3, [r3]
	add	r3, r3, #4
	ldr	r3, [r3]
	ldr	r0, [sp, #4]
	blx	r3
	.loc 6 37 0
	ldr	r0, [sp]
	ldr	r1, [sp, #4]
	mov	r2, #148
	bl	_ZN16b2BlockAllocator4FreeEPvi(PLT)
	.loc 6 38 0
	add	sp, sp, #12
	@ sp needed
	ldr	pc, [sp], #4
	.cfi_endproc
.LFE587:
	.size	_ZN15b2CircleContact7DestroyEP9b2ContactP16b2BlockAllocator, .-_ZN15b2CircleContact7DestroyEP9b2ContactP16b2BlockAllocator
	.section	.rodata
	.align	2
.LC0:
	.ascii	"c:/Users/Ben/Desktop/FYP/FinalYearProject/box2d/Box"
	.ascii	"2D/Dynamics/Contacts/b2CircleContact.cpp\000"
	.align	2
.LC1:
	.ascii	"m_fixtureA->GetType() == b2Shape::e_circle\000"
	.align	2
.LC2:
	.ascii	"m_fixtureB->GetType() == b2Shape::e_circle\000"
	.section	.text._ZN15b2CircleContactC2EP9b2FixtureS1_,"ax",%progbits
	.align	2
	.global	_ZN15b2CircleContactC2EP9b2FixtureS1_
	.hidden	_ZN15b2CircleContactC2EP9b2FixtureS1_
	.type	_ZN15b2CircleContactC2EP9b2FixtureS1_, %function
_ZN15b2CircleContactC2EP9b2FixtureS1_:
.LFB589:
	.loc 6 40 0
	.cfi_startproc
	@ args = 0, pretend = 0, frame = 16
	@ frame_needed = 0, uses_anonymous_args = 0
	str	lr, [sp, #-4]!
.LCFI17:
	.cfi_def_cfa_offset 4
	.cfi_offset 14, -4
	sub	sp, sp, #28
.LCFI18:
	.cfi_def_cfa_offset 32
	str	r0, [sp, #20]
	str	r1, [sp, #16]
	str	r2, [sp, #12]
.LBB5:
	.loc 6 41 0
	ldr	r3, [sp, #20]
	mov	r2, #0
	str	r2, [sp]
	mov	r0, r3
	ldr	r1, [sp, #16]
	mov	r2, #0
	ldr	r3, [sp, #12]
	bl	_ZN9b2ContactC2EP9b2FixtureiS1_i(PLT)
	ldr	r3, [sp, #20]
	ldr	r2, .L34
.LPIC2:
	add	r2, pc, r2
	add	r2, r2, #8
	str	r2, [r3]
	.loc 6 43 0
	ldr	r3, [sp, #20]
	ldr	r3, [r3, #48]
	mov	r0, r3
	bl	_ZNK9b2Fixture7GetTypeEv(PLT)
	mov	r3, r0
	cmp	r3, #0
	beq	.L31
	.loc 6 43 0 is_stmt 0 discriminator 1
	ldr	r3, .L34+4
.LPIC3:
	add	r3, pc, r3
	mov	r0, r3
	mov	r1, #43
	ldr	r3, .L34+8
.LPIC4:
	add	r3, pc, r3
	mov	r2, r3
	bl	__assert(PLT)
.L31:
	.loc 6 44 0 is_stmt 1
	ldr	r3, [sp, #20]
	ldr	r3, [r3, #52]
	mov	r0, r3
	bl	_ZNK9b2Fixture7GetTypeEv(PLT)
	mov	r3, r0
	cmp	r3, #0
	beq	.L32
	.loc 6 44 0 is_stmt 0 discriminator 1
	ldr	r3, .L34+12
.LPIC5:
	add	r3, pc, r3
	mov	r0, r3
	mov	r1, #44
	ldr	r3, .L34+16
.LPIC6:
	add	r3, pc, r3
	mov	r2, r3
	bl	__assert(PLT)
.L32:
.LBE5:
	.loc 6 45 0 is_stmt 1
	ldr	r3, [sp, #20]
	mov	r0, r3
	add	sp, sp, #28
	@ sp needed
	ldr	pc, [sp], #4
.L35:
	.align	2
.L34:
	.word	_ZTV15b2CircleContact-(.LPIC2+8)
	.word	.LC0-(.LPIC3+8)
	.word	.LC1-(.LPIC4+8)
	.word	.LC0-(.LPIC5+8)
	.word	.LC2-(.LPIC6+8)
	.cfi_endproc
.LFE589:
	.size	_ZN15b2CircleContactC2EP9b2FixtureS1_, .-_ZN15b2CircleContactC2EP9b2FixtureS1_
	.global	_ZN15b2CircleContactC1EP9b2FixtureS1_
	.hidden	_ZN15b2CircleContactC1EP9b2FixtureS1_
	.set	_ZN15b2CircleContactC1EP9b2FixtureS1_,_ZN15b2CircleContactC2EP9b2FixtureS1_
	.section	.text._ZN15b2CircleContact8EvaluateEP10b2ManifoldRK11b2TransformS4_,"ax",%progbits
	.align	2
	.global	_ZN15b2CircleContact8EvaluateEP10b2ManifoldRK11b2TransformS4_
	.hidden	_ZN15b2CircleContact8EvaluateEP10b2ManifoldRK11b2TransformS4_
	.type	_ZN15b2CircleContact8EvaluateEP10b2ManifoldRK11b2TransformS4_, %function
_ZN15b2CircleContact8EvaluateEP10b2ManifoldRK11b2TransformS4_:
.LFB591:
	.loc 6 48 0
	.cfi_startproc
	@ args = 0, pretend = 0, frame = 16
	@ frame_needed = 0, uses_anonymous_args = 0
	stmfd	sp!, {r4, lr}
.LCFI19:
	.cfi_def_cfa_offset 8
	.cfi_offset 4, -8
	.cfi_offset 14, -4
	sub	sp, sp, #24
.LCFI20:
	.cfi_def_cfa_offset 32
	str	r0, [sp, #20]
	str	r1, [sp, #16]
	str	r2, [sp, #12]
	str	r3, [sp, #8]
	.loc 6 50 0
	ldr	r3, [sp, #20]
	ldr	r3, [r3, #48]
	mov	r0, r3
	bl	_ZN9b2Fixture8GetShapeEv(PLT)
	mov	r4, r0
	.loc 6 51 0
	ldr	r3, [sp, #20]
	ldr	r3, [r3, #52]
	mov	r0, r3
	bl	_ZN9b2Fixture8GetShapeEv(PLT)
	mov	r3, r0
	ldr	r2, [sp, #8]
	str	r2, [sp]
	ldr	r0, [sp, #16]
	mov	r1, r4
	ldr	r2, [sp, #12]
	bl	_Z16b2CollideCirclesP10b2ManifoldPK13b2CircleShapeRK11b2TransformS3_S6_(PLT)
	.loc 6 52 0
	add	sp, sp, #24
	@ sp needed
	ldmfd	sp!, {r4, pc}
	.cfi_endproc
.LFE591:
	.size	_ZN15b2CircleContact8EvaluateEP10b2ManifoldRK11b2TransformS4_, .-_ZN15b2CircleContact8EvaluateEP10b2ManifoldRK11b2TransformS4_
	.hidden	_ZTV15b2CircleContact
	.global	_ZTV15b2CircleContact
	.section	.data.rel.ro,"aw",%progbits
	.align	3
	.type	_ZTV15b2CircleContact, %object
	.size	_ZTV15b2CircleContact, 20
_ZTV15b2CircleContact:
	.word	0
	.word	_ZTI15b2CircleContact
	.word	_ZN15b2CircleContact8EvaluateEP10b2ManifoldRK11b2TransformS4_
	.word	_ZN15b2CircleContactD1Ev
	.word	_ZN15b2CircleContactD0Ev
	.hidden	_ZTV9b2Contact
	.weak	_ZTV9b2Contact
	.section	.data.rel.ro._ZTV9b2Contact,"awG",%progbits,_ZTV9b2Contact,comdat
	.align	3
	.type	_ZTV9b2Contact, %object
	.size	_ZTV9b2Contact, 20
_ZTV9b2Contact:
	.word	0
	.word	_ZTI9b2Contact
	.word	__cxa_pure_virtual
	.word	_ZN9b2ContactD1Ev
	.word	_ZN9b2ContactD0Ev
	.hidden	_ZTI15b2CircleContact
	.global	_ZTI15b2CircleContact
	.section	.data.rel.ro
	.align	2
	.type	_ZTI15b2CircleContact, %object
	.size	_ZTI15b2CircleContact, 12
_ZTI15b2CircleContact:
	.word	_ZTVN10__cxxabiv120__si_class_type_infoE+8
	.word	_ZTS15b2CircleContact
	.word	_ZTI9b2Contact
	.hidden	_ZTS15b2CircleContact
	.global	_ZTS15b2CircleContact
	.section	.rodata
	.align	2
	.type	_ZTS15b2CircleContact, %object
	.size	_ZTS15b2CircleContact, 18
_ZTS15b2CircleContact:
	.ascii	"15b2CircleContact\000"
	.hidden	_ZTS9b2Contact
	.weak	_ZTS9b2Contact
	.section	.rodata._ZTS9b2Contact,"aG",%progbits,_ZTS9b2Contact,comdat
	.align	2
	.type	_ZTS9b2Contact, %object
	.size	_ZTS9b2Contact, 11
_ZTS9b2Contact:
	.ascii	"9b2Contact\000"
	.hidden	_ZTI9b2Contact
	.weak	_ZTI9b2Contact
	.section	.data.rel.ro._ZTI9b2Contact,"awG",%progbits,_ZTI9b2Contact,comdat
	.align	2
	.type	_ZTI9b2Contact, %object
	.size	_ZTI9b2Contact, 8
_ZTI9b2Contact:
	.word	_ZTVN10__cxxabiv117__class_type_infoE+8
	.word	_ZTS9b2Contact
	.section	.rodata
	.type	_ZL14b2_nullFeature, %object
	.size	_ZL14b2_nullFeature, 1
_ZL14b2_nullFeature:
	.byte	-1
	.align	2
	.type	_ZL12b2_chunkSize, %object
	.size	_ZL12b2_chunkSize, 4
_ZL12b2_chunkSize:
	.word	16384
	.align	2
	.type	_ZL15b2_maxBlockSize, %object
	.size	_ZL15b2_maxBlockSize, 4
_ZL15b2_maxBlockSize:
	.word	640
	.align	2
	.type	_ZL13b2_blockSizes, %object
	.size	_ZL13b2_blockSizes, 4
_ZL13b2_blockSizes:
	.word	14
	.align	2
	.type	_ZL22b2_chunkArrayIncrement, %object
	.size	_ZL22b2_chunkArrayIncrement, 4
_ZL22b2_chunkArrayIncrement:
	.word	128
	.text
.Letext0:
	.file 7 "c:/marmalade/7.4/s3e/h/std/stddef.h"
	.file 8 "c:/marmalade/7.4/s3e/h/s3eTypes.h"
	.file 9 "c:/users/ben/desktop/fyp/finalyearproject/box2d/Box2D/Common/b2Settings.h"
	.file 10 "c:/users/ben/desktop/fyp/finalyearproject/box2d/Box2D/Common/b2Math.h"
	.file 11 "c:/users/ben/desktop/fyp/finalyearproject/box2d/Box2D/Collision/b2Collision.h"
	.file 12 "c:/users/ben/desktop/fyp/finalyearproject/box2d/Box2D/Common/b2BlockAllocator.h"
	.file 13 "c:/marmalade/7.4/s3e/h/std/c++/cstddef"
	.file 14 "c:/marmalade/7.4/s3e/h/std/c++/cstdlib"
	.file 15 "c:/marmalade/7.4/s3e/h/std/c++/using/cstring"
	.file 16 "c:/marmalade/7.4/s3e/h/std/c++/cstdio"
	.file 17 "c:/marmalade/7.4/s3e/h/std/c++/exception"
	.file 18 "c:/marmalade/7.4/s3e/h/std/c++/stl/_config.h"
	.file 19 "c:/marmalade/7.4/s3e/h/ext/../std/stdlib.h"
	.file 20 "c:/marmalade/7.4/s3e/h/ext/../std/string.h"
	.file 21 "c:/marmalade/7.4/s3e/h/ext/../std/stdio.h"
	.file 22 "c:/users/ben/desktop/fyp/finalyearproject/box2d/Box2D/Dynamics/b2Body.h"
	.file 23 "c:/users/ben/desktop/fyp/finalyearproject/box2d/Box2D/Dynamics/b2WorldCallbacks.h"
	.file 24 "<built-in>"