	.arch armv6
	.fpu softvfp
	.eabi_attribute 20, 1
	.eabi_attribute 21, 1
	.eabi_attribute 23, 3
	.eabi_attribute 24, 1
	.eabi_attribute 25, 1
	.eabi_attribute 26, 2
	.eabi_attribute 30, 6
	.eabi_attribute 34, 1
	.eabi_attribute 18, 2
	.file	"b2Contact.cpp"
	.text
.Ltext0:
	.cfi_sections	.debug_frame
	.section	.text._ZN6b2Vec2C2Ev,"axG",%progbits,_ZN6b2Vec2C5Ev,comdat
	.align	2
	.weak	_ZN6b2Vec2C2Ev
	.hidden	_ZN6b2Vec2C2Ev
	.type	_ZN6b2Vec2C2Ev, %function
_ZN6b2Vec2C2Ev:
.LFB5:
	.file 1 "c:/users/ben/desktop/fyp/finalyearproject/box2d/Box2D/Common/b2Math.h"
	.loc 1 56 0
	.cfi_startproc
	@ args = 0, pretend = 0, frame = 8
	@ frame_needed = 0, uses_anonymous_args = 0
	@ link register save eliminated.
	sub	sp, sp, #8
.LCFI0:
	.cfi_def_cfa_offset 8
	str	r0, [sp, #4]
	.loc 1 56 0
	ldr	r3, [sp, #4]
	mov	r0, r3
	add	sp, sp, #8
	@ sp needed
	bx	lr
	.cfi_endproc
.LFE5:
	.size	_ZN6b2Vec2C2Ev, .-_ZN6b2Vec2C2Ev
	.weak	_ZN6b2Vec2C1Ev
	.hidden	_ZN6b2Vec2C1Ev
	.set	_ZN6b2Vec2C1Ev,_ZN6b2Vec2C2Ev
	.section	.text._ZN6b2Vec27SetZeroEv,"axG",%progbits,_ZN6b2Vec27SetZeroEv,comdat
	.align	2
	.weak	_ZN6b2Vec27SetZeroEv
	.hidden	_ZN6b2Vec27SetZeroEv
	.type	_ZN6b2Vec27SetZeroEv, %function
_ZN6b2Vec27SetZeroEv:
.LFB10:
	.loc 1 62 0
	.cfi_startproc
	@ args = 0, pretend = 0, frame = 8
	@ frame_needed = 0, uses_anonymous_args = 0
	@ link register save eliminated.
	sub	sp, sp, #8
.LCFI1:
	.cfi_def_cfa_offset 8
	str	r0, [sp, #4]
	.loc 1 62 0
	ldr	r3, [sp, #4]
	mov	r2, #0
	str	r2, [r3]	@ float
	ldr	r3, [sp, #4]
	mov	r2, #0
	str	r2, [r3, #4]	@ float
	add	sp, sp, #8
	@ sp needed
	bx	lr
	.cfi_endproc
.LFE10:
	.size	_ZN6b2Vec27SetZeroEv, .-_ZN6b2Vec27SetZeroEv
	.section	.text._ZNK7b2Shape7GetTypeEv,"axG",%progbits,_ZNK7b2Shape7GetTypeEv,comdat
	.align	2
	.weak	_ZNK7b2Shape7GetTypeEv
	.hidden	_ZNK7b2Shape7GetTypeEv
	.type	_ZNK7b2Shape7GetTypeEv, %function
_ZNK7b2Shape7GetTypeEv:
.LFB132:
	.file 2 "c:/users/ben/desktop/fyp/finalyearproject/box2d/Box2D/Collision/Shapes/b2Shape.h"
	.loc 2 97 0
	.cfi_startproc
	@ args = 0, pretend = 0, frame = 8
	@ frame_needed = 0, uses_anonymous_args = 0
	@ link register save eliminated.
	sub	sp, sp, #8
.LCFI2:
	.cfi_def_cfa_offset 8
	str	r0, [sp, #4]
	.loc 2 98 0
	ldr	r3, [sp, #4]
	ldr	r3, [r3, #4]
	.loc 2 99 0
	mov	r0, r3
	add	sp, sp, #8
	@ sp needed
	bx	lr
	.cfi_endproc
.LFE132:
	.size	_ZNK7b2Shape7GetTypeEv, .-_ZNK7b2Shape7GetTypeEv
	.section	.text._ZNK6b2Body12GetTransformEv,"axG",%progbits,_ZNK6b2Body12GetTransformEv,comdat
	.align	2
	.weak	_ZNK6b2Body12GetTransformEv
	.hidden	_ZNK6b2Body12GetTransformEv
	.type	_ZNK6b2Body12GetTransformEv, %function
_ZNK6b2Body12GetTransformEv:
.LFB435:
	.file 3 "c:/users/ben/desktop/fyp/finalyearproject/box2d/Box2D/Dynamics/b2Body.h"
	.loc 3 475 0
	.cfi_startproc
	@ args = 0, pretend = 0, frame = 8
	@ frame_needed = 0, uses_anonymous_args = 0
	@ link register save eliminated.
	sub	sp, sp, #8
.LCFI3:
	.cfi_def_cfa_offset 8
	str	r0, [sp, #4]
	.loc 3 476 0
	ldr	r3, [sp, #4]
	add	r3, r3, #12
	.loc 3 477 0
	mov	r0, r3
	add	sp, sp, #8
	@ sp needed
	bx	lr
	.cfi_endproc
.LFE435:
	.size	_ZNK6b2Body12GetTransformEv, .-_ZNK6b2Body12GetTransformEv
	.section	.text._ZN6b2Body8SetAwakeEb,"axG",%progbits,_ZN6b2Body8SetAwakeEb,comdat
	.align	2
	.weak	_ZN6b2Body8SetAwakeEb
	.hidden	_ZN6b2Body8SetAwakeEb
	.type	_ZN6b2Body8SetAwakeEb, %function
_ZN6b2Body8SetAwakeEb:
.LFB461:
	.loc 3 634 0
	.cfi_startproc
	@ args = 0, pretend = 0, frame = 8
	@ frame_needed = 0, uses_anonymous_args = 0
	str	lr, [sp, #-4]!
.LCFI4:
	.cfi_def_cfa_offset 4
	.cfi_offset 14, -4
	sub	sp, sp, #12
.LCFI5:
	.cfi_def_cfa_offset 16
	str	r0, [sp, #4]
	mov	r3, r1
	strb	r3, [sp, #3]
	.loc 3 635 0
	ldrb	r3, [sp, #3]	@ zero_extendqisi2
	cmp	r3, #0
	beq	.L10
	.loc 3 637 0
	ldr	r3, [sp, #4]
	ldrh	r3, [r3, #4]
	and	r3, r3, #2
	cmp	r3, #0
	bne	.L9
	.loc 3 639 0
	ldr	r3, [sp, #4]
	ldrh	r3, [r3, #4]
	orr	r3, r3, #2
	uxth	r2, r3
	ldr	r3, [sp, #4]
	strh	r2, [r3, #4]	@ movhi
	.loc 3 640 0
	ldr	r3, [sp, #4]
	mov	r2, #0
	str	r2, [r3, #144]	@ float
	b	.L9
.L10:
	.loc 3 645 0
	ldr	r3, [sp, #4]
	ldrh	r3, [r3, #4]
	bic	r3, r3, #2
	uxth	r2, r3
	ldr	r3, [sp, #4]
	strh	r2, [r3, #4]	@ movhi
	.loc 3 646 0
	ldr	r3, [sp, #4]
	mov	r2, #0
	str	r2, [r3, #144]	@ float
	.loc 3 647 0
	ldr	r3, [sp, #4]
	add	r3, r3, #64
	mov	r0, r3
	bl	_ZN6b2Vec27SetZeroEv(PLT)
	.loc 3 648 0
	ldr	r3, [sp, #4]
	mov	r2, #0
	str	r2, [r3, #72]	@ float
	.loc 3 649 0
	ldr	r3, [sp, #4]
	add	r3, r3, #76
	mov	r0, r3
	bl	_ZN6b2Vec27SetZeroEv(PLT)
	.loc 3 650 0
	ldr	r3, [sp, #4]
	mov	r2, #0
	str	r2, [r3, #84]	@ float
.L9:
	.loc 3 652 0
	add	sp, sp, #12
	@ sp needed
	ldr	pc, [sp], #4
	.cfi_endproc
.LFE461:
	.size	_ZN6b2Body8SetAwakeEb, .-_ZN6b2Body8SetAwakeEb
	.section	.text._ZNK9b2Fixture7GetTypeEv,"axG",%progbits,_ZNK9b2Fixture7GetTypeEv,comdat
	.align	2
	.weak	_ZNK9b2Fixture7GetTypeEv
	.hidden	_ZNK9b2Fixture7GetTypeEv
	.type	_ZNK9b2Fixture7GetTypeEv, %function
_ZNK9b2Fixture7GetTypeEv:
.LFB492:
	.file 4 "c:/users/ben/desktop/fyp/finalyearproject/box2d/Box2D/Dynamics/b2Fixture.h"
	.loc 4 239 0
	.cfi_startproc
	@ args = 0, pretend = 0, frame = 8
	@ frame_needed = 0, uses_anonymous_args = 0
	str	lr, [sp, #-4]!
.LCFI6:
	.cfi_def_cfa_offset 4
	.cfi_offset 14, -4
	sub	sp, sp, #12
.LCFI7:
	.cfi_def_cfa_offset 16
	str	r0, [sp, #4]
	.loc 4 240 0
	ldr	r3, [sp, #4]
	ldr	r3, [r3, #12]
	mov	r0, r3
	bl	_ZNK7b2Shape7GetTypeEv(PLT)
	mov	r3, r0
	.loc 4 241 0
	mov	r0, r3
	add	sp, sp, #12
	@ sp needed
	ldr	pc, [sp], #4
	.cfi_endproc
.LFE492:
	.size	_ZNK9b2Fixture7GetTypeEv, .-_ZNK9b2Fixture7GetTypeEv
	.section	.text._ZN9b2Fixture8GetShapeEv,"axG",%progbits,_ZN9b2Fixture8GetShapeEv,comdat
	.align	2
	.weak	_ZN9b2Fixture8GetShapeEv
	.hidden	_ZN9b2Fixture8GetShapeEv
	.type	_ZN9b2Fixture8GetShapeEv, %function
_ZN9b2Fixture8GetShapeEv:
.LFB493:
	.loc 4 244 0
	.cfi_startproc
	@ args = 0, pretend = 0, frame = 8
	@ frame_needed = 0, uses_anonymous_args = 0
	@ link register save eliminated.
	sub	sp, sp, #8
.LCFI8:
	.cfi_def_cfa_offset 8
	str	r0, [sp, #4]
	.loc 4 245 0
	ldr	r3, [sp, #4]
	ldr	r3, [r3, #12]
	.loc 4 246 0
	mov	r0, r3
	add	sp, sp, #8
	@ sp needed
	bx	lr
	.cfi_endproc
.LFE493:
	.size	_ZN9b2Fixture8GetShapeEv, .-_ZN9b2Fixture8GetShapeEv
	.section	.text._ZNK9b2Fixture8IsSensorEv,"axG",%progbits,_ZNK9b2Fixture8IsSensorEv,comdat
	.align	2
	.weak	_ZNK9b2Fixture8IsSensorEv
	.hidden	_ZNK9b2Fixture8IsSensorEv
	.type	_ZNK9b2Fixture8IsSensorEv, %function
_ZNK9b2Fixture8IsSensorEv:
.LFB495:
	.loc 4 254 0
	.cfi_startproc
	@ args = 0, pretend = 0, frame = 8
	@ frame_needed = 0, uses_anonymous_args = 0
	@ link register save eliminated.
	sub	sp, sp, #8
.LCFI9:
	.cfi_def_cfa_offset 8
	str	r0, [sp, #4]
	.loc 4 255 0
	ldr	r3, [sp, #4]
	ldrb	r3, [r3, #38]	@ zero_extendqisi2
	.loc 4 256 0
	mov	r0, r3
	add	sp, sp, #8
	@ sp needed
	bx	lr
	.cfi_endproc
.LFE495:
	.size	_ZNK9b2Fixture8IsSensorEv, .-_ZNK9b2Fixture8IsSensorEv
	.section	.text._ZN9b2Fixture7GetBodyEv,"axG",%progbits,_ZN9b2Fixture7GetBodyEv,comdat
	.align	2
	.weak	_ZN9b2Fixture7GetBodyEv
	.hidden	_ZN9b2Fixture7GetBodyEv
	.type	_ZN9b2Fixture7GetBodyEv, %function
_ZN9b2Fixture7GetBodyEv:
.LFB499:
	.loc 4 274 0
	.cfi_startproc
	@ args = 0, pretend = 0, frame = 8
	@ frame_needed = 0, uses_anonymous_args = 0
	@ link register save eliminated.
	sub	sp, sp, #8
.LCFI10:
	.cfi_def_cfa_offset 8
	str	r0, [sp, #4]
	.loc 4 275 0
	ldr	r3, [sp, #4]
	ldr	r3, [r3, #8]
	.loc 4 276 0
	mov	r0, r3
	add	sp, sp, #8
	@ sp needed
	bx	lr
	.cfi_endproc
.LFE499:
	.size	_ZN9b2Fixture7GetBodyEv, .-_ZN9b2Fixture7GetBodyEv
	.global	__aeabi_fmul
	.section	.text._Z13b2MixFrictionff,"axG",%progbits,_Z13b2MixFrictionff,comdat
	.align	2
	.weak	_Z13b2MixFrictionff
	.hidden	_Z13b2MixFrictionff
	.type	_Z13b2MixFrictionff, %function
_Z13b2MixFrictionff:
.LFB513:
	.file 5 "c:/users/ben/desktop/fyp/finalyearproject/box2d/Box2D/Dynamics/Contacts/b2Contact.h"
	.loc 5 38 0
	.cfi_startproc
	@ args = 0, pretend = 0, frame = 8
	@ frame_needed = 0, uses_anonymous_args = 0
	str	lr, [sp, #-4]!
.LCFI11:
	.cfi_def_cfa_offset 4
	.cfi_offset 14, -4
	sub	sp, sp, #12
.LCFI12:
	.cfi_def_cfa_offset 16
	str	r0, [sp, #4]	@ float
	str	r1, [sp]	@ float
	.loc 5 39 0
	ldr	r0, [sp, #4]	@ float
	ldr	r1, [sp]	@ float
	bl	__aeabi_fmul(PLT)
	mov	r3, r0
	mov	r0, r3
	bl	sqrtf(PLT)
	mov	r3, r0
	.loc 5 40 0
	mov	r0, r3
	add	sp, sp, #12
	@ sp needed
	ldr	pc, [sp], #4
	.cfi_endproc
.LFE513:
	.size	_Z13b2MixFrictionff, .-_Z13b2MixFrictionff
	.global	__aeabi_fcmpgt
	.section	.text._Z16b2MixRestitutionff,"axG",%progbits,_Z16b2MixRestitutionff,comdat
	.align	2
	.weak	_Z16b2MixRestitutionff
	.hidden	_Z16b2MixRestitutionff
	.type	_Z16b2MixRestitutionff, %function
_Z16b2MixRestitutionff:
.LFB514:
	.loc 5 45 0
	.cfi_startproc
	@ args = 0, pretend = 0, frame = 8
	@ frame_needed = 0, uses_anonymous_args = 0
	str	lr, [sp, #-4]!
.LCFI13:
	.cfi_def_cfa_offset 4
	.cfi_offset 14, -4
	sub	sp, sp, #12
.LCFI14:
	.cfi_def_cfa_offset 16
	str	r0, [sp, #4]	@ float
	str	r1, [sp]	@ float
	.loc 5 46 0
	ldr	r0, [sp, #4]	@ float
	ldr	r1, [sp]	@ float
	bl	__aeabi_fcmpgt(PLT)
	mov	r3, r0
	cmp	r3, #0
	beq	.L28
	.loc 5 46 0 is_stmt 0 discriminator 1
	ldr	r3, [sp, #4]	@ float
	b	.L25
.L28:
	.loc 5 46 0 discriminator 2
	ldr	r3, [sp]	@ float
.L25:
	.loc 5 47 0 is_stmt 1 discriminator 3
	mov	r0, r3
	add	sp, sp, #12
	@ sp needed
	ldr	pc, [sp], #4
	.cfi_endproc
.LFE514:
	.size	_Z16b2MixRestitutionff, .-_Z16b2MixRestitutionff
	.section	.text._ZN15b2ManifoldPointC2Ev,"axG",%progbits,_ZN15b2ManifoldPointC5Ev,comdat
	.align	2
	.weak	_ZN15b2ManifoldPointC2Ev
	.hidden	_ZN15b2ManifoldPointC2Ev
	.type	_ZN15b2ManifoldPointC2Ev, %function
_ZN15b2ManifoldPointC2Ev:
.LFB518:
	.file 6 "c:/users/ben/desktop/fyp/finalyearproject/box2d/Box2D/Collision/b2Collision.h"
	.loc 6 69 0
	.cfi_startproc
	@ args = 0, pretend = 0, frame = 8
	@ frame_needed = 0, uses_anonymous_args = 0
	str	lr, [sp, #-4]!
.LCFI15:
	.cfi_def_cfa_offset 4
	.cfi_offset 14, -4
	sub	sp, sp, #12
.LCFI16:
	.cfi_def_cfa_offset 16
	str	r0, [sp, #4]
.LBB2:
	.loc 6 69 0
	ldr	r3, [sp, #4]
	mov	r0, r3
	bl	_ZN6b2Vec2C1Ev(PLT)
.LBE2:
	ldr	r3, [sp, #4]
	mov	r0, r3
	add	sp, sp, #12
	@ sp needed
	ldr	pc, [sp], #4
	.cfi_endproc
.LFE518:
	.size	_ZN15b2ManifoldPointC2Ev, .-_ZN15b2ManifoldPointC2Ev
	.weak	_ZN15b2ManifoldPointC1Ev
	.hidden	_ZN15b2ManifoldPointC1Ev
	.set	_ZN15b2ManifoldPointC1Ev,_ZN15b2ManifoldPointC2Ev
	.section	.text._ZN10b2ManifoldC2Ev,"axG",%progbits,_ZN10b2ManifoldC5Ev,comdat
	.align	2
	.weak	_ZN10b2ManifoldC2Ev
	.hidden	_ZN10b2ManifoldC2Ev
	.type	_ZN10b2ManifoldC2Ev, %function
_ZN10b2ManifoldC2Ev:
.LFB520:
	.loc 6 93 0
	.cfi_startproc
	@ args = 0, pretend = 0, frame = 8
	@ frame_needed = 0, uses_anonymous_args = 0
	stmfd	sp!, {r4, r5, lr}
.LCFI17:
	.cfi_def_cfa_offset 12
	.cfi_offset 4, -12
	.cfi_offset 5, -8
	.cfi_offset 14, -4
	sub	sp, sp, #12
.LCFI18:
	.cfi_def_cfa_offset 24
	str	r0, [sp, #4]
.LBB3:
	.loc 6 93 0
	ldr	r3, [sp, #4]
	mov	r4, #1
	mov	r5, r3
	b	.L33
.L34:
	.loc 6 93 0 is_stmt 0 discriminator 2
	mov	r0, r5
	bl	_ZN15b2ManifoldPointC1Ev(PLT)
	add	r5, r5, #20
	sub	r4, r4, #1
.L33:
	.loc 6 93 0 discriminator 1
	cmn	r4, #1
	bne	.L34
	.loc 6 93 0 discriminator 3
	ldr	r3, [sp, #4]
	add	r3, r3, #40
	mov	r0, r3
	bl	_ZN6b2Vec2C1Ev(PLT)
	ldr	r3, [sp, #4]
	add	r3, r3, #48
	mov	r0, r3
	bl	_ZN6b2Vec2C1Ev(PLT)
.LBE3:
	ldr	r3, [sp, #4]
	mov	r0, r3
	add	sp, sp, #12
	@ sp needed
	ldmfd	sp!, {r4, r5, pc}
	.cfi_endproc
.LFE520:
	.size	_ZN10b2ManifoldC2Ev, .-_ZN10b2ManifoldC2Ev
	.weak	_ZN10b2ManifoldC1Ev
	.hidden	_ZN10b2ManifoldC1Ev
	.set	_ZN10b2ManifoldC1Ev,_ZN10b2ManifoldC2Ev
	.section	.text._ZN9b2ContactD2Ev,"axG",%progbits,_ZN9b2ContactD5Ev,comdat
	.align	2
	.weak	_ZN9b2ContactD2Ev
	.hidden	_ZN9b2ContactD2Ev
	.type	_ZN9b2ContactD2Ev, %function
_ZN9b2ContactD2Ev:
.LFB525:
	.loc 5 188 0 is_stmt 1
	.cfi_startproc
	@ args = 0, pretend = 0, frame = 8
	@ frame_needed = 0, uses_anonymous_args = 0
	str	lr, [sp, #-4]!
.LCFI19:
	.cfi_def_cfa_offset 4
	.cfi_offset 14, -4
	sub	sp, sp, #12
.LCFI20:
	.cfi_def_cfa_offset 16
	str	r0, [sp, #4]
.LBB4:
	.loc 5 188 0
	ldr	r3, [sp, #4]
	ldr	r2, .L41
.LPIC0:
	add	r2, pc, r2
	add	r2, r2, #8
	str	r2, [r3]
.LBE4:
	mov	r3, #0
	cmp	r3, #0
	beq	.L39
	.loc 5 188 0 is_stmt 0 discriminator 1
	ldr	r0, [sp, #4]
	bl	_ZdlPv(PLT)
.L39:
	.loc 5 188 0 discriminator 2
	ldr	r3, [sp, #4]
	mov	r0, r3
	add	sp, sp, #12
	@ sp needed
	ldr	pc, [sp], #4
.L42:
	.align	2
.L41:
	.word	_ZTV9b2Contact-(.LPIC0+8)
	.cfi_endproc
.LFE525:
	.size	_ZN9b2ContactD2Ev, .-_ZN9b2ContactD2Ev
	.weak	_ZN9b2ContactD1Ev
	.hidden	_ZN9b2ContactD1Ev
	.set	_ZN9b2ContactD1Ev,_ZN9b2ContactD2Ev
	.section	.text._ZN9b2ContactD0Ev,"axG",%progbits,_ZN9b2ContactD0Ev,comdat
	.align	2
	.weak	_ZN9b2ContactD0Ev
	.hidden	_ZN9b2ContactD0Ev
	.type	_ZN9b2ContactD0Ev, %function
_ZN9b2ContactD0Ev:
.LFB527:
	.loc 5 188 0 is_stmt 1
	.cfi_startproc
	@ args = 0, pretend = 0, frame = 8
	@ frame_needed = 0, uses_anonymous_args = 0
	str	lr, [sp, #-4]!
.LCFI21:
	.cfi_def_cfa_offset 4
	.cfi_offset 14, -4
	sub	sp, sp, #12
.LCFI22:
	.cfi_def_cfa_offset 16
	str	r0, [sp, #4]
	.loc 5 188 0
	ldr	r0, [sp, #4]
	bl	_ZN9b2ContactD1Ev(PLT)
	ldr	r0, [sp, #4]
	bl	_ZdlPv(PLT)
	ldr	r3, [sp, #4]
	mov	r0, r3
	add	sp, sp, #12
	@ sp needed
	ldr	pc, [sp], #4
	.cfi_endproc
.LFE527:
	.size	_ZN9b2ContactD0Ev, .-_ZN9b2ContactD0Ev
	.hidden	_ZN9b2Contact11s_registersE
	.global	_ZN9b2Contact11s_registersE
	.bss
	.align	2
	.type	_ZN9b2Contact11s_registersE, %object
	.size	_ZN9b2Contact11s_registersE, 192
_ZN9b2Contact11s_registersE:
	.space	192
	.hidden	_ZN9b2Contact13s_initializedE
	.global	_ZN9b2Contact13s_initializedE
	.type	_ZN9b2Contact13s_initializedE, %object
	.size	_ZN9b2Contact13s_initializedE, 1
_ZN9b2Contact13s_initializedE:
	.space	1
	.section	.text._ZN9b2Contact19InitializeRegistersEv,"ax",%progbits
	.align	2
	.global	_ZN9b2Contact19InitializeRegistersEv
	.hidden	_ZN9b2Contact19InitializeRegistersEv
	.type	_ZN9b2Contact19InitializeRegistersEv, %function
_ZN9b2Contact19InitializeRegistersEv:
.LFB845:
	.file 7 "c:/Users/Ben/Desktop/FYP/FinalYearProject/box2d/Box2D/Dynamics/Contacts/b2Contact.cpp"
	.loc 7 41 0
	.cfi_startproc
	@ args = 0, pretend = 0, frame = 0
	@ frame_needed = 0, uses_anonymous_args = 0
	stmfd	sp!, {r4, lr}
.LCFI23:
	.cfi_def_cfa_offset 8
	.cfi_offset 4, -8
	.cfi_offset 14, -4
	ldr	r4, .L47
.LPIC1:
	add	r4, pc, r4
	.loc 7 42 0
	ldr	r3, .L47+4
	ldr	r3, [r4, r3]
	mov	r0, r3
	ldr	r3, .L47+8
	ldr	r3, [r4, r3]
	mov	r1, r3
	mov	r2, #0
	mov	r3, #0
	bl	_ZN9b2Contact7AddTypeEPFPS_P9b2FixtureiS2_iP16b2BlockAllocatorEPFvS0_S4_EN7b2Shape4TypeESA_(PLT)
	.loc 7 43 0
	ldr	r3, .L47+12
	ldr	r3, [r4, r3]
	mov	r0, r3
	ldr	r3, .L47+16
	ldr	r3, [r4, r3]
	mov	r1, r3
	mov	r2, #2
	mov	r3, #0
	bl	_ZN9b2Contact7AddTypeEPFPS_P9b2FixtureiS2_iP16b2BlockAllocatorEPFvS0_S4_EN7b2Shape4TypeESA_(PLT)
	.loc 7 44 0
	ldr	r3, .L47+20
	ldr	r3, [r4, r3]
	mov	r0, r3
	ldr	r3, .L47+24
	ldr	r3, [r4, r3]
	mov	r1, r3
	mov	r2, #2
	mov	r3, #2
	bl	_ZN9b2Contact7AddTypeEPFPS_P9b2FixtureiS2_iP16b2BlockAllocatorEPFvS0_S4_EN7b2Shape4TypeESA_(PLT)
	.loc 7 45 0
	ldr	r3, .L47+28
	ldr	r3, [r4, r3]
	mov	r0, r3
	ldr	r3, .L47+32
	ldr	r3, [r4, r3]
	mov	r1, r3
	mov	r2, #1
	mov	r3, #0
	bl	_ZN9b2Contact7AddTypeEPFPS_P9b2FixtureiS2_iP16b2BlockAllocatorEPFvS0_S4_EN7b2Shape4TypeESA_(PLT)
	.loc 7 46 0
	ldr	r3, .L47+36
	ldr	r3, [r4, r3]
	mov	r0, r3
	ldr	r3, .L47+40
	ldr	r3, [r4, r3]
	mov	r1, r3
	mov	r2, #1
	mov	r3, #2
	bl	_ZN9b2Contact7AddTypeEPFPS_P9b2FixtureiS2_iP16b2BlockAllocatorEPFvS0_S4_EN7b2Shape4TypeESA_(PLT)
	.loc 7 47 0
	ldr	r3, .L47+44
	ldr	r3, [r4, r3]
	mov	r0, r3
	ldr	r3, .L47+48
	ldr	r3, [r4, r3]
	mov	r1, r3
	mov	r2, #3
	mov	r3, #0
	bl	_ZN9b2Contact7AddTypeEPFPS_P9b2FixtureiS2_iP16b2BlockAllocatorEPFvS0_S4_EN7b2Shape4TypeESA_(PLT)
	.loc 7 48 0
	ldr	r3, .L47+52
	ldr	r3, [r4, r3]
	mov	r0, r3
	ldr	r3, .L47+56
	ldr	r3, [r4, r3]
	mov	r1, r3
	mov	r2, #3
	mov	r3, #2
	bl	_ZN9b2Contact7AddTypeEPFPS_P9b2FixtureiS2_iP16b2BlockAllocatorEPFvS0_S4_EN7b2Shape4TypeESA_(PLT)
	.loc 7 49 0
	ldmfd	sp!, {r4, pc}
.L48:
	.align	2
.L47:
	.word	_GLOBAL_OFFSET_TABLE_-(.LPIC1+8)
	.word	_ZN15b2CircleContact6CreateEP9b2FixtureiS1_iP16b2BlockAllocator(GOT)
	.word	_ZN15b2CircleContact7DestroyEP9b2ContactP16b2BlockAllocator(GOT)
	.word	_ZN25b2PolygonAndCircleContact6CreateEP9b2FixtureiS1_iP16b2BlockAllocator(GOT)
	.word	_ZN25b2PolygonAndCircleContact7DestroyEP9b2ContactP16b2BlockAllocator(GOT)
	.word	_ZN16b2PolygonContact6CreateEP9b2FixtureiS1_iP16b2BlockAllocator(GOT)
	.word	_ZN16b2PolygonContact7DestroyEP9b2ContactP16b2BlockAllocator(GOT)
	.word	_ZN22b2EdgeAndCircleContact6CreateEP9b2FixtureiS1_iP16b2BlockAllocator(GOT)
	.word	_ZN22b2EdgeAndCircleContact7DestroyEP9b2ContactP16b2BlockAllocator(GOT)
	.word	_ZN23b2EdgeAndPolygonContact6CreateEP9b2FixtureiS1_iP16b2BlockAllocator(GOT)
	.word	_ZN23b2EdgeAndPolygonContact7DestroyEP9b2ContactP16b2BlockAllocator(GOT)
	.word	_ZN23b2ChainAndCircleContact6CreateEP9b2FixtureiS1_iP16b2BlockAllocator(GOT)
	.word	_ZN23b2ChainAndCircleContact7DestroyEP9b2ContactP16b2BlockAllocator(GOT)
	.word	_ZN24b2ChainAndPolygonContact6CreateEP9b2FixtureiS1_iP16b2BlockAllocator(GOT)
	.word	_ZN24b2ChainAndPolygonContact7DestroyEP9b2ContactP16b2BlockAllocator(GOT)
	.cfi_endproc
.LFE845:
	.size	_ZN9b2Contact19InitializeRegistersEv, .-_ZN9b2Contact19InitializeRegistersEv
	.section	.rodata
	.align	2
.LC0:
	.ascii	"c:/Users/Ben/Desktop/FYP/FinalYearProject/box2d/Box"
	.ascii	"2D/Dynamics/Contacts/b2Contact.cpp\000"
	.align	2
.LC1:
	.ascii	"0 <= type1 && type1 < b2Shape::e_typeCount\000"
	.align	2
.LC2:
	.ascii	"0 <= type2 && type2 < b2Shape::e_typeCount\000"
	.section	.text._ZN9b2Contact7AddTypeEPFPS_P9b2FixtureiS2_iP16b2BlockAllocatorEPFvS0_S4_EN7b2Shape4TypeESA_,"ax",%progbits
	.align	2
	.global	_ZN9b2Contact7AddTypeEPFPS_P9b2FixtureiS2_iP16b2BlockAllocatorEPFvS0_S4_EN7b2Shape4TypeESA_
	.hidden	_ZN9b2Contact7AddTypeEPFPS_P9b2FixtureiS2_iP16b2BlockAllocatorEPFvS0_S4_EN7b2Shape4TypeESA_
	.type	_ZN9b2Contact7AddTypeEPFPS_P9b2FixtureiS2_iP16b2BlockAllocatorEPFvS0_S4_EN7b2Shape4TypeESA_, %function
_ZN9b2Contact7AddTypeEPFPS_P9b2FixtureiS2_iP16b2BlockAllocatorEPFvS0_S4_EN7b2Shape4TypeESA_:
.LFB846:
	.loc 7 53 0
	.cfi_startproc
	@ args = 0, pretend = 0, frame = 16
	@ frame_needed = 0, uses_anonymous_args = 0
	str	lr, [sp, #-4]!
.LCFI24:
	.cfi_def_cfa_offset 4
	.cfi_offset 14, -4
	sub	sp, sp, #20
.LCFI25:
	.cfi_def_cfa_offset 24
	str	r0, [sp, #12]
	str	r1, [sp, #8]
	str	r2, [sp, #4]
	str	r3, [sp]
	.loc 7 54 0
	ldr	r3, [sp, #4]
	cmp	r3, #0
	blt	.L50
	.loc 7 54 0 is_stmt 0 discriminator 2
	ldr	r3, [sp, #4]
	cmp	r3, #3
	ble	.L51
.L50:
	.loc 7 54 0 discriminator 1
	ldr	r3, .L55
.LPIC2:
	add	r3, pc, r3
	mov	r0, r3
	mov	r1, #54
	ldr	r3, .L55+4
.LPIC3:
	add	r3, pc, r3
	mov	r2, r3
	bl	__assert(PLT)
.L51:
	.loc 7 55 0 is_stmt 1
	ldr	r3, [sp]
	cmp	r3, #0
	blt	.L52
	.loc 7 55 0 is_stmt 0 discriminator 2
	ldr	r3, [sp]
	cmp	r3, #3
	ble	.L53
.L52:
	.loc 7 55 0 discriminator 1
	ldr	r3, .L55+8
.LPIC4:
	add	r3, pc, r3
	mov	r0, r3
	mov	r1, #55
	ldr	r3, .L55+12
.LPIC5:
	add	r3, pc, r3
	mov	r2, r3
	bl	__assert(PLT)
.L53:
	.loc 7 57 0 is_stmt 1
	ldr	r1, [sp, #4]
	ldr	r3, [sp]
	ldr	r0, .L55+16
.LPIC6:
	add	r0, pc, r0
	mov	r2, r3
	mov	r2, r2, asl #1
	add	r2, r2, r3
	mov	r3, r2, asl #2
	mov	r2, r3
	mov	r3, r1
	mov	r3, r3, asl #1
	add	r3, r3, r1
	mov	r3, r3, asl #4
	add	r3, r2, r3
	add	r3, r0, r3
	ldr	r2, [sp, #12]
	str	r2, [r3]
	.loc 7 58 0
	ldr	r1, [sp, #4]
	ldr	r3, [sp]
	ldr	r0, .L55+20
.LPIC7:
	add	r0, pc, r0
	mov	r2, r3
	mov	r2, r2, asl #1
	add	r2, r2, r3
	mov	r3, r2, asl #2
	mov	r2, r3
	mov	r3, r1
	mov	r3, r3, asl #1
	add	r3, r3, r1
	mov	r3, r3, asl #4
	add	r3, r2, r3
	add	r3, r0, r3
	ldr	r2, [sp, #8]
	str	r2, [r3, #4]
	.loc 7 59 0
	ldr	r1, [sp, #4]
	ldr	r3, [sp]
	ldr	ip, .L55+24
.LPIC8:
	add	ip, pc, ip
	mov	r0, #8
	mov	r2, r3
	mov	r2, r2, asl #1
	add	r2, r2, r3
	mov	r3, r2, asl #2
	mov	r2, r3
	mov	r3, r1
	mov	r3, r3, asl #1
	add	r3, r3, r1
	mov	r3, r3, asl #4
	add	r3, r2, r3
	add	r3, ip, r3
	add	r3, r3, r0
	mov	r2, #1
	strb	r2, [r3]
	.loc 7 61 0
	ldr	r2, [sp, #4]
	ldr	r3, [sp]
	cmp	r2, r3
	beq	.L49
	.loc 7 63 0
	ldr	r1, [sp]
	ldr	r3, [sp, #4]
	ldr	r0, .L55+28
.LPIC9:
	add	r0, pc, r0
	mov	r2, r3
	mov	r2, r2, asl #1
	add	r2, r2, r3
	mov	r3, r2, asl #2
	mov	r2, r3
	mov	r3, r1
	mov	r3, r3, asl #1
	add	r3, r3, r1
	mov	r3, r3, asl #4
	add	r3, r2, r3
	add	r3, r0, r3
	ldr	r2, [sp, #12]
	str	r2, [r3]
	.loc 7 64 0
	ldr	r1, [sp]
	ldr	r3, [sp, #4]
	ldr	r0, .L55+32
.LPIC10:
	add	r0, pc, r0
	mov	r2, r3
	mov	r2, r2, asl #1
	add	r2, r2, r3
	mov	r3, r2, asl #2
	mov	r2, r3
	mov	r3, r1
	mov	r3, r3, asl #1
	add	r3, r3, r1
	mov	r3, r3, asl #4
	add	r3, r2, r3
	add	r3, r0, r3
	ldr	r2, [sp, #8]
	str	r2, [r3, #4]
	.loc 7 65 0
	ldr	r1, [sp]
	ldr	r3, [sp, #4]
	ldr	ip, .L55+36
.LPIC11:
	add	ip, pc, ip
	mov	r0, #8
	mov	r2, r3
	mov	r2, r2, asl #1
	add	r2, r2, r3
	mov	r3, r2, asl #2
	mov	r2, r3
	mov	r3, r1
	mov	r3, r3, asl #1
	add	r3, r3, r1
	mov	r3, r3, asl #4
	add	r3, r2, r3
	add	r3, ip, r3
	add	r3, r3, r0
	mov	r2, #0
	strb	r2, [r3]
.L49:
	.loc 7 67 0
	add	sp, sp, #20
	@ sp needed
	ldr	pc, [sp], #4
.L56:
	.align	2
.L55:
	.word	.LC0-(.LPIC2+8)
	.word	.LC1-(.LPIC3+8)
	.word	.LC0-(.LPIC4+8)
	.word	.LC2-(.LPIC5+8)
	.word	_ZN9b2Contact11s_registersE-(.LPIC6+8)
	.word	_ZN9b2Contact11s_registersE-(.LPIC7+8)
	.word	_ZN9b2Contact11s_registersE-(.LPIC8+8)
	.word	_ZN9b2Contact11s_registersE-(.LPIC9+8)
	.word	_ZN9b2Contact11s_registersE-(.LPIC10+8)
	.word	_ZN9b2Contact11s_registersE-(.LPIC11+8)
	.cfi_endproc
.LFE846:
	.size	_ZN9b2Contact7AddTypeEPFPS_P9b2FixtureiS2_iP16b2BlockAllocatorEPFvS0_S4_EN7b2Shape4TypeESA_, .-_ZN9b2Contact7AddTypeEPFPS_P9b2FixtureiS2_iP16b2BlockAllocatorEPFvS0_S4_EN7b2Shape4TypeESA_
	.section	.text._ZN9b2Contact6CreateEP9b2FixtureiS1_iP16b2BlockAllocator,"ax",%progbits
	.align	2
	.global	_ZN9b2Contact6CreateEP9b2FixtureiS1_iP16b2BlockAllocator
	.hidden	_ZN9b2Contact6CreateEP9b2FixtureiS1_iP16b2BlockAllocator
	.type	_ZN9b2Contact6CreateEP9b2FixtureiS1_iP16b2BlockAllocator, %function
_ZN9b2Contact6CreateEP9b2FixtureiS1_iP16b2BlockAllocator:
.LFB847:
	.loc 7 70 0
	.cfi_startproc
	@ args = 4, pretend = 0, frame = 32
	@ frame_needed = 0, uses_anonymous_args = 0
	str	lr, [sp, #-4]!
.LCFI26:
	.cfi_def_cfa_offset 4
	.cfi_offset 14, -4
	sub	sp, sp, #44
.LCFI27:
	.cfi_def_cfa_offset 48
	str	r0, [sp, #20]
	str	r1, [sp, #16]
	str	r2, [sp, #12]
	str	r3, [sp, #8]
.LBB5:
	.loc 7 71 0
	ldr	r3, .L66
.LPIC12:
	add	r3, pc, r3
	ldrb	r3, [r3]	@ zero_extendqisi2
	eor	r3, r3, #1
	uxtb	r3, r3
	cmp	r3, #0
	beq	.L58
	.loc 7 73 0
	bl	_ZN9b2Contact19InitializeRegistersEv(PLT)
	.loc 7 74 0
	ldr	r3, .L66+4
.LPIC13:
	add	r3, pc, r3
	mov	r2, #1
	strb	r2, [r3]
.L58:
	.loc 7 77 0
	ldr	r0, [sp, #20]
	bl	_ZNK9b2Fixture7GetTypeEv(PLT)
	str	r0, [sp, #36]
	.loc 7 78 0
	ldr	r0, [sp, #12]
	bl	_ZNK9b2Fixture7GetTypeEv(PLT)
	str	r0, [sp, #32]
	.loc 7 80 0
	ldr	r3, [sp, #36]
	cmp	r3, #0
	blt	.L59
	.loc 7 80 0 is_stmt 0 discriminator 2
	ldr	r3, [sp, #36]
	cmp	r3, #3
	ble	.L60
.L59:
	.loc 7 80 0 discriminator 1
	ldr	r3, .L66+8
.LPIC14:
	add	r3, pc, r3
	mov	r0, r3
	mov	r1, #80
	ldr	r3, .L66+12
.LPIC15:
	add	r3, pc, r3
	mov	r2, r3
	bl	__assert(PLT)
.L60:
	.loc 7 81 0 is_stmt 1
	ldr	r3, [sp, #32]
	cmp	r3, #0
	blt	.L61
	.loc 7 81 0 is_stmt 0 discriminator 2
	ldr	r3, [sp, #32]
	cmp	r3, #3
	ble	.L62
.L61:
	.loc 7 81 0 discriminator 1
	ldr	r3, .L66+16
.LPIC16:
	add	r3, pc, r3
	mov	r0, r3
	mov	r1, #81
	ldr	r3, .L66+20
.LPIC17:
	add	r3, pc, r3
	mov	r2, r3
	bl	__assert(PLT)
.L62:
	.loc 7 83 0 is_stmt 1
	ldr	r1, [sp, #36]
	ldr	r3, [sp, #32]
	ldr	r0, .L66+24
.LPIC18:
	add	r0, pc, r0
	mov	r2, r3
	mov	r2, r2, asl #1
	add	r2, r2, r3
	mov	r3, r2, asl #2
	mov	r2, r3
	mov	r3, r1
	mov	r3, r3, asl #1
	add	r3, r3, r1
	mov	r3, r3, asl #4
	add	r3, r2, r3
	add	r3, r0, r3
	ldr	r3, [r3]
	str	r3, [sp, #28]
	.loc 7 84 0
	ldr	r3, [sp, #28]
	cmp	r3, #0
	beq	.L63
	.loc 7 86 0
	ldr	r1, [sp, #36]
	ldr	r3, [sp, #32]
	ldr	ip, .L66+28
.LPIC19:
	add	ip, pc, ip
	mov	r0, #8
	mov	r2, r3
	mov	r2, r2, asl #1
	add	r2, r2, r3
	mov	r3, r2, asl #2
	mov	r2, r3
	mov	r3, r1
	mov	r3, r3, asl #1
	add	r3, r3, r1
	mov	r3, r3, asl #4
	add	r3, r2, r3
	add	r3, ip, r3
	add	r3, r3, r0
	ldrb	r3, [r3]	@ zero_extendqisi2
	cmp	r3, #0
	beq	.L64
	.loc 7 88 0
	ldr	r3, [sp, #48]
	str	r3, [sp]
	ldr	ip, [sp, #28]
	ldr	r0, [sp, #20]
	ldr	r1, [sp, #16]
	ldr	r2, [sp, #12]
	ldr	r3, [sp, #8]
	blx	ip
	mov	r3, r0
	b	.L65
.L64:
	.loc 7 92 0
	ldr	r3, [sp, #48]
	str	r3, [sp]
	ldr	ip, [sp, #28]
	ldr	r0, [sp, #12]
	ldr	r1, [sp, #8]
	ldr	r2, [sp, #20]
	ldr	r3, [sp, #16]
	blx	ip
	mov	r3, r0
	b	.L65
.L63:
	.loc 7 97 0
	mov	r3, #0
.L65:
.LBE5:
	.loc 7 99 0
	mov	r0, r3
	add	sp, sp, #44
	@ sp needed
	ldr	pc, [sp], #4
.L67:
	.align	2
.L66:
	.word	_ZN9b2Contact13s_initializedE-(.LPIC12+8)
	.word	_ZN9b2Contact13s_initializedE-(.LPIC13+8)
	.word	.LC0-(.LPIC14+8)
	.word	.LC1-(.LPIC15+8)
	.word	.LC0-(.LPIC16+8)
	.word	.LC2-(.LPIC17+8)
	.word	_ZN9b2Contact11s_registersE-(.LPIC18+8)
	.word	_ZN9b2Contact11s_registersE-(.LPIC19+8)
	.cfi_endproc
.LFE847:
	.size	_ZN9b2Contact6CreateEP9b2FixtureiS1_iP16b2BlockAllocator, .-_ZN9b2Contact6CreateEP9b2FixtureiS1_iP16b2BlockAllocator
	.section	.rodata
	.align	2
.LC3:
	.ascii	"s_initialized == true\000"
	.align	2
.LC4:
	.ascii	"0 <= typeA && typeB < b2Shape::e_typeCount\000"
	.section	.text._ZN9b2Contact7DestroyEPS_P16b2BlockAllocator,"ax",%progbits
	.align	2
	.global	_ZN9b2Contact7DestroyEPS_P16b2BlockAllocator
	.hidden	_ZN9b2Contact7DestroyEPS_P16b2BlockAllocator
	.type	_ZN9b2Contact7DestroyEPS_P16b2BlockAllocator, %function
_ZN9b2Contact7DestroyEPS_P16b2BlockAllocator:
.LFB848:
	.loc 7 102 0
	.cfi_startproc
	@ args = 0, pretend = 0, frame = 32
	@ frame_needed = 0, uses_anonymous_args = 0
	str	lr, [sp, #-4]!
.LCFI28:
	.cfi_def_cfa_offset 4
	.cfi_offset 14, -4
	sub	sp, sp, #36
.LCFI29:
	.cfi_def_cfa_offset 40
	str	r0, [sp, #4]
	str	r1, [sp]
.LBB6:
	.loc 7 103 0
	ldr	r3, .L77
.LPIC20:
	add	r3, pc, r3
	ldrb	r3, [r3]	@ zero_extendqisi2
	cmp	r3, #0
	bne	.L69
	.loc 7 103 0 is_stmt 0 discriminator 1
	ldr	r3, .L77+4
.LPIC21:
	add	r3, pc, r3
	mov	r0, r3
	mov	r1, #103
	ldr	r3, .L77+8
.LPIC22:
	add	r3, pc, r3
	mov	r2, r3
	bl	__assert(PLT)
.L69:
	.loc 7 105 0 is_stmt 1
	ldr	r3, [sp, #4]
	ldr	r3, [r3, #48]
	str	r3, [sp, #28]
	.loc 7 106 0
	ldr	r3, [sp, #4]
	ldr	r3, [r3, #52]
	str	r3, [sp, #24]
	.loc 7 108 0
	ldr	r3, [sp, #4]
	ldr	r3, [r3, #124]
	.loc 7 109 0
	cmp	r3, #0
	ble	.L70
	.loc 7 109 0 is_stmt 0 discriminator 1
	ldr	r0, [sp, #28]
	bl	_ZNK9b2Fixture8IsSensorEv(PLT)
	mov	r3, r0
	eor	r3, r3, #1
	uxtb	r3, r3
	.loc 7 108 0 is_stmt 1 discriminator 1
	cmp	r3, #0
	beq	.L70
	.loc 7 110 0
	ldr	r0, [sp, #24]
	bl	_ZNK9b2Fixture8IsSensorEv(PLT)
	mov	r3, r0
	eor	r3, r3, #1
	uxtb	r3, r3
	.loc 7 109 0
	cmp	r3, #0
	beq	.L70
	.loc 7 109 0 is_stmt 0 discriminator 3
	mov	r3, #1
	b	.L71
.L70:
	.loc 7 109 0 discriminator 2
	mov	r3, #0
.L71:
	.loc 7 108 0 is_stmt 1
	cmp	r3, #0
	beq	.L72
	.loc 7 112 0
	ldr	r0, [sp, #28]
	bl	_ZN9b2Fixture7GetBodyEv(PLT)
	mov	r3, r0
	mov	r0, r3
	mov	r1, #1
	bl	_ZN6b2Body8SetAwakeEb(PLT)
	.loc 7 113 0
	ldr	r0, [sp, #24]
	bl	_ZN9b2Fixture7GetBodyEv(PLT)
	mov	r3, r0
	mov	r0, r3
	mov	r1, #1
	bl	_ZN6b2Body8SetAwakeEb(PLT)
.L72:
	.loc 7 116 0
	ldr	r0, [sp, #28]
	bl	_ZNK9b2Fixture7GetTypeEv(PLT)
	str	r0, [sp, #20]
	.loc 7 117 0
	ldr	r0, [sp, #24]
	bl	_ZNK9b2Fixture7GetTypeEv(PLT)
	str	r0, [sp, #16]
	.loc 7 119 0
	ldr	r3, [sp, #20]
	cmp	r3, #0
	blt	.L73
	.loc 7 119 0 is_stmt 0 discriminator 2
	ldr	r3, [sp, #16]
	cmp	r3, #3
	ble	.L74
.L73:
	.loc 7 119 0 discriminator 1
	ldr	r3, .L77+12
.LPIC23:
	add	r3, pc, r3
	mov	r0, r3
	mov	r1, #119
	ldr	r3, .L77+16
.LPIC24:
	add	r3, pc, r3
	mov	r2, r3
	bl	__assert(PLT)
.L74:
	.loc 7 120 0 is_stmt 1
	ldr	r3, [sp, #20]
	cmp	r3, #0
	blt	.L75
	.loc 7 120 0 is_stmt 0 discriminator 2
	ldr	r3, [sp, #16]
	cmp	r3, #3
	ble	.L76
.L75:
	.loc 7 120 0 discriminator 1
	ldr	r3, .L77+20
.LPIC25:
	add	r3, pc, r3
	mov	r0, r3
	mov	r1, #120
	ldr	r3, .L77+24
.LPIC26:
	add	r3, pc, r3
	mov	r2, r3
	bl	__assert(PLT)
.L76:
	.loc 7 122 0 is_stmt 1
	ldr	r1, [sp, #20]
	ldr	r3, [sp, #16]
	ldr	r0, .L77+28
.LPIC27:
	add	r0, pc, r0
	mov	r2, r3
	mov	r2, r2, asl #1
	add	r2, r2, r3
	mov	r3, r2, asl #2
	mov	r2, r3
	mov	r3, r1
	mov	r3, r3, asl #1
	add	r3, r3, r1
	mov	r3, r3, asl #4
	add	r3, r2, r3
	add	r3, r0, r3
	ldr	r3, [r3, #4]
	str	r3, [sp, #12]
	.loc 7 123 0
	ldr	r3, [sp, #12]
	ldr	r0, [sp, #4]
	ldr	r1, [sp]
	blx	r3
.LBE6:
	.loc 7 124 0
	add	sp, sp, #36
	@ sp needed
	ldr	pc, [sp], #4
.L78:
	.align	2
.L77:
	.word	_ZN9b2Contact13s_initializedE-(.LPIC20+8)
	.word	.LC0-(.LPIC21+8)
	.word	.LC3-(.LPIC22+8)
	.word	.LC0-(.LPIC23+8)
	.word	.LC4-(.LPIC24+8)
	.word	.LC0-(.LPIC25+8)
	.word	.LC4-(.LPIC26+8)
	.word	_ZN9b2Contact11s_registersE-(.LPIC27+8)
	.cfi_endproc
.LFE848:
	.size	_ZN9b2Contact7DestroyEPS_P16b2BlockAllocator, .-_ZN9b2Contact7DestroyEPS_P16b2BlockAllocator
	.section	.text._ZN9b2ContactC2EP9b2FixtureiS1_i,"ax",%progbits
	.align	2
	.global	_ZN9b2ContactC2EP9b2FixtureiS1_i
	.hidden	_ZN9b2ContactC2EP9b2FixtureiS1_i
	.type	_ZN9b2ContactC2EP9b2FixtureiS1_i, %function
_ZN9b2ContactC2EP9b2FixtureiS1_i:
.LFB850:
	.loc 7 126 0
	.cfi_startproc
	@ args = 4, pretend = 0, frame = 16
	@ frame_needed = 0, uses_anonymous_args = 0
	str	lr, [sp, #-4]!
.LCFI30:
	.cfi_def_cfa_offset 4
	.cfi_offset 14, -4
	sub	sp, sp, #20
.LCFI31:
	.cfi_def_cfa_offset 24
	str	r0, [sp, #12]
	str	r1, [sp, #8]
	str	r2, [sp, #4]
	str	r3, [sp]
.LBB7:
	.loc 7 126 0
	ldr	r3, [sp, #12]
	ldr	r2, .L82
.LPIC28:
	add	r2, pc, r2
	add	r2, r2, #8
	str	r2, [r3]
	ldr	r3, [sp, #12]
	add	r3, r3, #64
	mov	r0, r3
	bl	_ZN10b2ManifoldC1Ev(PLT)
	.loc 7 128 0
	ldr	r3, [sp, #12]
	mov	r2, #4
	str	r2, [r3, #4]
	.loc 7 130 0
	ldr	r3, [sp, #12]
	ldr	r2, [sp, #8]
	str	r2, [r3, #48]
	.loc 7 131 0
	ldr	r3, [sp, #12]
	ldr	r2, [sp]
	str	r2, [r3, #52]
	.loc 7 133 0
	ldr	r3, [sp, #12]
	ldr	r2, [sp, #4]
	str	r2, [r3, #56]
	.loc 7 134 0
	ldr	r3, [sp, #12]
	ldr	r2, [sp, #24]
	str	r2, [r3, #60]
	.loc 7 136 0
	ldr	r3, [sp, #12]
	mov	r2, #0
	str	r2, [r3, #124]
	.loc 7 138 0
	ldr	r3, [sp, #12]
	mov	r2, #0
	str	r2, [r3, #8]
	.loc 7 139 0
	ldr	r3, [sp, #12]
	mov	r2, #0
	str	r2, [r3, #12]
	.loc 7 141 0
	ldr	r3, [sp, #12]
	mov	r2, #0
	str	r2, [r3, #20]
	.loc 7 142 0
	ldr	r3, [sp, #12]
	mov	r2, #0
	str	r2, [r3, #24]
	.loc 7 143 0
	ldr	r3, [sp, #12]
	mov	r2, #0
	str	r2, [r3, #28]
	.loc 7 144 0
	ldr	r3, [sp, #12]
	mov	r2, #0
	str	r2, [r3, #16]
	.loc 7 146 0
	ldr	r3, [sp, #12]
	mov	r2, #0
	str	r2, [r3, #36]
	.loc 7 147 0
	ldr	r3, [sp, #12]
	mov	r2, #0
	str	r2, [r3, #40]
	.loc 7 148 0
	ldr	r3, [sp, #12]
	mov	r2, #0
	str	r2, [r3, #44]
	.loc 7 149 0
	ldr	r3, [sp, #12]
	mov	r2, #0
	str	r2, [r3, #32]
	.loc 7 151 0
	ldr	r3, [sp, #12]
	mov	r2, #0
	str	r2, [r3, #128]
	.loc 7 153 0
	ldr	r3, [sp, #12]
	ldr	r3, [r3, #48]
	ldr	r2, [r3, #16]	@ float
	ldr	r3, [sp, #12]
	ldr	r3, [r3, #52]
	ldr	r3, [r3, #16]	@ float
	mov	r0, r2
	mov	r1, r3
	bl	_Z13b2MixFrictionff(PLT)
	mov	r2, r0
	ldr	r3, [sp, #12]
	str	r2, [r3, #136]	@ float
	.loc 7 154 0
	ldr	r3, [sp, #12]
	ldr	r3, [r3, #48]
	ldr	r2, [r3, #20]	@ float
	ldr	r3, [sp, #12]
	ldr	r3, [r3, #52]
	ldr	r3, [r3, #20]	@ float
	mov	r0, r2
	mov	r1, r3
	bl	_Z16b2MixRestitutionff(PLT)
	mov	r2, r0
	ldr	r3, [sp, #12]
	str	r2, [r3, #140]	@ float
	.loc 7 156 0
	ldr	r3, [sp, #12]
	mov	r2, #0
	str	r2, [r3, #144]	@ float
.LBE7:
	.loc 7 157 0
	ldr	r3, [sp, #12]
	mov	r0, r3
	add	sp, sp, #20
	@ sp needed
	ldr	pc, [sp], #4
.L83:
	.align	2
.L82:
	.word	_ZTV9b2Contact-(.LPIC28+8)
	.cfi_endproc
.LFE850:
	.size	_ZN9b2ContactC2EP9b2FixtureiS1_i, .-_ZN9b2ContactC2EP9b2FixtureiS1_i
	.global	_ZN9b2ContactC1EP9b2FixtureiS1_i
	.hidden	_ZN9b2ContactC1EP9b2FixtureiS1_i
	.set	_ZN9b2ContactC1EP9b2FixtureiS1_i,_ZN9b2ContactC2EP9b2FixtureiS1_i
	.section	.text._ZN9b2Contact6UpdateEP17b2ContactListener,"ax",%progbits
	.align	2
	.global	_ZN9b2Contact6UpdateEP17b2ContactListener
	.hidden	_ZN9b2Contact6UpdateEP17b2ContactListener
	.type	_ZN9b2Contact6UpdateEP17b2ContactListener, %function
_ZN9b2Contact6UpdateEP17b2ContactListener:
.LFB852:
	.loc 7 162 0
	.cfi_startproc
	@ args = 0, pretend = 0, frame = 128
	@ frame_needed = 0, uses_anonymous_args = 0
	str	lr, [sp, #-4]!
.LCFI32:
	.cfi_def_cfa_offset 4
	.cfi_offset 14, -4
	sub	sp, sp, #140
.LCFI33:
	.cfi_def_cfa_offset 144
	str	r0, [sp, #12]
	str	r1, [sp, #8]
.LBB8:
	.loc 7 163 0
	ldr	r3, [sp, #12]
	add	ip, sp, #20
	add	lr, r3, #64
	ldmia	lr!, {r0, r1, r2, r3}
	stmia	ip!, {r0, r1, r2, r3}
	ldmia	lr!, {r0, r1, r2, r3}
	stmia	ip!, {r0, r1, r2, r3}
	ldmia	lr!, {r0, r1, r2, r3}
	stmia	ip!, {r0, r1, r2, r3}
	ldmia	lr, {r0, r1, r2, r3}
	stmia	ip, {r0, r1, r2, r3}
	.loc 7 166 0
	ldr	r3, [sp, #12]
	ldr	r3, [r3, #4]
	orr	r2, r3, #4
	ldr	r3, [sp, #12]
	str	r2, [r3, #4]
	.loc 7 168 0
	mov	r3, #0
	strb	r3, [sp, #135]
	.loc 7 169 0
	ldr	r3, [sp, #12]
	ldr	r3, [r3, #4]
	and	r3, r3, #2
	cmp	r3, #0
	moveq	r3, #0
	movne	r3, #1
	strb	r3, [sp, #123]
	.loc 7 171 0
	ldr	r3, [sp, #12]
	ldr	r3, [r3, #48]
	mov	r0, r3
	bl	_ZNK9b2Fixture8IsSensorEv(PLT)
	mov	r3, r0
	strb	r3, [sp, #122]
	.loc 7 172 0
	ldr	r3, [sp, #12]
	ldr	r3, [r3, #52]
	mov	r0, r3
	bl	_ZNK9b2Fixture8IsSensorEv(PLT)
	mov	r3, r0
	strb	r3, [sp, #121]
	.loc 7 173 0
	ldrb	r3, [sp, #122]	@ zero_extendqisi2
	cmp	r3, #0
	bne	.L85
	.loc 7 173 0 is_stmt 0 discriminator 2
	ldrb	r3, [sp, #121]	@ zero_extendqisi2
	cmp	r3, #0
	beq	.L86
.L85:
	.loc 7 173 0 discriminator 1
	mov	r3, #1
	b	.L87
.L86:
	.loc 7 173 0 discriminator 3
	mov	r3, #0
.L87:
	.loc 7 173 0 discriminator 4
	strb	r3, [sp, #120]
	.loc 7 175 0 is_stmt 1 discriminator 4
	ldr	r3, [sp, #12]
	ldr	r3, [r3, #48]
	mov	r0, r3
	bl	_ZN9b2Fixture7GetBodyEv(PLT)
	str	r0, [sp, #116]
	.loc 7 176 0 discriminator 4
	ldr	r3, [sp, #12]
	ldr	r3, [r3, #52]
	mov	r0, r3
	bl	_ZN9b2Fixture7GetBodyEv(PLT)
	str	r0, [sp, #112]
	.loc 7 177 0 discriminator 4
	ldr	r0, [sp, #116]
	bl	_ZNK6b2Body12GetTransformEv(PLT)
	str	r0, [sp, #108]
	.loc 7 178 0 discriminator 4
	ldr	r0, [sp, #112]
	bl	_ZNK6b2Body12GetTransformEv(PLT)
	str	r0, [sp, #104]
.LBB9:
	.loc 7 181 0 discriminator 4
	ldrb	r3, [sp, #120]	@ zero_extendqisi2
	cmp	r3, #0
	beq	.L88
.LBB10:
	.loc 7 183 0
	ldr	r3, [sp, #12]
	ldr	r3, [r3, #48]
	mov	r0, r3
	bl	_ZN9b2Fixture8GetShapeEv(PLT)
	str	r0, [sp, #100]
	.loc 7 184 0
	ldr	r3, [sp, #12]
	ldr	r3, [r3, #52]
	mov	r0, r3
	bl	_ZN9b2Fixture8GetShapeEv(PLT)
	str	r0, [sp, #96]
	.loc 7 185 0
	ldr	r3, [sp, #12]
	ldr	r2, [r3, #56]
	ldr	r3, [sp, #12]
	ldr	r3, [r3, #60]
	ldr	r1, [sp, #108]
	str	r1, [sp]
	ldr	r1, [sp, #104]
	str	r1, [sp, #4]
	ldr	r0, [sp, #100]
	mov	r1, r2
	ldr	r2, [sp, #96]
	bl	_Z13b2TestOverlapPK7b2ShapeiS1_iRK11b2TransformS4_(PLT)
	mov	r3, r0
	strb	r3, [sp, #135]
	.loc 7 188 0
	ldr	r3, [sp, #12]
	mov	r2, #0
	str	r2, [r3, #124]
.LBE10:
	b	.L89
.L88:
.LBB11:
	.loc 7 192 0
	ldr	r3, [sp, #12]
	ldr	r3, [r3]
	ldr	ip, [r3]
	ldr	r3, [sp, #12]
	add	r3, r3, #64
	ldr	r0, [sp, #12]
	mov	r1, r3
	ldr	r2, [sp, #108]
	ldr	r3, [sp, #104]
	blx	ip
	.loc 7 193 0
	ldr	r3, [sp, #12]
	ldr	r3, [r3, #124]
	cmp	r3, #0
	movle	r3, #0
	movgt	r3, #1
	strb	r3, [sp, #135]
.LBB12:
	.loc 7 197 0
	mov	r3, #0
	str	r3, [sp, #128]
	b	.L90
.L95:
.LBB13:
	.loc 7 199 0
	ldr	r2, [sp, #128]
	mov	r3, r2
	mov	r3, r3, asl #2
	add	r3, r3, r2
	mov	r3, r3, asl #2
	add	r3, r3, #64
	ldr	r2, [sp, #12]
	add	r3, r2, r3
	str	r3, [sp, #92]
	.loc 7 200 0
	ldr	r3, [sp, #92]
	mov	r2, #0
	str	r2, [r3, #8]	@ float
	.loc 7 201 0
	ldr	r3, [sp, #92]
	mov	r2, #0
	str	r2, [r3, #12]	@ float
	.loc 7 202 0
	ldr	r3, [sp, #92]
	ldr	r3, [r3, #16]
	str	r3, [sp, #84]
.LBB14:
	.loc 7 204 0
	mov	r3, #0
	str	r3, [sp, #124]
	b	.L91
.L94:
.LBB15:
	.loc 7 206 0
	ldr	r2, [sp, #124]
	add	r1, sp, #20
	mov	r3, r2
	mov	r3, r3, asl #2
	add	r3, r3, r2
	mov	r3, r3, asl #2
	add	r3, r1, r3
	str	r3, [sp, #88]
	.loc 7 208 0
	ldr	r3, [sp, #88]
	ldr	r2, [r3, #16]
	ldr	r3, [sp, #84]
	cmp	r2, r3
	bne	.L92
	.loc 7 210 0
	ldr	r3, [sp, #88]
	ldr	r2, [r3, #8]	@ float
	ldr	r3, [sp, #92]
	str	r2, [r3, #8]	@ float
	.loc 7 211 0
	ldr	r3, [sp, #88]
	ldr	r2, [r3, #12]	@ float
	ldr	r3, [sp, #92]
	str	r2, [r3, #12]	@ float
	.loc 7 212 0
	b	.L93
.L92:
.LBE15:
	.loc 7 204 0
	ldr	r3, [sp, #124]
	add	r3, r3, #1
	str	r3, [sp, #124]
.L91:
	.loc 7 204 0 is_stmt 0 discriminator 1
	ldr	r2, [sp, #80]
	ldr	r3, [sp, #124]
	cmp	r2, r3
	bgt	.L94
.L93:
.LBE14:
.LBE13:
	.loc 7 197 0 is_stmt 1
	ldr	r3, [sp, #128]
	add	r3, r3, #1
	str	r3, [sp, #128]
.L90:
	.loc 7 197 0 is_stmt 0 discriminator 1
	ldr	r3, [sp, #12]
	ldr	r2, [r3, #124]
	ldr	r3, [sp, #128]
	cmp	r2, r3
	bgt	.L95
.LBE12:
	.loc 7 217 0 is_stmt 1
	ldrb	r2, [sp, #135]	@ zero_extendqisi2
	ldrb	r3, [sp, #123]	@ zero_extendqisi2
	cmp	r2, r3
	beq	.L89
	.loc 7 219 0
	ldr	r0, [sp, #116]
	mov	r1, #1
	bl	_ZN6b2Body8SetAwakeEb(PLT)
	.loc 7 220 0
	ldr	r0, [sp, #112]
	mov	r1, #1
	bl	_ZN6b2Body8SetAwakeEb(PLT)
.L89:
.LBE11:
.LBE9:
	.loc 7 224 0
	ldrb	r3, [sp, #135]	@ zero_extendqisi2
	cmp	r3, #0
	beq	.L96
	.loc 7 226 0
	ldr	r3, [sp, #12]
	ldr	r3, [r3, #4]
	orr	r2, r3, #2
	ldr	r3, [sp, #12]
	str	r2, [r3, #4]
	b	.L97
.L96:
	.loc 7 230 0
	ldr	r3, [sp, #12]
	ldr	r3, [r3, #4]
	bic	r2, r3, #2
	ldr	r3, [sp, #12]
	str	r2, [r3, #4]
.L97:
	.loc 7 233 0
	ldrb	r3, [sp, #123]
	eor	r3, r3, #1
	uxtb	r3, r3
	cmp	r3, #0
	beq	.L98
	.loc 7 233 0 is_stmt 0 discriminator 1
	ldrb	r3, [sp, #135]	@ zero_extendqisi2
	cmp	r3, #0
	beq	.L98
	ldr	r3, [sp, #8]
	cmp	r3, #0
	beq	.L98
	.loc 7 235 0 is_stmt 1
	ldr	r3, [sp, #8]
	ldr	r3, [r3]
	add	r3, r3, #8
	ldr	r3, [r3]
	ldr	r0, [sp, #8]
	ldr	r1, [sp, #12]
	blx	r3
.L98:
	.loc 7 238 0
	ldrb	r3, [sp, #123]	@ zero_extendqisi2
	cmp	r3, #0
	beq	.L99
	.loc 7 238 0 is_stmt 0 discriminator 1
	ldrb	r3, [sp, #135]
	eor	r3, r3, #1
	uxtb	r3, r3
	cmp	r3, #0
	beq	.L99
	ldr	r3, [sp, #8]
	cmp	r3, #0
	beq	.L99
	.loc 7 240 0 is_stmt 1
	ldr	r3, [sp, #8]
	ldr	r3, [r3]
	add	r3, r3, #12
	ldr	r3, [r3]
	ldr	r0, [sp, #8]
	ldr	r1, [sp, #12]
	blx	r3
.L99:
	.loc 7 243 0
	ldrb	r3, [sp, #120]
	eor	r3, r3, #1
	uxtb	r3, r3
	cmp	r3, #0
	beq	.L84
	.loc 7 243 0 is_stmt 0 discriminator 1
	ldrb	r3, [sp, #135]	@ zero_extendqisi2
	cmp	r3, #0
	beq	.L84
	ldr	r3, [sp, #8]
	cmp	r3, #0
	beq	.L84
	.loc 7 245 0 is_stmt 1
	ldr	r3, [sp, #8]
	ldr	r3, [r3]
	add	r3, r3, #16
	ldr	r3, [r3]
	add	r2, sp, #20
	ldr	r0, [sp, #8]
	ldr	r1, [sp, #12]
	blx	r3
.L84:
.LBE8:
	.loc 7 247 0
	add	sp, sp, #140
	@ sp needed
	ldr	pc, [sp], #4
	.cfi_endproc
.LFE852:
	.size	_ZN9b2Contact6UpdateEP17b2ContactListener, .-_ZN9b2Contact6UpdateEP17b2ContactListener
	.hidden	_ZTV9b2Contact
	.weak	_ZTV9b2Contact
	.section	.data.rel.ro._ZTV9b2Contact,"awG",%progbits,_ZTV9b2Contact,comdat
	.align	3
	.type	_ZTV9b2Contact, %object
	.size	_ZTV9b2Contact, 20
_ZTV9b2Contact:
	.word	0
	.word	_ZTI9b2Contact
	.word	__cxa_pure_virtual
	.word	_ZN9b2ContactD1Ev
	.word	_ZN9b2ContactD0Ev
	.hidden	_ZTS9b2Contact
	.weak	_ZTS9b2Contact
	.section	.rodata._ZTS9b2Contact,"aG",%progbits,_ZTS9b2Contact,comdat
	.align	2
	.type	_ZTS9b2Contact, %object
	.size	_ZTS9b2Contact, 11
_ZTS9b2Contact:
	.ascii	"9b2Contact\000"
	.hidden	_ZTI9b2Contact
	.weak	_ZTI9b2Contact
	.section	.data.rel.ro._ZTI9b2Contact,"awG",%progbits,_ZTI9b2Contact,comdat
	.align	2
	.type	_ZTI9b2Contact, %object
	.size	_ZTI9b2Contact, 8
_ZTI9b2Contact:
	.word	_ZTVN10__cxxabiv117__class_type_infoE+8
	.word	_ZTS9b2Contact
	.section	.rodata
	.type	_ZL14b2_nullFeature, %object
	.size	_ZL14b2_nullFeature, 1
_ZL14b2_nullFeature:
	.byte	-1
	.align	2
	.type	_ZL12b2_chunkSize, %object
	.size	_ZL12b2_chunkSize, 4
_ZL12b2_chunkSize:
	.word	16384
	.align	2
	.type	_ZL15b2_maxBlockSize, %object
	.size	_ZL15b2_maxBlockSize, 4
_ZL15b2_maxBlockSize:
	.word	640
	.align	2
	.type	_ZL13b2_blockSizes, %object
	.size	_ZL13b2_blockSizes, 4
_ZL13b2_blockSizes:
	.word	14
	.align	2
	.type	_ZL22b2_chunkArrayIncrement, %object
	.size	_ZL22b2_chunkArrayIncrement, 4
_ZL22b2_chunkArrayIncrement:
	.word	128
	.align	2
	.type	_ZL12b2_stackSize, %object
	.size	_ZL12b2_stackSize, 4
_ZL12b2_stackSize:
	.word	102400
	.align	2
	.type	_ZL18b2_maxStackEntries, %object
	.size	_ZL18b2_maxStackEntries, 4
_ZL18b2_maxStackEntries:
	.word	32
	.align	2
	.type	_ZN4_STLL16__stl_chunk_sizeE, %object
	.size	_ZN4_STLL16__stl_chunk_sizeE, 4
_ZN4_STLL16__stl_chunk_sizeE:
	.word	7
	.text
.Letext0:
	.file 8 "c:/marmalade/7.4/s3e/h/std/stddef.h"
	.file 9 "c:/marmalade/7.4/s3e/h/s3eTypes.h"
	.file 10 "c:/users/ben/desktop/fyp/finalyearproject/box2d/Box2D/Common/b2Settings.h"
	.file 11 "c:/users/ben/desktop/fyp/finalyearproject/box2d/Box2D/Common/b2BlockAllocator.h"
	.file 12 "c:/marmalade/7.4/s3e/h/std/c++/cstddef"
	.file 13 "c:/marmalade/7.4/s3e/h/std/c++/cstdlib"
	.file 14 "c:/marmalade/7.4/s3e/h/std/c++/using/cstring"
	.file 15 "c:/marmalade/7.4/s3e/h/std/c++/cstdio"
	.file 16 "c:/marmalade/7.4/s3e/h/std/c++/exception"
	.file 17 "c:/marmalade/7.4/s3e/h/std/c++/stl/_config.h"
	.file 18 "c:/marmalade/7.4/s3e/h/ext/../std/stdlib.h"
	.file 19 "c:/marmalade/7.4/s3e/h/ext/../std/string.h"
	.file 20 "c:/marmalade/7.4/s3e/h/ext/../std/stdio.h"
	.file 21 "c:/users/ben/desktop/fyp/finalyearproject/box2d/Box2D/Dynamics/b2World.h"
	.file 22 "c:/users/ben/desktop/fyp/finalyearproject/box2d/Box2D/Collision/b2BroadPhase.h"
	.file 23 "c:/users/ben/desktop/fyp/finalyearproject/box2d/Box2D/Dynamics/b2TimeStep.h"
	.file 24 "c:/users/ben/desktop/fyp/finalyearproject/box2d/Box2D/Common/b2StackAllocator.h"
	.file 25 "c:/users/ben/desktop/fyp/finalyearproject/box2d/Box2D/Collision/b2DynamicTree.h"
	.file 26 "c:/users/ben/desktop/fyp/finalyearproject/box2d/Box2D/Dynamics/b2ContactManager.h"
	.file 27 "c:/users/ben/desktop/fyp/finalyearproject/box2d/Box2D/Dynamics/b2WorldCallbacks.h"
	.file 28 "<built-in>"
	.file 29 "c:/marmalade/7.4/s3e/h/std/c++/stl/_algo.c"