	.arch armv6
	.fpu softvfp
	.eabi_attribute 20, 1
	.eabi_attribute 21, 1
	.eabi_attribute 23, 3
	.eabi_attribute 24, 1
	.eabi_attribute 25, 1
	.eabi_attribute 26, 2
	.eabi_attribute 30, 6
	.eabi_attribute 34, 1
	.eabi_attribute 18, 2
	.file	"b2CollidePolygon.cpp"
	.text
.Ltext0:
	.cfi_sections	.debug_frame
	.section	.text._ZN6b2Vec2C2Ev,"axG",%progbits,_ZN6b2Vec2C5Ev,comdat
	.align	2
	.weak	_ZN6b2Vec2C2Ev
	.hidden	_ZN6b2Vec2C2Ev
	.type	_ZN6b2Vec2C2Ev, %function
_ZN6b2Vec2C2Ev:
.LFB5:
	.file 1 "c:/users/ben/desktop/fyp/finalyearproject/box2d/Box2D/Common/b2Math.h"
	.loc 1 56 0
	.cfi_startproc
	@ args = 0, pretend = 0, frame = 8
	@ frame_needed = 0, uses_anonymous_args = 0
	@ link register save eliminated.
	sub	sp, sp, #8
.LCFI0:
	.cfi_def_cfa_offset 8
	str	r0, [sp, #4]
	.loc 1 56 0
	ldr	r3, [sp, #4]
	mov	r0, r3
	add	sp, sp, #8
	@ sp needed
	bx	lr
	.cfi_endproc
.LFE5:
	.size	_ZN6b2Vec2C2Ev, .-_ZN6b2Vec2C2Ev
	.weak	_ZN6b2Vec2C1Ev
	.hidden	_ZN6b2Vec2C1Ev
	.set	_ZN6b2Vec2C1Ev,_ZN6b2Vec2C2Ev
	.section	.text._ZN6b2Vec2C2Eff,"axG",%progbits,_ZN6b2Vec2C5Eff,comdat
	.align	2
	.weak	_ZN6b2Vec2C2Eff
	.hidden	_ZN6b2Vec2C2Eff
	.type	_ZN6b2Vec2C2Eff, %function
_ZN6b2Vec2C2Eff:
.LFB8:
	.loc 1 59 0
	.cfi_startproc
	@ args = 0, pretend = 0, frame = 16
	@ frame_needed = 0, uses_anonymous_args = 0
	@ link register save eliminated.
	sub	sp, sp, #16
.LCFI1:
	.cfi_def_cfa_offset 16
	str	r0, [sp, #12]
	str	r1, [sp, #8]	@ float
	str	r2, [sp, #4]	@ float
.LBB2:
	.loc 1 59 0
	ldr	r3, [sp, #12]
	ldr	r2, [sp, #8]	@ float
	str	r2, [r3]	@ float
	ldr	r3, [sp, #12]
	ldr	r2, [sp, #4]	@ float
	str	r2, [r3, #4]	@ float
.LBE2:
	ldr	r3, [sp, #12]
	mov	r0, r3
	add	sp, sp, #16
	@ sp needed
	bx	lr
	.cfi_endproc
.LFE8:
	.size	_ZN6b2Vec2C2Eff, .-_ZN6b2Vec2C2Eff
	.weak	_ZN6b2Vec2C1Eff
	.hidden	_ZN6b2Vec2C1Eff
	.set	_ZN6b2Vec2C1Eff,_ZN6b2Vec2C2Eff
	.section	.text._ZN6b2Vec23SetEff,"axG",%progbits,_ZN6b2Vec23SetEff,comdat
	.align	2
	.weak	_ZN6b2Vec23SetEff
	.hidden	_ZN6b2Vec23SetEff
	.type	_ZN6b2Vec23SetEff, %function
_ZN6b2Vec23SetEff:
.LFB11:
	.loc 1 65 0
	.cfi_startproc
	@ args = 0, pretend = 0, frame = 16
	@ frame_needed = 0, uses_anonymous_args = 0
	@ link register save eliminated.
	sub	sp, sp, #16
.LCFI2:
	.cfi_def_cfa_offset 16
	str	r0, [sp, #12]
	str	r1, [sp, #8]	@ float
	str	r2, [sp, #4]	@ float
	.loc 1 65 0
	ldr	r3, [sp, #12]
	ldr	r2, [sp, #8]	@ float
	str	r2, [r3]	@ float
	ldr	r3, [sp, #12]
	ldr	r2, [sp, #4]	@ float
	str	r2, [r3, #4]	@ float
	add	sp, sp, #16
	@ sp needed
	bx	lr
	.cfi_endproc
.LFE11:
	.size	_ZN6b2Vec23SetEff, .-_ZN6b2Vec23SetEff
	.section	.text._ZNK6b2Vec2ngEv,"axG",%progbits,_ZNK6b2Vec2ngEv,comdat
	.align	2
	.weak	_ZNK6b2Vec2ngEv
	.hidden	_ZNK6b2Vec2ngEv
	.type	_ZNK6b2Vec2ngEv, %function
_ZNK6b2Vec2ngEv:
.LFB12:
	.loc 1 68 0
	.cfi_startproc
	@ args = 0, pretend = 0, frame = 8
	@ frame_needed = 0, uses_anonymous_args = 0
	str	lr, [sp, #-4]!
.LCFI3:
	.cfi_def_cfa_offset 4
	.cfi_offset 14, -4
	sub	sp, sp, #12
.LCFI4:
	.cfi_def_cfa_offset 16
	str	r0, [sp, #4]
	str	r1, [sp]
.LBB3:
	.loc 1 68 0
	ldr	r0, [sp, #4]
	bl	_ZN6b2Vec2C1Ev(PLT)
	ldr	r3, [sp]
	ldr	r3, [r3]	@ float
	eor	r2, r3, #-2147483648
	ldr	r3, [sp]
	ldr	r3, [r3, #4]	@ float
	eor	r3, r3, #-2147483648
	ldr	r0, [sp, #4]
	mov	r1, r2
	mov	r2, r3
	bl	_ZN6b2Vec23SetEff(PLT)
	mov	r0, r0	@ nop
.LBE3:
	ldr	r0, [sp, #4]
	add	sp, sp, #12
	@ sp needed
	ldr	pc, [sp], #4
	.cfi_endproc
.LFE12:
	.size	_ZNK6b2Vec2ngEv, .-_ZNK6b2Vec2ngEv
	.global	__aeabi_fmul
	.global	__aeabi_fadd
	.section	.text._ZNK6b2Vec26LengthEv,"axG",%progbits,_ZNK6b2Vec26LengthEv,comdat
	.align	2
	.weak	_ZNK6b2Vec26LengthEv
	.hidden	_ZNK6b2Vec26LengthEv
	.type	_ZNK6b2Vec26LengthEv, %function
_ZNK6b2Vec26LengthEv:
.LFB18:
	.loc 1 101 0
	.cfi_startproc
	@ args = 0, pretend = 0, frame = 8
	@ frame_needed = 0, uses_anonymous_args = 0
	stmfd	sp!, {r4, lr}
.LCFI5:
	.cfi_def_cfa_offset 8
	.cfi_offset 4, -8
	.cfi_offset 14, -4
	sub	sp, sp, #8
.LCFI6:
	.cfi_def_cfa_offset 16
	str	r0, [sp, #4]
	.loc 1 103 0
	ldr	r3, [sp, #4]
	ldr	r2, [r3]	@ float
	ldr	r3, [sp, #4]
	ldr	r3, [r3]	@ float
	mov	r0, r2
	mov	r1, r3
	bl	__aeabi_fmul(PLT)
	mov	r3, r0
	mov	r4, r3
	ldr	r3, [sp, #4]
	ldr	r2, [r3, #4]	@ float
	ldr	r3, [sp, #4]
	ldr	r3, [r3, #4]	@ float
	mov	r0, r2
	mov	r1, r3
	bl	__aeabi_fmul(PLT)
	mov	r3, r0
	mov	r0, r4
	mov	r1, r3
	bl	__aeabi_fadd(PLT)
	mov	r3, r0
	mov	r0, r3
	bl	sqrtf(PLT)
	mov	r3, r0
	.loc 1 104 0
	mov	r0, r3
	add	sp, sp, #8
	@ sp needed
	ldmfd	sp!, {r4, pc}
	.cfi_endproc
.LFE18:
	.size	_ZNK6b2Vec26LengthEv, .-_ZNK6b2Vec26LengthEv
	.global	__aeabi_fcmplt
	.global	__aeabi_fdiv
	.section	.text._ZN6b2Vec29NormalizeEv,"axG",%progbits,_ZN6b2Vec29NormalizeEv,comdat
	.align	2
	.weak	_ZN6b2Vec29NormalizeEv
	.hidden	_ZN6b2Vec29NormalizeEv
	.type	_ZN6b2Vec29NormalizeEv, %function
_ZN6b2Vec29NormalizeEv:
.LFB20:
	.loc 1 114 0
	.cfi_startproc
	@ args = 0, pretend = 0, frame = 16
	@ frame_needed = 0, uses_anonymous_args = 0
	str	lr, [sp, #-4]!
.LCFI7:
	.cfi_def_cfa_offset 4
	.cfi_offset 14, -4
	sub	sp, sp, #20
.LCFI8:
	.cfi_def_cfa_offset 24
	str	r0, [sp, #4]
.LBB4:
	.loc 1 116 0
	ldr	r0, [sp, #4]
	bl	_ZNK6b2Vec26LengthEv(PLT)
	str	r0, [sp, #12]	@ float
	.loc 1 117 0
	ldr	r0, [sp, #12]	@ float
	mov	r1, #872415232
	bl	__aeabi_fcmplt(PLT)
	mov	r3, r0
	cmp	r3, #0
	beq	.L17
	.loc 1 119 0
	mov	r3, #0
	b	.L15
.L17:
	.loc 1 121 0
	mov	r0, #1065353216
	ldr	r1, [sp, #12]	@ float
	bl	__aeabi_fdiv(PLT)
	mov	r3, r0
	str	r3, [sp, #8]	@ float
	.loc 1 122 0
	ldr	r3, [sp, #4]
	ldr	r3, [r3]	@ float
	mov	r0, r3
	ldr	r1, [sp, #8]	@ float
	bl	__aeabi_fmul(PLT)
	mov	r3, r0
	mov	r2, r3
	ldr	r3, [sp, #4]
	str	r2, [r3]	@ float
	.loc 1 123 0
	ldr	r3, [sp, #4]
	ldr	r3, [r3, #4]	@ float
	mov	r0, r3
	ldr	r1, [sp, #8]	@ float
	bl	__aeabi_fmul(PLT)
	mov	r3, r0
	mov	r2, r3
	ldr	r3, [sp, #4]
	str	r2, [r3, #4]	@ float
	.loc 1 125 0
	ldr	r3, [sp, #12]	@ float
.L15:
.LBE4:
	.loc 1 126 0
	mov	r0, r3
	add	sp, sp, #20
	@ sp needed
	ldr	pc, [sp], #4
	.cfi_endproc
.LFE20:
	.size	_ZN6b2Vec29NormalizeEv, .-_ZN6b2Vec29NormalizeEv
	.section	.text._ZN5b2RotC2Ev,"axG",%progbits,_ZN5b2RotC5Ev,comdat
	.align	2
	.weak	_ZN5b2RotC2Ev
	.hidden	_ZN5b2RotC2Ev
	.type	_ZN5b2RotC2Ev, %function
_ZN5b2RotC2Ev:
.LFB57:
	.loc 1 301 0
	.cfi_startproc
	@ args = 0, pretend = 0, frame = 8
	@ frame_needed = 0, uses_anonymous_args = 0
	@ link register save eliminated.
	sub	sp, sp, #8
.LCFI9:
	.cfi_def_cfa_offset 8
	str	r0, [sp, #4]
	.loc 1 301 0
	ldr	r3, [sp, #4]
	mov	r0, r3
	add	sp, sp, #8
	@ sp needed
	bx	lr
	.cfi_endproc
.LFE57:
	.size	_ZN5b2RotC2Ev, .-_ZN5b2RotC2Ev
	.weak	_ZN5b2RotC1Ev
	.hidden	_ZN5b2RotC1Ev
	.set	_ZN5b2RotC1Ev,_ZN5b2RotC2Ev
	.section	.text._ZN11b2TransformC2Ev,"axG",%progbits,_ZN11b2TransformC5Ev,comdat
	.align	2
	.weak	_ZN11b2TransformC2Ev
	.hidden	_ZN11b2TransformC2Ev
	.type	_ZN11b2TransformC2Ev, %function
_ZN11b2TransformC2Ev:
.LFB68:
	.loc 1 353 0
	.cfi_startproc
	@ args = 0, pretend = 0, frame = 8
	@ frame_needed = 0, uses_anonymous_args = 0
	str	lr, [sp, #-4]!
.LCFI10:
	.cfi_def_cfa_offset 4
	.cfi_offset 14, -4
	sub	sp, sp, #12
.LCFI11:
	.cfi_def_cfa_offset 16
	str	r0, [sp, #4]
.LBB5:
	.loc 1 353 0
	ldr	r3, [sp, #4]
	mov	r0, r3
	bl	_ZN6b2Vec2C1Ev(PLT)
	ldr	r3, [sp, #4]
	add	r3, r3, #8
	mov	r0, r3
	bl	_ZN5b2RotC1Ev(PLT)
.LBE5:
	ldr	r3, [sp, #4]
	mov	r0, r3
	add	sp, sp, #12
	@ sp needed
	ldr	pc, [sp], #4
	.cfi_endproc
.LFE68:
	.size	_ZN11b2TransformC2Ev, .-_ZN11b2TransformC2Ev
	.weak	_ZN11b2TransformC1Ev
	.hidden	_ZN11b2TransformC1Ev
	.set	_ZN11b2TransformC1Ev,_ZN11b2TransformC2Ev
	.section	.text._Z5b2DotRK6b2Vec2S1_,"axG",%progbits,_Z5b2DotRK6b2Vec2S1_,comdat
	.align	2
	.weak	_Z5b2DotRK6b2Vec2S1_
	.hidden	_Z5b2DotRK6b2Vec2S1_
	.type	_Z5b2DotRK6b2Vec2S1_, %function
_Z5b2DotRK6b2Vec2S1_:
.LFB75:
	.loc 1 407 0
	.cfi_startproc
	@ args = 0, pretend = 0, frame = 8
	@ frame_needed = 0, uses_anonymous_args = 0
	stmfd	sp!, {r4, lr}
.LCFI12:
	.cfi_def_cfa_offset 8
	.cfi_offset 4, -8
	.cfi_offset 14, -4
	sub	sp, sp, #8
.LCFI13:
	.cfi_def_cfa_offset 16
	str	r0, [sp, #4]
	str	r1, [sp]
	.loc 1 408 0
	ldr	r3, [sp, #4]
	ldr	r2, [r3]	@ float
	ldr	r3, [sp]
	ldr	r3, [r3]	@ float
	mov	r0, r2
	mov	r1, r3
	bl	__aeabi_fmul(PLT)
	mov	r3, r0
	mov	r4, r3
	ldr	r3, [sp, #4]
	ldr	r2, [r3, #4]	@ float
	ldr	r3, [sp]
	ldr	r3, [r3, #4]	@ float
	mov	r0, r2
	mov	r1, r3
	bl	__aeabi_fmul(PLT)
	mov	r3, r0
	mov	r0, r4
	mov	r1, r3
	bl	__aeabi_fadd(PLT)
	mov	r3, r0
	.loc 1 409 0
	mov	r0, r3
	add	sp, sp, #8
	@ sp needed
	ldmfd	sp!, {r4, pc}
	.cfi_endproc
.LFE75:
	.size	_Z5b2DotRK6b2Vec2S1_, .-_Z5b2DotRK6b2Vec2S1_
	.section	.text._Z7b2CrossRK6b2Vec2f,"axG",%progbits,_Z7b2CrossRK6b2Vec2f,comdat
	.align	2
	.weak	_Z7b2CrossRK6b2Vec2f
	.hidden	_Z7b2CrossRK6b2Vec2f
	.type	_Z7b2CrossRK6b2Vec2f, %function
_Z7b2CrossRK6b2Vec2f:
.LFB77:
	.loc 1 420 0
	.cfi_startproc
	@ args = 0, pretend = 0, frame = 16
	@ frame_needed = 0, uses_anonymous_args = 0
	stmfd	sp!, {r4, lr}
.LCFI14:
	.cfi_def_cfa_offset 8
	.cfi_offset 4, -8
	.cfi_offset 14, -4
	sub	sp, sp, #16
.LCFI15:
	.cfi_def_cfa_offset 24
	str	r0, [sp, #12]
	str	r1, [sp, #8]
	str	r2, [sp, #4]	@ float
	.loc 1 421 0
	ldr	r3, [sp, #8]
	ldr	r3, [r3, #4]	@ float
	mov	r0, r3
	ldr	r1, [sp, #4]	@ float
	bl	__aeabi_fmul(PLT)
	mov	r3, r0
	mov	r4, r3
	ldr	r3, [sp, #4]
	eor	r2, r3, #-2147483648
	ldr	r3, [sp, #8]
	ldr	r3, [r3]	@ float
	mov	r0, r2
	mov	r1, r3
	bl	__aeabi_fmul(PLT)
	mov	r3, r0
	ldr	r0, [sp, #12]
	mov	r1, r4
	mov	r2, r3
	bl	_ZN6b2Vec2C1Eff(PLT)
	.loc 1 422 0
	ldr	r0, [sp, #12]
	add	sp, sp, #16
	@ sp needed
	ldmfd	sp!, {r4, pc}
	.cfi_endproc
.LFE77:
	.size	_Z7b2CrossRK6b2Vec2f, .-_Z7b2CrossRK6b2Vec2f
	.section	.text._ZplRK6b2Vec2S1_,"axG",%progbits,_ZplRK6b2Vec2S1_,comdat
	.align	2
	.weak	_ZplRK6b2Vec2S1_
	.hidden	_ZplRK6b2Vec2S1_
	.type	_ZplRK6b2Vec2S1_, %function
_ZplRK6b2Vec2S1_:
.LFB81:
	.loc 1 447 0
	.cfi_startproc
	@ args = 0, pretend = 0, frame = 16
	@ frame_needed = 0, uses_anonymous_args = 0
	stmfd	sp!, {r4, lr}
.LCFI16:
	.cfi_def_cfa_offset 8
	.cfi_offset 4, -8
	.cfi_offset 14, -4
	sub	sp, sp, #16
.LCFI17:
	.cfi_def_cfa_offset 24
	str	r0, [sp, #12]
	str	r1, [sp, #8]
	str	r2, [sp, #4]
	.loc 1 448 0
	ldr	r3, [sp, #8]
	ldr	r2, [r3]	@ float
	ldr	r3, [sp, #4]
	ldr	r3, [r3]	@ float
	mov	r0, r2
	mov	r1, r3
	bl	__aeabi_fadd(PLT)
	mov	r3, r0
	mov	r4, r3
	ldr	r3, [sp, #8]
	ldr	r2, [r3, #4]	@ float
	ldr	r3, [sp, #4]
	ldr	r3, [r3, #4]	@ float
	mov	r0, r2
	mov	r1, r3
	bl	__aeabi_fadd(PLT)
	mov	r3, r0
	ldr	r0, [sp, #12]
	mov	r1, r4
	mov	r2, r3
	bl	_ZN6b2Vec2C1Eff(PLT)
	.loc 1 449 0
	ldr	r0, [sp, #12]
	add	sp, sp, #16
	@ sp needed
	ldmfd	sp!, {r4, pc}
	.cfi_endproc
.LFE81:
	.size	_ZplRK6b2Vec2S1_, .-_ZplRK6b2Vec2S1_
	.global	__aeabi_fsub
	.section	.text._ZmiRK6b2Vec2S1_,"axG",%progbits,_ZmiRK6b2Vec2S1_,comdat
	.align	2
	.weak	_ZmiRK6b2Vec2S1_
	.hidden	_ZmiRK6b2Vec2S1_
	.type	_ZmiRK6b2Vec2S1_, %function
_ZmiRK6b2Vec2S1_:
.LFB82:
	.loc 1 453 0
	.cfi_startproc
	@ args = 0, pretend = 0, frame = 16
	@ frame_needed = 0, uses_anonymous_args = 0
	stmfd	sp!, {r4, lr}
.LCFI18:
	.cfi_def_cfa_offset 8
	.cfi_offset 4, -8
	.cfi_offset 14, -4
	sub	sp, sp, #16
.LCFI19:
	.cfi_def_cfa_offset 24
	str	r0, [sp, #12]
	str	r1, [sp, #8]
	str	r2, [sp, #4]
	.loc 1 454 0
	ldr	r3, [sp, #8]
	ldr	r2, [r3]	@ float
	ldr	r3, [sp, #4]
	ldr	r3, [r3]	@ float
	mov	r0, r2
	mov	r1, r3
	bl	__aeabi_fsub(PLT)
	mov	r3, r0
	mov	r4, r3
	ldr	r3, [sp, #8]
	ldr	r2, [r3, #4]	@ float
	ldr	r3, [sp, #4]
	ldr	r3, [r3, #4]	@ float
	mov	r0, r2
	mov	r1, r3
	bl	__aeabi_fsub(PLT)
	mov	r3, r0
	ldr	r0, [sp, #12]
	mov	r1, r4
	mov	r2, r3
	bl	_ZN6b2Vec2C1Eff(PLT)
	.loc 1 455 0
	ldr	r0, [sp, #12]
	add	sp, sp, #16
	@ sp needed
	ldmfd	sp!, {r4, pc}
	.cfi_endproc
.LFE82:
	.size	_ZmiRK6b2Vec2S1_, .-_ZmiRK6b2Vec2S1_
	.section	.text._ZmlfRK6b2Vec2,"axG",%progbits,_ZmlfRK6b2Vec2,comdat
	.align	2
	.weak	_ZmlfRK6b2Vec2
	.hidden	_ZmlfRK6b2Vec2
	.type	_ZmlfRK6b2Vec2, %function
_ZmlfRK6b2Vec2:
.LFB83:
	.loc 1 458 0
	.cfi_startproc
	@ args = 0, pretend = 0, frame = 16
	@ frame_needed = 0, uses_anonymous_args = 0
	stmfd	sp!, {r4, lr}
.LCFI20:
	.cfi_def_cfa_offset 8
	.cfi_offset 4, -8
	.cfi_offset 14, -4
	sub	sp, sp, #16
.LCFI21:
	.cfi_def_cfa_offset 24
	str	r0, [sp, #12]
	str	r1, [sp, #8]	@ float
	str	r2, [sp, #4]
	.loc 1 459 0
	ldr	r3, [sp, #4]
	ldr	r3, [r3]	@ float
	mov	r0, r3
	ldr	r1, [sp, #8]	@ float
	bl	__aeabi_fmul(PLT)
	mov	r3, r0
	mov	r4, r3
	ldr	r3, [sp, #4]
	ldr	r3, [r3, #4]	@ float
	mov	r0, r3
	ldr	r1, [sp, #8]	@ float
	bl	__aeabi_fmul(PLT)
	mov	r3, r0
	ldr	r0, [sp, #12]
	mov	r1, r4
	mov	r2, r3
	bl	_ZN6b2Vec2C1Eff(PLT)
	.loc 1 460 0
	ldr	r0, [sp, #12]
	add	sp, sp, #16
	@ sp needed
	ldmfd	sp!, {r4, pc}
	.cfi_endproc
.LFE83:
	.size	_ZmlfRK6b2Vec2, .-_ZmlfRK6b2Vec2
	.section	.text._Z6b2MulTRK5b2RotS1_,"axG",%progbits,_Z6b2MulTRK5b2RotS1_,comdat
	.align	2
	.weak	_Z6b2MulTRK5b2RotS1_
	.hidden	_Z6b2MulTRK5b2RotS1_
	.type	_Z6b2MulTRK5b2RotS1_, %function
_Z6b2MulTRK5b2RotS1_:
.LFB98:
	.loc 1 554 0
	.cfi_startproc
	@ args = 0, pretend = 0, frame = 16
	@ frame_needed = 0, uses_anonymous_args = 0
	stmfd	sp!, {r4, lr}
.LCFI22:
	.cfi_def_cfa_offset 8
	.cfi_offset 4, -8
	.cfi_offset 14, -4
	sub	sp, sp, #16
.LCFI23:
	.cfi_def_cfa_offset 24
	str	r0, [sp, #12]
	str	r1, [sp, #8]
	str	r2, [sp, #4]
.LBB6:
	.loc 1 559 0
	ldr	r0, [sp, #12]
	bl	_ZN5b2RotC1Ev(PLT)
	.loc 1 560 0
	ldr	r3, [sp, #8]
	ldr	r2, [r3, #4]	@ float
	ldr	r3, [sp, #4]
	ldr	r3, [r3]	@ float
	mov	r0, r2
	mov	r1, r3
	bl	__aeabi_fmul(PLT)
	mov	r3, r0
	mov	r4, r3
	ldr	r3, [sp, #8]
	ldr	r2, [r3]	@ float
	ldr	r3, [sp, #4]
	ldr	r3, [r3, #4]	@ float
	mov	r0, r2
	mov	r1, r3
	bl	__aeabi_fmul(PLT)
	mov	r3, r0
	mov	r0, r4
	mov	r1, r3
	bl	__aeabi_fsub(PLT)
	mov	r3, r0
	mov	r2, r3
	ldr	r3, [sp, #12]
	str	r2, [r3]	@ float
	.loc 1 561 0
	ldr	r3, [sp, #8]
	ldr	r2, [r3, #4]	@ float
	ldr	r3, [sp, #4]
	ldr	r3, [r3, #4]	@ float
	mov	r0, r2
	mov	r1, r3
	bl	__aeabi_fmul(PLT)
	mov	r3, r0
	mov	r4, r3
	ldr	r3, [sp, #8]
	ldr	r2, [r3]	@ float
	ldr	r3, [sp, #4]
	ldr	r3, [r3]	@ float
	mov	r0, r2
	mov	r1, r3
	bl	__aeabi_fmul(PLT)
	mov	r3, r0
	mov	r0, r4
	mov	r1, r3
	bl	__aeabi_fadd(PLT)
	mov	r3, r0
	mov	r2, r3
	ldr	r3, [sp, #12]
	str	r2, [r3, #4]	@ float
	.loc 1 562 0
	mov	r0, r0	@ nop
.LBE6:
	.loc 1 563 0
	ldr	r0, [sp, #12]
	add	sp, sp, #16
	@ sp needed
	ldmfd	sp!, {r4, pc}
	.cfi_endproc
.LFE98:
	.size	_Z6b2MulTRK5b2RotS1_, .-_Z6b2MulTRK5b2RotS1_
	.section	.text._Z5b2MulRK5b2RotRK6b2Vec2,"axG",%progbits,_Z5b2MulRK5b2RotRK6b2Vec2,comdat
	.align	2
	.weak	_Z5b2MulRK5b2RotRK6b2Vec2
	.hidden	_Z5b2MulRK5b2RotRK6b2Vec2
	.type	_Z5b2MulRK5b2RotRK6b2Vec2, %function
_Z5b2MulRK5b2RotRK6b2Vec2:
.LFB99:
	.loc 1 567 0
	.cfi_startproc
	@ args = 0, pretend = 0, frame = 16
	@ frame_needed = 0, uses_anonymous_args = 0
	stmfd	sp!, {r4, r5, lr}
.LCFI24:
	.cfi_def_cfa_offset 12
	.cfi_offset 4, -12
	.cfi_offset 5, -8
	.cfi_offset 14, -4
	sub	sp, sp, #20
.LCFI25:
	.cfi_def_cfa_offset 32
	str	r0, [sp, #12]
	str	r1, [sp, #8]
	str	r2, [sp, #4]
	.loc 1 568 0
	ldr	r3, [sp, #8]
	ldr	r2, [r3, #4]	@ float
	ldr	r3, [sp, #4]
	ldr	r3, [r3]	@ float
	mov	r0, r2
	mov	r1, r3
	bl	__aeabi_fmul(PLT)
	mov	r3, r0
	mov	r4, r3
	ldr	r3, [sp, #8]
	ldr	r2, [r3]	@ float
	ldr	r3, [sp, #4]
	ldr	r3, [r3, #4]	@ float
	mov	r0, r2
	mov	r1, r3
	bl	__aeabi_fmul(PLT)
	mov	r3, r0
	mov	r0, r4
	mov	r1, r3
	bl	__aeabi_fsub(PLT)
	mov	r3, r0
	mov	r4, r3
	ldr	r3, [sp, #8]
	ldr	r2, [r3]	@ float
	ldr	r3, [sp, #4]
	ldr	r3, [r3]	@ float
	mov	r0, r2
	mov	r1, r3
	bl	__aeabi_fmul(PLT)
	mov	r3, r0
	mov	r5, r3
	ldr	r3, [sp, #8]
	ldr	r2, [r3, #4]	@ float
	ldr	r3, [sp, #4]
	ldr	r3, [r3, #4]	@ float
	mov	r0, r2
	mov	r1, r3
	bl	__aeabi_fmul(PLT)
	mov	r3, r0
	mov	r0, r5
	mov	r1, r3
	bl	__aeabi_fadd(PLT)
	mov	r3, r0
	ldr	r0, [sp, #12]
	mov	r1, r4
	mov	r2, r3
	bl	_ZN6b2Vec2C1Eff(PLT)
	.loc 1 569 0
	ldr	r0, [sp, #12]
	add	sp, sp, #20
	@ sp needed
	ldmfd	sp!, {r4, r5, pc}
	.cfi_endproc
.LFE99:
	.size	_Z5b2MulRK5b2RotRK6b2Vec2, .-_Z5b2MulRK5b2RotRK6b2Vec2
	.section	.text._Z6b2MulTRK5b2RotRK6b2Vec2,"axG",%progbits,_Z6b2MulTRK5b2RotRK6b2Vec2,comdat
	.align	2
	.weak	_Z6b2MulTRK5b2RotRK6b2Vec2
	.hidden	_Z6b2MulTRK5b2RotRK6b2Vec2
	.type	_Z6b2MulTRK5b2RotRK6b2Vec2, %function
_Z6b2MulTRK5b2RotRK6b2Vec2:
.LFB100:
	.loc 1 573 0
	.cfi_startproc
	@ args = 0, pretend = 0, frame = 16
	@ frame_needed = 0, uses_anonymous_args = 0
	stmfd	sp!, {r4, r5, lr}
.LCFI26:
	.cfi_def_cfa_offset 12
	.cfi_offset 4, -12
	.cfi_offset 5, -8
	.cfi_offset 14, -4
	sub	sp, sp, #20
.LCFI27:
	.cfi_def_cfa_offset 32
	str	r0, [sp, #12]
	str	r1, [sp, #8]
	str	r2, [sp, #4]
	.loc 1 574 0
	ldr	r3, [sp, #8]
	ldr	r2, [r3, #4]	@ float
	ldr	r3, [sp, #4]
	ldr	r3, [r3]	@ float
	mov	r0, r2
	mov	r1, r3
	bl	__aeabi_fmul(PLT)
	mov	r3, r0
	mov	r4, r3
	ldr	r3, [sp, #8]
	ldr	r2, [r3]	@ float
	ldr	r3, [sp, #4]
	ldr	r3, [r3, #4]	@ float
	mov	r0, r2
	mov	r1, r3
	bl	__aeabi_fmul(PLT)
	mov	r3, r0
	mov	r0, r4
	mov	r1, r3
	bl	__aeabi_fadd(PLT)
	mov	r3, r0
	mov	r4, r3
	ldr	r3, [sp, #8]
	ldr	r3, [r3]	@ float
	eor	r2, r3, #-2147483648
	ldr	r3, [sp, #4]
	ldr	r3, [r3]	@ float
	mov	r0, r2
	mov	r1, r3
	bl	__aeabi_fmul(PLT)
	mov	r3, r0
	mov	r5, r3
	ldr	r3, [sp, #8]
	ldr	r2, [r3, #4]	@ float
	ldr	r3, [sp, #4]
	ldr	r3, [r3, #4]	@ float
	mov	r0, r2
	mov	r1, r3
	bl	__aeabi_fmul(PLT)
	mov	r3, r0
	mov	r0, r5
	mov	r1, r3
	bl	__aeabi_fadd(PLT)
	mov	r3, r0
	ldr	r0, [sp, #12]
	mov	r1, r4
	mov	r2, r3
	bl	_ZN6b2Vec2C1Eff(PLT)
	.loc 1 575 0
	ldr	r0, [sp, #12]
	add	sp, sp, #20
	@ sp needed
	ldmfd	sp!, {r4, r5, pc}
	.cfi_endproc
.LFE100:
	.size	_Z6b2MulTRK5b2RotRK6b2Vec2, .-_Z6b2MulTRK5b2RotRK6b2Vec2
	.section	.text._Z5b2MulRK11b2TransformRK6b2Vec2,"axG",%progbits,_Z5b2MulRK11b2TransformRK6b2Vec2,comdat
	.align	2
	.weak	_Z5b2MulRK11b2TransformRK6b2Vec2
	.hidden	_Z5b2MulRK11b2TransformRK6b2Vec2
	.type	_Z5b2MulRK11b2TransformRK6b2Vec2, %function
_Z5b2MulRK11b2TransformRK6b2Vec2:
.LFB101:
	.loc 1 578 0
	.cfi_startproc
	@ args = 0, pretend = 0, frame = 24
	@ frame_needed = 0, uses_anonymous_args = 0
	stmfd	sp!, {r4, lr}
.LCFI28:
	.cfi_def_cfa_offset 8
	.cfi_offset 4, -8
	.cfi_offset 14, -4
	sub	sp, sp, #24
.LCFI29:
	.cfi_def_cfa_offset 32
	str	r0, [sp, #12]
	str	r1, [sp, #8]
	str	r2, [sp, #4]
.LBB7:
	.loc 1 579 0
	ldr	r3, [sp, #8]
	ldr	r2, [r3, #12]	@ float
	ldr	r3, [sp, #4]
	ldr	r3, [r3]	@ float
	mov	r0, r2
	mov	r1, r3
	bl	__aeabi_fmul(PLT)
	mov	r3, r0
	mov	r4, r3
	ldr	r3, [sp, #8]
	ldr	r2, [r3, #8]	@ float
	ldr	r3, [sp, #4]
	ldr	r3, [r3, #4]	@ float
	mov	r0, r2
	mov	r1, r3
	bl	__aeabi_fmul(PLT)
	mov	r3, r0
	mov	r0, r4
	mov	r1, r3
	bl	__aeabi_fsub(PLT)
	mov	r3, r0
	mov	r2, r3
	ldr	r3, [sp, #8]
	ldr	r3, [r3]	@ float
	mov	r0, r2
	mov	r1, r3
	bl	__aeabi_fadd(PLT)
	mov	r3, r0
	str	r3, [sp, #20]	@ float
	.loc 1 580 0
	ldr	r3, [sp, #8]
	ldr	r2, [r3, #8]	@ float
	ldr	r3, [sp, #4]
	ldr	r3, [r3]	@ float
	mov	r0, r2
	mov	r1, r3
	bl	__aeabi_fmul(PLT)
	mov	r3, r0
	mov	r4, r3
	ldr	r3, [sp, #8]
	ldr	r2, [r3, #12]	@ float
	ldr	r3, [sp, #4]
	ldr	r3, [r3, #4]	@ float
	mov	r0, r2
	mov	r1, r3
	bl	__aeabi_fmul(PLT)
	mov	r3, r0
	mov	r0, r4
	mov	r1, r3
	bl	__aeabi_fadd(PLT)
	mov	r3, r0
	mov	r2, r3
	ldr	r3, [sp, #8]
	ldr	r3, [r3, #4]	@ float
	mov	r0, r2
	mov	r1, r3
	bl	__aeabi_fadd(PLT)
	mov	r3, r0
	str	r3, [sp, #16]	@ float
	.loc 1 582 0
	ldr	r0, [sp, #12]
	ldr	r1, [sp, #20]	@ float
	ldr	r2, [sp, #16]	@ float
	bl	_ZN6b2Vec2C1Eff(PLT)
.LBE7:
	.loc 1 583 0
	ldr	r0, [sp, #12]
	add	sp, sp, #24
	@ sp needed
	ldmfd	sp!, {r4, pc}
	.cfi_endproc
.LFE101:
	.size	_Z5b2MulRK11b2TransformRK6b2Vec2, .-_Z5b2MulRK11b2TransformRK6b2Vec2
	.section	.text._Z6b2MulTRK11b2TransformRK6b2Vec2,"axG",%progbits,_Z6b2MulTRK11b2TransformRK6b2Vec2,comdat
	.align	2
	.weak	_Z6b2MulTRK11b2TransformRK6b2Vec2
	.hidden	_Z6b2MulTRK11b2TransformRK6b2Vec2
	.type	_Z6b2MulTRK11b2TransformRK6b2Vec2, %function
_Z6b2MulTRK11b2TransformRK6b2Vec2:
.LFB102:
	.loc 1 586 0
	.cfi_startproc
	@ args = 0, pretend = 0, frame = 32
	@ frame_needed = 0, uses_anonymous_args = 0
	stmfd	sp!, {r4, lr}
.LCFI30:
	.cfi_def_cfa_offset 8
	.cfi_offset 4, -8
	.cfi_offset 14, -4
	sub	sp, sp, #32
.LCFI31:
	.cfi_def_cfa_offset 40
	str	r0, [sp, #12]
	str	r1, [sp, #8]
	str	r2, [sp, #4]
.LBB8:
	.loc 1 587 0
	ldr	r3, [sp, #4]
	ldr	r2, [r3]	@ float
	ldr	r3, [sp, #8]
	ldr	r3, [r3]	@ float
	mov	r0, r2
	mov	r1, r3
	bl	__aeabi_fsub(PLT)
	mov	r3, r0
	str	r3, [sp, #28]	@ float
	.loc 1 588 0
	ldr	r3, [sp, #4]
	ldr	r2, [r3, #4]	@ float
	ldr	r3, [sp, #8]
	ldr	r3, [r3, #4]	@ float
	mov	r0, r2
	mov	r1, r3
	bl	__aeabi_fsub(PLT)
	mov	r3, r0
	str	r3, [sp, #24]	@ float
	.loc 1 589 0
	ldr	r3, [sp, #8]
	ldr	r3, [r3, #12]	@ float
	mov	r0, r3
	ldr	r1, [sp, #28]	@ float
	bl	__aeabi_fmul(PLT)
	mov	r3, r0
	mov	r4, r3
	ldr	r3, [sp, #8]
	ldr	r3, [r3, #8]	@ float
	mov	r0, r3
	ldr	r1, [sp, #24]	@ float
	bl	__aeabi_fmul(PLT)
	mov	r3, r0
	mov	r0, r4
	mov	r1, r3
	bl	__aeabi_fadd(PLT)
	mov	r3, r0
	str	r3, [sp, #20]	@ float
	.loc 1 590 0
	ldr	r3, [sp, #8]
	ldr	r3, [r3, #8]	@ float
	eor	r3, r3, #-2147483648
	mov	r0, r3
	ldr	r1, [sp, #28]	@ float
	bl	__aeabi_fmul(PLT)
	mov	r3, r0
	mov	r4, r3
	ldr	r3, [sp, #8]
	ldr	r3, [r3, #12]	@ float
	mov	r0, r3
	ldr	r1, [sp, #24]	@ float
	bl	__aeabi_fmul(PLT)
	mov	r3, r0
	mov	r0, r4
	mov	r1, r3
	bl	__aeabi_fadd(PLT)
	mov	r3, r0
	str	r3, [sp, #16]	@ float
	.loc 1 592 0
	ldr	r0, [sp, #12]
	ldr	r1, [sp, #20]	@ float
	ldr	r2, [sp, #16]	@ float
	bl	_ZN6b2Vec2C1Eff(PLT)
.LBE8:
	.loc 1 593 0
	ldr	r0, [sp, #12]
	add	sp, sp, #32
	@ sp needed
	ldmfd	sp!, {r4, pc}
	.cfi_endproc
.LFE102:
	.size	_Z6b2MulTRK11b2TransformRK6b2Vec2, .-_Z6b2MulTRK11b2TransformRK6b2Vec2
	.section	.text._Z6b2MulTRK11b2TransformS1_,"axG",%progbits,_Z6b2MulTRK11b2TransformS1_,comdat
	.align	2
	.weak	_Z6b2MulTRK11b2TransformS1_
	.hidden	_Z6b2MulTRK11b2TransformS1_
	.type	_Z6b2MulTRK11b2TransformS1_, %function
_Z6b2MulTRK11b2TransformS1_:
.LFB104:
	.loc 1 608 0
	.cfi_startproc
	@ args = 0, pretend = 0, frame = 32
	@ frame_needed = 0, uses_anonymous_args = 0
	stmfd	sp!, {r4, r5, lr}
.LCFI32:
	.cfi_def_cfa_offset 12
	.cfi_offset 4, -12
	.cfi_offset 5, -8
	.cfi_offset 14, -4
	sub	sp, sp, #36
.LCFI33:
	.cfi_def_cfa_offset 48
	str	r0, [sp, #20]
	str	r1, [sp, #16]
	str	r2, [sp, #12]
.LBB9:
	.loc 1 609 0
	ldr	r0, [sp, #20]
	bl	_ZN11b2TransformC1Ev(PLT)
	.loc 1 610 0
	ldr	r3, [sp, #16]
	add	r2, r3, #8
	ldr	r3, [sp, #12]
	add	r3, r3, #8
	ldr	r4, [sp, #20]
	mov	r1, sp
	mov	r0, r1
	mov	r1, r2
	mov	r2, r3
	bl	_Z6b2MulTRK5b2RotS1_(PLT)
	add	r3, r4, #8
	mov	r2, sp
	ldmia	r2, {r0, r1}
	stmia	r3, {r0, r1}
	.loc 1 611 0
	ldr	r3, [sp, #16]
	add	r5, r3, #8
	ldr	r2, [sp, #12]
	ldr	r3, [sp, #16]
	add	r1, sp, #24
	mov	r0, r1
	mov	r1, r2
	mov	r2, r3
	bl	_ZmiRK6b2Vec2S1_(PLT)
	ldr	r4, [sp, #20]
	mov	r2, sp
	add	r3, sp, #24
	mov	r0, r2
	mov	r1, r5
	mov	r2, r3
	bl	_Z6b2MulTRK5b2RotRK6b2Vec2(PLT)
	mov	r3, r4
	mov	r2, sp
	ldmia	r2, {r0, r1}
	stmia	r3, {r0, r1}
	.loc 1 612 0
	mov	r0, r0	@ nop
.LBE9:
	.loc 1 613 0
	ldr	r0, [sp, #20]
	add	sp, sp, #36
	@ sp needed
	ldmfd	sp!, {r4, r5, pc}
	.cfi_endproc
.LFE104:
	.size	_Z6b2MulTRK11b2TransformS1_, .-_Z6b2MulTRK11b2TransformS1_
	.global	__aeabi_fcmpgt
	.section	.text._ZL19b2FindMaxSeparationPiPK14b2PolygonShapeRK11b2TransformS2_S5_,"ax",%progbits
	.align	2
	.type	_ZL19b2FindMaxSeparationPiPK14b2PolygonShapeRK11b2TransformS2_S5_, %function
_ZL19b2FindMaxSeparationPiPK14b2PolygonShapeRK11b2TransformS2_S5_:
.LFB141:
	.file 2 "c:/Users/Ben/Desktop/FYP/FinalYearProject/box2d/Box2D/Collision/b2CollidePolygon.cpp"
	.loc 2 26 0
	.cfi_startproc
	@ args = 4, pretend = 0, frame = 104
	@ frame_needed = 0, uses_anonymous_args = 0
	str	lr, [sp, #-4]!
.LCFI34:
	.cfi_def_cfa_offset 4
	.cfi_offset 14, -4
	sub	sp, sp, #108
.LCFI35:
	.cfi_def_cfa_offset 112
	str	r0, [sp, #12]
	str	r1, [sp, #8]
	str	r2, [sp, #4]
	str	r3, [sp]
.LBB10:
	.loc 2 27 0
	ldr	r3, [sp, #8]
	ldr	r3, [r3, #148]
	str	r3, [sp, #80]
	.loc 2 28 0
	ldr	r3, [sp]
	ldr	r3, [r3, #148]
	str	r3, [sp, #76]
	.loc 2 29 0
	ldr	r3, [sp, #8]
	add	r3, r3, #84
	str	r3, [sp, #72]
	.loc 2 30 0
	ldr	r3, [sp, #8]
	add	r3, r3, #20
	str	r3, [sp, #68]
	.loc 2 31 0
	ldr	r3, [sp]
	add	r3, r3, #20
	str	r3, [sp, #64]
	.loc 2 32 0
	add	r3, sp, #36
	mov	r0, r3
	ldr	r1, [sp, #112]
	ldr	r2, [sp, #4]
	bl	_Z6b2MulTRK11b2TransformS1_(PLT)
	.loc 2 34 0
	mov	r3, #0
	str	r3, [sp, #100]
	.loc 2 35 0
	mvn	r3, #8388608
	str	r3, [sp, #96]	@ float
.LBB11:
	.loc 2 36 0
	mov	r3, #0
	str	r3, [sp, #92]
	b	.L47
.L54:
.LBB12:
	.loc 2 39 0
	ldr	r3, [sp, #92]
	mov	r3, r3, asl #3
	ldr	r2, [sp, #72]
	add	r3, r2, r3
	add	r1, sp, #28
	add	r2, sp, #36
	add	r2, r2, #8
	mov	r0, r1
	mov	r1, r2
	mov	r2, r3
	bl	_Z5b2MulRK5b2RotRK6b2Vec2(PLT)
	.loc 2 40 0
	ldr	r3, [sp, #92]
	mov	r3, r3, asl #3
	ldr	r2, [sp, #68]
	add	r3, r2, r3
	add	r1, sp, #20
	add	r2, sp, #36
	mov	r0, r1
	mov	r1, r2
	mov	r2, r3
	bl	_Z5b2MulRK11b2TransformRK6b2Vec2(PLT)
	.loc 2 43 0
	ldr	r3, .L58
	str	r3, [sp, #88]	@ float
.LBB13:
	.loc 2 44 0
	mov	r3, #0
	str	r3, [sp, #84]
	b	.L48
.L51:
.LBB14:
	.loc 2 46 0
	ldr	r3, [sp, #84]
	mov	r3, r3, asl #3
	ldr	r2, [sp, #64]
	add	r2, r2, r3
	add	r1, sp, #52
	add	r3, sp, #20
	mov	r0, r1
	mov	r1, r2
	mov	r2, r3
	bl	_ZmiRK6b2Vec2S1_(PLT)
	add	r2, sp, #28
	add	r3, sp, #52
	mov	r0, r2
	mov	r1, r3
	bl	_Z5b2DotRK6b2Vec2S1_(PLT)
	str	r0, [sp, #60]	@ float
	.loc 2 47 0
	ldr	r0, [sp, #60]	@ float
	ldr	r1, [sp, #88]	@ float
	bl	__aeabi_fcmplt(PLT)
	mov	r3, r0
	cmp	r3, #0
	beq	.L49
	.loc 2 49 0
	ldr	r3, [sp, #60]	@ float
	str	r3, [sp, #88]	@ float
.L49:
.LBE14:
	.loc 2 44 0
	ldr	r3, [sp, #84]
	add	r3, r3, #1
	str	r3, [sp, #84]
.L48:
	.loc 2 44 0 is_stmt 0 discriminator 1
	ldr	r2, [sp, #84]
	ldr	r3, [sp, #76]
	cmp	r2, r3
	blt	.L51
.LBE13:
	.loc 2 53 0 is_stmt 1
	ldr	r0, [sp, #88]	@ float
	ldr	r1, [sp, #96]	@ float
	bl	__aeabi_fcmpgt(PLT)
	mov	r3, r0
	cmp	r3, #0
	beq	.L52
	.loc 2 55 0
	ldr	r3, [sp, #88]	@ float
	str	r3, [sp, #96]	@ float
	.loc 2 56 0
	ldr	r3, [sp, #92]
	str	r3, [sp, #100]
.L52:
.LBE12:
	.loc 2 36 0 discriminator 1
	ldr	r3, [sp, #92]
	add	r3, r3, #1
	str	r3, [sp, #92]
.L47:
	ldr	r2, [sp, #92]
	ldr	r3, [sp, #80]
	cmp	r2, r3
	blt	.L54
.LBE11:
	.loc 2 60 0
	ldr	r3, [sp, #12]
	ldr	r2, [sp, #100]
	str	r2, [r3]
	.loc 2 61 0
	ldr	r3, [sp, #96]	@ float
.LBE10:
	.loc 2 62 0
	mov	r0, r3
	add	sp, sp, #108
	@ sp needed
	ldr	pc, [sp], #4
.L59:
	.align	2
.L58:
	.word	2139095039
	.cfi_endproc
.LFE141:
	.size	_ZL19b2FindMaxSeparationPiPK14b2PolygonShapeRK11b2TransformS2_S5_, .-_ZL19b2FindMaxSeparationPiPK14b2PolygonShapeRK11b2TransformS2_S5_
	.section	.rodata
	.align	2
.LC0:
	.ascii	"c:/Users/Ben/Desktop/FYP/FinalYearProject/box2d/Box"
	.ascii	"2D/Collision/b2CollidePolygon.cpp\000"
	.align	2
.LC1:
	.ascii	"0 <= edge1 && edge1 < poly1->m_count\000"
	.section	.text._ZL18b2FindIncidentEdgeP12b2ClipVertexPK14b2PolygonShapeRK11b2TransformiS3_S6_,"ax",%progbits
	.align	2
	.type	_ZL18b2FindIncidentEdgeP12b2ClipVertexPK14b2PolygonShapeRK11b2TransformiS3_S6_, %function
_ZL18b2FindIncidentEdgeP12b2ClipVertexPK14b2PolygonShapeRK11b2TransformiS3_S6_:
.LFB142:
	.loc 2 67 0
	.cfi_startproc
	@ args = 8, pretend = 0, frame = 80
	@ frame_needed = 0, uses_anonymous_args = 0
	stmfd	sp!, {r4, lr}
.LCFI36:
	.cfi_def_cfa_offset 8
	.cfi_offset 4, -8
	.cfi_offset 14, -4
	sub	sp, sp, #80
.LCFI37:
	.cfi_def_cfa_offset 88
	str	r0, [sp, #20]
	str	r1, [sp, #16]
	str	r2, [sp, #12]
	str	r3, [sp, #8]
.LBB15:
	.loc 2 68 0
	ldr	r3, [sp, #16]
	add	r3, r3, #84
	str	r3, [sp, #64]
	.loc 2 70 0
	ldr	r3, [sp, #88]
	ldr	r3, [r3, #148]
	str	r3, [sp, #60]
	.loc 2 71 0
	ldr	r3, [sp, #88]
	add	r3, r3, #20
	str	r3, [sp, #56]
	.loc 2 72 0
	ldr	r3, [sp, #88]
	add	r3, r3, #84
	str	r3, [sp, #52]
	.loc 2 74 0
	ldr	r3, [sp, #8]
	cmp	r3, #0
	blt	.L61
	.loc 2 74 0 is_stmt 0 discriminator 2
	ldr	r3, [sp, #16]
	ldr	r2, [r3, #148]
	ldr	r3, [sp, #8]
	cmp	r2, r3
	bgt	.L62
.L61:
	.loc 2 74 0 discriminator 1
	ldr	r3, .L70
.LPIC0:
	add	r3, pc, r3
	mov	r0, r3
	mov	r1, #74
	ldr	r3, .L70+4
.LPIC1:
	add	r3, pc, r3
	mov	r2, r3
	bl	__assert(PLT)
.L62:
	.loc 2 77 0 is_stmt 1
	ldr	r3, [sp, #92]
	add	r4, r3, #8
	ldr	r3, [sp, #12]
	add	r2, r3, #8
	ldr	r3, [sp, #8]
	mov	r3, r3, asl #3
	ldr	r1, [sp, #64]
	add	r3, r1, r3
	add	r1, sp, #32
	mov	r0, r1
	mov	r1, r2
	mov	r2, r3
	bl	_Z5b2MulRK5b2RotRK6b2Vec2(PLT)
	add	r2, sp, #24
	add	r3, sp, #32
	mov	r0, r2
	mov	r1, r4
	mov	r2, r3
	bl	_Z6b2MulTRK5b2RotRK6b2Vec2(PLT)
	.loc 2 80 0
	mov	r3, #0
	str	r3, [sp, #76]
	.loc 2 81 0
	ldr	r3, .L70+8
	str	r3, [sp, #72]	@ float
.LBB16:
	.loc 2 82 0
	mov	r3, #0
	str	r3, [sp, #68]
	b	.L63
.L66:
.LBB17:
	.loc 2 84 0
	ldr	r3, [sp, #68]
	mov	r3, r3, asl #3
	ldr	r2, [sp, #52]
	add	r3, r2, r3
	add	r2, sp, #24
	mov	r0, r2
	mov	r1, r3
	bl	_Z5b2DotRK6b2Vec2S1_(PLT)
	str	r0, [sp, #48]	@ float
	.loc 2 85 0
	ldr	r0, [sp, #48]	@ float
	ldr	r1, [sp, #72]	@ float
	bl	__aeabi_fcmplt(PLT)
	mov	r3, r0
	cmp	r3, #0
	beq	.L64
	.loc 2 87 0
	ldr	r3, [sp, #48]	@ float
	str	r3, [sp, #72]	@ float
	.loc 2 88 0
	ldr	r3, [sp, #68]
	str	r3, [sp, #76]
.L64:
.LBE17:
	.loc 2 82 0
	ldr	r3, [sp, #68]
	add	r3, r3, #1
	str	r3, [sp, #68]
.L63:
	.loc 2 82 0 is_stmt 0 discriminator 1
	ldr	r2, [sp, #68]
	ldr	r3, [sp, #60]
	cmp	r2, r3
	blt	.L66
.LBE16:
	.loc 2 93 0 is_stmt 1
	ldr	r3, [sp, #76]
	str	r3, [sp, #44]
	.loc 2 94 0
	ldr	r3, [sp, #44]
	add	r2, r3, #1
	ldr	r3, [sp, #60]
	cmp	r2, r3
	bge	.L67
	.loc 2 94 0 is_stmt 0 discriminator 1
	ldr	r3, [sp, #44]
	add	r3, r3, #1
	b	.L68
.L67:
	.loc 2 94 0 discriminator 2
	mov	r3, #0
.L68:
	.loc 2 94 0 discriminator 3
	str	r3, [sp, #40]
	.loc 2 96 0 is_stmt 1 discriminator 3
	ldr	r3, [sp, #44]
	mov	r3, r3, asl #3
	ldr	r2, [sp, #56]
	add	r3, r2, r3
	ldr	r4, [sp, #20]
	mov	r2, sp
	mov	r0, r2
	ldr	r1, [sp, #92]
	mov	r2, r3
	bl	_Z5b2MulRK11b2TransformRK6b2Vec2(PLT)
	mov	r3, r4
	mov	r2, sp
	ldmia	r2, {r0, r1}
	stmia	r3, {r0, r1}
	.loc 2 97 0 discriminator 3
	ldr	r3, [sp, #8]
	uxtb	r2, r3
	ldr	r3, [sp, #20]
	strb	r2, [r3, #8]
	.loc 2 98 0 discriminator 3
	ldr	r3, [sp, #44]
	uxtb	r2, r3
	ldr	r3, [sp, #20]
	strb	r2, [r3, #9]
	.loc 2 99 0 discriminator 3
	ldr	r3, [sp, #20]
	mov	r2, #1
	strb	r2, [r3, #10]
	.loc 2 100 0 discriminator 3
	ldr	r3, [sp, #20]
	mov	r2, #0
	strb	r2, [r3, #11]
	.loc 2 102 0 discriminator 3
	ldr	r3, [sp, #20]
	add	r4, r3, #12
	ldr	r3, [sp, #40]
	mov	r3, r3, asl #3
	ldr	r2, [sp, #56]
	add	r3, r2, r3
	mov	r2, sp
	mov	r0, r2
	ldr	r1, [sp, #92]
	mov	r2, r3
	bl	_Z5b2MulRK11b2TransformRK6b2Vec2(PLT)
	mov	r3, r4
	mov	r2, sp
	ldmia	r2, {r0, r1}
	stmia	r3, {r0, r1}
	.loc 2 103 0 discriminator 3
	ldr	r3, [sp, #20]
	add	r3, r3, #12
	ldr	r2, [sp, #8]
	uxtb	r2, r2
	strb	r2, [r3, #8]
	.loc 2 104 0 discriminator 3
	ldr	r3, [sp, #20]
	add	r3, r3, #12
	ldr	r2, [sp, #40]
	uxtb	r2, r2
	strb	r2, [r3, #9]
	.loc 2 105 0 discriminator 3
	ldr	r3, [sp, #20]
	add	r3, r3, #12
	mov	r2, #1
	strb	r2, [r3, #10]
	.loc 2 106 0 discriminator 3
	ldr	r3, [sp, #20]
	add	r3, r3, #12
	mov	r2, #0
	strb	r2, [r3, #11]
.LBE15:
	.loc 2 107 0 discriminator 3
	add	sp, sp, #80
	@ sp needed
	ldmfd	sp!, {r4, pc}
.L71:
	.align	2
.L70:
	.word	.LC0-(.LPIC0+8)
	.word	.LC1-(.LPIC1+8)
	.word	2139095039
	.cfi_endproc
.LFE142:
	.size	_ZL18b2FindIncidentEdgeP12b2ClipVertexPK14b2PolygonShapeRK11b2TransformiS3_S6_, .-_ZL18b2FindIncidentEdgeP12b2ClipVertexPK14b2PolygonShapeRK11b2TransformiS3_S6_
	.section	.text._ZN12b2ClipVertexC2Ev,"axG",%progbits,_ZN12b2ClipVertexC5Ev,comdat
	.align	2
	.weak	_ZN12b2ClipVertexC2Ev
	.hidden	_ZN12b2ClipVertexC2Ev
	.type	_ZN12b2ClipVertexC2Ev, %function
_ZN12b2ClipVertexC2Ev:
.LFB145:
	.file 3 "c:/users/ben/desktop/fyp/finalyearproject/box2d/Box2D/Collision/b2Collision.h"
	.loc 3 140 0
	.cfi_startproc
	@ args = 0, pretend = 0, frame = 8
	@ frame_needed = 0, uses_anonymous_args = 0
	str	lr, [sp, #-4]!
.LCFI38:
	.cfi_def_cfa_offset 4
	.cfi_offset 14, -4
	sub	sp, sp, #12
.LCFI39:
	.cfi_def_cfa_offset 16
	str	r0, [sp, #4]
.LBB18:
	.loc 3 140 0
	ldr	r3, [sp, #4]
	mov	r0, r3
	bl	_ZN6b2Vec2C1Ev(PLT)
.LBE18:
	ldr	r3, [sp, #4]
	mov	r0, r3
	add	sp, sp, #12
	@ sp needed
	ldr	pc, [sp], #4
	.cfi_endproc
.LFE145:
	.size	_ZN12b2ClipVertexC2Ev, .-_ZN12b2ClipVertexC2Ev
	.weak	_ZN12b2ClipVertexC1Ev
	.hidden	_ZN12b2ClipVertexC1Ev
	.set	_ZN12b2ClipVertexC1Ev,_ZN12b2ClipVertexC2Ev
	.global	__aeabi_fcmple
	.section	.text._Z17b2CollidePolygonsP10b2ManifoldPK14b2PolygonShapeRK11b2TransformS3_S6_,"ax",%progbits
	.align	2
	.global	_Z17b2CollidePolygonsP10b2ManifoldPK14b2PolygonShapeRK11b2TransformS3_S6_
	.hidden	_Z17b2CollidePolygonsP10b2ManifoldPK14b2PolygonShapeRK11b2TransformS3_S6_
	.type	_Z17b2CollidePolygonsP10b2ManifoldPK14b2PolygonShapeRK11b2TransformS3_S6_, %function
_Z17b2CollidePolygonsP10b2ManifoldPK14b2PolygonShapeRK11b2TransformS3_S6_:
.LFB143:
	.loc 2 119 0
	.cfi_startproc
	@ args = 4, pretend = 0, frame = 296
	@ frame_needed = 0, uses_anonymous_args = 0
	stmfd	sp!, {r4, r5, lr}
.LCFI40:
	.cfi_def_cfa_offset 12
	.cfi_offset 4, -12
	.cfi_offset 5, -8
	.cfi_offset 14, -4
	sub	sp, sp, #308
.LCFI41:
	.cfi_def_cfa_offset 320
	str	r0, [sp, #28]
	str	r1, [sp, #24]
	str	r2, [sp, #20]
	str	r3, [sp, #16]
.LBB19:
	.loc 2 120 0
	ldr	r3, [sp, #28]
	mov	r2, #0
	str	r2, [r3, #60]
	.loc 2 121 0
	ldr	r3, [sp, #24]
	ldr	r2, [r3, #8]	@ float
	ldr	r3, [sp, #16]
	ldr	r3, [r3, #8]	@ float
	mov	r0, r2
	mov	r1, r3
	bl	__aeabi_fadd(PLT)
	mov	r3, r0
	str	r3, [sp, #276]	@ float
	.loc 2 123 0
	mov	r3, #0
	str	r3, [sp, #204]
	.loc 2 124 0
	add	r3, sp, #204
	ldr	r2, [sp, #320]
	str	r2, [sp]
	mov	r0, r3
	ldr	r1, [sp, #24]
	ldr	r2, [sp, #20]
	ldr	r3, [sp, #16]
	bl	_ZL19b2FindMaxSeparationPiPK14b2PolygonShapeRK11b2TransformS2_S5_(PLT)
	str	r0, [sp, #272]	@ float
	.loc 2 125 0
	ldr	r0, [sp, #272]	@ float
	ldr	r1, [sp, #276]	@ float
	bl	__aeabi_fcmpgt(PLT)
	mov	r3, r0
	cmp	r3, #0
	beq	.L104
	.loc 2 126 0
	b	.L75
.L104:
	.loc 2 128 0
	mov	r3, #0
	str	r3, [sp, #200]
	.loc 2 129 0
	add	r3, sp, #200
	ldr	r2, [sp, #20]
	str	r2, [sp]
	mov	r0, r3
	ldr	r1, [sp, #16]
	ldr	r2, [sp, #320]
	ldr	r3, [sp, #24]
	bl	_ZL19b2FindMaxSeparationPiPK14b2PolygonShapeRK11b2TransformS2_S5_(PLT)
	str	r0, [sp, #268]	@ float
	.loc 2 130 0
	ldr	r0, [sp, #268]	@ float
	ldr	r1, [sp, #276]	@ float
	bl	__aeabi_fcmpgt(PLT)
	mov	r3, r0
	cmp	r3, #0
	beq	.L105
	.loc 2 131 0
	b	.L75
.L105:
	.loc 2 135 0
	add	r3, sp, #184
	mov	r0, r3
	bl	_ZN11b2TransformC1Ev(PLT)
	add	r3, sp, #168
	mov	r0, r3
	bl	_ZN11b2TransformC1Ev(PLT)
	.loc 2 138 0
	ldr	r3, .L107
	str	r3, [sp, #264]	@ float
	.loc 2 140 0
	ldr	r0, [sp, #272]	@ float
	ldr	r1, .L107
	bl	__aeabi_fadd(PLT)
	mov	r3, r0
	mov	r0, r3
	ldr	r1, [sp, #268]	@ float
	bl	__aeabi_fcmplt(PLT)
	mov	r3, r0
	cmp	r3, #0
	beq	.L106
	.loc 2 142 0
	ldr	r3, [sp, #16]
	str	r3, [sp, #300]
	.loc 2 143 0
	ldr	r3, [sp, #24]
	str	r3, [sp, #296]
	.loc 2 144 0
	ldr	r3, [sp, #320]
	add	ip, sp, #184
	ldmia	r3, {r0, r1, r2, r3}
	stmia	ip, {r0, r1, r2, r3}
	.loc 2 145 0
	ldr	r3, [sp, #20]
	add	ip, sp, #168
	ldmia	r3, {r0, r1, r2, r3}
	stmia	ip, {r0, r1, r2, r3}
	.loc 2 146 0
	ldr	r3, [sp, #200]
	str	r3, [sp, #292]
	.loc 2 147 0
	ldr	r3, [sp, #28]
	mov	r2, #2
	str	r2, [r3, #56]
	.loc 2 148 0
	mov	r3, #1
	strb	r3, [sp, #291]
	b	.L83
.L106:
	.loc 2 152 0
	ldr	r3, [sp, #24]
	str	r3, [sp, #300]
	.loc 2 153 0
	ldr	r3, [sp, #16]
	str	r3, [sp, #296]
	.loc 2 154 0
	ldr	r3, [sp, #20]
	add	ip, sp, #184
	ldmia	r3, {r0, r1, r2, r3}
	stmia	ip, {r0, r1, r2, r3}
	.loc 2 155 0
	ldr	r3, [sp, #320]
	add	ip, sp, #168
	ldmia	r3, {r0, r1, r2, r3}
	stmia	ip, {r0, r1, r2, r3}
	.loc 2 156 0
	ldr	r3, [sp, #204]
	str	r3, [sp, #292]
	.loc 2 157 0
	ldr	r3, [sp, #28]
	mov	r2, #1
	str	r2, [r3, #56]
	.loc 2 158 0
	mov	r3, #0
	strb	r3, [sp, #291]
.L83:
	.loc 2 161 0
	add	r3, sp, #144
	mov	r4, #1
	mov	r5, r3
	b	.L84
.L85:
	.loc 2 161 0 is_stmt 0 discriminator 2
	mov	r0, r5
	bl	_ZN12b2ClipVertexC1Ev(PLT)
	add	r5, r5, #12
	sub	r4, r4, #1
.L84:
	.loc 2 161 0 discriminator 1
	cmn	r4, #1
	bne	.L85
	.loc 2 162 0 is_stmt 1 discriminator 3
	add	r2, sp, #144
	add	r3, sp, #184
	ldr	r1, [sp, #296]
	str	r1, [sp]
	add	r1, sp, #168
	str	r1, [sp, #4]
	mov	r0, r2
	ldr	r1, [sp, #300]
	mov	r2, r3
	ldr	r3, [sp, #292]
	bl	_ZL18b2FindIncidentEdgeP12b2ClipVertexPK14b2PolygonShapeRK11b2TransformiS3_S6_(PLT)
	.loc 2 164 0 discriminator 3
	ldr	r3, [sp, #300]
	ldr	r3, [r3, #148]
	str	r3, [sp, #260]
	.loc 2 165 0 discriminator 3
	ldr	r3, [sp, #300]
	add	r3, r3, #20
	str	r3, [sp, #256]
	.loc 2 167 0 discriminator 3
	ldr	r3, [sp, #292]
	str	r3, [sp, #252]
	.loc 2 168 0 discriminator 3
	ldr	r3, [sp, #292]
	add	r2, r3, #1
	ldr	r3, [sp, #260]
	cmp	r2, r3
	bge	.L86
	.loc 2 168 0 is_stmt 0 discriminator 1
	ldr	r3, [sp, #292]
	add	r3, r3, #1
	b	.L87
.L86:
	.loc 2 168 0 discriminator 2
	mov	r3, #0
.L87:
	.loc 2 168 0 discriminator 3
	str	r3, [sp, #248]
	.loc 2 170 0 is_stmt 1 discriminator 3
	ldr	r3, [sp, #252]
	mov	r3, r3, asl #3
	ldr	r2, [sp, #256]
	add	r2, r2, r3
	add	r3, sp, #136
	ldmia	r2, {r0, r1}
	stmia	r3, {r0, r1}
	.loc 2 171 0 discriminator 3
	ldr	r3, [sp, #248]
	mov	r3, r3, asl #3
	ldr	r2, [sp, #256]
	add	r2, r2, r3
	add	r3, sp, #128
	ldmia	r2, {r0, r1}
	stmia	r3, {r0, r1}
	.loc 2 173 0 discriminator 3
	add	r1, sp, #120
	add	r2, sp, #128
	add	r3, sp, #136
	mov	r0, r1
	mov	r1, r2
	mov	r2, r3
	bl	_ZmiRK6b2Vec2S1_(PLT)
	.loc 2 174 0 discriminator 3
	add	r3, sp, #120
	mov	r0, r3
	bl	_ZN6b2Vec29NormalizeEv(PLT)
	.loc 2 176 0 discriminator 3
	add	r2, sp, #112
	add	r3, sp, #120
	mov	r0, r2
	mov	r1, r3
	mov	r2, #1065353216
	bl	_Z7b2CrossRK6b2Vec2f(PLT)
	.loc 2 177 0 discriminator 3
	add	r1, sp, #208
	add	r2, sp, #136
	add	r3, sp, #128
	mov	r0, r1
	mov	r1, r2
	mov	r2, r3
	bl	_ZplRK6b2Vec2S1_(PLT)
	add	r2, sp, #104
	add	r3, sp, #208
	mov	r0, r2
	mov	r1, #1056964608
	mov	r2, r3
	bl	_ZmlfRK6b2Vec2(PLT)
	.loc 2 179 0 discriminator 3
	add	r1, sp, #96
	add	r3, sp, #184
	add	r2, r3, #8
	add	r3, sp, #120
	mov	r0, r1
	mov	r1, r2
	mov	r2, r3
	bl	_Z5b2MulRK5b2RotRK6b2Vec2(PLT)
	.loc 2 180 0 discriminator 3
	add	r2, sp, #88
	add	r3, sp, #96
	mov	r0, r2
	mov	r1, r3
	mov	r2, #1065353216
	bl	_Z7b2CrossRK6b2Vec2f(PLT)
	.loc 2 182 0 discriminator 3
	add	r1, sp, #8
	add	r2, sp, #184
	add	r3, sp, #136
	mov	r0, r1
	mov	r1, r2
	mov	r2, r3
	bl	_Z5b2MulRK11b2TransformRK6b2Vec2(PLT)
	add	r3, sp, #136
	add	r2, sp, #8
	ldmia	r2, {r0, r1}
	stmia	r3, {r0, r1}
	.loc 2 183 0 discriminator 3
	add	r1, sp, #8
	add	r2, sp, #184
	add	r3, sp, #128
	mov	r0, r1
	mov	r1, r2
	mov	r2, r3
	bl	_Z5b2MulRK11b2TransformRK6b2Vec2(PLT)
	add	r3, sp, #128
	add	r2, sp, #8
	ldmia	r2, {r0, r1}
	stmia	r3, {r0, r1}
	.loc 2 186 0 discriminator 3
	add	r2, sp, #88
	add	r3, sp, #136
	mov	r0, r2
	mov	r1, r3
	bl	_Z5b2DotRK6b2Vec2S1_(PLT)
	str	r0, [sp, #244]	@ float
	.loc 2 189 0 discriminator 3
	add	r2, sp, #96
	add	r3, sp, #136
	mov	r0, r2
	mov	r1, r3
	bl	_Z5b2DotRK6b2Vec2S1_(PLT)
	mov	r3, r0
	ldr	r0, [sp, #276]	@ float
	mov	r1, r3
	bl	__aeabi_fsub(PLT)
	mov	r3, r0
	str	r3, [sp, #240]	@ float
	.loc 2 190 0 discriminator 3
	add	r2, sp, #96
	add	r3, sp, #128
	mov	r0, r2
	mov	r1, r3
	bl	_Z5b2DotRK6b2Vec2S1_(PLT)
	mov	r3, r0
	mov	r0, r3
	ldr	r1, [sp, #276]	@ float
	bl	__aeabi_fadd(PLT)
	mov	r3, r0
	str	r3, [sp, #236]	@ float
	.loc 2 193 0 discriminator 3
	add	r3, sp, #64
	mov	r4, #1
	mov	r5, r3
	b	.L88
.L89:
	.loc 2 193 0 is_stmt 0 discriminator 2
	mov	r0, r5
	bl	_ZN12b2ClipVertexC1Ev(PLT)
	add	r5, r5, #12
	sub	r4, r4, #1
.L88:
	.loc 2 193 0 discriminator 1
	cmn	r4, #1
	bne	.L89
	.loc 2 194 0 is_stmt 1 discriminator 3
	add	r3, sp, #40
	mov	r4, #1
	mov	r5, r3
	b	.L90
.L91:
	.loc 2 194 0 is_stmt 0 discriminator 2
	mov	r0, r5
	bl	_ZN12b2ClipVertexC1Ev(PLT)
	add	r5, r5, #12
	sub	r4, r4, #1
.L90:
	.loc 2 194 0 discriminator 1
	cmn	r4, #1
	bne	.L91
	.loc 2 198 0 is_stmt 1 discriminator 3
	add	r2, sp, #216
	add	r3, sp, #96
	mov	r0, r2
	mov	r1, r3
	bl	_ZNK6b2Vec2ngEv(PLT)
	add	r1, sp, #64
	add	r2, sp, #144
	add	r3, sp, #216
	ldr	r0, [sp, #252]
	str	r0, [sp]
	mov	r0, r1
	mov	r1, r2
	mov	r2, r3
	ldr	r3, [sp, #240]	@ float
	bl	_Z19b2ClipSegmentToLineP12b2ClipVertexPKS_RK6b2Vec2fi(PLT)
	str	r0, [sp, #232]
	.loc 2 200 0 discriminator 3
	ldr	r3, [sp, #232]
	cmp	r3, #1
	bgt	.L92
	.loc 2 201 0
	b	.L75
.L92:
	.loc 2 204 0
	add	r1, sp, #40
	add	r2, sp, #64
	add	r3, sp, #96
	ldr	r0, [sp, #248]
	str	r0, [sp]
	mov	r0, r1
	mov	r1, r2
	mov	r2, r3
	ldr	r3, [sp, #236]	@ float
	bl	_Z19b2ClipSegmentToLineP12b2ClipVertexPKS_RK6b2Vec2fi(PLT)
	str	r0, [sp, #232]
	.loc 2 206 0
	ldr	r3, [sp, #232]
	cmp	r3, #1
	bgt	.L93
	.loc 2 208 0
	b	.L75
.L93:
	.loc 2 212 0
	ldr	r3, [sp, #28]
	add	r3, r3, #40
	add	r2, sp, #112
	ldmia	r2, {r0, r1}
	stmia	r3, {r0, r1}
	.loc 2 213 0
	ldr	r3, [sp, #28]
	add	r3, r3, #48
	add	r2, sp, #104
	ldmia	r2, {r0, r1}
	stmia	r3, {r0, r1}
	.loc 2 215 0
	mov	r3, #0
	str	r3, [sp, #284]
.LBB20:
	.loc 2 216 0
	mov	r3, #0
	str	r3, [sp, #280]
	b	.L94
.L98:
.LBB21:
	.loc 2 218 0
	add	r1, sp, #40
	ldr	r2, [sp, #280]
	mov	r3, r2
	mov	r3, r3, asl #1
	add	r3, r3, r2
	mov	r3, r3, asl #2
	add	r3, r1, r3
	add	r2, sp, #88
	mov	r0, r2
	mov	r1, r3
	bl	_Z5b2DotRK6b2Vec2S1_(PLT)
	mov	r3, r0
	mov	r0, r3
	ldr	r1, [sp, #244]	@ float
	bl	__aeabi_fsub(PLT)
	mov	r3, r0
	str	r3, [sp, #228]	@ float
.LBB22:
	.loc 2 220 0
	ldr	r0, [sp, #228]	@ float
	ldr	r1, [sp, #276]	@ float
	bl	__aeabi_fcmple(PLT)
	mov	r3, r0
	cmp	r3, #0
	beq	.L95
.LBB23:
	.loc 2 222 0
	ldr	r2, [sp, #284]
	mov	r3, r2
	mov	r3, r3, asl #2
	add	r3, r3, r2
	mov	r3, r3, asl #2
	ldr	r2, [sp, #28]
	add	r3, r2, r3
	str	r3, [sp, #224]
	.loc 2 223 0
	add	r1, sp, #40
	ldr	r2, [sp, #280]
	mov	r3, r2
	mov	r3, r3, asl #1
	add	r3, r3, r2
	mov	r3, r3, asl #2
	add	r3, r1, r3
	ldr	r4, [sp, #224]
	add	r1, sp, #8
	add	r2, sp, #168
	mov	r0, r1
	mov	r1, r2
	mov	r2, r3
	bl	_Z6b2MulTRK11b2TransformRK6b2Vec2(PLT)
	mov	r3, r4
	add	r2, sp, #8
	ldmia	r2, {r0, r1}
	stmia	r3, {r0, r1}
	.loc 2 224 0
	ldr	r1, [sp, #224]
	ldr	r2, [sp, #280]
	mvn	r0, #255
	mov	r3, r2
	mov	r3, r3, asl #1
	add	r3, r3, r2
	mov	r3, r3, asl #2
	add	r2, sp, #304
	add	r3, r2, r3
	add	r3, r3, r0
	ldr	r3, [r3]
	str	r3, [r1, #16]
.LBB24:
	.loc 2 225 0
	ldrb	r3, [sp, #291]	@ zero_extendqisi2
	cmp	r3, #0
	beq	.L97
.LBB25:
	.loc 2 228 0
	ldr	r3, [sp, #224]
	ldr	r3, [r3, #16]
	str	r3, [sp, #36]
	.loc 2 229 0
	ldrb	r2, [sp, #37]	@ zero_extendqisi2
	ldr	r3, [sp, #224]
	strb	r2, [r3, #16]
	.loc 2 230 0
	ldrb	r2, [sp, #36]	@ zero_extendqisi2
	ldr	r3, [sp, #224]
	strb	r2, [r3, #17]
	.loc 2 231 0
	ldrb	r2, [sp, #39]	@ zero_extendqisi2
	ldr	r3, [sp, #224]
	strb	r2, [r3, #18]
	.loc 2 232 0
	ldrb	r2, [sp, #38]	@ zero_extendqisi2
	ldr	r3, [sp, #224]
	strb	r2, [r3, #19]
.L97:
.LBE25:
.LBE24:
	.loc 2 234 0 discriminator 1
	ldr	r3, [sp, #284]
	add	r3, r3, #1
	str	r3, [sp, #284]
.L95:
.LBE23:
.LBE22:
.LBE21:
	.loc 2 216 0
	ldr	r3, [sp, #280]
	add	r3, r3, #1
	str	r3, [sp, #280]
.L94:
	.loc 2 216 0 is_stmt 0 discriminator 1
	ldr	r3, [sp, #280]
	cmp	r3, #1
	ble	.L98
.LBE20:
	.loc 2 238 0 is_stmt 1
	ldr	r3, [sp, #28]
	ldr	r2, [sp, #284]
	str	r2, [r3, #60]
.L75:
.LBE19:
	.loc 2 239 0
	add	sp, sp, #308
	@ sp needed
	ldmfd	sp!, {r4, r5, pc}
.L108:
	.align	2
.L107:
	.word	973279855
	.cfi_endproc
.LFE143:
	.size	_Z17b2CollidePolygonsP10b2ManifoldPK14b2PolygonShapeRK11b2TransformS3_S6_, .-_Z17b2CollidePolygonsP10b2ManifoldPK14b2PolygonShapeRK11b2TransformS3_S6_
	.section	.rodata
	.type	_ZL14b2_nullFeature, %object
	.size	_ZL14b2_nullFeature, 1
_ZL14b2_nullFeature:
	.byte	-1
	.align	2
	.type	_ZL12b2_chunkSize, %object
	.size	_ZL12b2_chunkSize, 4
_ZL12b2_chunkSize:
	.word	16384
	.align	2
	.type	_ZL15b2_maxBlockSize, %object
	.size	_ZL15b2_maxBlockSize, 4
_ZL15b2_maxBlockSize:
	.word	640
	.align	2
	.type	_ZL13b2_blockSizes, %object
	.size	_ZL13b2_blockSizes, 4
_ZL13b2_blockSizes:
	.word	14
	.align	2
	.type	_ZL22b2_chunkArrayIncrement, %object
	.size	_ZL22b2_chunkArrayIncrement, 4
_ZL22b2_chunkArrayIncrement:
	.word	128
	.text
.Letext0:
	.file 4 "c:/marmalade/7.4/s3e/h/s3eTypes.h"
	.file 5 "c:/users/ben/desktop/fyp/finalyearproject/box2d/Box2D/Common/b2Settings.h"
	.file 6 "c:/users/ben/desktop/fyp/finalyearproject/box2d/Box2D/Common/b2BlockAllocator.h"