	.arch armv6
	.fpu softvfp
	.eabi_attribute 20, 1
	.eabi_attribute 21, 1
	.eabi_attribute 23, 3
	.eabi_attribute 24, 1
	.eabi_attribute 25, 1
	.eabi_attribute 26, 2
	.eabi_attribute 30, 6
	.eabi_attribute 34, 1
	.eabi_attribute 18, 2
	.file	"b2Island.cpp"
	.text
.Ltext0:
	.cfi_sections	.debug_frame
	.section	.text._ZN6b2Vec2C2Eff,"axG",%progbits,_ZN6b2Vec2C5Eff,comdat
	.align	2
	.weak	_ZN6b2Vec2C2Eff
	.hidden	_ZN6b2Vec2C2Eff
	.type	_ZN6b2Vec2C2Eff, %function
_ZN6b2Vec2C2Eff:
.LFB8:
	.file 1 "c:/users/ben/desktop/fyp/finalyearproject/box2d/Box2D/Common/b2Math.h"
	.loc 1 59 0
	.cfi_startproc
	@ args = 0, pretend = 0, frame = 16
	@ frame_needed = 0, uses_anonymous_args = 0
	@ link register save eliminated.
	sub	sp, sp, #16
.LCFI0:
	.cfi_def_cfa_offset 16
	str	r0, [sp, #12]
	str	r1, [sp, #8]	@ float
	str	r2, [sp, #4]	@ float
.LBB2:
	.loc 1 59 0
	ldr	r3, [sp, #12]
	ldr	r2, [sp, #8]	@ float
	str	r2, [r3]	@ float
	ldr	r3, [sp, #12]
	ldr	r2, [sp, #4]	@ float
	str	r2, [r3, #4]	@ float
.LBE2:
	ldr	r3, [sp, #12]
	mov	r0, r3
	add	sp, sp, #16
	@ sp needed
	bx	lr
	.cfi_endproc
.LFE8:
	.size	_ZN6b2Vec2C2Eff, .-_ZN6b2Vec2C2Eff
	.weak	_ZN6b2Vec2C1Eff
	.hidden	_ZN6b2Vec2C1Eff
	.set	_ZN6b2Vec2C1Eff,_ZN6b2Vec2C2Eff
	.section	.text._ZN6b2Vec27SetZeroEv,"axG",%progbits,_ZN6b2Vec27SetZeroEv,comdat
	.align	2
	.weak	_ZN6b2Vec27SetZeroEv
	.hidden	_ZN6b2Vec27SetZeroEv
	.type	_ZN6b2Vec27SetZeroEv, %function
_ZN6b2Vec27SetZeroEv:
.LFB10:
	.loc 1 62 0
	.cfi_startproc
	@ args = 0, pretend = 0, frame = 8
	@ frame_needed = 0, uses_anonymous_args = 0
	@ link register save eliminated.
	sub	sp, sp, #8
.LCFI1:
	.cfi_def_cfa_offset 8
	str	r0, [sp, #4]
	.loc 1 62 0
	ldr	r3, [sp, #4]
	mov	r2, #0
	str	r2, [r3]	@ float
	ldr	r3, [sp, #4]
	mov	r2, #0
	str	r2, [r3, #4]	@ float
	add	sp, sp, #8
	@ sp needed
	bx	lr
	.cfi_endproc
.LFE10:
	.size	_ZN6b2Vec27SetZeroEv, .-_ZN6b2Vec27SetZeroEv
	.global	__aeabi_fadd
	.section	.text._ZN6b2Vec2pLERKS_,"axG",%progbits,_ZN6b2Vec2pLERKS_,comdat
	.align	2
	.weak	_ZN6b2Vec2pLERKS_
	.hidden	_ZN6b2Vec2pLERKS_
	.type	_ZN6b2Vec2pLERKS_, %function
_ZN6b2Vec2pLERKS_:
.LFB15:
	.loc 1 83 0
	.cfi_startproc
	@ args = 0, pretend = 0, frame = 8
	@ frame_needed = 0, uses_anonymous_args = 0
	str	lr, [sp, #-4]!
.LCFI2:
	.cfi_def_cfa_offset 4
	.cfi_offset 14, -4
	sub	sp, sp, #12
.LCFI3:
	.cfi_def_cfa_offset 16
	str	r0, [sp, #4]
	str	r1, [sp]
	.loc 1 85 0
	ldr	r3, [sp, #4]
	ldr	r2, [r3]	@ float
	ldr	r3, [sp]
	ldr	r3, [r3]	@ float
	mov	r0, r2
	mov	r1, r3
	bl	__aeabi_fadd(PLT)
	mov	r3, r0
	mov	r2, r3
	ldr	r3, [sp, #4]
	str	r2, [r3]	@ float
	ldr	r3, [sp, #4]
	ldr	r2, [r3, #4]	@ float
	ldr	r3, [sp]
	ldr	r3, [r3, #4]	@ float
	mov	r0, r2
	mov	r1, r3
	bl	__aeabi_fadd(PLT)
	mov	r3, r0
	mov	r2, r3
	ldr	r3, [sp, #4]
	str	r2, [r3, #4]	@ float
	.loc 1 86 0
	add	sp, sp, #12
	@ sp needed
	ldr	pc, [sp], #4
	.cfi_endproc
.LFE15:
	.size	_ZN6b2Vec2pLERKS_, .-_ZN6b2Vec2pLERKS_
	.global	__aeabi_fmul
	.section	.text._ZN6b2Vec2mLEf,"axG",%progbits,_ZN6b2Vec2mLEf,comdat
	.align	2
	.weak	_ZN6b2Vec2mLEf
	.hidden	_ZN6b2Vec2mLEf
	.type	_ZN6b2Vec2mLEf, %function
_ZN6b2Vec2mLEf:
.LFB17:
	.loc 1 95 0
	.cfi_startproc
	@ args = 0, pretend = 0, frame = 8
	@ frame_needed = 0, uses_anonymous_args = 0
	str	lr, [sp, #-4]!
.LCFI4:
	.cfi_def_cfa_offset 4
	.cfi_offset 14, -4
	sub	sp, sp, #12
.LCFI5:
	.cfi_def_cfa_offset 16
	str	r0, [sp, #4]
	str	r1, [sp]	@ float
	.loc 1 97 0
	ldr	r3, [sp, #4]
	ldr	r3, [r3]	@ float
	mov	r0, r3
	ldr	r1, [sp]	@ float
	bl	__aeabi_fmul(PLT)
	mov	r3, r0
	mov	r2, r3
	ldr	r3, [sp, #4]
	str	r2, [r3]	@ float
	ldr	r3, [sp, #4]
	ldr	r3, [r3, #4]	@ float
	mov	r0, r3
	ldr	r1, [sp]	@ float
	bl	__aeabi_fmul(PLT)
	mov	r3, r0
	mov	r2, r3
	ldr	r3, [sp, #4]
	str	r2, [r3, #4]	@ float
	.loc 1 98 0
	add	sp, sp, #12
	@ sp needed
	ldr	pc, [sp], #4
	.cfi_endproc
.LFE17:
	.size	_ZN6b2Vec2mLEf, .-_ZN6b2Vec2mLEf
	.section	.text._ZNK6b2Vec26LengthEv,"axG",%progbits,_ZNK6b2Vec26LengthEv,comdat
	.align	2
	.weak	_ZNK6b2Vec26LengthEv
	.hidden	_ZNK6b2Vec26LengthEv
	.type	_ZNK6b2Vec26LengthEv, %function
_ZNK6b2Vec26LengthEv:
.LFB18:
	.loc 1 101 0
	.cfi_startproc
	@ args = 0, pretend = 0, frame = 8
	@ frame_needed = 0, uses_anonymous_args = 0
	stmfd	sp!, {r4, lr}
.LCFI6:
	.cfi_def_cfa_offset 8
	.cfi_offset 4, -8
	.cfi_offset 14, -4
	sub	sp, sp, #8
.LCFI7:
	.cfi_def_cfa_offset 16
	str	r0, [sp, #4]
	.loc 1 103 0
	ldr	r3, [sp, #4]
	ldr	r2, [r3]	@ float
	ldr	r3, [sp, #4]
	ldr	r3, [r3]	@ float
	mov	r0, r2
	mov	r1, r3
	bl	__aeabi_fmul(PLT)
	mov	r3, r0
	mov	r4, r3
	ldr	r3, [sp, #4]
	ldr	r2, [r3, #4]	@ float
	ldr	r3, [sp, #4]
	ldr	r3, [r3, #4]	@ float
	mov	r0, r2
	mov	r1, r3
	bl	__aeabi_fmul(PLT)
	mov	r3, r0
	mov	r0, r4
	mov	r1, r3
	bl	__aeabi_fadd(PLT)
	mov	r3, r0
	mov	r0, r3
	bl	sqrtf(PLT)
	mov	r3, r0
	.loc 1 104 0
	mov	r0, r3
	add	sp, sp, #8
	@ sp needed
	ldmfd	sp!, {r4, pc}
	.cfi_endproc
.LFE18:
	.size	_ZNK6b2Vec26LengthEv, .-_ZNK6b2Vec26LengthEv
	.section	.text._ZN5b2Rot3SetEf,"axG",%progbits,_ZN5b2Rot3SetEf,comdat
	.align	2
	.weak	_ZN5b2Rot3SetEf
	.hidden	_ZN5b2Rot3SetEf
	.type	_ZN5b2Rot3SetEf, %function
_ZN5b2Rot3SetEf:
.LFB62:
	.loc 1 312 0
	.cfi_startproc
	@ args = 0, pretend = 0, frame = 8
	@ frame_needed = 0, uses_anonymous_args = 0
	str	lr, [sp, #-4]!
.LCFI8:
	.cfi_def_cfa_offset 4
	.cfi_offset 14, -4
	sub	sp, sp, #12
.LCFI9:
	.cfi_def_cfa_offset 16
	str	r0, [sp, #4]
	str	r1, [sp]	@ float
	.loc 1 315 0
	ldr	r0, [sp]	@ float
	bl	sinf(PLT)
	mov	r2, r0
	ldr	r3, [sp, #4]
	str	r2, [r3]	@ float
	.loc 1 316 0
	ldr	r0, [sp]	@ float
	bl	cosf(PLT)
	mov	r2, r0
	ldr	r3, [sp, #4]
	str	r2, [r3, #4]	@ float
	.loc 1 317 0
	add	sp, sp, #12
	@ sp needed
	ldr	pc, [sp], #4
	.cfi_endproc
.LFE62:
	.size	_ZN5b2Rot3SetEf, .-_ZN5b2Rot3SetEf
	.section	.text._Z5b2DotRK6b2Vec2S1_,"axG",%progbits,_Z5b2DotRK6b2Vec2S1_,comdat
	.align	2
	.weak	_Z5b2DotRK6b2Vec2S1_
	.hidden	_Z5b2DotRK6b2Vec2S1_
	.type	_Z5b2DotRK6b2Vec2S1_, %function
_Z5b2DotRK6b2Vec2S1_:
.LFB75:
	.loc 1 407 0
	.cfi_startproc
	@ args = 0, pretend = 0, frame = 8
	@ frame_needed = 0, uses_anonymous_args = 0
	stmfd	sp!, {r4, lr}
.LCFI10:
	.cfi_def_cfa_offset 8
	.cfi_offset 4, -8
	.cfi_offset 14, -4
	sub	sp, sp, #8
.LCFI11:
	.cfi_def_cfa_offset 16
	str	r0, [sp, #4]
	str	r1, [sp]
	.loc 1 408 0
	ldr	r3, [sp, #4]
	ldr	r2, [r3]	@ float
	ldr	r3, [sp]
	ldr	r3, [r3]	@ float
	mov	r0, r2
	mov	r1, r3
	bl	__aeabi_fmul(PLT)
	mov	r3, r0
	mov	r4, r3
	ldr	r3, [sp, #4]
	ldr	r2, [r3, #4]	@ float
	ldr	r3, [sp]
	ldr	r3, [r3, #4]	@ float
	mov	r0, r2
	mov	r1, r3
	bl	__aeabi_fmul(PLT)
	mov	r3, r0
	mov	r0, r4
	mov	r1, r3
	bl	__aeabi_fadd(PLT)
	mov	r3, r0
	.loc 1 409 0
	mov	r0, r3
	add	sp, sp, #8
	@ sp needed
	ldmfd	sp!, {r4, pc}
	.cfi_endproc
.LFE75:
	.size	_Z5b2DotRK6b2Vec2S1_, .-_Z5b2DotRK6b2Vec2S1_
	.section	.text._ZplRK6b2Vec2S1_,"axG",%progbits,_ZplRK6b2Vec2S1_,comdat
	.align	2
	.weak	_ZplRK6b2Vec2S1_
	.hidden	_ZplRK6b2Vec2S1_
	.type	_ZplRK6b2Vec2S1_, %function
_ZplRK6b2Vec2S1_:
.LFB81:
	.loc 1 447 0
	.cfi_startproc
	@ args = 0, pretend = 0, frame = 16
	@ frame_needed = 0, uses_anonymous_args = 0
	stmfd	sp!, {r4, lr}
.LCFI12:
	.cfi_def_cfa_offset 8
	.cfi_offset 4, -8
	.cfi_offset 14, -4
	sub	sp, sp, #16
.LCFI13:
	.cfi_def_cfa_offset 24
	str	r0, [sp, #12]
	str	r1, [sp, #8]
	str	r2, [sp, #4]
	.loc 1 448 0
	ldr	r3, [sp, #8]
	ldr	r2, [r3]	@ float
	ldr	r3, [sp, #4]
	ldr	r3, [r3]	@ float
	mov	r0, r2
	mov	r1, r3
	bl	__aeabi_fadd(PLT)
	mov	r3, r0
	mov	r4, r3
	ldr	r3, [sp, #8]
	ldr	r2, [r3, #4]	@ float
	ldr	r3, [sp, #4]
	ldr	r3, [r3, #4]	@ float
	mov	r0, r2
	mov	r1, r3
	bl	__aeabi_fadd(PLT)
	mov	r3, r0
	ldr	r0, [sp, #12]
	mov	r1, r4
	mov	r2, r3
	bl	_ZN6b2Vec2C1Eff(PLT)
	.loc 1 449 0
	ldr	r0, [sp, #12]
	add	sp, sp, #16
	@ sp needed
	ldmfd	sp!, {r4, pc}
	.cfi_endproc
.LFE81:
	.size	_ZplRK6b2Vec2S1_, .-_ZplRK6b2Vec2S1_
	.global	__aeabi_fsub
	.section	.text._ZmiRK6b2Vec2S1_,"axG",%progbits,_ZmiRK6b2Vec2S1_,comdat
	.align	2
	.weak	_ZmiRK6b2Vec2S1_
	.hidden	_ZmiRK6b2Vec2S1_
	.type	_ZmiRK6b2Vec2S1_, %function
_ZmiRK6b2Vec2S1_:
.LFB82:
	.loc 1 453 0
	.cfi_startproc
	@ args = 0, pretend = 0, frame = 16
	@ frame_needed = 0, uses_anonymous_args = 0
	stmfd	sp!, {r4, lr}
.LCFI14:
	.cfi_def_cfa_offset 8
	.cfi_offset 4, -8
	.cfi_offset 14, -4
	sub	sp, sp, #16
.LCFI15:
	.cfi_def_cfa_offset 24
	str	r0, [sp, #12]
	str	r1, [sp, #8]
	str	r2, [sp, #4]
	.loc 1 454 0
	ldr	r3, [sp, #8]
	ldr	r2, [r3]	@ float
	ldr	r3, [sp, #4]
	ldr	r3, [r3]	@ float
	mov	r0, r2
	mov	r1, r3
	bl	__aeabi_fsub(PLT)
	mov	r3, r0
	mov	r4, r3
	ldr	r3, [sp, #8]
	ldr	r2, [r3, #4]	@ float
	ldr	r3, [sp, #4]
	ldr	r3, [r3, #4]	@ float
	mov	r0, r2
	mov	r1, r3
	bl	__aeabi_fsub(PLT)
	mov	r3, r0
	ldr	r0, [sp, #12]
	mov	r1, r4
	mov	r2, r3
	bl	_ZN6b2Vec2C1Eff(PLT)
	.loc 1 455 0
	ldr	r0, [sp, #12]
	add	sp, sp, #16
	@ sp needed
	ldmfd	sp!, {r4, pc}
	.cfi_endproc
.LFE82:
	.size	_ZmiRK6b2Vec2S1_, .-_ZmiRK6b2Vec2S1_
	.section	.text._ZmlfRK6b2Vec2,"axG",%progbits,_ZmlfRK6b2Vec2,comdat
	.align	2
	.weak	_ZmlfRK6b2Vec2
	.hidden	_ZmlfRK6b2Vec2
	.type	_ZmlfRK6b2Vec2, %function
_ZmlfRK6b2Vec2:
.LFB83:
	.loc 1 458 0
	.cfi_startproc
	@ args = 0, pretend = 0, frame = 16
	@ frame_needed = 0, uses_anonymous_args = 0
	stmfd	sp!, {r4, lr}
.LCFI16:
	.cfi_def_cfa_offset 8
	.cfi_offset 4, -8
	.cfi_offset 14, -4
	sub	sp, sp, #16
.LCFI17:
	.cfi_def_cfa_offset 24
	str	r0, [sp, #12]
	str	r1, [sp, #8]	@ float
	str	r2, [sp, #4]
	.loc 1 459 0
	ldr	r3, [sp, #4]
	ldr	r3, [r3]	@ float
	mov	r0, r3
	ldr	r1, [sp, #8]	@ float
	bl	__aeabi_fmul(PLT)
	mov	r3, r0
	mov	r4, r3
	ldr	r3, [sp, #4]
	ldr	r3, [r3, #4]	@ float
	mov	r0, r3
	ldr	r1, [sp, #8]	@ float
	bl	__aeabi_fmul(PLT)
	mov	r3, r0
	ldr	r0, [sp, #12]
	mov	r1, r4
	mov	r2, r3
	bl	_ZN6b2Vec2C1Eff(PLT)
	.loc 1 460 0
	ldr	r0, [sp, #12]
	add	sp, sp, #16
	@ sp needed
	ldmfd	sp!, {r4, pc}
	.cfi_endproc
.LFE83:
	.size	_ZmlfRK6b2Vec2, .-_ZmlfRK6b2Vec2
	.section	.text._Z5b2MulRK5b2RotRK6b2Vec2,"axG",%progbits,_Z5b2MulRK5b2RotRK6b2Vec2,comdat
	.align	2
	.weak	_Z5b2MulRK5b2RotRK6b2Vec2
	.hidden	_Z5b2MulRK5b2RotRK6b2Vec2
	.type	_Z5b2MulRK5b2RotRK6b2Vec2, %function
_Z5b2MulRK5b2RotRK6b2Vec2:
.LFB99:
	.loc 1 567 0
	.cfi_startproc
	@ args = 0, pretend = 0, frame = 16
	@ frame_needed = 0, uses_anonymous_args = 0
	stmfd	sp!, {r4, r5, lr}
.LCFI18:
	.cfi_def_cfa_offset 12
	.cfi_offset 4, -12
	.cfi_offset 5, -8
	.cfi_offset 14, -4
	sub	sp, sp, #20
.LCFI19:
	.cfi_def_cfa_offset 32
	str	r0, [sp, #12]
	str	r1, [sp, #8]
	str	r2, [sp, #4]
	.loc 1 568 0
	ldr	r3, [sp, #8]
	ldr	r2, [r3, #4]	@ float
	ldr	r3, [sp, #4]
	ldr	r3, [r3]	@ float
	mov	r0, r2
	mov	r1, r3
	bl	__aeabi_fmul(PLT)
	mov	r3, r0
	mov	r4, r3
	ldr	r3, [sp, #8]
	ldr	r2, [r3]	@ float
	ldr	r3, [sp, #4]
	ldr	r3, [r3, #4]	@ float
	mov	r0, r2
	mov	r1, r3
	bl	__aeabi_fmul(PLT)
	mov	r3, r0
	mov	r0, r4
	mov	r1, r3
	bl	__aeabi_fsub(PLT)
	mov	r3, r0
	mov	r4, r3
	ldr	r3, [sp, #8]
	ldr	r2, [r3]	@ float
	ldr	r3, [sp, #4]
	ldr	r3, [r3]	@ float
	mov	r0, r2
	mov	r1, r3
	bl	__aeabi_fmul(PLT)
	mov	r3, r0
	mov	r5, r3
	ldr	r3, [sp, #8]
	ldr	r2, [r3, #4]	@ float
	ldr	r3, [sp, #4]
	ldr	r3, [r3, #4]	@ float
	mov	r0, r2
	mov	r1, r3
	bl	__aeabi_fmul(PLT)
	mov	r3, r0
	mov	r0, r5
	mov	r1, r3
	bl	__aeabi_fadd(PLT)
	mov	r3, r0
	ldr	r0, [sp, #12]
	mov	r1, r4
	mov	r2, r3
	bl	_ZN6b2Vec2C1Eff(PLT)
	.loc 1 569 0
	ldr	r0, [sp, #12]
	add	sp, sp, #20
	@ sp needed
	ldmfd	sp!, {r4, r5, pc}
	.cfi_endproc
.LFE99:
	.size	_Z5b2MulRK5b2RotRK6b2Vec2, .-_Z5b2MulRK5b2RotRK6b2Vec2
	.section	.text._ZNK6b2Body7GetTypeEv,"axG",%progbits,_ZNK6b2Body7GetTypeEv,comdat
	.align	2
	.weak	_ZNK6b2Body7GetTypeEv
	.hidden	_ZNK6b2Body7GetTypeEv
	.type	_ZNK6b2Body7GetTypeEv, %function
_ZNK6b2Body7GetTypeEv:
.LFB441:
	.file 2 "c:/users/ben/desktop/fyp/finalyearproject/box2d/Box2D/Dynamics/b2Body.h"
	.loc 2 470 0
	.cfi_startproc
	@ args = 0, pretend = 0, frame = 8
	@ frame_needed = 0, uses_anonymous_args = 0
	@ link register save eliminated.
	sub	sp, sp, #8
.LCFI20:
	.cfi_def_cfa_offset 8
	str	r0, [sp, #4]
	.loc 2 471 0
	ldr	r3, [sp, #4]
	ldr	r3, [r3]
	.loc 2 472 0
	mov	r0, r3
	add	sp, sp, #8
	@ sp needed
	bx	lr
	.cfi_endproc
.LFE441:
	.size	_ZNK6b2Body7GetTypeEv, .-_ZNK6b2Body7GetTypeEv
	.section	.text._ZN6b2Body8SetAwakeEb,"axG",%progbits,_ZN6b2Body8SetAwakeEb,comdat
	.align	2
	.weak	_ZN6b2Body8SetAwakeEb
	.hidden	_ZN6b2Body8SetAwakeEb
	.type	_ZN6b2Body8SetAwakeEb, %function
_ZN6b2Body8SetAwakeEb:
.LFB468:
	.loc 2 634 0
	.cfi_startproc
	@ args = 0, pretend = 0, frame = 8
	@ frame_needed = 0, uses_anonymous_args = 0
	str	lr, [sp, #-4]!
.LCFI21:
	.cfi_def_cfa_offset 4
	.cfi_offset 14, -4
	sub	sp, sp, #12
.LCFI22:
	.cfi_def_cfa_offset 16
	str	r0, [sp, #4]
	mov	r3, r1
	strb	r3, [sp, #3]
	.loc 2 635 0
	ldrb	r3, [sp, #3]	@ zero_extendqisi2
	cmp	r3, #0
	beq	.L23
	.loc 2 637 0
	ldr	r3, [sp, #4]
	ldrh	r3, [r3, #4]
	and	r3, r3, #2
	cmp	r3, #0
	bne	.L22
	.loc 2 639 0
	ldr	r3, [sp, #4]
	ldrh	r3, [r3, #4]
	orr	r3, r3, #2
	uxth	r2, r3
	ldr	r3, [sp, #4]
	strh	r2, [r3, #4]	@ movhi
	.loc 2 640 0
	ldr	r3, [sp, #4]
	mov	r2, #0
	str	r2, [r3, #144]	@ float
	b	.L22
.L23:
	.loc 2 645 0
	ldr	r3, [sp, #4]
	ldrh	r3, [r3, #4]
	bic	r3, r3, #2
	uxth	r2, r3
	ldr	r3, [sp, #4]
	strh	r2, [r3, #4]	@ movhi
	.loc 2 646 0
	ldr	r3, [sp, #4]
	mov	r2, #0
	str	r2, [r3, #144]	@ float
	.loc 2 647 0
	ldr	r3, [sp, #4]
	add	r3, r3, #64
	mov	r0, r3
	bl	_ZN6b2Vec27SetZeroEv(PLT)
	.loc 2 648 0
	ldr	r3, [sp, #4]
	mov	r2, #0
	str	r2, [r3, #72]	@ float
	.loc 2 649 0
	ldr	r3, [sp, #4]
	add	r3, r3, #76
	mov	r0, r3
	bl	_ZN6b2Vec27SetZeroEv(PLT)
	.loc 2 650 0
	ldr	r3, [sp, #4]
	mov	r2, #0
	str	r2, [r3, #84]	@ float
.L22:
	.loc 2 652 0
	add	sp, sp, #12
	@ sp needed
	ldr	pc, [sp], #4
	.cfi_endproc
.LFE468:
	.size	_ZN6b2Body8SetAwakeEb, .-_ZN6b2Body8SetAwakeEb
	.section	.text._ZN6b2Body20SynchronizeTransformEv,"axG",%progbits,_ZN6b2Body20SynchronizeTransformEv,comdat
	.align	2
	.weak	_ZN6b2Body20SynchronizeTransformEv
	.hidden	_ZN6b2Body20SynchronizeTransformEv
	.type	_ZN6b2Body20SynchronizeTransformEv, %function
_ZN6b2Body20SynchronizeTransformEv:
.LFB489:
	.loc 2 835 0
	.cfi_startproc
	@ args = 0, pretend = 0, frame = 24
	@ frame_needed = 0, uses_anonymous_args = 0
	stmfd	sp!, {r4, r5, lr}
.LCFI23:
	.cfi_def_cfa_offset 12
	.cfi_offset 4, -12
	.cfi_offset 5, -8
	.cfi_offset 14, -4
	sub	sp, sp, #28
.LCFI24:
	.cfi_def_cfa_offset 40
	str	r0, [sp, #12]
	.loc 2 836 0
	ldr	r3, [sp, #12]
	add	r2, r3, #20
	ldr	r3, [sp, #12]
	ldr	r3, [r3, #56]	@ float
	mov	r0, r2
	mov	r1, r3
	bl	_ZN5b2Rot3SetEf(PLT)
	.loc 2 837 0
	ldr	r3, [sp, #12]
	add	r5, r3, #44
	ldr	r3, [sp, #12]
	add	r2, r3, #20
	ldr	r3, [sp, #12]
	add	r3, r3, #28
	add	r1, sp, #16
	mov	r0, r1
	mov	r1, r2
	mov	r2, r3
	bl	_Z5b2MulRK5b2RotRK6b2Vec2(PLT)
	ldr	r4, [sp, #12]
	mov	r2, sp
	add	r3, sp, #16
	mov	r0, r2
	mov	r1, r5
	mov	r2, r3
	bl	_ZmiRK6b2Vec2S1_(PLT)
	add	r3, r4, #12
	mov	r2, sp
	ldmia	r2, {r0, r1}
	stmia	r3, {r0, r1}
	.loc 2 838 0
	add	sp, sp, #28
	@ sp needed
	ldmfd	sp!, {r4, r5, pc}
	.cfi_endproc
.LFE489:
	.size	_ZN6b2Body20SynchronizeTransformEv, .-_ZN6b2Body20SynchronizeTransformEv
	.section	.text._ZN8b2IslandC2EiiiP16b2StackAllocatorP17b2ContactListener,"ax",%progbits
	.align	2
	.global	_ZN8b2IslandC2EiiiP16b2StackAllocatorP17b2ContactListener
	.hidden	_ZN8b2IslandC2EiiiP16b2StackAllocatorP17b2ContactListener
	.type	_ZN8b2IslandC2EiiiP16b2StackAllocatorP17b2ContactListener, %function
_ZN8b2IslandC2EiiiP16b2StackAllocatorP17b2ContactListener:
.LFB839:
	.file 3 "c:/Users/Ben/Desktop/FYP/FinalYearProject/box2d/Box2D/Dynamics/b2Island.cpp"
	.loc 3 148 0
	.cfi_startproc
	@ args = 8, pretend = 0, frame = 16
	@ frame_needed = 0, uses_anonymous_args = 0
	str	lr, [sp, #-4]!
.LCFI25:
	.cfi_def_cfa_offset 4
	.cfi_offset 14, -4
	sub	sp, sp, #20
.LCFI26:
	.cfi_def_cfa_offset 24
	str	r0, [sp, #12]
	str	r1, [sp, #8]
	str	r2, [sp, #4]
	str	r3, [sp]
.LBB3:
	.loc 3 155 0
	ldr	r3, [sp, #12]
	ldr	r2, [sp, #8]
	str	r2, [r3, #40]
	.loc 3 156 0
	ldr	r3, [sp, #12]
	ldr	r2, [sp, #4]
	str	r2, [r3, #44]
	.loc 3 157 0
	ldr	r3, [sp, #12]
	ldr	r2, [sp]
	str	r2, [r3, #48]
	.loc 3 158 0
	ldr	r3, [sp, #12]
	mov	r2, #0
	str	r2, [r3, #28]
	.loc 3 159 0
	ldr	r3, [sp, #12]
	mov	r2, #0
	str	r2, [r3, #36]
	.loc 3 160 0
	ldr	r3, [sp, #12]
	mov	r2, #0
	str	r2, [r3, #32]
	.loc 3 162 0
	ldr	r3, [sp, #12]
	ldr	r2, [sp, #24]
	str	r2, [r3]
	.loc 3 163 0
	ldr	r3, [sp, #12]
	ldr	r2, [sp, #28]
	str	r2, [r3, #4]
	.loc 3 165 0
	ldr	r3, [sp, #12]
	ldr	r2, [r3]
	ldr	r3, [sp, #8]
	mov	r3, r3, asl #2
	mov	r0, r2
	mov	r1, r3
	bl	_ZN16b2StackAllocator8AllocateEi(PLT)
	mov	r2, r0
	ldr	r3, [sp, #12]
	str	r2, [r3, #8]
	.loc 3 166 0
	ldr	r3, [sp, #12]
	ldr	r2, [r3]
	ldr	r3, [sp, #4]
	mov	r3, r3, asl #2
	mov	r0, r2
	mov	r1, r3
	bl	_ZN16b2StackAllocator8AllocateEi(PLT)
	mov	r2, r0
	ldr	r3, [sp, #12]
	str	r2, [r3, #12]
	.loc 3 167 0
	ldr	r3, [sp, #12]
	ldr	r2, [r3]
	ldr	r3, [sp]
	mov	r3, r3, asl #2
	mov	r0, r2
	mov	r1, r3
	bl	_ZN16b2StackAllocator8AllocateEi(PLT)
	mov	r2, r0
	ldr	r3, [sp, #12]
	str	r2, [r3, #16]
	.loc 3 169 0
	ldr	r3, [sp, #12]
	ldr	r1, [r3]
	ldr	r3, [sp, #12]
	ldr	r3, [r3, #40]
	mov	r2, r3
	mov	r3, r2
	mov	r3, r3, asl #1
	add	r3, r3, r2
	mov	r3, r3, asl #2
	mov	r0, r1
	mov	r1, r3
	bl	_ZN16b2StackAllocator8AllocateEi(PLT)
	mov	r2, r0
	ldr	r3, [sp, #12]
	str	r2, [r3, #24]
	.loc 3 170 0
	ldr	r3, [sp, #12]
	ldr	r1, [r3]
	ldr	r3, [sp, #12]
	ldr	r3, [r3, #40]
	mov	r2, r3
	mov	r3, r2
	mov	r3, r3, asl #1
	add	r3, r3, r2
	mov	r3, r3, asl #2
	mov	r0, r1
	mov	r1, r3
	bl	_ZN16b2StackAllocator8AllocateEi(PLT)
	mov	r2, r0
	ldr	r3, [sp, #12]
	str	r2, [r3, #20]
.LBE3:
	.loc 3 171 0
	ldr	r3, [sp, #12]
	mov	r0, r3
	add	sp, sp, #20
	@ sp needed
	ldr	pc, [sp], #4
	.cfi_endproc
.LFE839:
	.size	_ZN8b2IslandC2EiiiP16b2StackAllocatorP17b2ContactListener, .-_ZN8b2IslandC2EiiiP16b2StackAllocatorP17b2ContactListener
	.global	_ZN8b2IslandC1EiiiP16b2StackAllocatorP17b2ContactListener
	.hidden	_ZN8b2IslandC1EiiiP16b2StackAllocatorP17b2ContactListener
	.set	_ZN8b2IslandC1EiiiP16b2StackAllocatorP17b2ContactListener,_ZN8b2IslandC2EiiiP16b2StackAllocatorP17b2ContactListener
	.section	.text._ZN8b2IslandD2Ev,"ax",%progbits
	.align	2
	.global	_ZN8b2IslandD2Ev
	.hidden	_ZN8b2IslandD2Ev
	.type	_ZN8b2IslandD2Ev, %function
_ZN8b2IslandD2Ev:
.LFB842:
	.loc 3 173 0
	.cfi_startproc
	@ args = 0, pretend = 0, frame = 8
	@ frame_needed = 0, uses_anonymous_args = 0
	str	lr, [sp, #-4]!
.LCFI27:
	.cfi_def_cfa_offset 4
	.cfi_offset 14, -4
	sub	sp, sp, #12
.LCFI28:
	.cfi_def_cfa_offset 16
	str	r0, [sp, #4]
.LBB4:
	.loc 3 176 0
	ldr	r3, [sp, #4]
	ldr	r2, [r3]
	ldr	r3, [sp, #4]
	ldr	r3, [r3, #20]
	mov	r0, r2
	mov	r1, r3
	bl	_ZN16b2StackAllocator4FreeEPv(PLT)
	.loc 3 177 0
	ldr	r3, [sp, #4]
	ldr	r2, [r3]
	ldr	r3, [sp, #4]
	ldr	r3, [r3, #24]
	mov	r0, r2
	mov	r1, r3
	bl	_ZN16b2StackAllocator4FreeEPv(PLT)
	.loc 3 178 0
	ldr	r3, [sp, #4]
	ldr	r2, [r3]
	ldr	r3, [sp, #4]
	ldr	r3, [r3, #16]
	mov	r0, r2
	mov	r1, r3
	bl	_ZN16b2StackAllocator4FreeEPv(PLT)
	.loc 3 179 0
	ldr	r3, [sp, #4]
	ldr	r2, [r3]
	ldr	r3, [sp, #4]
	ldr	r3, [r3, #12]
	mov	r0, r2
	mov	r1, r3
	bl	_ZN16b2StackAllocator4FreeEPv(PLT)
	.loc 3 180 0
	ldr	r3, [sp, #4]
	ldr	r2, [r3]
	ldr	r3, [sp, #4]
	ldr	r3, [r3, #8]
	mov	r0, r2
	mov	r1, r3
	bl	_ZN16b2StackAllocator4FreeEPv(PLT)
.LBE4:
	.loc 3 181 0
	ldr	r3, [sp, #4]
	mov	r0, r3
	add	sp, sp, #12
	@ sp needed
	ldr	pc, [sp], #4
	.cfi_endproc
.LFE842:
	.size	_ZN8b2IslandD2Ev, .-_ZN8b2IslandD2Ev
	.global	_ZN8b2IslandD1Ev
	.hidden	_ZN8b2IslandD1Ev
	.set	_ZN8b2IslandD1Ev,_ZN8b2IslandD2Ev
	.global	__aeabi_fdiv
	.global	__aeabi_fcmpgt
	.global	__aeabi_fcmpge
	.section	.text._ZN8b2Island5SolveEP9b2ProfileRK10b2TimeStepRK6b2Vec2b,"ax",%progbits
	.align	2
	.global	_ZN8b2Island5SolveEP9b2ProfileRK10b2TimeStepRK6b2Vec2b
	.hidden	_ZN8b2Island5SolveEP9b2ProfileRK10b2TimeStepRK6b2Vec2b
	.type	_ZN8b2Island5SolveEP9b2ProfileRK10b2TimeStepRK6b2Vec2b, %function
_ZN8b2Island5SolveEP9b2ProfileRK10b2TimeStepRK6b2Vec2b:
.LFB844:
	.loc 3 184 0
	.cfi_startproc
	@ args = 4, pretend = 0, frame = 344
	@ frame_needed = 0, uses_anonymous_args = 0
	stmfd	sp!, {r4, lr}
.LCFI29:
	.cfi_def_cfa_offset 8
	.cfi_offset 4, -8
	.cfi_offset 14, -4
	sub	sp, sp, #344
.LCFI30:
	.cfi_def_cfa_offset 352
	str	r0, [sp, #12]
	str	r1, [sp, #8]
	str	r2, [sp, #4]
	str	r3, [sp]
.LBB5:
	.loc 3 185 0
	add	r3, sp, #188
	mov	r0, r3
	bl	_ZN7b2TimerC1Ev(PLT)
	.loc 3 187 0
	ldr	r3, [sp, #4]
	ldr	r3, [r3]	@ float
	str	r3, [sp, #280]	@ float
.LBB6:
	.loc 3 190 0
	mov	r3, #0
	str	r3, [sp, #340]
	b	.L33
.L35:
.LBB7:
	.loc 3 192 0
	ldr	r3, [sp, #12]
	ldr	r2, [r3, #8]
	ldr	r3, [sp, #340]
	mov	r3, r3, asl #2
	add	r3, r2, r3
	ldr	r3, [r3]
	str	r3, [sp, #276]
	.loc 3 194 0
	ldr	r2, [sp, #276]
	add	r3, sp, #180
	add	r2, r2, #44
	ldmia	r2, {r0, r1}
	stmia	r3, {r0, r1}
	.loc 3 195 0
	ldr	r3, [sp, #276]
	ldr	r3, [r3, #56]	@ float
	str	r3, [sp, #272]	@ float
	.loc 3 196 0
	ldr	r2, [sp, #276]
	add	r3, sp, #172
	add	r2, r2, #64
	ldmia	r2, {r0, r1}
	stmia	r3, {r0, r1}
	.loc 3 197 0
	ldr	r3, [sp, #276]
	ldr	r3, [r3, #72]	@ float
	str	r3, [sp, #336]	@ float
	.loc 3 200 0
	ldr	r3, [sp, #276]
	ldr	r2, [sp, #276]
	add	r3, r3, #36
	add	r2, r2, #44
	ldmia	r2, {r0, r1}
	stmia	r3, {r0, r1}
	.loc 3 201 0
	ldr	r3, [sp, #276]
	ldr	r2, [r3, #56]	@ float
	ldr	r3, [sp, #276]
	str	r2, [r3, #52]	@ float
	.loc 3 203 0
	ldr	r3, [sp, #276]
	ldr	r3, [r3]
	cmp	r3, #2
	bne	.L34
	.loc 3 206 0
	ldr	r3, [sp, #276]
	ldr	r3, [r3, #140]	@ float
	add	r2, sp, #208
	mov	r0, r2
	mov	r1, r3
	ldr	r2, [sp]
	bl	_ZmlfRK6b2Vec2(PLT)
	ldr	r3, [sp, #276]
	ldr	r2, [r3, #120]	@ float
	ldr	r3, [sp, #276]
	add	r3, r3, #76
	add	r1, sp, #216
	mov	r0, r1
	mov	r1, r2
	mov	r2, r3
	bl	_ZmlfRK6b2Vec2(PLT)
	add	r1, sp, #200
	add	r2, sp, #208
	add	r3, sp, #216
	mov	r0, r1
	mov	r1, r2
	mov	r2, r3
	bl	_ZplRK6b2Vec2S1_(PLT)
	add	r2, sp, #192
	add	r3, sp, #200
	mov	r0, r2
	ldr	r1, [sp, #280]	@ float
	mov	r2, r3
	bl	_ZmlfRK6b2Vec2(PLT)
	add	r2, sp, #172
	add	r3, sp, #192
	mov	r0, r2
	mov	r1, r3
	bl	_ZN6b2Vec2pLERKS_(PLT)
	.loc 3 207 0
	ldr	r3, [sp, #276]
	ldr	r3, [r3, #128]	@ float
	mov	r0, r3
	ldr	r1, [sp, #280]	@ float
	bl	__aeabi_fmul(PLT)
	mov	r3, r0
	mov	r2, r3
	ldr	r3, [sp, #276]
	ldr	r3, [r3, #84]	@ float
	mov	r0, r2
	mov	r1, r3
	bl	__aeabi_fmul(PLT)
	mov	r3, r0
	ldr	r0, [sp, #336]	@ float
	mov	r1, r3
	bl	__aeabi_fadd(PLT)
	mov	r3, r0
	str	r3, [sp, #336]	@ float
	.loc 3 216 0
	ldr	r3, [sp, #276]
	ldr	r3, [r3, #132]	@ float
	mov	r0, r3
	ldr	r1, [sp, #280]	@ float
	bl	__aeabi_fmul(PLT)
	mov	r3, r0
	mov	r0, r3
	mov	r1, #1065353216
	bl	__aeabi_fadd(PLT)
	mov	r3, r0
	mov	r0, #1065353216
	mov	r1, r3
	bl	__aeabi_fdiv(PLT)
	mov	r3, r0
	add	r2, sp, #172
	mov	r0, r2
	mov	r1, r3
	bl	_ZN6b2Vec2mLEf(PLT)
	.loc 3 217 0
	ldr	r3, [sp, #276]
	ldr	r3, [r3, #136]	@ float
	mov	r0, r3
	ldr	r1, [sp, #280]	@ float
	bl	__aeabi_fmul(PLT)
	mov	r3, r0
	mov	r0, r3
	mov	r1, #1065353216
	bl	__aeabi_fadd(PLT)
	mov	r3, r0
	mov	r0, #1065353216
	mov	r1, r3
	bl	__aeabi_fdiv(PLT)
	mov	r3, r0
	ldr	r0, [sp, #336]	@ float
	mov	r1, r3
	bl	__aeabi_fmul(PLT)
	mov	r3, r0
	str	r3, [sp, #336]	@ float
.L34:
	.loc 3 220 0
	ldr	r3, [sp, #12]
	ldr	r1, [r3, #20]
	ldr	r2, [sp, #340]
	mov	r3, r2
	mov	r3, r3, asl #1
	add	r3, r3, r2
	mov	r3, r3, asl #2
	add	r3, r1, r3
	add	r2, sp, #180
	ldmia	r2, {r0, r1}
	stmia	r3, {r0, r1}
	.loc 3 221 0
	ldr	r3, [sp, #12]
	ldr	r1, [r3, #20]
	ldr	r2, [sp, #340]
	mov	r3, r2
	mov	r3, r3, asl #1
	add	r3, r3, r2
	mov	r3, r3, asl #2
	add	r3, r1, r3
	ldr	r2, [sp, #272]	@ float
	str	r2, [r3, #8]	@ float
	.loc 3 222 0
	ldr	r3, [sp, #12]
	ldr	r1, [r3, #24]
	ldr	r2, [sp, #340]
	mov	r3, r2
	mov	r3, r3, asl #1
	add	r3, r3, r2
	mov	r3, r3, asl #2
	add	r3, r1, r3
	add	r2, sp, #172
	ldmia	r2, {r0, r1}
	stmia	r3, {r0, r1}
	.loc 3 223 0
	ldr	r3, [sp, #12]
	ldr	r1, [r3, #24]
	ldr	r2, [sp, #340]
	mov	r3, r2
	mov	r3, r3, asl #1
	add	r3, r3, r2
	mov	r3, r3, asl #2
	add	r3, r1, r3
	ldr	r2, [sp, #336]	@ float
	str	r2, [r3, #8]	@ float
.LBE7:
	.loc 3 190 0
	ldr	r3, [sp, #340]
	add	r3, r3, #1
	str	r3, [sp, #340]
.L33:
	.loc 3 190 0 is_stmt 0 discriminator 1
	ldr	r3, [sp, #12]
	ldr	r2, [r3, #28]
	ldr	r3, [sp, #340]
	cmp	r2, r3
	bgt	.L35
.LBE6:
	.loc 3 226 0 is_stmt 1
	add	r3, sp, #188
	mov	r0, r3
	bl	_ZN7b2Timer5ResetEv(PLT)
	.loc 3 230 0
	ldr	r3, [sp, #4]
	add	ip, sp, #20
	mov	lr, r3
	ldmia	lr!, {r0, r1, r2, r3}
	stmia	ip!, {r0, r1, r2, r3}
	ldmia	lr, {r0, r1}
	stmia	ip, {r0, r1}
	.loc 3 231 0
	ldr	r3, [sp, #12]
	ldr	r3, [r3, #20]
	str	r3, [sp, #44]
	.loc 3 232 0
	ldr	r3, [sp, #12]
	ldr	r3, [r3, #24]
	str	r3, [sp, #48]
	.loc 3 236 0
	ldr	r3, [sp, #4]
	add	ip, sp, #52
	mov	lr, r3
	ldmia	lr!, {r0, r1, r2, r3}
	stmia	ip!, {r0, r1, r2, r3}
	ldmia	lr, {r0, r1}
	stmia	ip, {r0, r1}
	.loc 3 237 0
	ldr	r3, [sp, #12]
	ldr	r3, [r3, #12]
	str	r3, [sp, #76]
	.loc 3 238 0
	ldr	r3, [sp, #12]
	ldr	r3, [r3, #36]
	str	r3, [sp, #80]
	.loc 3 239 0
	ldr	r3, [sp, #12]
	ldr	r3, [r3, #20]
	str	r3, [sp, #84]
	.loc 3 240 0
	ldr	r3, [sp, #12]
	ldr	r3, [r3, #24]
	str	r3, [sp, #88]
	.loc 3 241 0
	ldr	r3, [sp, #12]
	ldr	r3, [r3]
	str	r3, [sp, #92]
	.loc 3 243 0
	add	r2, sp, #96
	add	r3, sp, #52
	mov	r0, r2
	mov	r1, r3
	bl	_ZN15b2ContactSolverC1EP18b2ContactSolverDef(PLT)
	.loc 3 244 0
	add	r3, sp, #96
	mov	r0, r3
	bl	_ZN15b2ContactSolver29InitializeVelocityConstraintsEv(PLT)
	.loc 3 246 0
	ldr	r3, [sp, #4]
	ldrb	r3, [r3, #20]	@ zero_extendqisi2
	cmp	r3, #0
	beq	.L36
	.loc 3 248 0
	add	r3, sp, #96
	mov	r0, r3
	bl	_ZN15b2ContactSolver9WarmStartEv(PLT)
.L36:
.LBB8:
	.loc 3 251 0
	mov	r3, #0
	str	r3, [sp, #332]
	b	.L37
.L38:
	.loc 3 253 0 discriminator 2
	ldr	r3, [sp, #12]
	ldr	r2, [r3, #16]
	ldr	r3, [sp, #332]
	mov	r3, r3, asl #2
	add	r3, r2, r3
	ldr	r3, [r3]
	ldr	r3, [r3]
	add	r3, r3, #32
	ldr	r3, [r3]
	ldr	r2, [sp, #12]
	ldr	r1, [r2, #16]
	ldr	r2, [sp, #332]
	mov	r2, r2, asl #2
	add	r2, r1, r2
	ldr	r1, [r2]
	add	r2, sp, #20
	mov	r0, r1
	mov	r1, r2
	blx	r3
	.loc 3 251 0 discriminator 2
	ldr	r3, [sp, #332]
	add	r3, r3, #1
	str	r3, [sp, #332]
.L37:
	.loc 3 251 0 is_stmt 0 discriminator 1
	ldr	r3, [sp, #12]
	ldr	r2, [r3, #32]
	ldr	r3, [sp, #332]
	cmp	r2, r3
	bgt	.L38
.LBE8:
	.loc 3 256 0 is_stmt 1
	add	r3, sp, #188
	mov	r0, r3
	bl	_ZNK7b2Timer15GetMillisecondsEv(PLT)
	mov	r2, r0
	ldr	r3, [sp, #8]
	str	r2, [r3, #12]	@ float
	.loc 3 259 0
	add	r3, sp, #188
	mov	r0, r3
	bl	_ZN7b2Timer5ResetEv(PLT)
.LBB9:
	.loc 3 260 0
	mov	r3, #0
	str	r3, [sp, #328]
	b	.L39
.L42:
.LBB10:
.LBB11:
	.loc 3 262 0
	mov	r3, #0
	str	r3, [sp, #324]
	b	.L40
.L41:
	.loc 3 264 0 discriminator 2
	ldr	r3, [sp, #12]
	ldr	r2, [r3, #16]
	ldr	r3, [sp, #324]
	mov	r3, r3, asl #2
	add	r3, r2, r3
	ldr	r3, [r3]
	ldr	r3, [r3]
	add	r3, r3, #36
	ldr	r3, [r3]
	ldr	r2, [sp, #12]
	ldr	r1, [r2, #16]
	ldr	r2, [sp, #324]
	mov	r2, r2, asl #2
	add	r2, r1, r2
	ldr	r1, [r2]
	add	r2, sp, #20
	mov	r0, r1
	mov	r1, r2
	blx	r3
	.loc 3 262 0 discriminator 2
	ldr	r3, [sp, #324]
	add	r3, r3, #1
	str	r3, [sp, #324]
.L40:
	.loc 3 262 0 is_stmt 0 discriminator 1
	ldr	r3, [sp, #12]
	ldr	r2, [r3, #32]
	ldr	r3, [sp, #324]
	cmp	r2, r3
	bgt	.L41
.LBE11:
	.loc 3 267 0 is_stmt 1
	add	r3, sp, #96
	mov	r0, r3
	bl	_ZN15b2ContactSolver24SolveVelocityConstraintsEv(PLT)
.LBE10:
	.loc 3 260 0
	ldr	r3, [sp, #328]
	add	r3, r3, #1
	str	r3, [sp, #328]
.L39:
	.loc 3 260 0 is_stmt 0 discriminator 1
	ldr	r3, [sp, #4]
	ldr	r2, [r3, #12]
	ldr	r3, [sp, #328]
	cmp	r2, r3
	bgt	.L42
.LBE9:
	.loc 3 271 0 is_stmt 1
	add	r3, sp, #96
	mov	r0, r3
	bl	_ZN15b2ContactSolver13StoreImpulsesEv(PLT)
	.loc 3 272 0
	add	r3, sp, #188
	mov	r0, r3
	bl	_ZNK7b2Timer15GetMillisecondsEv(PLT)
	mov	r2, r0
	ldr	r3, [sp, #8]
	str	r2, [r3, #16]	@ float
.LBB12:
	.loc 3 275 0
	mov	r3, #0
	str	r3, [sp, #320]
	b	.L43
.L48:
.LBB13:
	.loc 3 277 0
	ldr	r3, [sp, #12]
	ldr	r1, [r3, #20]
	ldr	r2, [sp, #320]
	mov	r3, r2
	mov	r3, r3, asl #1
	add	r3, r3, r2
	mov	r3, r3, asl #2
	add	r2, r1, r3
	add	r3, sp, #164
	ldmia	r2, {r0, r1}
	stmia	r3, {r0, r1}
	.loc 3 278 0
	ldr	r3, [sp, #12]
	ldr	r1, [r3, #20]
	ldr	r2, [sp, #320]
	mov	r3, r2
	mov	r3, r3, asl #1
	add	r3, r3, r2
	mov	r3, r3, asl #2
	add	r3, r1, r3
	ldr	r3, [r3, #8]	@ float
	str	r3, [sp, #268]	@ float
	.loc 3 279 0
	ldr	r3, [sp, #12]
	ldr	r1, [r3, #24]
	ldr	r2, [sp, #320]
	mov	r3, r2
	mov	r3, r3, asl #1
	add	r3, r3, r2
	mov	r3, r3, asl #2
	add	r2, r1, r3
	add	r3, sp, #156
	ldmia	r2, {r0, r1}
	stmia	r3, {r0, r1}
	.loc 3 280 0
	ldr	r3, [sp, #12]
	ldr	r1, [r3, #24]
	ldr	r2, [sp, #320]
	mov	r3, r2
	mov	r3, r3, asl #1
	add	r3, r3, r2
	mov	r3, r3, asl #2
	add	r3, r1, r3
	ldr	r3, [r3, #8]	@ float
	str	r3, [sp, #316]	@ float
	.loc 3 283 0
	add	r2, sp, #148
	add	r3, sp, #156
	mov	r0, r2
	ldr	r1, [sp, #280]	@ float
	mov	r2, r3
	bl	_ZmlfRK6b2Vec2(PLT)
.LBB14:
	.loc 3 284 0
	add	r2, sp, #148
	add	r3, sp, #148
	mov	r0, r2
	mov	r1, r3
	bl	_Z5b2DotRK6b2Vec2S1_(PLT)
	mov	r3, r0
	mov	r2, #1
	mov	r4, r2
	mov	r0, r3
	ldr	r1, .L76
	bl	__aeabi_fcmpgt(PLT)
	mov	r3, r0
	cmp	r3, #0
	bne	.L44
	mov	r3, #0
	mov	r4, r3
.L44:
	uxtb	r3, r4
	cmp	r3, #0
	beq	.L45
.LBB15:
	.loc 3 286 0
	add	r3, sp, #148
	mov	r0, r3
	bl	_ZNK6b2Vec26LengthEv(PLT)
	mov	r3, r0
	mov	r0, #1073741824
	mov	r1, r3
	bl	__aeabi_fdiv(PLT)
	mov	r3, r0
	str	r3, [sp, #264]	@ float
	.loc 3 287 0
	add	r3, sp, #156
	mov	r0, r3
	ldr	r1, [sp, #264]	@ float
	bl	_ZN6b2Vec2mLEf(PLT)
.L45:
.LBE15:
.LBE14:
	.loc 3 290 0
	ldr	r0, [sp, #280]	@ float
	ldr	r1, [sp, #316]	@ float
	bl	__aeabi_fmul(PLT)
	mov	r3, r0
	str	r3, [sp, #260]	@ float
.LBB16:
	.loc 3 291 0
	ldr	r0, [sp, #260]	@ float
	ldr	r1, [sp, #260]	@ float
	bl	__aeabi_fmul(PLT)
	mov	r3, r0
	mov	r0, r3
	ldr	r1, .L76+4
	bl	__aeabi_fcmpgt(PLT)
	mov	r3, r0
	cmp	r3, #0
	beq	.L46
.LBB17:
	.loc 3 293 0
	ldr	r0, [sp, #260]	@ float
	bl	_Z5b2AbsIfET_S0_(PLT)
	mov	r3, r0
	ldr	r0, .L76+8
	mov	r1, r3
	bl	__aeabi_fdiv(PLT)
	mov	r3, r0
	str	r3, [sp, #256]	@ float
	.loc 3 294 0
	ldr	r0, [sp, #316]	@ float
	ldr	r1, [sp, #256]	@ float
	bl	__aeabi_fmul(PLT)
	mov	r3, r0
	str	r3, [sp, #316]	@ float
.L46:
.LBE17:
.LBE16:
	.loc 3 298 0
	add	r2, sp, #224
	add	r3, sp, #156
	mov	r0, r2
	ldr	r1, [sp, #280]	@ float
	mov	r2, r3
	bl	_ZmlfRK6b2Vec2(PLT)
	add	r2, sp, #164
	add	r3, sp, #224
	mov	r0, r2
	mov	r1, r3
	bl	_ZN6b2Vec2pLERKS_(PLT)
	.loc 3 299 0
	ldr	r0, [sp, #280]	@ float
	ldr	r1, [sp, #316]	@ float
	bl	__aeabi_fmul(PLT)
	mov	r3, r0
	ldr	r0, [sp, #268]	@ float
	mov	r1, r3
	bl	__aeabi_fadd(PLT)
	mov	r3, r0
	str	r3, [sp, #268]	@ float
	.loc 3 301 0
	ldr	r3, [sp, #12]
	ldr	r1, [r3, #20]
	ldr	r2, [sp, #320]
	mov	r3, r2
	mov	r3, r3, asl #1
	add	r3, r3, r2
	mov	r3, r3, asl #2
	add	r3, r1, r3
	add	r2, sp, #164
	ldmia	r2, {r0, r1}
	stmia	r3, {r0, r1}
	.loc 3 302 0
	ldr	r3, [sp, #12]
	ldr	r1, [r3, #20]
	ldr	r2, [sp, #320]
	mov	r3, r2
	mov	r3, r3, asl #1
	add	r3, r3, r2
	mov	r3, r3, asl #2
	add	r3, r1, r3
	ldr	r2, [sp, #268]	@ float
	str	r2, [r3, #8]	@ float
	.loc 3 303 0
	ldr	r3, [sp, #12]
	ldr	r1, [r3, #24]
	ldr	r2, [sp, #320]
	mov	r3, r2
	mov	r3, r3, asl #1
	add	r3, r3, r2
	mov	r3, r3, asl #2
	add	r3, r1, r3
	add	r2, sp, #156
	ldmia	r2, {r0, r1}
	stmia	r3, {r0, r1}
	.loc 3 304 0
	ldr	r3, [sp, #12]
	ldr	r1, [r3, #24]
	ldr	r2, [sp, #320]
	mov	r3, r2
	mov	r3, r3, asl #1
	add	r3, r3, r2
	mov	r3, r3, asl #2
	add	r3, r1, r3
	ldr	r2, [sp, #316]	@ float
	str	r2, [r3, #8]	@ float
.LBE13:
	.loc 3 275 0
	ldr	r3, [sp, #320]
	add	r3, r3, #1
	str	r3, [sp, #320]
.L43:
	.loc 3 275 0 is_stmt 0 discriminator 1
	ldr	r3, [sp, #12]
	ldr	r2, [r3, #28]
	ldr	r3, [sp, #320]
	cmp	r2, r3
	bgt	.L48
.LBE12:
	.loc 3 308 0 is_stmt 1
	add	r3, sp, #188
	mov	r0, r3
	bl	_ZN7b2Timer5ResetEv(PLT)
	.loc 3 309 0
	mov	r3, #0
	strb	r3, [sp, #315]
.LBB18:
	.loc 3 310 0
	mov	r3, #0
	str	r3, [sp, #308]
	b	.L49
.L56:
.LBB19:
	.loc 3 312 0
	add	r3, sp, #96
	mov	r0, r3
	bl	_ZN15b2ContactSolver24SolvePositionConstraintsEv(PLT)
	mov	r3, r0
	strb	r3, [sp, #255]
	.loc 3 314 0
	mov	r3, #1
	strb	r3, [sp, #307]
.LBB20:
	.loc 3 315 0
	mov	r3, #0
	str	r3, [sp, #300]
	b	.L50
.L53:
.LBB21:
	.loc 3 317 0
	ldr	r3, [sp, #12]
	ldr	r2, [r3, #16]
	ldr	r3, [sp, #300]
	mov	r3, r3, asl #2
	add	r3, r2, r3
	ldr	r3, [r3]
	ldr	r3, [r3]
	add	r3, r3, #40
	ldr	r3, [r3]
	ldr	r2, [sp, #12]
	ldr	r1, [r2, #16]
	ldr	r2, [sp, #300]
	mov	r2, r2, asl #2
	add	r2, r1, r2
	ldr	r1, [r2]
	add	r2, sp, #20
	mov	r0, r1
	mov	r1, r2
	blx	r3
	mov	r3, r0
	strb	r3, [sp, #254]
	.loc 3 318 0
	ldrb	r3, [sp, #307]	@ zero_extendqisi2
	cmp	r3, #0
	beq	.L51
	.loc 3 318 0 is_stmt 0 discriminator 1
	ldrb	r3, [sp, #254]	@ zero_extendqisi2
	cmp	r3, #0
	beq	.L51
	.loc 3 318 0 discriminator 3
	mov	r3, #1
	b	.L52
.L51:
	.loc 3 318 0 discriminator 2
	mov	r3, #0
.L52:
	.loc 3 318 0 discriminator 4
	strb	r3, [sp, #307]
.LBE21:
	.loc 3 315 0 is_stmt 1 discriminator 4
	ldr	r3, [sp, #300]
	add	r3, r3, #1
	str	r3, [sp, #300]
.L50:
	.loc 3 315 0 is_stmt 0 discriminator 1
	ldr	r3, [sp, #12]
	ldr	r2, [r3, #32]
	ldr	r3, [sp, #300]
	cmp	r2, r3
	bgt	.L53
.LBE20:
	.loc 3 321 0 is_stmt 1
	ldrb	r3, [sp, #255]	@ zero_extendqisi2
	cmp	r3, #0
	beq	.L54
	.loc 3 321 0 is_stmt 0 discriminator 1
	ldrb	r3, [sp, #307]	@ zero_extendqisi2
	cmp	r3, #0
	beq	.L54
	.loc 3 324 0 is_stmt 1
	mov	r3, #1
	strb	r3, [sp, #315]
	.loc 3 325 0
	b	.L55
.L54:
.LBE19:
	.loc 3 310 0
	ldr	r3, [sp, #308]
	add	r3, r3, #1
	str	r3, [sp, #308]
.L49:
	.loc 3 310 0 is_stmt 0 discriminator 1
	ldr	r3, [sp, #4]
	ldr	r2, [r3, #16]
	ldr	r3, [sp, #308]
	cmp	r2, r3
	bgt	.L56
.L55:
.LBE18:
.LBB22:
	.loc 3 330 0 is_stmt 1
	mov	r3, #0
	str	r3, [sp, #296]
	b	.L57
.L58:
.LBB23:
	.loc 3 332 0 discriminator 2
	ldr	r3, [sp, #12]
	ldr	r2, [r3, #8]
	ldr	r3, [sp, #296]
	mov	r3, r3, asl #2
	add	r3, r2, r3
	ldr	r3, [r3]
	str	r3, [sp, #248]
	.loc 3 333 0 discriminator 2
	ldr	r3, [sp, #12]
	ldr	r1, [r3, #20]
	ldr	r2, [sp, #296]
	mov	r3, r2
	mov	r3, r3, asl #1
	add	r3, r3, r2
	mov	r3, r3, asl #2
	add	r2, r1, r3
	ldr	r3, [sp, #248]
	add	r3, r3, #44
	ldmia	r2, {r0, r1}
	stmia	r3, {r0, r1}
	.loc 3 334 0 discriminator 2
	ldr	r3, [sp, #12]
	ldr	r1, [r3, #20]
	ldr	r2, [sp, #296]
	mov	r3, r2
	mov	r3, r3, asl #1
	add	r3, r3, r2
	mov	r3, r3, asl #2
	add	r3, r1, r3
	ldr	r2, [r3, #8]	@ float
	ldr	r3, [sp, #248]
	str	r2, [r3, #56]	@ float
	.loc 3 335 0 discriminator 2
	ldr	r3, [sp, #12]
	ldr	r1, [r3, #24]
	ldr	r2, [sp, #296]
	mov	r3, r2
	mov	r3, r3, asl #1
	add	r3, r3, r2
	mov	r3, r3, asl #2
	add	r2, r1, r3
	ldr	r3, [sp, #248]
	add	r3, r3, #64
	ldmia	r2, {r0, r1}
	stmia	r3, {r0, r1}
	.loc 3 336 0 discriminator 2
	ldr	r3, [sp, #12]
	ldr	r1, [r3, #24]
	ldr	r2, [sp, #296]
	mov	r3, r2
	mov	r3, r3, asl #1
	add	r3, r3, r2
	mov	r3, r3, asl #2
	add	r3, r1, r3
	ldr	r2, [r3, #8]	@ float
	ldr	r3, [sp, #248]
	str	r2, [r3, #72]	@ float
	.loc 3 337 0 discriminator 2
	ldr	r0, [sp, #248]
	bl	_ZN6b2Body20SynchronizeTransformEv(PLT)
.LBE23:
	.loc 3 330 0 discriminator 2
	ldr	r3, [sp, #296]
	add	r3, r3, #1
	str	r3, [sp, #296]
.L57:
	.loc 3 330 0 is_stmt 0 discriminator 1
	ldr	r3, [sp, #12]
	ldr	r2, [r3, #28]
	ldr	r3, [sp, #296]
	cmp	r2, r3
	bgt	.L58
.LBE22:
	.loc 3 340 0 is_stmt 1
	add	r3, sp, #188
	mov	r0, r3
	bl	_ZNK7b2Timer15GetMillisecondsEv(PLT)
	mov	r2, r0
	ldr	r3, [sp, #8]
	str	r2, [r3, #20]	@ float
	.loc 3 342 0
	ldr	r3, [sp, #136]
	ldr	r0, [sp, #12]
	mov	r1, r3
	bl	_ZN8b2Island6ReportEPK27b2ContactVelocityConstraint(PLT)
.LBB24:
	.loc 3 344 0
	ldrb	r3, [sp, #352]	@ zero_extendqisi2
	cmp	r3, #0
	beq	.L59
.LBB25:
	.loc 3 346 0
	ldr	r3, .L76+12
	str	r3, [sp, #292]	@ float
	.loc 3 348 0
	ldr	r3, .L76+16
	str	r3, [sp, #244]	@ float
	.loc 3 349 0
	ldr	r3, .L76+20
	str	r3, [sp, #240]	@ float
.LBB26:
	.loc 3 351 0
	mov	r3, #0
	str	r3, [sp, #288]
	b	.L60
.L68:
.LBB27:
	.loc 3 353 0
	ldr	r3, [sp, #12]
	ldr	r2, [r3, #8]
	ldr	r3, [sp, #288]
	mov	r3, r3, asl #2
	add	r3, r2, r3
	ldr	r3, [r3]
	str	r3, [sp, #236]
	.loc 3 354 0
	ldr	r0, [sp, #236]
	bl	_ZNK6b2Body7GetTypeEv(PLT)
	mov	r3, r0
	cmp	r3, #0
	movne	r3, #0
	moveq	r3, #1
	uxtb	r3, r3
	cmp	r3, #0
	beq	.L61
	.loc 3 356 0
	b	.L62
.L61:
	.loc 3 359 0
	ldr	r3, [sp, #236]
	ldrh	r3, [r3, #4]
	and	r3, r3, #4
	.loc 3 360 0
	cmp	r3, #0
	beq	.L63
	.loc 3 360 0 is_stmt 0 discriminator 2
	ldr	r3, [sp, #236]
	ldr	r2, [r3, #72]	@ float
	ldr	r3, [sp, #236]
	ldr	r3, [r3, #72]	@ float
	mov	r0, r2
	mov	r1, r3
	bl	__aeabi_fmul(PLT)
	mov	r3, r0
	.loc 3 359 0 is_stmt 1 discriminator 2
	mov	r0, r3
	ldr	r1, .L76+20
	bl	__aeabi_fcmpgt(PLT)
	mov	r3, r0
	cmp	r3, #0
	bne	.L63
	.loc 3 361 0
	ldr	r3, [sp, #236]
	add	r2, r3, #64
	ldr	r3, [sp, #236]
	add	r3, r3, #64
	mov	r0, r2
	mov	r1, r3
	bl	_Z5b2DotRK6b2Vec2S1_(PLT)
	mov	r3, r0
	.loc 3 360 0
	mov	r0, r3
	ldr	r1, .L76+16
	bl	__aeabi_fcmpgt(PLT)
	mov	r3, r0
	cmp	r3, #0
	beq	.L75
.L63:
	.loc 3 360 0 is_stmt 0 discriminator 1
	mov	r3, #1
	b	.L66
.L75:
	.loc 3 360 0 discriminator 3
	mov	r3, #0
.L66:
	.loc 3 359 0 is_stmt 1
	cmp	r3, #0
	beq	.L67
	.loc 3 363 0
	ldr	r3, [sp, #236]
	mov	r2, #0
	str	r2, [r3, #144]	@ float
	.loc 3 364 0
	mov	r3, #0
	str	r3, [sp, #292]	@ float
	b	.L62
.L67:
	.loc 3 368 0
	ldr	r3, [sp, #236]
	ldr	r3, [r3, #144]	@ float
	mov	r0, r3
	ldr	r1, [sp, #280]	@ float
	bl	__aeabi_fadd(PLT)
	mov	r3, r0
	mov	r2, r3
	ldr	r3, [sp, #236]
	str	r2, [r3, #144]	@ float
	.loc 3 369 0
	ldr	r3, [sp, #236]
	ldr	r3, [r3, #144]	@ float
	ldr	r0, [sp, #292]	@ float
	mov	r1, r3
	bl	_Z5b2MinIfET_S0_S0_(PLT)
	str	r0, [sp, #292]	@ float
.L62:
.LBE27:
	.loc 3 351 0
	ldr	r3, [sp, #288]
	add	r3, r3, #1
	str	r3, [sp, #288]
.L60:
	.loc 3 351 0 is_stmt 0 discriminator 1
	ldr	r3, [sp, #12]
	ldr	r2, [r3, #28]
	ldr	r3, [sp, #288]
	cmp	r2, r3
	bgt	.L68
.LBE26:
.LBB28:
	.loc 3 373 0 is_stmt 1
	ldr	r0, [sp, #292]	@ float
	mov	r1, #1056964608
	bl	__aeabi_fcmpge(PLT)
	mov	r3, r0
	cmp	r3, #0
	bne	.L74
.LBE28:
.LBE25:
	b	.L59
.L74:
.LBB33:
.LBB32:
	.loc 3 373 0 is_stmt 0 discriminator 1
	ldrb	r3, [sp, #315]	@ zero_extendqisi2
	cmp	r3, #0
	beq	.L69
.LBB29:
.LBB30:
	.loc 3 375 0 is_stmt 1
	mov	r3, #0
	str	r3, [sp, #284]
	b	.L71
.L72:
.LBB31:
	.loc 3 377 0 discriminator 2
	ldr	r3, [sp, #12]
	ldr	r2, [r3, #8]
	ldr	r3, [sp, #284]
	mov	r3, r3, asl #2
	add	r3, r2, r3
	ldr	r3, [r3]
	str	r3, [sp, #232]
	.loc 3 378 0 discriminator 2
	ldr	r0, [sp, #232]
	mov	r1, #0
	bl	_ZN6b2Body8SetAwakeEb(PLT)
.LBE31:
	.loc 3 375 0 discriminator 2
	ldr	r3, [sp, #284]
	add	r3, r3, #1
	str	r3, [sp, #284]
.L71:
	.loc 3 375 0 is_stmt 0 discriminator 1
	ldr	r3, [sp, #12]
	ldr	r2, [r3, #28]
	ldr	r3, [sp, #284]
	cmp	r2, r3
	bgt	.L72
.L69:
.L59:
.LBE30:
.LBE29:
.LBE32:
.LBE33:
.LBE24:
	.loc 3 381 0 is_stmt 1
	add	r3, sp, #96
	mov	r0, r3
	bl	_ZN15b2ContactSolverD1Ev(PLT)
.LBE5:
	.loc 3 382 0
	add	sp, sp, #344
	@ sp needed
	ldmfd	sp!, {r4, pc}
.L77:
	.align	2
.L76:
	.word	1082130432
	.word	1075702247
	.word	1070141403
	.word	2139095039
	.word	953267991
	.word	983545105
	.cfi_endproc
.LFE844:
	.size	_ZN8b2Island5SolveEP9b2ProfileRK10b2TimeStepRK6b2Vec2b, .-_ZN8b2Island5SolveEP9b2ProfileRK10b2TimeStepRK6b2Vec2b
	.section	.rodata
	.align	2
.LC0:
	.ascii	"c:/Users/Ben/Desktop/FYP/FinalYearProject/box2d/Box"
	.ascii	"2D/Dynamics/b2Island.cpp\000"
	.align	2
.LC1:
	.ascii	"toiIndexA < m_bodyCount\000"
	.align	2
.LC2:
	.ascii	"toiIndexB < m_bodyCount\000"
	.section	.text._ZN8b2Island8SolveTOIERK10b2TimeStepii,"ax",%progbits
	.align	2
	.global	_ZN8b2Island8SolveTOIERK10b2TimeStepii
	.hidden	_ZN8b2Island8SolveTOIERK10b2TimeStepii
	.type	_ZN8b2Island8SolveTOIERK10b2TimeStepii, %function
_ZN8b2Island8SolveTOIERK10b2TimeStepii:
.LFB845:
	.loc 3 385 0
	.cfi_startproc
	@ args = 0, pretend = 0, frame = 200
	@ frame_needed = 0, uses_anonymous_args = 0
	stmfd	sp!, {r4, lr}
.LCFI31:
	.cfi_def_cfa_offset 8
	.cfi_offset 4, -8
	.cfi_offset 14, -4
	sub	sp, sp, #200
.LCFI32:
	.cfi_def_cfa_offset 208
	str	r0, [sp, #12]
	str	r1, [sp, #8]
	str	r2, [sp, #4]
	str	r3, [sp]
.LBB34:
	.loc 3 386 0
	ldr	r3, [sp, #12]
	ldr	r2, [r3, #28]
	ldr	r3, [sp, #4]
	cmp	r2, r3
	bgt	.L79
	.loc 3 386 0 is_stmt 0 discriminator 1
	ldr	r3, .L96
.LPIC0:
	add	r3, pc, r3
	mov	r0, r3
	ldr	r1, .L96+4
	ldr	r3, .L96+8
.LPIC1:
	add	r3, pc, r3
	mov	r2, r3
	bl	__assert(PLT)
.L79:
	.loc 3 387 0 is_stmt 1
	ldr	r3, [sp, #12]
	ldr	r2, [r3, #28]
	ldr	r3, [sp]
	cmp	r2, r3
	bgt	.L80
	.loc 3 387 0 is_stmt 0 discriminator 1
	ldr	r3, .L96+12
.LPIC2:
	add	r3, pc, r3
	mov	r0, r3
	ldr	r1, .L96+16
	ldr	r3, .L96+20
.LPIC3:
	add	r3, pc, r3
	mov	r2, r3
	bl	__assert(PLT)
.L80:
.LBB35:
	.loc 3 390 0 is_stmt 1
	mov	r3, #0
	str	r3, [sp, #196]
	b	.L81
.L82:
.LBB36:
	.loc 3 392 0 discriminator 2
	ldr	r3, [sp, #12]
	ldr	r2, [r3, #8]
	ldr	r3, [sp, #196]
	mov	r3, r3, asl #2
	add	r3, r2, r3
	ldr	r3, [r3]
	str	r3, [sp, #176]
	.loc 3 393 0 discriminator 2
	ldr	r3, [sp, #12]
	ldr	r1, [r3, #20]
	ldr	r2, [sp, #196]
	mov	r3, r2
	mov	r3, r3, asl #1
	add	r3, r3, r2
	mov	r3, r3, asl #2
	add	r3, r1, r3
	ldr	r2, [sp, #176]
	add	r2, r2, #44
	ldmia	r2, {r0, r1}
	stmia	r3, {r0, r1}
	.loc 3 394 0 discriminator 2
	ldr	r3, [sp, #12]
	ldr	r1, [r3, #20]
	ldr	r2, [sp, #196]
	mov	r3, r2
	mov	r3, r3, asl #1
	add	r3, r3, r2
	mov	r3, r3, asl #2
	add	r3, r1, r3
	ldr	r2, [sp, #176]
	ldr	r2, [r2, #56]	@ float
	str	r2, [r3, #8]	@ float
	.loc 3 395 0 discriminator 2
	ldr	r3, [sp, #12]
	ldr	r1, [r3, #24]
	ldr	r2, [sp, #196]
	mov	r3, r2
	mov	r3, r3, asl #1
	add	r3, r3, r2
	mov	r3, r3, asl #2
	add	r3, r1, r3
	ldr	r2, [sp, #176]
	add	r2, r2, #64
	ldmia	r2, {r0, r1}
	stmia	r3, {r0, r1}
	.loc 3 396 0 discriminator 2
	ldr	r3, [sp, #12]
	ldr	r1, [r3, #24]
	ldr	r2, [sp, #196]
	mov	r3, r2
	mov	r3, r3, asl #1
	add	r3, r3, r2
	mov	r3, r3, asl #2
	add	r3, r1, r3
	ldr	r2, [sp, #176]
	ldr	r2, [r2, #72]	@ float
	str	r2, [r3, #8]	@ float
.LBE36:
	.loc 3 390 0 discriminator 2
	ldr	r3, [sp, #196]
	add	r3, r3, #1
	str	r3, [sp, #196]
.L81:
	.loc 3 390 0 is_stmt 0 discriminator 1
	ldr	r3, [sp, #12]
	ldr	r2, [r3, #28]
	ldr	r3, [sp, #196]
	cmp	r2, r3
	bgt	.L82
.LBE35:
	.loc 3 400 0 is_stmt 1
	ldr	r3, [sp, #12]
	ldr	r3, [r3, #12]
	str	r3, [sp, #44]
	.loc 3 401 0
	ldr	r3, [sp, #12]
	ldr	r3, [r3, #36]
	str	r3, [sp, #48]
	.loc 3 402 0
	ldr	r3, [sp, #12]
	ldr	r3, [r3]
	str	r3, [sp, #60]
	.loc 3 403 0
	ldr	r3, [sp, #8]
	add	ip, sp, #20
	mov	lr, r3
	ldmia	lr!, {r0, r1, r2, r3}
	stmia	ip!, {r0, r1, r2, r3}
	ldmia	lr, {r0, r1}
	stmia	ip, {r0, r1}
	.loc 3 404 0
	ldr	r3, [sp, #12]
	ldr	r3, [r3, #20]
	str	r3, [sp, #52]
	.loc 3 405 0
	ldr	r3, [sp, #12]
	ldr	r3, [r3, #24]
	str	r3, [sp, #56]
	.loc 3 406 0
	add	r2, sp, #64
	add	r3, sp, #20
	mov	r0, r2
	mov	r1, r3
	bl	_ZN15b2ContactSolverC1EP18b2ContactSolverDef(PLT)
.LBB37:
	.loc 3 409 0
	mov	r3, #0
	str	r3, [sp, #192]
	b	.L83
.L86:
.LBB38:
	.loc 3 411 0
	add	r3, sp, #64
	mov	r0, r3
	ldr	r1, [sp, #4]
	ldr	r2, [sp]
	bl	_ZN15b2ContactSolver27SolveTOIPositionConstraintsEii(PLT)
	mov	r3, r0
	strb	r3, [sp, #175]
	.loc 3 412 0
	ldrb	r3, [sp, #175]	@ zero_extendqisi2
	cmp	r3, #0
	beq	.L84
	.loc 3 414 0
	b	.L85
.L84:
.LBE38:
	.loc 3 409 0
	ldr	r3, [sp, #192]
	add	r3, r3, #1
	str	r3, [sp, #192]
.L83:
	.loc 3 409 0 is_stmt 0 discriminator 1
	ldr	r3, [sp, #8]
	ldr	r2, [r3, #16]
	ldr	r3, [sp, #192]
	cmp	r2, r3
	bgt	.L86
.L85:
.LBE37:
	.loc 3 452 0 is_stmt 1
	ldr	r3, [sp, #12]
	ldr	r2, [r3, #8]
	ldr	r3, [sp, #4]
	mov	r3, r3, asl #2
	add	r3, r2, r3
	ldr	r1, [r3]
	ldr	r3, [sp, #12]
	ldr	r0, [r3, #20]
	ldr	r2, [sp, #4]
	mov	r3, r2
	mov	r3, r3, asl #1
	add	r3, r3, r2
	mov	r3, r3, asl #2
	add	r2, r0, r3
	add	r3, r1, #36
	ldmia	r2, {r0, r1}
	stmia	r3, {r0, r1}
	.loc 3 453 0
	ldr	r3, [sp, #12]
	ldr	r2, [r3, #8]
	ldr	r3, [sp, #4]
	mov	r3, r3, asl #2
	add	r3, r2, r3
	ldr	r1, [r3]
	ldr	r3, [sp, #12]
	ldr	r0, [r3, #20]
	ldr	r2, [sp, #4]
	mov	r3, r2
	mov	r3, r3, asl #1
	add	r3, r3, r2
	mov	r3, r3, asl #2
	add	r3, r0, r3
	ldr	r3, [r3, #8]	@ float
	str	r3, [r1, #52]	@ float
	.loc 3 454 0
	ldr	r3, [sp, #12]
	ldr	r2, [r3, #8]
	ldr	r3, [sp]
	mov	r3, r3, asl #2
	add	r3, r2, r3
	ldr	r1, [r3]
	ldr	r3, [sp, #12]
	ldr	r0, [r3, #20]
	ldr	r2, [sp]
	mov	r3, r2
	mov	r3, r3, asl #1
	add	r3, r3, r2
	mov	r3, r3, asl #2
	add	r2, r0, r3
	add	r3, r1, #36
	ldmia	r2, {r0, r1}
	stmia	r3, {r0, r1}
	.loc 3 455 0
	ldr	r3, [sp, #12]
	ldr	r2, [r3, #8]
	ldr	r3, [sp]
	mov	r3, r3, asl #2
	add	r3, r2, r3
	ldr	r1, [r3]
	ldr	r3, [sp, #12]
	ldr	r0, [r3, #20]
	ldr	r2, [sp]
	mov	r3, r2
	mov	r3, r3, asl #1
	add	r3, r3, r2
	mov	r3, r3, asl #2
	add	r3, r0, r3
	ldr	r3, [r3, #8]	@ float
	str	r3, [r1, #52]	@ float
	.loc 3 459 0
	add	r3, sp, #64
	mov	r0, r3
	bl	_ZN15b2ContactSolver29InitializeVelocityConstraintsEv(PLT)
.LBB39:
	.loc 3 462 0
	mov	r3, #0
	str	r3, [sp, #188]
	b	.L87
.L88:
	.loc 3 464 0 discriminator 2
	add	r3, sp, #64
	mov	r0, r3
	bl	_ZN15b2ContactSolver24SolveVelocityConstraintsEv(PLT)
	.loc 3 462 0 discriminator 2
	ldr	r3, [sp, #188]
	add	r3, r3, #1
	str	r3, [sp, #188]
.L87:
	.loc 3 462 0 is_stmt 0 discriminator 1
	ldr	r3, [sp, #8]
	ldr	r2, [r3, #12]
	ldr	r3, [sp, #188]
	cmp	r2, r3
	bgt	.L88
.LBE39:
	.loc 3 470 0 is_stmt 1
	ldr	r3, [sp, #8]
	ldr	r3, [r3]	@ float
	str	r3, [sp, #168]	@ float
.LBB40:
	.loc 3 473 0
	mov	r3, #0
	str	r3, [sp, #184]
	b	.L89
.L94:
.LBB41:
	.loc 3 475 0
	ldr	r3, [sp, #12]
	ldr	r1, [r3, #20]
	ldr	r2, [sp, #184]
	mov	r3, r2
	mov	r3, r3, asl #1
	add	r3, r3, r2
	mov	r3, r3, asl #2
	add	r2, r1, r3
	add	r3, sp, #132
	ldmia	r2, {r0, r1}
	stmia	r3, {r0, r1}
	.loc 3 476 0
	ldr	r3, [sp, #12]
	ldr	r1, [r3, #20]
	ldr	r2, [sp, #184]
	mov	r3, r2
	mov	r3, r3, asl #1
	add	r3, r3, r2
	mov	r3, r3, asl #2
	add	r3, r1, r3
	ldr	r3, [r3, #8]	@ float
	str	r3, [sp, #164]	@ float
	.loc 3 477 0
	ldr	r3, [sp, #12]
	ldr	r1, [r3, #24]
	ldr	r2, [sp, #184]
	mov	r3, r2
	mov	r3, r3, asl #1
	add	r3, r3, r2
	mov	r3, r3, asl #2
	add	r2, r1, r3
	add	r3, sp, #124
	ldmia	r2, {r0, r1}
	stmia	r3, {r0, r1}
	.loc 3 478 0
	ldr	r3, [sp, #12]
	ldr	r1, [r3, #24]
	ldr	r2, [sp, #184]
	mov	r3, r2
	mov	r3, r3, asl #1
	add	r3, r3, r2
	mov	r3, r3, asl #2
	add	r3, r1, r3
	ldr	r3, [r3, #8]	@ float
	str	r3, [sp, #180]	@ float
	.loc 3 481 0
	add	r2, sp, #116
	add	r3, sp, #124
	mov	r0, r2
	ldr	r1, [sp, #168]	@ float
	mov	r2, r3
	bl	_ZmlfRK6b2Vec2(PLT)
.LBB42:
	.loc 3 482 0
	add	r2, sp, #116
	add	r3, sp, #116
	mov	r0, r2
	mov	r1, r3
	bl	_Z5b2DotRK6b2Vec2S1_(PLT)
	mov	r3, r0
	mov	r2, #1
	mov	r4, r2
	mov	r0, r3
	ldr	r1, .L96+24
	bl	__aeabi_fcmpgt(PLT)
	mov	r3, r0
	cmp	r3, #0
	bne	.L90
	mov	r3, #0
	mov	r4, r3
.L90:
	uxtb	r3, r4
	cmp	r3, #0
	beq	.L91
.LBB43:
	.loc 3 484 0
	add	r3, sp, #116
	mov	r0, r3
	bl	_ZNK6b2Vec26LengthEv(PLT)
	mov	r3, r0
	mov	r0, #1073741824
	mov	r1, r3
	bl	__aeabi_fdiv(PLT)
	mov	r3, r0
	str	r3, [sp, #160]	@ float
	.loc 3 485 0
	add	r3, sp, #124
	mov	r0, r3
	ldr	r1, [sp, #160]	@ float
	bl	_ZN6b2Vec2mLEf(PLT)
.L91:
.LBE43:
.LBE42:
	.loc 3 488 0
	ldr	r0, [sp, #168]	@ float
	ldr	r1, [sp, #180]	@ float
	bl	__aeabi_fmul(PLT)
	mov	r3, r0
	str	r3, [sp, #156]	@ float
.LBB44:
	.loc 3 489 0
	ldr	r0, [sp, #156]	@ float
	ldr	r1, [sp, #156]	@ float
	bl	__aeabi_fmul(PLT)
	mov	r3, r0
	mov	r0, r3
	ldr	r1, .L96+28
	bl	__aeabi_fcmpgt(PLT)
	mov	r3, r0
	cmp	r3, #0
	beq	.L92
.LBB45:
	.loc 3 491 0
	ldr	r0, [sp, #156]	@ float
	bl	_Z5b2AbsIfET_S0_(PLT)
	mov	r3, r0
	ldr	r0, .L96+32
	mov	r1, r3
	bl	__aeabi_fdiv(PLT)
	mov	r3, r0
	str	r3, [sp, #152]	@ float
	.loc 3 492 0
	ldr	r0, [sp, #180]	@ float
	ldr	r1, [sp, #152]	@ float
	bl	__aeabi_fmul(PLT)
	mov	r3, r0
	str	r3, [sp, #180]	@ float
.L92:
.LBE45:
.LBE44:
	.loc 3 496 0
	add	r2, sp, #140
	add	r3, sp, #124
	mov	r0, r2
	ldr	r1, [sp, #168]	@ float
	mov	r2, r3
	bl	_ZmlfRK6b2Vec2(PLT)
	add	r2, sp, #132
	add	r3, sp, #140
	mov	r0, r2
	mov	r1, r3
	bl	_ZN6b2Vec2pLERKS_(PLT)
	.loc 3 497 0
	ldr	r0, [sp, #168]	@ float
	ldr	r1, [sp, #180]	@ float
	bl	__aeabi_fmul(PLT)
	mov	r3, r0
	ldr	r0, [sp, #164]	@ float
	mov	r1, r3
	bl	__aeabi_fadd(PLT)
	mov	r3, r0
	str	r3, [sp, #164]	@ float
	.loc 3 499 0
	ldr	r3, [sp, #12]
	ldr	r1, [r3, #20]
	ldr	r2, [sp, #184]
	mov	r3, r2
	mov	r3, r3, asl #1
	add	r3, r3, r2
	mov	r3, r3, asl #2
	add	r3, r1, r3
	add	r2, sp, #132
	ldmia	r2, {r0, r1}
	stmia	r3, {r0, r1}
	.loc 3 500 0
	ldr	r3, [sp, #12]
	ldr	r1, [r3, #20]
	ldr	r2, [sp, #184]
	mov	r3, r2
	mov	r3, r3, asl #1
	add	r3, r3, r2
	mov	r3, r3, asl #2
	add	r3, r1, r3
	ldr	r2, [sp, #164]	@ float
	str	r2, [r3, #8]	@ float
	.loc 3 501 0
	ldr	r3, [sp, #12]
	ldr	r1, [r3, #24]
	ldr	r2, [sp, #184]
	mov	r3, r2
	mov	r3, r3, asl #1
	add	r3, r3, r2
	mov	r3, r3, asl #2
	add	r3, r1, r3
	add	r2, sp, #124
	ldmia	r2, {r0, r1}
	stmia	r3, {r0, r1}
	.loc 3 502 0
	ldr	r3, [sp, #12]
	ldr	r1, [r3, #24]
	ldr	r2, [sp, #184]
	mov	r3, r2
	mov	r3, r3, asl #1
	add	r3, r3, r2
	mov	r3, r3, asl #2
	add	r3, r1, r3
	ldr	r2, [sp, #180]	@ float
	str	r2, [r3, #8]	@ float
	.loc 3 505 0
	ldr	r3, [sp, #12]
	ldr	r2, [r3, #8]
	ldr	r3, [sp, #184]
	mov	r3, r3, asl #2
	add	r3, r2, r3
	ldr	r3, [r3]
	str	r3, [sp, #148]
	.loc 3 506 0
	ldr	r3, [sp, #148]
	add	r3, r3, #44
	add	r2, sp, #132
	ldmia	r2, {r0, r1}
	stmia	r3, {r0, r1}
	.loc 3 507 0
	ldr	r3, [sp, #148]
	ldr	r2, [sp, #164]	@ float
	str	r2, [r3, #56]	@ float
	.loc 3 508 0
	ldr	r3, [sp, #148]
	add	r3, r3, #64
	add	r2, sp, #124
	ldmia	r2, {r0, r1}
	stmia	r3, {r0, r1}
	.loc 3 509 0
	ldr	r3, [sp, #148]
	ldr	r2, [sp, #180]	@ float
	str	r2, [r3, #72]	@ float
	.loc 3 510 0
	ldr	r0, [sp, #148]
	bl	_ZN6b2Body20SynchronizeTransformEv(PLT)
.LBE41:
	.loc 3 473 0
	ldr	r3, [sp, #184]
	add	r3, r3, #1
	str	r3, [sp, #184]
.L89:
	.loc 3 473 0 is_stmt 0 discriminator 1
	ldr	r3, [sp, #12]
	ldr	r2, [r3, #28]
	ldr	r3, [sp, #184]
	cmp	r2, r3
	bgt	.L94
.LBE40:
	.loc 3 513 0 is_stmt 1
	ldr	r3, [sp, #104]
	ldr	r0, [sp, #12]
	mov	r1, r3
	bl	_ZN8b2Island6ReportEPK27b2ContactVelocityConstraint(PLT)
	add	r3, sp, #64
	mov	r0, r3
	bl	_ZN15b2ContactSolverD1Ev(PLT)
.LBE34:
	.loc 3 514 0
	add	sp, sp, #200
	@ sp needed
	ldmfd	sp!, {r4, pc}
.L97:
	.align	2
.L96:
	.word	.LC0-(.LPIC0+8)
	.word	386
	.word	.LC1-(.LPIC1+8)
	.word	.LC0-(.LPIC2+8)
	.word	387
	.word	.LC2-(.LPIC3+8)
	.word	1082130432
	.word	1075702247
	.word	1070141403
	.cfi_endproc
.LFE845:
	.size	_ZN8b2Island8SolveTOIERK10b2TimeStepii, .-_ZN8b2Island8SolveTOIERK10b2TimeStepii
	.section	.text._ZN8b2Island6ReportEPK27b2ContactVelocityConstraint,"ax",%progbits
	.align	2
	.global	_ZN8b2Island6ReportEPK27b2ContactVelocityConstraint
	.hidden	_ZN8b2Island6ReportEPK27b2ContactVelocityConstraint
	.type	_ZN8b2Island6ReportEPK27b2ContactVelocityConstraint, %function
_ZN8b2Island6ReportEPK27b2ContactVelocityConstraint:
.LFB846:
	.loc 3 517 0
	.cfi_startproc
	@ args = 0, pretend = 0, frame = 48
	@ frame_needed = 0, uses_anonymous_args = 0
	str	lr, [sp, #-4]!
.LCFI33:
	.cfi_def_cfa_offset 4
	.cfi_offset 14, -4
	sub	sp, sp, #52
.LCFI34:
	.cfi_def_cfa_offset 56
	str	r0, [sp, #4]
	str	r1, [sp]
.LBB46:
	.loc 3 518 0
	ldr	r3, [sp, #4]
	ldr	r3, [r3, #4]
	cmp	r3, #0
	bne	.L99
	.loc 3 520 0
	b	.L98
.L99:
.LBB47:
	.loc 3 523 0
	mov	r3, #0
	str	r3, [sp, #44]
	b	.L101
.L104:
.LBB48:
	.loc 3 525 0
	ldr	r3, [sp, #4]
	ldr	r2, [r3, #12]
	ldr	r3, [sp, #44]
	mov	r3, r3, asl #2
	add	r3, r2, r3
	ldr	r3, [r3]
	str	r3, [sp, #36]
	.loc 3 527 0
	ldr	r3, [sp, #44]
	mov	r2, #156
	mul	r3, r2, r3
	ldr	r2, [sp]
	add	r3, r2, r3
	str	r3, [sp, #32]
	.loc 3 530 0
	ldr	r3, [sp, #32]
	ldr	r3, [r3, #148]
	str	r3, [sp, #28]
.LBB49:
	.loc 3 531 0
	mov	r3, #0
	str	r3, [sp, #40]
	b	.L102
.L103:
	.loc 3 533 0 discriminator 2
	ldr	r0, [sp, #32]
	ldr	r2, [sp, #40]
	mov	r1, #16
	mov	r3, r2
	mov	r3, r3, asl #3
	add	r3, r3, r2
	mov	r3, r3, asl #2
	add	r3, r0, r3
	add	r3, r3, r1
	ldr	r2, [r3]	@ float
	ldr	r1, [sp, #40]
	mvn	r3, #35
	mov	r1, r1, asl #2
	add	r0, sp, #48
	add	r1, r0, r1
	add	r3, r1, r3
	str	r2, [r3]	@ float
	.loc 3 534 0 discriminator 2
	ldr	r0, [sp, #32]
	ldr	r2, [sp, #40]
	mov	r1, #16
	mov	r3, r2
	mov	r3, r3, asl #3
	add	r3, r3, r2
	mov	r3, r3, asl #2
	add	r3, r0, r3
	add	r3, r3, r1
	ldr	r2, [r3, #4]	@ float
	ldr	r3, [sp, #40]
	add	r1, r3, #2
	mvn	r3, #35
	mov	r1, r1, asl #2
	add	r0, sp, #48
	add	r1, r0, r1
	add	r3, r1, r3
	str	r2, [r3]	@ float
	.loc 3 531 0 discriminator 2
	ldr	r3, [sp, #40]
	add	r3, r3, #1
	str	r3, [sp, #40]
.L102:
	.loc 3 531 0 is_stmt 0 discriminator 1
	ldr	r3, [sp, #32]
	ldr	r2, [r3, #148]
	ldr	r3, [sp, #40]
	cmp	r2, r3
	bgt	.L103
.LBE49:
	.loc 3 537 0 is_stmt 1
	ldr	r3, [sp, #4]
	ldr	r3, [r3, #4]
	ldr	r3, [r3]
	add	r3, r3, #20
	ldr	r3, [r3]
	ldr	r2, [sp, #4]
	ldr	r1, [r2, #4]
	add	r2, sp, #12
	mov	r0, r1
	ldr	r1, [sp, #36]
	blx	r3
.LBE48:
	.loc 3 523 0
	ldr	r3, [sp, #44]
	add	r3, r3, #1
	str	r3, [sp, #44]
.L101:
	.loc 3 523 0 is_stmt 0 discriminator 1
	ldr	r3, [sp, #4]
	ldr	r2, [r3, #36]
	ldr	r3, [sp, #44]
	cmp	r2, r3
	bgt	.L104
.L98:
.LBE47:
.LBE46:
	.loc 3 539 0 is_stmt 1
	add	sp, sp, #52
	@ sp needed
	ldr	pc, [sp], #4
	.cfi_endproc
.LFE846:
	.size	_ZN8b2Island6ReportEPK27b2ContactVelocityConstraint, .-_ZN8b2Island6ReportEPK27b2ContactVelocityConstraint
	.section	.text._Z5b2AbsIfET_S0_,"axG",%progbits,_Z5b2AbsIfET_S0_,comdat
	.align	2
	.weak	_Z5b2AbsIfET_S0_
	.hidden	_Z5b2AbsIfET_S0_
	.type	_Z5b2AbsIfET_S0_, %function
_Z5b2AbsIfET_S0_:
.LFB847:
	.loc 1 616 0
	.cfi_startproc
	@ args = 0, pretend = 0, frame = 8
	@ frame_needed = 0, uses_anonymous_args = 0
	str	lr, [sp, #-4]!
.LCFI35:
	.cfi_def_cfa_offset 4
	.cfi_offset 14, -4
	sub	sp, sp, #12
.LCFI36:
	.cfi_def_cfa_offset 16
	str	r0, [sp, #4]	@ float
	.loc 1 618 0
	ldr	r0, [sp, #4]	@ float
	mov	r1, #0
	bl	__aeabi_fcmpgt(PLT)
	mov	r3, r0
	cmp	r3, #0
	beq	.L111
	.loc 1 618 0 is_stmt 0 discriminator 1
	ldr	r3, [sp, #4]	@ float
	b	.L108
.L111:
	.loc 1 618 0 discriminator 2
	ldr	r3, [sp, #4]
	eor	r3, r3, #-2147483648
.L108:
	.loc 1 619 0 is_stmt 1 discriminator 3
	mov	r0, r3
	add	sp, sp, #12
	@ sp needed
	ldr	pc, [sp], #4
	.cfi_endproc
.LFE847:
	.size	_Z5b2AbsIfET_S0_, .-_Z5b2AbsIfET_S0_
	.global	__aeabi_fcmplt
	.section	.text._Z5b2MinIfET_S0_S0_,"axG",%progbits,_Z5b2MinIfET_S0_S0_,comdat
	.align	2
	.weak	_Z5b2MinIfET_S0_S0_
	.hidden	_Z5b2MinIfET_S0_S0_
	.type	_Z5b2MinIfET_S0_S0_, %function
_Z5b2MinIfET_S0_S0_:
.LFB848:
	.loc 1 632 0
	.cfi_startproc
	@ args = 0, pretend = 0, frame = 8
	@ frame_needed = 0, uses_anonymous_args = 0
	str	lr, [sp, #-4]!
.LCFI37:
	.cfi_def_cfa_offset 4
	.cfi_offset 14, -4
	sub	sp, sp, #12
.LCFI38:
	.cfi_def_cfa_offset 16
	str	r0, [sp, #4]	@ float
	str	r1, [sp]	@ float
	.loc 1 634 0
	ldr	r0, [sp, #4]	@ float
	ldr	r1, [sp]	@ float
	bl	__aeabi_fcmplt(PLT)
	mov	r3, r0
	cmp	r3, #0
	beq	.L118
	.loc 1 634 0 is_stmt 0 discriminator 1
	ldr	r3, [sp, #4]	@ float
	b	.L115
.L118:
	.loc 1 634 0 discriminator 2
	ldr	r3, [sp]	@ float
.L115:
	.loc 1 635 0 is_stmt 1 discriminator 3
	mov	r0, r3
	add	sp, sp, #12
	@ sp needed
	ldr	pc, [sp], #4
	.cfi_endproc
.LFE848:
	.size	_Z5b2MinIfET_S0_S0_, .-_Z5b2MinIfET_S0_S0_
	.section	.rodata
	.align	2
	.type	_ZL12b2_chunkSize, %object
	.size	_ZL12b2_chunkSize, 4
_ZL12b2_chunkSize:
	.word	16384
	.align	2
	.type	_ZL15b2_maxBlockSize, %object
	.size	_ZL15b2_maxBlockSize, 4
_ZL15b2_maxBlockSize:
	.word	640
	.align	2
	.type	_ZL13b2_blockSizes, %object
	.size	_ZL13b2_blockSizes, 4
_ZL13b2_blockSizes:
	.word	14
	.align	2
	.type	_ZL22b2_chunkArrayIncrement, %object
	.size	_ZL22b2_chunkArrayIncrement, 4
_ZL22b2_chunkArrayIncrement:
	.word	128
	.type	_ZL14b2_nullFeature, %object
	.size	_ZL14b2_nullFeature, 1
_ZL14b2_nullFeature:
	.byte	-1
	.align	2
	.type	_ZL12b2_stackSize, %object
	.size	_ZL12b2_stackSize, 4
_ZL12b2_stackSize:
	.word	102400
	.align	2
	.type	_ZL18b2_maxStackEntries, %object
	.size	_ZL18b2_maxStackEntries, 4
_ZL18b2_maxStackEntries:
	.word	32
	.align	2
	.type	_ZN4_STLL16__stl_chunk_sizeE, %object
	.size	_ZN4_STLL16__stl_chunk_sizeE, 4
_ZN4_STLL16__stl_chunk_sizeE:
	.word	7
	.text
.Letext0:
	.file 4 "c:/marmalade/7.4/s3e/h/std/stddef.h"
	.file 5 "c:/marmalade/7.4/s3e/h/s3eTypes.h"
	.file 6 "c:/users/ben/desktop/fyp/finalyearproject/box2d/Box2D/Common/b2Settings.h"
	.file 7 "c:/users/ben/desktop/fyp/finalyearproject/box2d/Box2D/Collision/Shapes/b2Shape.h"
	.file 8 "c:/users/ben/desktop/fyp/finalyearproject/box2d/Box2D/Common/b2BlockAllocator.h"
	.file 9 "c:/users/ben/desktop/fyp/finalyearproject/box2d/Box2D/Collision/b2Collision.h"
	.file 10 "c:/marmalade/7.4/s3e/h/std/c++/cstddef"
	.file 11 "c:/marmalade/7.4/s3e/h/std/c++/cstdlib"
	.file 12 "c:/marmalade/7.4/s3e/h/std/c++/using/cstring"
	.file 13 "c:/marmalade/7.4/s3e/h/std/c++/cstdio"
	.file 14 "c:/marmalade/7.4/s3e/h/std/c++/exception"
	.file 15 "c:/marmalade/7.4/s3e/h/std/c++/stl/_config.h"
	.file 16 "c:/marmalade/7.4/s3e/h/ext/../std/stdlib.h"
	.file 17 "c:/marmalade/7.4/s3e/h/ext/../std/string.h"
	.file 18 "c:/marmalade/7.4/s3e/h/ext/../std/stdio.h"
	.file 19 "c:/users/ben/desktop/fyp/finalyearproject/box2d/Box2D/Dynamics/b2World.h"
	.file 20 "c:/users/ben/desktop/fyp/finalyearproject/box2d/Box2D/Dynamics/b2Fixture.h"
	.file 21 "c:/users/ben/desktop/fyp/finalyearproject/box2d/Box2D/Dynamics/Joints/b2Joint.h"
	.file 22 "c:/users/ben/desktop/fyp/finalyearproject/box2d/Box2D/Dynamics/Contacts/b2Contact.h"
	.file 23 "c:/users/ben/desktop/fyp/finalyearproject/box2d/Box2D/Dynamics/b2TimeStep.h"
	.file 24 "c:/users/ben/desktop/fyp/finalyearproject/box2d/Box2D/Dynamics/b2Island.h"
	.file 25 "c:/users/ben/desktop/fyp/finalyearproject/box2d/Box2D/Common/b2StackAllocator.h"
	.file 26 "c:/users/ben/desktop/fyp/finalyearproject/box2d/Box2D/Dynamics/b2WorldCallbacks.h"
	.file 27 "c:/users/ben/desktop/fyp/finalyearproject/box2d/Box2D/Dynamics/Contacts/b2ContactSolver.h"
	.file 28 "c:/users/ben/desktop/fyp/finalyearproject/box2d/Box2D/Collision/b2BroadPhase.h"
	.file 29 "c:/users/ben/desktop/fyp/finalyearproject/box2d/Box2D/Collision/b2DynamicTree.h"
	.file 30 "c:/users/ben/desktop/fyp/finalyearproject/box2d/Box2D/Dynamics/b2ContactManager.h"
	.file 31 "c:/users/ben/desktop/fyp/finalyearproject/box2d/Box2D/Common/b2Timer.h"
	.file 32 "<built-in>"
	.file 33 "c:/marmalade/7.4/s3e/h/std/c++/stl/_algo.c"