	.arch armv6
	.fpu softvfp
	.eabi_attribute 20, 1
	.eabi_attribute 21, 1
	.eabi_attribute 23, 3
	.eabi_attribute 24, 1
	.eabi_attribute 25, 1
	.eabi_attribute 26, 2
	.eabi_attribute 30, 6
	.eabi_attribute 34, 1
	.eabi_attribute 18, 2
	.file	"b2Math.cpp"
	.text
.Ltext0:
	.cfi_sections	.debug_frame
	.section	.text._ZN6b2Vec2C2Ev,"axG",%progbits,_ZN6b2Vec2C5Ev,comdat
	.align	2
	.weak	_ZN6b2Vec2C2Ev
	.hidden	_ZN6b2Vec2C2Ev
	.type	_ZN6b2Vec2C2Ev, %function
_ZN6b2Vec2C2Ev:
.LFB5:
	.file 1 "c:/users/ben/desktop/fyp/finalyearproject/box2d/Box2D/Common/b2Math.h"
	.loc 1 56 0
	.cfi_startproc
	@ args = 0, pretend = 0, frame = 8
	@ frame_needed = 0, uses_anonymous_args = 0
	@ link register save eliminated.
	sub	sp, sp, #8
.LCFI0:
	.cfi_def_cfa_offset 8
	str	r0, [sp, #4]
	.loc 1 56 0
	ldr	r3, [sp, #4]
	mov	r0, r3
	add	sp, sp, #8
	@ sp needed
	bx	lr
	.cfi_endproc
.LFE5:
	.size	_ZN6b2Vec2C2Ev, .-_ZN6b2Vec2C2Ev
	.weak	_ZN6b2Vec2C1Ev
	.hidden	_ZN6b2Vec2C1Ev
	.set	_ZN6b2Vec2C1Ev,_ZN6b2Vec2C2Ev
	.section	.text._ZN6b2Vec2C2Eff,"axG",%progbits,_ZN6b2Vec2C5Eff,comdat
	.align	2
	.weak	_ZN6b2Vec2C2Eff
	.hidden	_ZN6b2Vec2C2Eff
	.type	_ZN6b2Vec2C2Eff, %function
_ZN6b2Vec2C2Eff:
.LFB8:
	.loc 1 59 0
	.cfi_startproc
	@ args = 0, pretend = 0, frame = 16
	@ frame_needed = 0, uses_anonymous_args = 0
	@ link register save eliminated.
	sub	sp, sp, #16
.LCFI1:
	.cfi_def_cfa_offset 16
	str	r0, [sp, #12]
	str	r1, [sp, #8]	@ float
	str	r2, [sp, #4]	@ float
.LBB2:
	.loc 1 59 0
	ldr	r3, [sp, #12]
	ldr	r2, [sp, #8]	@ float
	str	r2, [r3]	@ float
	ldr	r3, [sp, #12]
	ldr	r2, [sp, #4]	@ float
	str	r2, [r3, #4]	@ float
.LBE2:
	ldr	r3, [sp, #12]
	mov	r0, r3
	add	sp, sp, #16
	@ sp needed
	bx	lr
	.cfi_endproc
.LFE8:
	.size	_ZN6b2Vec2C2Eff, .-_ZN6b2Vec2C2Eff
	.weak	_ZN6b2Vec2C1Eff
	.hidden	_ZN6b2Vec2C1Eff
	.set	_ZN6b2Vec2C1Eff,_ZN6b2Vec2C2Eff
	.section	.text._ZN6b2Vec3C2Ev,"axG",%progbits,_ZN6b2Vec3C5Ev,comdat
	.align	2
	.weak	_ZN6b2Vec3C2Ev
	.hidden	_ZN6b2Vec3C2Ev
	.type	_ZN6b2Vec3C2Ev, %function
_ZN6b2Vec3C2Ev:
.LFB24:
	.loc 1 147 0
	.cfi_startproc
	@ args = 0, pretend = 0, frame = 8
	@ frame_needed = 0, uses_anonymous_args = 0
	@ link register save eliminated.
	sub	sp, sp, #8
.LCFI2:
	.cfi_def_cfa_offset 8
	str	r0, [sp, #4]
	.loc 1 147 0
	ldr	r3, [sp, #4]
	mov	r0, r3
	add	sp, sp, #8
	@ sp needed
	bx	lr
	.cfi_endproc
.LFE24:
	.size	_ZN6b2Vec3C2Ev, .-_ZN6b2Vec3C2Ev
	.weak	_ZN6b2Vec3C1Ev
	.hidden	_ZN6b2Vec3C1Ev
	.set	_ZN6b2Vec3C1Ev,_ZN6b2Vec3C2Ev
	.section	.text._ZN6b2Vec3C2Efff,"axG",%progbits,_ZN6b2Vec3C5Efff,comdat
	.align	2
	.weak	_ZN6b2Vec3C2Efff
	.hidden	_ZN6b2Vec3C2Efff
	.type	_ZN6b2Vec3C2Efff, %function
_ZN6b2Vec3C2Efff:
.LFB27:
	.loc 1 150 0
	.cfi_startproc
	@ args = 0, pretend = 0, frame = 16
	@ frame_needed = 0, uses_anonymous_args = 0
	@ link register save eliminated.
	sub	sp, sp, #16
.LCFI3:
	.cfi_def_cfa_offset 16
	str	r0, [sp, #12]
	str	r1, [sp, #8]	@ float
	str	r2, [sp, #4]	@ float
	str	r3, [sp]	@ float
.LBB3:
	.loc 1 150 0
	ldr	r3, [sp, #12]
	ldr	r2, [sp, #8]	@ float
	str	r2, [r3]	@ float
	ldr	r3, [sp, #12]
	ldr	r2, [sp, #4]	@ float
	str	r2, [r3, #4]	@ float
	ldr	r3, [sp, #12]
	ldr	r2, [sp]	@ float
	str	r2, [r3, #8]	@ float
.LBE3:
	ldr	r3, [sp, #12]
	mov	r0, r3
	add	sp, sp, #16
	@ sp needed
	bx	lr
	.cfi_endproc
.LFE27:
	.size	_ZN6b2Vec3C2Efff, .-_ZN6b2Vec3C2Efff
	.weak	_ZN6b2Vec3C1Efff
	.hidden	_ZN6b2Vec3C1Efff
	.set	_ZN6b2Vec3C1Efff,_ZN6b2Vec3C2Efff
	.global	__aeabi_fmul
	.global	__aeabi_fadd
	.section	.text._Z5b2DotRK6b2Vec3S1_,"axG",%progbits,_Z5b2DotRK6b2Vec3S1_,comdat
	.align	2
	.weak	_Z5b2DotRK6b2Vec3S1_
	.hidden	_Z5b2DotRK6b2Vec3S1_
	.type	_Z5b2DotRK6b2Vec3S1_, %function
_Z5b2DotRK6b2Vec3S1_:
.LFB90:
	.loc 1 498 0
	.cfi_startproc
	@ args = 0, pretend = 0, frame = 8
	@ frame_needed = 0, uses_anonymous_args = 0
	stmfd	sp!, {r4, lr}
.LCFI4:
	.cfi_def_cfa_offset 8
	.cfi_offset 4, -8
	.cfi_offset 14, -4
	sub	sp, sp, #8
.LCFI5:
	.cfi_def_cfa_offset 16
	str	r0, [sp, #4]
	str	r1, [sp]
	.loc 1 499 0
	ldr	r3, [sp, #4]
	ldr	r2, [r3]	@ float
	ldr	r3, [sp]
	ldr	r3, [r3]	@ float
	mov	r0, r2
	mov	r1, r3
	bl	__aeabi_fmul(PLT)
	mov	r3, r0
	mov	r4, r3
	ldr	r3, [sp, #4]
	ldr	r2, [r3, #4]	@ float
	ldr	r3, [sp]
	ldr	r3, [r3, #4]	@ float
	mov	r0, r2
	mov	r1, r3
	bl	__aeabi_fmul(PLT)
	mov	r3, r0
	mov	r0, r4
	mov	r1, r3
	bl	__aeabi_fadd(PLT)
	mov	r3, r0
	mov	r4, r3
	ldr	r3, [sp, #4]
	ldr	r2, [r3, #8]	@ float
	ldr	r3, [sp]
	ldr	r3, [r3, #8]	@ float
	mov	r0, r2
	mov	r1, r3
	bl	__aeabi_fmul(PLT)
	mov	r3, r0
	mov	r0, r4
	mov	r1, r3
	bl	__aeabi_fadd(PLT)
	mov	r3, r0
	.loc 1 500 0
	mov	r0, r3
	add	sp, sp, #8
	@ sp needed
	ldmfd	sp!, {r4, pc}
	.cfi_endproc
.LFE90:
	.size	_Z5b2DotRK6b2Vec3S1_, .-_Z5b2DotRK6b2Vec3S1_
	.global	__aeabi_fsub
	.section	.text._Z7b2CrossRK6b2Vec3S1_,"axG",%progbits,_Z7b2CrossRK6b2Vec3S1_,comdat
	.align	2
	.weak	_Z7b2CrossRK6b2Vec3S1_
	.hidden	_Z7b2CrossRK6b2Vec3S1_
	.type	_Z7b2CrossRK6b2Vec3S1_, %function
_Z7b2CrossRK6b2Vec3S1_:
.LFB91:
	.loc 1 504 0
	.cfi_startproc
	@ args = 0, pretend = 0, frame = 16
	@ frame_needed = 0, uses_anonymous_args = 0
	stmfd	sp!, {r4, r5, r6, lr}
.LCFI6:
	.cfi_def_cfa_offset 16
	.cfi_offset 4, -16
	.cfi_offset 5, -12
	.cfi_offset 6, -8
	.cfi_offset 14, -4
	sub	sp, sp, #16
.LCFI7:
	.cfi_def_cfa_offset 32
	str	r0, [sp, #12]
	str	r1, [sp, #8]
	str	r2, [sp, #4]
	.loc 1 505 0
	ldr	r3, [sp, #8]
	ldr	r2, [r3, #4]	@ float
	ldr	r3, [sp, #4]
	ldr	r3, [r3, #8]	@ float
	mov	r0, r2
	mov	r1, r3
	bl	__aeabi_fmul(PLT)
	mov	r3, r0
	mov	r4, r3
	ldr	r3, [sp, #8]
	ldr	r2, [r3, #8]	@ float
	ldr	r3, [sp, #4]
	ldr	r3, [r3, #4]	@ float
	mov	r0, r2
	mov	r1, r3
	bl	__aeabi_fmul(PLT)
	mov	r3, r0
	mov	r0, r4
	mov	r1, r3
	bl	__aeabi_fsub(PLT)
	mov	r3, r0
	mov	r5, r3
	ldr	r3, [sp, #8]
	ldr	r2, [r3, #8]	@ float
	ldr	r3, [sp, #4]
	ldr	r3, [r3]	@ float
	mov	r0, r2
	mov	r1, r3
	bl	__aeabi_fmul(PLT)
	mov	r3, r0
	mov	r4, r3
	ldr	r3, [sp, #8]
	ldr	r2, [r3]	@ float
	ldr	r3, [sp, #4]
	ldr	r3, [r3, #8]	@ float
	mov	r0, r2
	mov	r1, r3
	bl	__aeabi_fmul(PLT)
	mov	r3, r0
	mov	r0, r4
	mov	r1, r3
	bl	__aeabi_fsub(PLT)
	mov	r3, r0
	mov	r4, r3
	ldr	r3, [sp, #8]
	ldr	r2, [r3]	@ float
	ldr	r3, [sp, #4]
	ldr	r3, [r3, #4]	@ float
	mov	r0, r2
	mov	r1, r3
	bl	__aeabi_fmul(PLT)
	mov	r3, r0
	mov	r6, r3
	ldr	r3, [sp, #8]
	ldr	r2, [r3, #4]	@ float
	ldr	r3, [sp, #4]
	ldr	r3, [r3]	@ float
	mov	r0, r2
	mov	r1, r3
	bl	__aeabi_fmul(PLT)
	mov	r3, r0
	mov	r0, r6
	mov	r1, r3
	bl	__aeabi_fsub(PLT)
	mov	r3, r0
	ldr	r0, [sp, #12]
	mov	r1, r5
	mov	r2, r4
	bl	_ZN6b2Vec3C1Efff(PLT)
	.loc 1 506 0
	ldr	r0, [sp, #12]
	add	sp, sp, #16
	@ sp needed
	ldmfd	sp!, {r4, r5, r6, pc}
	.cfi_endproc
.LFE91:
	.size	_Z7b2CrossRK6b2Vec3S1_, .-_Z7b2CrossRK6b2Vec3S1_
	.hidden	b2Vec2_zero
	.global	b2Vec2_zero
	.bss
	.align	2
	.type	b2Vec2_zero, %object
	.size	b2Vec2_zero, 8
b2Vec2_zero:
	.space	8
	.global	__aeabi_fcmpeq
	.global	__aeabi_fdiv
	.section	.text._ZNK7b2Mat337Solve33ERK6b2Vec3,"ax",%progbits
	.align	2
	.global	_ZNK7b2Mat337Solve33ERK6b2Vec3
	.hidden	_ZNK7b2Mat337Solve33ERK6b2Vec3
	.type	_ZNK7b2Mat337Solve33ERK6b2Vec3, %function
_ZNK7b2Mat337Solve33ERK6b2Vec3:
.LFB120:
	.file 2 "c:/Users/Ben/Desktop/FYP/FinalYearProject/box2d/Box2D/Common/b2Math.cpp"
	.loc 2 26 0
	.cfi_startproc
	@ args = 0, pretend = 0, frame = 72
	@ frame_needed = 0, uses_anonymous_args = 0
	stmfd	sp!, {r4, lr}
.LCFI8:
	.cfi_def_cfa_offset 8
	.cfi_offset 4, -8
	.cfi_offset 14, -4
	sub	sp, sp, #72
.LCFI9:
	.cfi_def_cfa_offset 80
	str	r0, [sp, #12]
	str	r1, [sp, #8]
	str	r2, [sp, #4]
.LBB4:
	.loc 2 27 0
	ldr	r4, [sp, #8]
	ldr	r3, [sp, #8]
	add	r2, r3, #12
	ldr	r3, [sp, #8]
	add	r3, r3, #24
	add	r1, sp, #20
	mov	r0, r1
	mov	r1, r2
	mov	r2, r3
	bl	_Z7b2CrossRK6b2Vec3S1_(PLT)
	add	r3, sp, #20
	mov	r0, r4
	mov	r1, r3
	bl	_Z5b2DotRK6b2Vec3S1_(PLT)
	str	r0, [sp, #68]	@ float
	.loc 2 28 0
	ldr	r0, [sp, #68]	@ float
	mov	r1, #0
	bl	__aeabi_fcmpeq(PLT)
	mov	r3, r0
	cmp	r3, #0
	bne	.L18
	.loc 2 30 0
	mov	r0, #1065353216
	ldr	r1, [sp, #68]	@ float
	bl	__aeabi_fdiv(PLT)
	mov	r3, r0
	str	r3, [sp, #68]	@ float
.L18:
	.loc 2 32 0
	ldr	r0, [sp, #12]
	bl	_ZN6b2Vec3C1Ev(PLT)
	.loc 2 33 0
	ldr	r3, [sp, #8]
	add	r2, r3, #12
	ldr	r3, [sp, #8]
	add	r3, r3, #24
	add	r1, sp, #32
	mov	r0, r1
	mov	r1, r2
	mov	r2, r3
	bl	_Z7b2CrossRK6b2Vec3S1_(PLT)
	add	r3, sp, #32
	ldr	r0, [sp, #4]
	mov	r1, r3
	bl	_Z5b2DotRK6b2Vec3S1_(PLT)
	mov	r3, r0
	mov	r0, r3
	ldr	r1, [sp, #68]	@ float
	bl	__aeabi_fmul(PLT)
	mov	r3, r0
	mov	r2, r3
	ldr	r3, [sp, #12]
	str	r2, [r3]	@ float
	.loc 2 34 0
	ldr	r4, [sp, #8]
	ldr	r3, [sp, #8]
	add	r3, r3, #24
	add	r2, sp, #44
	mov	r0, r2
	ldr	r1, [sp, #4]
	mov	r2, r3
	bl	_Z7b2CrossRK6b2Vec3S1_(PLT)
	add	r3, sp, #44
	mov	r0, r4
	mov	r1, r3
	bl	_Z5b2DotRK6b2Vec3S1_(PLT)
	mov	r3, r0
	mov	r0, r3
	ldr	r1, [sp, #68]	@ float
	bl	__aeabi_fmul(PLT)
	mov	r3, r0
	mov	r2, r3
	ldr	r3, [sp, #12]
	str	r2, [r3, #4]	@ float
	.loc 2 35 0
	ldr	r4, [sp, #8]
	ldr	r3, [sp, #8]
	add	r3, r3, #12
	add	r2, sp, #56
	mov	r0, r2
	mov	r1, r3
	ldr	r2, [sp, #4]
	bl	_Z7b2CrossRK6b2Vec3S1_(PLT)
	add	r3, sp, #56
	mov	r0, r4
	mov	r1, r3
	bl	_Z5b2DotRK6b2Vec3S1_(PLT)
	mov	r3, r0
	mov	r0, r3
	ldr	r1, [sp, #68]	@ float
	bl	__aeabi_fmul(PLT)
	mov	r3, r0
	mov	r2, r3
	ldr	r3, [sp, #12]
	str	r2, [r3, #8]	@ float
	.loc 2 36 0
	mov	r0, r0	@ nop
.LBE4:
	.loc 2 37 0
	ldr	r0, [sp, #12]
	add	sp, sp, #72
	@ sp needed
	ldmfd	sp!, {r4, pc}
	.cfi_endproc
.LFE120:
	.size	_ZNK7b2Mat337Solve33ERK6b2Vec3, .-_ZNK7b2Mat337Solve33ERK6b2Vec3
	.section	.text._ZNK7b2Mat337Solve22ERK6b2Vec2,"ax",%progbits
	.align	2
	.global	_ZNK7b2Mat337Solve22ERK6b2Vec2
	.hidden	_ZNK7b2Mat337Solve22ERK6b2Vec2
	.type	_ZNK7b2Mat337Solve22ERK6b2Vec2, %function
_ZNK7b2Mat337Solve22ERK6b2Vec2:
.LFB121:
	.loc 2 42 0
	.cfi_startproc
	@ args = 0, pretend = 0, frame = 40
	@ frame_needed = 0, uses_anonymous_args = 0
	stmfd	sp!, {r4, lr}
.LCFI10:
	.cfi_def_cfa_offset 8
	.cfi_offset 4, -8
	.cfi_offset 14, -4
	sub	sp, sp, #40
.LCFI11:
	.cfi_def_cfa_offset 48
	str	r0, [sp, #12]
	str	r1, [sp, #8]
	str	r2, [sp, #4]
.LBB5:
	.loc 2 43 0
	ldr	r3, [sp, #8]
	ldr	r3, [r3]	@ float
	str	r3, [sp, #32]	@ float
	ldr	r3, [sp, #8]
	ldr	r3, [r3, #12]	@ float
	str	r3, [sp, #28]	@ float
	ldr	r3, [sp, #8]
	ldr	r3, [r3, #4]	@ float
	str	r3, [sp, #24]	@ float
	ldr	r3, [sp, #8]
	ldr	r3, [r3, #16]	@ float
	str	r3, [sp, #20]	@ float
	.loc 2 44 0
	ldr	r0, [sp, #32]	@ float
	ldr	r1, [sp, #20]	@ float
	bl	__aeabi_fmul(PLT)
	mov	r3, r0
	mov	r4, r3
	ldr	r0, [sp, #28]	@ float
	ldr	r1, [sp, #24]	@ float
	bl	__aeabi_fmul(PLT)
	mov	r3, r0
	mov	r0, r4
	mov	r1, r3
	bl	__aeabi_fsub(PLT)
	mov	r3, r0
	str	r3, [sp, #36]	@ float
	.loc 2 45 0
	ldr	r0, [sp, #36]	@ float
	mov	r1, #0
	bl	__aeabi_fcmpeq(PLT)
	mov	r3, r0
	cmp	r3, #0
	bne	.L23
	.loc 2 47 0
	mov	r0, #1065353216
	ldr	r1, [sp, #36]	@ float
	bl	__aeabi_fdiv(PLT)
	mov	r3, r0
	str	r3, [sp, #36]	@ float
.L23:
	.loc 2 49 0
	ldr	r0, [sp, #12]
	bl	_ZN6b2Vec2C1Ev(PLT)
	.loc 2 50 0
	ldr	r3, [sp, #4]
	ldr	r3, [r3]	@ float
	mov	r0, r3
	ldr	r1, [sp, #20]	@ float
	bl	__aeabi_fmul(PLT)
	mov	r3, r0
	mov	r4, r3
	ldr	r3, [sp, #4]
	ldr	r3, [r3, #4]	@ float
	mov	r0, r3
	ldr	r1, [sp, #28]	@ float
	bl	__aeabi_fmul(PLT)
	mov	r3, r0
	mov	r0, r4
	mov	r1, r3
	bl	__aeabi_fsub(PLT)
	mov	r3, r0
	mov	r0, r3
	ldr	r1, [sp, #36]	@ float
	bl	__aeabi_fmul(PLT)
	mov	r3, r0
	mov	r2, r3
	ldr	r3, [sp, #12]
	str	r2, [r3]	@ float
	.loc 2 51 0
	ldr	r3, [sp, #4]
	ldr	r3, [r3, #4]	@ float
	mov	r0, r3
	ldr	r1, [sp, #32]	@ float
	bl	__aeabi_fmul(PLT)
	mov	r3, r0
	mov	r4, r3
	ldr	r3, [sp, #4]
	ldr	r3, [r3]	@ float
	mov	r0, r3
	ldr	r1, [sp, #24]	@ float
	bl	__aeabi_fmul(PLT)
	mov	r3, r0
	mov	r0, r4
	mov	r1, r3
	bl	__aeabi_fsub(PLT)
	mov	r3, r0
	mov	r0, r3
	ldr	r1, [sp, #36]	@ float
	bl	__aeabi_fmul(PLT)
	mov	r3, r0
	mov	r2, r3
	ldr	r3, [sp, #12]
	str	r2, [r3, #4]	@ float
	.loc 2 52 0
	mov	r0, r0	@ nop
.LBE5:
	.loc 2 53 0
	ldr	r0, [sp, #12]
	add	sp, sp, #40
	@ sp needed
	ldmfd	sp!, {r4, pc}
	.cfi_endproc
.LFE121:
	.size	_ZNK7b2Mat337Solve22ERK6b2Vec2, .-_ZNK7b2Mat337Solve22ERK6b2Vec2
	.section	.text._ZNK7b2Mat3312GetInverse22EPS_,"ax",%progbits
	.align	2
	.global	_ZNK7b2Mat3312GetInverse22EPS_
	.hidden	_ZNK7b2Mat3312GetInverse22EPS_
	.type	_ZNK7b2Mat3312GetInverse22EPS_, %function
_ZNK7b2Mat3312GetInverse22EPS_:
.LFB122:
	.loc 2 57 0
	.cfi_startproc
	@ args = 0, pretend = 0, frame = 32
	@ frame_needed = 0, uses_anonymous_args = 0
	stmfd	sp!, {r4, lr}
.LCFI12:
	.cfi_def_cfa_offset 8
	.cfi_offset 4, -8
	.cfi_offset 14, -4
	sub	sp, sp, #32
.LCFI13:
	.cfi_def_cfa_offset 40
	str	r0, [sp, #4]
	str	r1, [sp]
.LBB6:
	.loc 2 58 0
	ldr	r3, [sp, #4]
	ldr	r3, [r3]	@ float
	str	r3, [sp, #24]	@ float
	ldr	r3, [sp, #4]
	ldr	r3, [r3, #12]	@ float
	str	r3, [sp, #20]	@ float
	ldr	r3, [sp, #4]
	ldr	r3, [r3, #4]	@ float
	str	r3, [sp, #16]	@ float
	ldr	r3, [sp, #4]
	ldr	r3, [r3, #16]	@ float
	str	r3, [sp, #12]	@ float
	.loc 2 59 0
	ldr	r0, [sp, #24]	@ float
	ldr	r1, [sp, #12]	@ float
	bl	__aeabi_fmul(PLT)
	mov	r3, r0
	mov	r4, r3
	ldr	r0, [sp, #20]	@ float
	ldr	r1, [sp, #16]	@ float
	bl	__aeabi_fmul(PLT)
	mov	r3, r0
	mov	r0, r4
	mov	r1, r3
	bl	__aeabi_fsub(PLT)
	mov	r3, r0
	str	r3, [sp, #28]	@ float
	.loc 2 60 0
	ldr	r0, [sp, #28]	@ float
	mov	r1, #0
	bl	__aeabi_fcmpeq(PLT)
	mov	r3, r0
	cmp	r3, #0
	bne	.L28
	.loc 2 62 0
	mov	r0, #1065353216
	ldr	r1, [sp, #28]	@ float
	bl	__aeabi_fdiv(PLT)
	mov	r3, r0
	str	r3, [sp, #28]	@ float
.L28:
	.loc 2 65 0
	ldr	r0, [sp, #28]	@ float
	ldr	r1, [sp, #12]	@ float
	bl	__aeabi_fmul(PLT)
	mov	r3, r0
	mov	r2, r3
	ldr	r3, [sp]
	str	r2, [r3]	@ float
	ldr	r3, [sp, #28]
	eor	r3, r3, #-2147483648
	mov	r0, r3
	ldr	r1, [sp, #20]	@ float
	bl	__aeabi_fmul(PLT)
	mov	r3, r0
	mov	r2, r3
	ldr	r3, [sp]
	str	r2, [r3, #12]	@ float
	ldr	r3, [sp]
	mov	r2, #0
	str	r2, [r3, #8]	@ float
	.loc 2 66 0
	ldr	r3, [sp, #28]
	eor	r3, r3, #-2147483648
	mov	r0, r3
	ldr	r1, [sp, #16]	@ float
	bl	__aeabi_fmul(PLT)
	mov	r3, r0
	mov	r2, r3
	ldr	r3, [sp]
	str	r2, [r3, #4]	@ float
	ldr	r0, [sp, #28]	@ float
	ldr	r1, [sp, #24]	@ float
	bl	__aeabi_fmul(PLT)
	mov	r3, r0
	mov	r2, r3
	ldr	r3, [sp]
	str	r2, [r3, #16]	@ float
	ldr	r3, [sp]
	mov	r2, #0
	str	r2, [r3, #20]	@ float
	.loc 2 67 0
	ldr	r3, [sp]
	mov	r2, #0
	str	r2, [r3, #24]	@ float
	ldr	r3, [sp]
	mov	r2, #0
	str	r2, [r3, #28]	@ float
	ldr	r3, [sp]
	mov	r2, #0
	str	r2, [r3, #32]	@ float
.LBE6:
	.loc 2 68 0
	add	sp, sp, #32
	@ sp needed
	ldmfd	sp!, {r4, pc}
	.cfi_endproc
.LFE122:
	.size	_ZNK7b2Mat3312GetInverse22EPS_, .-_ZNK7b2Mat3312GetInverse22EPS_
	.section	.text._ZNK7b2Mat3315GetSymInverse33EPS_,"ax",%progbits
	.align	2
	.global	_ZNK7b2Mat3315GetSymInverse33EPS_
	.hidden	_ZNK7b2Mat3315GetSymInverse33EPS_
	.type	_ZNK7b2Mat3315GetSymInverse33EPS_, %function
_ZNK7b2Mat3315GetSymInverse33EPS_:
.LFB123:
	.loc 2 72 0
	.cfi_startproc
	@ args = 0, pretend = 0, frame = 48
	@ frame_needed = 0, uses_anonymous_args = 0
	stmfd	sp!, {r4, lr}
.LCFI14:
	.cfi_def_cfa_offset 8
	.cfi_offset 4, -8
	.cfi_offset 14, -4
	sub	sp, sp, #48
.LCFI15:
	.cfi_def_cfa_offset 56
	str	r0, [sp, #4]
	str	r1, [sp]
.LBB7:
	.loc 2 73 0
	ldr	r4, [sp, #4]
	ldr	r3, [sp, #4]
	add	r2, r3, #12
	ldr	r3, [sp, #4]
	add	r3, r3, #24
	add	r1, sp, #8
	mov	r0, r1
	mov	r1, r2
	mov	r2, r3
	bl	_Z7b2CrossRK6b2Vec3S1_(PLT)
	add	r3, sp, #8
	mov	r0, r4
	mov	r1, r3
	bl	_Z5b2DotRK6b2Vec3S1_(PLT)
	str	r0, [sp, #44]	@ float
	.loc 2 74 0
	ldr	r0, [sp, #44]	@ float
	mov	r1, #0
	bl	__aeabi_fcmpeq(PLT)
	mov	r3, r0
	cmp	r3, #0
	bne	.L32
	.loc 2 76 0
	mov	r0, #1065353216
	ldr	r1, [sp, #44]	@ float
	bl	__aeabi_fdiv(PLT)
	mov	r3, r0
	str	r3, [sp, #44]	@ float
.L32:
	.loc 2 79 0
	ldr	r3, [sp, #4]
	ldr	r3, [r3]	@ float
	str	r3, [sp, #40]	@ float
	ldr	r3, [sp, #4]
	ldr	r3, [r3, #12]	@ float
	str	r3, [sp, #36]	@ float
	ldr	r3, [sp, #4]
	ldr	r3, [r3, #24]	@ float
	str	r3, [sp, #32]	@ float
	.loc 2 80 0
	ldr	r3, [sp, #4]
	ldr	r3, [r3, #16]	@ float
	str	r3, [sp, #28]	@ float
	ldr	r3, [sp, #4]
	ldr	r3, [r3, #28]	@ float
	str	r3, [sp, #24]	@ float
	.loc 2 81 0
	ldr	r3, [sp, #4]
	ldr	r3, [r3, #32]	@ float
	str	r3, [sp, #20]	@ float
	.loc 2 83 0
	ldr	r0, [sp, #28]	@ float
	ldr	r1, [sp, #20]	@ float
	bl	__aeabi_fmul(PLT)
	mov	r3, r0
	mov	r4, r3
	ldr	r0, [sp, #24]	@ float
	ldr	r1, [sp, #24]	@ float
	bl	__aeabi_fmul(PLT)
	mov	r3, r0
	mov	r0, r4
	mov	r1, r3
	bl	__aeabi_fsub(PLT)
	mov	r3, r0
	mov	r0, r3
	ldr	r1, [sp, #44]	@ float
	bl	__aeabi_fmul(PLT)
	mov	r3, r0
	mov	r2, r3
	ldr	r3, [sp]
	str	r2, [r3]	@ float
	.loc 2 84 0
	ldr	r0, [sp, #32]	@ float
	ldr	r1, [sp, #24]	@ float
	bl	__aeabi_fmul(PLT)
	mov	r3, r0
	mov	r4, r3
	ldr	r0, [sp, #36]	@ float
	ldr	r1, [sp, #20]	@ float
	bl	__aeabi_fmul(PLT)
	mov	r3, r0
	mov	r0, r4
	mov	r1, r3
	bl	__aeabi_fsub(PLT)
	mov	r3, r0
	mov	r0, r3
	ldr	r1, [sp, #44]	@ float
	bl	__aeabi_fmul(PLT)
	mov	r3, r0
	mov	r2, r3
	ldr	r3, [sp]
	str	r2, [r3, #4]	@ float
	.loc 2 85 0
	ldr	r0, [sp, #36]	@ float
	ldr	r1, [sp, #24]	@ float
	bl	__aeabi_fmul(PLT)
	mov	r3, r0
	mov	r4, r3
	ldr	r0, [sp, #32]	@ float
	ldr	r1, [sp, #28]	@ float
	bl	__aeabi_fmul(PLT)
	mov	r3, r0
	mov	r0, r4
	mov	r1, r3
	bl	__aeabi_fsub(PLT)
	mov	r3, r0
	mov	r0, r3
	ldr	r1, [sp, #44]	@ float
	bl	__aeabi_fmul(PLT)
	mov	r3, r0
	mov	r2, r3
	ldr	r3, [sp]
	str	r2, [r3, #8]	@ float
	.loc 2 87 0
	ldr	r3, [sp]
	ldr	r2, [r3, #4]	@ float
	ldr	r3, [sp]
	str	r2, [r3, #12]	@ float
	.loc 2 88 0
	ldr	r0, [sp, #40]	@ float
	ldr	r1, [sp, #20]	@ float
	bl	__aeabi_fmul(PLT)
	mov	r3, r0
	mov	r4, r3
	ldr	r0, [sp, #32]	@ float
	ldr	r1, [sp, #32]	@ float
	bl	__aeabi_fmul(PLT)
	mov	r3, r0
	mov	r0, r4
	mov	r1, r3
	bl	__aeabi_fsub(PLT)
	mov	r3, r0
	mov	r0, r3
	ldr	r1, [sp, #44]	@ float
	bl	__aeabi_fmul(PLT)
	mov	r3, r0
	mov	r2, r3
	ldr	r3, [sp]
	str	r2, [r3, #16]	@ float
	.loc 2 89 0
	ldr	r0, [sp, #32]	@ float
	ldr	r1, [sp, #36]	@ float
	bl	__aeabi_fmul(PLT)
	mov	r3, r0
	mov	r4, r3
	ldr	r0, [sp, #40]	@ float
	ldr	r1, [sp, #24]	@ float
	bl	__aeabi_fmul(PLT)
	mov	r3, r0
	mov	r0, r4
	mov	r1, r3
	bl	__aeabi_fsub(PLT)
	mov	r3, r0
	mov	r0, r3
	ldr	r1, [sp, #44]	@ float
	bl	__aeabi_fmul(PLT)
	mov	r3, r0
	mov	r2, r3
	ldr	r3, [sp]
	str	r2, [r3, #20]	@ float
	.loc 2 91 0
	ldr	r3, [sp]
	ldr	r2, [r3, #8]	@ float
	ldr	r3, [sp]
	str	r2, [r3, #24]	@ float
	.loc 2 92 0
	ldr	r3, [sp]
	ldr	r2, [r3, #20]	@ float
	ldr	r3, [sp]
	str	r2, [r3, #28]	@ float
	.loc 2 93 0
	ldr	r0, [sp, #40]	@ float
	ldr	r1, [sp, #28]	@ float
	bl	__aeabi_fmul(PLT)
	mov	r3, r0
	mov	r4, r3
	ldr	r0, [sp, #36]	@ float
	ldr	r1, [sp, #36]	@ float
	bl	__aeabi_fmul(PLT)
	mov	r3, r0
	mov	r0, r4
	mov	r1, r3
	bl	__aeabi_fsub(PLT)
	mov	r3, r0
	mov	r0, r3
	ldr	r1, [sp, #44]	@ float
	bl	__aeabi_fmul(PLT)
	mov	r3, r0
	mov	r2, r3
	ldr	r3, [sp]
	str	r2, [r3, #32]	@ float
.LBE7:
	.loc 2 94 0
	add	sp, sp, #48
	@ sp needed
	ldmfd	sp!, {r4, pc}
	.cfi_endproc
.LFE123:
	.size	_ZNK7b2Mat3315GetSymInverse33EPS_, .-_ZNK7b2Mat3315GetSymInverse33EPS_
	.section	.text._Z41__static_initialization_and_destruction_0ii,"ax",%progbits
	.align	2
	.type	_Z41__static_initialization_and_destruction_0ii, %function
_Z41__static_initialization_and_destruction_0ii:
.LFB127:
	.loc 2 94 0
	.cfi_startproc
	@ args = 0, pretend = 0, frame = 8
	@ frame_needed = 0, uses_anonymous_args = 0
	str	lr, [sp, #-4]!
.LCFI16:
	.cfi_def_cfa_offset 4
	.cfi_offset 14, -4
	sub	sp, sp, #12
.LCFI17:
	.cfi_def_cfa_offset 16
	str	r0, [sp, #4]
	str	r1, [sp]
	.loc 2 94 0
	ldr	r3, [sp, #4]
	cmp	r3, #1
	bne	.L35
	.loc 2 94 0 is_stmt 0 discriminator 1
	ldr	r2, [sp]
	ldr	r3, .L37
	cmp	r2, r3
	bne	.L35
	.loc 2 21 0 is_stmt 1
	ldr	r3, .L37+4
.LPIC0:
	add	r3, pc, r3
	mov	r0, r3
	mov	r1, #0
	mov	r2, #0
	bl	_ZN6b2Vec2C1Eff(PLT)
.L35:
	.loc 2 94 0
	add	sp, sp, #12
	@ sp needed
	ldr	pc, [sp], #4
.L38:
	.align	2
.L37:
	.word	65535
	.word	b2Vec2_zero-(.LPIC0+8)
	.cfi_endproc
.LFE127:
	.size	_Z41__static_initialization_and_destruction_0ii, .-_Z41__static_initialization_and_destruction_0ii
	.section	.text._GLOBAL__sub_I_b2Math.cpp,"ax",%progbits
	.align	2
	.type	_GLOBAL__sub_I_b2Math.cpp, %function
_GLOBAL__sub_I_b2Math.cpp:
.LFB128:
	.loc 2 94 0
	.cfi_startproc
	@ args = 0, pretend = 0, frame = 0
	@ frame_needed = 0, uses_anonymous_args = 0
	stmfd	sp!, {r3, lr}
.LCFI18:
	.cfi_def_cfa_offset 8
	.cfi_offset 3, -8
	.cfi_offset 14, -4
	.loc 2 94 0
	mov	r0, #1
	ldr	r1, .L40
	bl	_Z41__static_initialization_and_destruction_0ii(PLT)
	ldmfd	sp!, {r3, pc}
.L41:
	.align	2
.L40:
	.word	65535
	.cfi_endproc
.LFE128:
	.size	_GLOBAL__sub_I_b2Math.cpp, .-_GLOBAL__sub_I_b2Math.cpp
	.section	.init_array,"aw",%init_array
	.align	2
	.word	_GLOBAL__sub_I_b2Math.cpp(target1)
	.text
.Letext0:
	.file 3 "c:/marmalade/7.4/s3e/h/s3eTypes.h"
	.file 4 "c:/users/ben/desktop/fyp/finalyearproject/box2d/Box2D/Common/b2Settings.h"