	.arch armv6
	.fpu softvfp
	.eabi_attribute 20, 1
	.eabi_attribute 21, 1
	.eabi_attribute 23, 3
	.eabi_attribute 24, 1
	.eabi_attribute 25, 1
	.eabi_attribute 26, 2
	.eabi_attribute 30, 6
	.eabi_attribute 34, 1
	.eabi_attribute 18, 2
	.file	"b2StackAllocator.cpp"
	.text
.Ltext0:
	.cfi_sections	.debug_frame
	.section	.text._ZN16b2StackAllocatorC2Ev,"ax",%progbits
	.align	2
	.global	_ZN16b2StackAllocatorC2Ev
	.hidden	_ZN16b2StackAllocatorC2Ev
	.type	_ZN16b2StackAllocatorC2Ev, %function
_ZN16b2StackAllocatorC2Ev:
.LFB121:
	.file 1 "c:/Users/Ben/Desktop/FYP/FinalYearProject/box2d/Box2D/Common/b2StackAllocator.cpp"
	.loc 1 22 0
	.cfi_startproc
	@ args = 0, pretend = 0, frame = 8
	@ frame_needed = 0, uses_anonymous_args = 0
	@ link register save eliminated.
	sub	sp, sp, #8
.LCFI0:
	.cfi_def_cfa_offset 8
	str	r0, [sp, #4]
.LBB2:
	.loc 1 24 0
	ldr	r2, [sp, #4]
	mov	r3, #102400
	mov	r1, #0
	str	r1, [r2, r3]
	.loc 1 25 0
	ldr	r2, [sp, #4]
	ldr	r3, .L4
	mov	r1, #0
	str	r1, [r2, r3]
	.loc 1 26 0
	ldr	r2, [sp, #4]
	ldr	r3, .L4+4
	mov	r1, #0
	str	r1, [r2, r3]
	.loc 1 27 0
	ldr	r2, [sp, #4]
	ldr	r3, .L4+8
	mov	r1, #0
	str	r1, [r2, r3]
.LBE2:
	.loc 1 28 0
	ldr	r3, [sp, #4]
	mov	r0, r3
	add	sp, sp, #8
	@ sp needed
	bx	lr
.L5:
	.align	2
.L4:
	.word	102404
	.word	102408
	.word	102796
	.cfi_endproc
.LFE121:
	.size	_ZN16b2StackAllocatorC2Ev, .-_ZN16b2StackAllocatorC2Ev
	.global	_ZN16b2StackAllocatorC1Ev
	.hidden	_ZN16b2StackAllocatorC1Ev
	.set	_ZN16b2StackAllocatorC1Ev,_ZN16b2StackAllocatorC2Ev
	.section	.rodata
	.align	2
.LC0:
	.ascii	"c:/Users/Ben/Desktop/FYP/FinalYearProject/box2d/Box"
	.ascii	"2D/Common/b2StackAllocator.cpp\000"
	.align	2
.LC1:
	.ascii	"m_index == 0\000"
	.align	2
.LC2:
	.ascii	"m_entryCount == 0\000"
	.section	.text._ZN16b2StackAllocatorD2Ev,"ax",%progbits
	.align	2
	.global	_ZN16b2StackAllocatorD2Ev
	.hidden	_ZN16b2StackAllocatorD2Ev
	.type	_ZN16b2StackAllocatorD2Ev, %function
_ZN16b2StackAllocatorD2Ev:
.LFB124:
	.loc 1 30 0
	.cfi_startproc
	@ args = 0, pretend = 0, frame = 8
	@ frame_needed = 0, uses_anonymous_args = 0
	str	lr, [sp, #-4]!
.LCFI1:
	.cfi_def_cfa_offset 4
	.cfi_offset 14, -4
	sub	sp, sp, #12
.LCFI2:
	.cfi_def_cfa_offset 16
	str	r0, [sp, #4]
.LBB3:
	.loc 1 32 0
	ldr	r2, [sp, #4]
	mov	r3, #102400
	ldr	r3, [r2, r3]
	cmp	r3, #0
	beq	.L7
	.loc 1 32 0 is_stmt 0 discriminator 1
	ldr	r3, .L10
.LPIC0:
	add	r3, pc, r3
	mov	r0, r3
	mov	r1, #32
	ldr	r3, .L10+4
.LPIC1:
	add	r3, pc, r3
	mov	r2, r3
	bl	__assert(PLT)
.L7:
	.loc 1 33 0 is_stmt 1
	ldr	r2, [sp, #4]
	ldr	r3, .L10+8
	ldr	r3, [r2, r3]
	cmp	r3, #0
	beq	.L8
	.loc 1 33 0 is_stmt 0 discriminator 1
	ldr	r3, .L10+12
.LPIC2:
	add	r3, pc, r3
	mov	r0, r3
	mov	r1, #33
	ldr	r3, .L10+16
.LPIC3:
	add	r3, pc, r3
	mov	r2, r3
	bl	__assert(PLT)
.L8:
.LBE3:
	.loc 1 34 0 is_stmt 1
	ldr	r3, [sp, #4]
	mov	r0, r3
	add	sp, sp, #12
	@ sp needed
	ldr	pc, [sp], #4
.L11:
	.align	2
.L10:
	.word	.LC0-(.LPIC0+8)
	.word	.LC1-(.LPIC1+8)
	.word	102796
	.word	.LC0-(.LPIC2+8)
	.word	.LC2-(.LPIC3+8)
	.cfi_endproc
.LFE124:
	.size	_ZN16b2StackAllocatorD2Ev, .-_ZN16b2StackAllocatorD2Ev
	.global	_ZN16b2StackAllocatorD1Ev
	.hidden	_ZN16b2StackAllocatorD1Ev
	.set	_ZN16b2StackAllocatorD1Ev,_ZN16b2StackAllocatorD2Ev
	.section	.rodata
	.align	2
.LC3:
	.ascii	"m_entryCount < b2_maxStackEntries\000"
	.section	.text._ZN16b2StackAllocator8AllocateEi,"ax",%progbits
	.align	2
	.global	_ZN16b2StackAllocator8AllocateEi
	.hidden	_ZN16b2StackAllocator8AllocateEi
	.type	_ZN16b2StackAllocator8AllocateEi, %function
_ZN16b2StackAllocator8AllocateEi:
.LFB126:
	.loc 1 37 0
	.cfi_startproc
	@ args = 0, pretend = 0, frame = 16
	@ frame_needed = 0, uses_anonymous_args = 0
	str	lr, [sp, #-4]!
.LCFI3:
	.cfi_def_cfa_offset 4
	.cfi_offset 14, -4
	sub	sp, sp, #20
.LCFI4:
	.cfi_def_cfa_offset 24
	str	r0, [sp, #4]
	str	r1, [sp]
.LBB4:
	.loc 1 38 0
	ldr	r2, [sp, #4]
	ldr	r3, .L17
	ldr	r3, [r2, r3]
	cmp	r3, #31
	ble	.L13
	.loc 1 38 0 is_stmt 0 discriminator 1
	ldr	r3, .L17+4
.LPIC4:
	add	r3, pc, r3
	mov	r0, r3
	mov	r1, #38
	ldr	r3, .L17+8
.LPIC5:
	add	r3, pc, r3
	mov	r2, r3
	bl	__assert(PLT)
.L13:
	.loc 1 40 0 is_stmt 1
	ldr	r2, [sp, #4]
	ldr	r3, .L17
	ldr	r3, [r2, r3]
	mov	r2, r3
	mov	r3, r2
	mov	r3, r3, asl #1
	add	r3, r3, r2
	mov	r3, r3, asl #2
	add	r3, r3, #102400
	add	r3, r3, #8
	ldr	r2, [sp, #4]
	add	r3, r2, r3
	add	r3, r3, #4
	str	r3, [sp, #12]
	.loc 1 41 0
	ldr	r3, [sp, #12]
	ldr	r2, [sp]
	str	r2, [r3, #4]
	.loc 1 42 0
	ldr	r2, [sp, #4]
	mov	r3, #102400
	ldr	r2, [r2, r3]
	ldr	r3, [sp]
	add	r3, r2, r3
	cmp	r3, #102400
	ble	.L14
	.loc 1 44 0
	ldr	r0, [sp]
	bl	_Z7b2Alloci(PLT)
	mov	r2, r0
	ldr	r3, [sp, #12]
	str	r2, [r3]
	.loc 1 45 0
	ldr	r3, [sp, #12]
	mov	r2, #1
	strb	r2, [r3, #8]
	b	.L15
.L14:
	.loc 1 49 0
	ldr	r2, [sp, #4]
	mov	r3, #102400
	ldr	r3, [r2, r3]
	ldr	r2, [sp, #4]
	add	r2, r2, r3
	ldr	r3, [sp, #12]
	str	r2, [r3]
	.loc 1 50 0
	ldr	r3, [sp, #12]
	mov	r2, #0
	strb	r2, [r3, #8]
	.loc 1 51 0
	ldr	r2, [sp, #4]
	mov	r3, #102400
	ldr	r2, [r2, r3]
	ldr	r3, [sp]
	add	r1, r2, r3
	ldr	r2, [sp, #4]
	mov	r3, #102400
	str	r1, [r2, r3]
.L15:
	.loc 1 54 0
	ldr	r2, [sp, #4]
	ldr	r3, .L17+12
	ldr	r2, [r2, r3]
	ldr	r3, [sp]
	add	r1, r2, r3
	ldr	r2, [sp, #4]
	ldr	r3, .L17+12
	str	r1, [r2, r3]
	.loc 1 55 0
	ldr	r2, [sp, #4]
	ldr	r3, .L17+16
	ldr	r2, [r2, r3]
	ldr	r1, [sp, #4]
	ldr	r3, .L17+12
	ldr	r3, [r1, r3]
	mov	r0, r2
	mov	r1, r3
	bl	_Z5b2MaxIiET_S0_S0_(PLT)
	mov	r1, r0
	ldr	r2, [sp, #4]
	ldr	r3, .L17+16
	str	r1, [r2, r3]
	.loc 1 56 0
	ldr	r2, [sp, #4]
	ldr	r3, .L17
	ldr	r3, [r2, r3]
	add	r1, r3, #1
	ldr	r2, [sp, #4]
	ldr	r3, .L17
	str	r1, [r2, r3]
	.loc 1 58 0
	ldr	r3, [sp, #12]
	ldr	r3, [r3]
.LBE4:
	.loc 1 59 0
	mov	r0, r3
	add	sp, sp, #20
	@ sp needed
	ldr	pc, [sp], #4
.L18:
	.align	2
.L17:
	.word	102796
	.word	.LC0-(.LPIC4+8)
	.word	.LC3-(.LPIC5+8)
	.word	102404
	.word	102408
	.cfi_endproc
.LFE126:
	.size	_ZN16b2StackAllocator8AllocateEi, .-_ZN16b2StackAllocator8AllocateEi
	.section	.rodata
	.align	2
.LC4:
	.ascii	"m_entryCount > 0\000"
	.align	2
.LC5:
	.ascii	"p == entry->data\000"
	.section	.text._ZN16b2StackAllocator4FreeEPv,"ax",%progbits
	.align	2
	.global	_ZN16b2StackAllocator4FreeEPv
	.hidden	_ZN16b2StackAllocator4FreeEPv
	.type	_ZN16b2StackAllocator4FreeEPv, %function
_ZN16b2StackAllocator4FreeEPv:
.LFB127:
	.loc 1 62 0
	.cfi_startproc
	@ args = 0, pretend = 0, frame = 16
	@ frame_needed = 0, uses_anonymous_args = 0
	str	lr, [sp, #-4]!
.LCFI5:
	.cfi_def_cfa_offset 4
	.cfi_offset 14, -4
	sub	sp, sp, #20
.LCFI6:
	.cfi_def_cfa_offset 24
	str	r0, [sp, #4]
	str	r1, [sp]
.LBB5:
	.loc 1 63 0
	ldr	r2, [sp, #4]
	ldr	r3, .L24
	ldr	r3, [r2, r3]
	cmp	r3, #0
	bgt	.L20
	.loc 1 63 0 is_stmt 0 discriminator 1
	ldr	r3, .L24+4
.LPIC6:
	add	r3, pc, r3
	mov	r0, r3
	mov	r1, #63
	ldr	r3, .L24+8
.LPIC7:
	add	r3, pc, r3
	mov	r2, r3
	bl	__assert(PLT)
.L20:
	.loc 1 64 0 is_stmt 1
	ldr	r2, [sp, #4]
	ldr	r3, .L24
	ldr	r3, [r2, r3]
	mov	r2, r3
	mov	r3, r2
	mov	r3, r3, asl #1
	add	r3, r3, r2
	mov	r3, r3, asl #2
	add	r3, r3, #102400
	add	r3, r3, #8
	ldr	r2, [sp, #4]
	add	r3, r2, r3
	add	r3, r3, #4
	sub	r3, r3, #12
	str	r3, [sp, #12]
	.loc 1 65 0
	ldr	r3, [sp, #12]
	ldr	r2, [r3]
	ldr	r3, [sp]
	cmp	r2, r3
	beq	.L21
	.loc 1 65 0 is_stmt 0 discriminator 1
	ldr	r3, .L24+12
.LPIC8:
	add	r3, pc, r3
	mov	r0, r3
	mov	r1, #65
	ldr	r3, .L24+16
.LPIC9:
	add	r3, pc, r3
	mov	r2, r3
	bl	__assert(PLT)
.L21:
	.loc 1 66 0 is_stmt 1
	ldr	r3, [sp, #12]
	ldrb	r3, [r3, #8]	@ zero_extendqisi2
	cmp	r3, #0
	beq	.L22
	.loc 1 68 0
	ldr	r0, [sp]
	bl	_Z6b2FreePv(PLT)
	b	.L23
.L22:
	.loc 1 72 0
	ldr	r2, [sp, #4]
	mov	r3, #102400
	ldr	r2, [r2, r3]
	ldr	r3, [sp, #12]
	ldr	r3, [r3, #4]
	rsb	r1, r3, r2
	ldr	r2, [sp, #4]
	mov	r3, #102400
	str	r1, [r2, r3]
.L23:
	.loc 1 74 0
	ldr	r2, [sp, #4]
	ldr	r3, .L24+20
	ldr	r2, [r2, r3]
	ldr	r3, [sp, #12]
	ldr	r3, [r3, #4]
	rsb	r1, r3, r2
	ldr	r2, [sp, #4]
	ldr	r3, .L24+20
	str	r1, [r2, r3]
	.loc 1 75 0
	ldr	r2, [sp, #4]
	ldr	r3, .L24
	ldr	r3, [r2, r3]
	sub	r1, r3, #1
	ldr	r2, [sp, #4]
	ldr	r3, .L24
	str	r1, [r2, r3]
	.loc 1 77 0
	mov	r3, #0
	str	r3, [sp]
.LBE5:
	.loc 1 78 0
	add	sp, sp, #20
	@ sp needed
	ldr	pc, [sp], #4
.L25:
	.align	2
.L24:
	.word	102796
	.word	.LC0-(.LPIC6+8)
	.word	.LC4-(.LPIC7+8)
	.word	.LC0-(.LPIC8+8)
	.word	.LC5-(.LPIC9+8)
	.word	102404
	.cfi_endproc
.LFE127:
	.size	_ZN16b2StackAllocator4FreeEPv, .-_ZN16b2StackAllocator4FreeEPv
	.section	.text._ZNK16b2StackAllocator16GetMaxAllocationEv,"ax",%progbits
	.align	2
	.global	_ZNK16b2StackAllocator16GetMaxAllocationEv
	.hidden	_ZNK16b2StackAllocator16GetMaxAllocationEv
	.type	_ZNK16b2StackAllocator16GetMaxAllocationEv, %function
_ZNK16b2StackAllocator16GetMaxAllocationEv:
.LFB128:
	.loc 1 81 0
	.cfi_startproc
	@ args = 0, pretend = 0, frame = 8
	@ frame_needed = 0, uses_anonymous_args = 0
	@ link register save eliminated.
	sub	sp, sp, #8
.LCFI7:
	.cfi_def_cfa_offset 8
	str	r0, [sp, #4]
	.loc 1 82 0
	ldr	r2, [sp, #4]
	ldr	r3, .L28
	ldr	r3, [r2, r3]
	.loc 1 83 0
	mov	r0, r3
	add	sp, sp, #8
	@ sp needed
	bx	lr
.L29:
	.align	2
.L28:
	.word	102408
	.cfi_endproc
.LFE128:
	.size	_ZNK16b2StackAllocator16GetMaxAllocationEv, .-_ZNK16b2StackAllocator16GetMaxAllocationEv
	.section	.text._Z5b2MaxIiET_S0_S0_,"axG",%progbits,_Z5b2MaxIiET_S0_S0_,comdat
	.align	2
	.weak	_Z5b2MaxIiET_S0_S0_
	.hidden	_Z5b2MaxIiET_S0_S0_
	.type	_Z5b2MaxIiET_S0_S0_, %function
_Z5b2MaxIiET_S0_S0_:
.LFB132:
	.file 2 "c:/users/ben/desktop/fyp/finalyearproject/box2d/Box2D/Common/b2Math.h"
	.loc 2 643 0
	.cfi_startproc
	@ args = 0, pretend = 0, frame = 8
	@ frame_needed = 0, uses_anonymous_args = 0
	@ link register save eliminated.
	sub	sp, sp, #8
.LCFI8:
	.cfi_def_cfa_offset 8
	str	r0, [sp, #4]
	str	r1, [sp]
	.loc 2 645 0
	ldr	r2, [sp, #4]
	ldr	r3, [sp]
	cmp	r2, r3
	ble	.L31
	.loc 2 645 0 is_stmt 0 discriminator 1
	ldr	r3, [sp, #4]
	b	.L32
.L31:
	.loc 2 645 0 discriminator 2
	ldr	r3, [sp]
.L32:
	.loc 2 646 0 is_stmt 1 discriminator 3
	mov	r0, r3
	add	sp, sp, #8
	@ sp needed
	bx	lr
	.cfi_endproc
.LFE132:
	.size	_Z5b2MaxIiET_S0_S0_, .-_Z5b2MaxIiET_S0_S0_
	.section	.rodata
	.align	2
	.type	_ZL12b2_stackSize, %object
	.size	_ZL12b2_stackSize, 4
_ZL12b2_stackSize:
	.word	102400
	.align	2
	.type	_ZL18b2_maxStackEntries, %object
	.size	_ZL18b2_maxStackEntries, 4
_ZL18b2_maxStackEntries:
	.word	32
	.text
.Letext0:
	.file 3 "c:/users/ben/desktop/fyp/finalyearproject/box2d/Box2D/Common/b2StackAllocator.h"
	.file 4 "c:/marmalade/7.4/s3e/h/s3eTypes.h"