	.arch armv6
	.fpu softvfp
	.eabi_attribute 20, 1
	.eabi_attribute 21, 1
	.eabi_attribute 23, 3
	.eabi_attribute 24, 1
	.eabi_attribute 25, 1
	.eabi_attribute 26, 2
	.eabi_attribute 30, 6
	.eabi_attribute 34, 1
	.eabi_attribute 18, 2
	.file	"b2Timer.cpp"
	.text
.Ltext0:
	.cfi_sections	.debug_frame
	.section	.text._ZN7b2TimerC2Ev,"ax",%progbits
	.align	2
	.global	_ZN7b2TimerC2Ev
	.hidden	_ZN7b2TimerC2Ev
	.type	_ZN7b2TimerC2Ev, %function
_ZN7b2TimerC2Ev:
.LFB1:
	.file 1 "c:/Users/Ben/Desktop/FYP/FinalYearProject/box2d/Box2D/Common/b2Timer.cpp"
	.loc 1 88 0
	.cfi_startproc
	@ args = 0, pretend = 0, frame = 8
	@ frame_needed = 0, uses_anonymous_args = 0
	@ link register save eliminated.
	sub	sp, sp, #8
.LCFI0:
	.cfi_def_cfa_offset 8
	str	r0, [sp, #4]
	.loc 1 90 0
	ldr	r3, [sp, #4]
	mov	r0, r3
	add	sp, sp, #8
	@ sp needed
	bx	lr
	.cfi_endproc
.LFE1:
	.size	_ZN7b2TimerC2Ev, .-_ZN7b2TimerC2Ev
	.global	_ZN7b2TimerC1Ev
	.hidden	_ZN7b2TimerC1Ev
	.set	_ZN7b2TimerC1Ev,_ZN7b2TimerC2Ev
	.section	.text._ZN7b2Timer5ResetEv,"ax",%progbits
	.align	2
	.global	_ZN7b2Timer5ResetEv
	.hidden	_ZN7b2Timer5ResetEv
	.type	_ZN7b2Timer5ResetEv, %function
_ZN7b2Timer5ResetEv:
.LFB3:
	.loc 1 93 0
	.cfi_startproc
	@ args = 0, pretend = 0, frame = 8
	@ frame_needed = 0, uses_anonymous_args = 0
	@ link register save eliminated.
	sub	sp, sp, #8
.LCFI1:
	.cfi_def_cfa_offset 8
	str	r0, [sp, #4]
	.loc 1 94 0
	add	sp, sp, #8
	@ sp needed
	bx	lr
	.cfi_endproc
.LFE3:
	.size	_ZN7b2Timer5ResetEv, .-_ZN7b2Timer5ResetEv
	.section	.text._ZNK7b2Timer15GetMillisecondsEv,"ax",%progbits
	.align	2
	.global	_ZNK7b2Timer15GetMillisecondsEv
	.hidden	_ZNK7b2Timer15GetMillisecondsEv
	.type	_ZNK7b2Timer15GetMillisecondsEv, %function
_ZNK7b2Timer15GetMillisecondsEv:
.LFB4:
	.loc 1 97 0
	.cfi_startproc
	@ args = 0, pretend = 0, frame = 8
	@ frame_needed = 0, uses_anonymous_args = 0
	@ link register save eliminated.
	sub	sp, sp, #8
.LCFI2:
	.cfi_def_cfa_offset 8
	str	r0, [sp, #4]
	.loc 1 98 0
	mov	r3, #0
	.loc 1 99 0
	mov	r0, r3
	add	sp, sp, #8
	@ sp needed
	bx	lr
	.cfi_endproc
.LFE4:
	.size	_ZNK7b2Timer15GetMillisecondsEv, .-_ZNK7b2Timer15GetMillisecondsEv
	.text
.Letext0:
	.file 2 "c:/users/ben/desktop/fyp/finalyearproject/box2d/Box2D/Common/b2Timer.h"
	.file 3 "c:/users/ben/desktop/fyp/finalyearproject/box2d/Box2D/Common/b2Settings.h"