	.arch armv6
	.fpu softvfp
	.eabi_attribute 20, 1
	.eabi_attribute 21, 1
	.eabi_attribute 23, 3
	.eabi_attribute 24, 1
	.eabi_attribute 25, 1
	.eabi_attribute 26, 2
	.eabi_attribute 30, 6
	.eabi_attribute 34, 1
	.eabi_attribute 18, 2
	.file	"b2WeldJoint.cpp"
	.text
.Ltext0:
	.cfi_sections	.debug_frame
	.section	.text._ZN6b2Vec2C2Ev,"axG",%progbits,_ZN6b2Vec2C5Ev,comdat
	.align	2
	.weak	_ZN6b2Vec2C2Ev
	.hidden	_ZN6b2Vec2C2Ev
	.type	_ZN6b2Vec2C2Ev, %function
_ZN6b2Vec2C2Ev:
.LFB5:
	.file 1 "c:/users/ben/desktop/fyp/finalyearproject/box2d/Box2D/Common/b2Math.h"
	.loc 1 56 0
	.cfi_startproc
	@ args = 0, pretend = 0, frame = 8
	@ frame_needed = 0, uses_anonymous_args = 0
	@ link register save eliminated.
	sub	sp, sp, #8
.LCFI0:
	.cfi_def_cfa_offset 8
	str	r0, [sp, #4]
	.loc 1 56 0
	ldr	r3, [sp, #4]
	mov	r0, r3
	add	sp, sp, #8
	@ sp needed
	bx	lr
	.cfi_endproc
.LFE5:
	.size	_ZN6b2Vec2C2Ev, .-_ZN6b2Vec2C2Ev
	.weak	_ZN6b2Vec2C1Ev
	.hidden	_ZN6b2Vec2C1Ev
	.set	_ZN6b2Vec2C1Ev,_ZN6b2Vec2C2Ev
	.section	.text._ZN6b2Vec2C2Eff,"axG",%progbits,_ZN6b2Vec2C5Eff,comdat
	.align	2
	.weak	_ZN6b2Vec2C2Eff
	.hidden	_ZN6b2Vec2C2Eff
	.type	_ZN6b2Vec2C2Eff, %function
_ZN6b2Vec2C2Eff:
.LFB8:
	.loc 1 59 0
	.cfi_startproc
	@ args = 0, pretend = 0, frame = 16
	@ frame_needed = 0, uses_anonymous_args = 0
	@ link register save eliminated.
	sub	sp, sp, #16
.LCFI1:
	.cfi_def_cfa_offset 16
	str	r0, [sp, #12]
	str	r1, [sp, #8]	@ float
	str	r2, [sp, #4]	@ float
.LBB2:
	.loc 1 59 0
	ldr	r3, [sp, #12]
	ldr	r2, [sp, #8]	@ float
	str	r2, [r3]	@ float
	ldr	r3, [sp, #12]
	ldr	r2, [sp, #4]	@ float
	str	r2, [r3, #4]	@ float
.LBE2:
	ldr	r3, [sp, #12]
	mov	r0, r3
	add	sp, sp, #16
	@ sp needed
	bx	lr
	.cfi_endproc
.LFE8:
	.size	_ZN6b2Vec2C2Eff, .-_ZN6b2Vec2C2Eff
	.weak	_ZN6b2Vec2C1Eff
	.hidden	_ZN6b2Vec2C1Eff
	.set	_ZN6b2Vec2C1Eff,_ZN6b2Vec2C2Eff
	.section	.text._ZN6b2Vec23SetEff,"axG",%progbits,_ZN6b2Vec23SetEff,comdat
	.align	2
	.weak	_ZN6b2Vec23SetEff
	.hidden	_ZN6b2Vec23SetEff
	.type	_ZN6b2Vec23SetEff, %function
_ZN6b2Vec23SetEff:
.LFB11:
	.loc 1 65 0
	.cfi_startproc
	@ args = 0, pretend = 0, frame = 16
	@ frame_needed = 0, uses_anonymous_args = 0
	@ link register save eliminated.
	sub	sp, sp, #16
.LCFI2:
	.cfi_def_cfa_offset 16
	str	r0, [sp, #12]
	str	r1, [sp, #8]	@ float
	str	r2, [sp, #4]	@ float
	.loc 1 65 0
	ldr	r3, [sp, #12]
	ldr	r2, [sp, #8]	@ float
	str	r2, [r3]	@ float
	ldr	r3, [sp, #12]
	ldr	r2, [sp, #4]	@ float
	str	r2, [r3, #4]	@ float
	add	sp, sp, #16
	@ sp needed
	bx	lr
	.cfi_endproc
.LFE11:
	.size	_ZN6b2Vec23SetEff, .-_ZN6b2Vec23SetEff
	.section	.text._ZNK6b2Vec2ngEv,"axG",%progbits,_ZNK6b2Vec2ngEv,comdat
	.align	2
	.weak	_ZNK6b2Vec2ngEv
	.hidden	_ZNK6b2Vec2ngEv
	.type	_ZNK6b2Vec2ngEv, %function
_ZNK6b2Vec2ngEv:
.LFB12:
	.loc 1 68 0
	.cfi_startproc
	@ args = 0, pretend = 0, frame = 8
	@ frame_needed = 0, uses_anonymous_args = 0
	str	lr, [sp, #-4]!
.LCFI3:
	.cfi_def_cfa_offset 4
	.cfi_offset 14, -4
	sub	sp, sp, #12
.LCFI4:
	.cfi_def_cfa_offset 16
	str	r0, [sp, #4]
	str	r1, [sp]
.LBB3:
	.loc 1 68 0
	ldr	r0, [sp, #4]
	bl	_ZN6b2Vec2C1Ev(PLT)
	ldr	r3, [sp]
	ldr	r3, [r3]	@ float
	eor	r2, r3, #-2147483648
	ldr	r3, [sp]
	ldr	r3, [r3, #4]	@ float
	eor	r3, r3, #-2147483648
	ldr	r0, [sp, #4]
	mov	r1, r2
	mov	r2, r3
	bl	_ZN6b2Vec23SetEff(PLT)
	mov	r0, r0	@ nop
.LBE3:
	ldr	r0, [sp, #4]
	add	sp, sp, #12
	@ sp needed
	ldr	pc, [sp], #4
	.cfi_endproc
.LFE12:
	.size	_ZNK6b2Vec2ngEv, .-_ZNK6b2Vec2ngEv
	.global	__aeabi_fadd
	.section	.text._ZN6b2Vec2pLERKS_,"axG",%progbits,_ZN6b2Vec2pLERKS_,comdat
	.align	2
	.weak	_ZN6b2Vec2pLERKS_
	.hidden	_ZN6b2Vec2pLERKS_
	.type	_ZN6b2Vec2pLERKS_, %function
_ZN6b2Vec2pLERKS_:
.LFB15:
	.loc 1 83 0
	.cfi_startproc
	@ args = 0, pretend = 0, frame = 8
	@ frame_needed = 0, uses_anonymous_args = 0
	str	lr, [sp, #-4]!
.LCFI5:
	.cfi_def_cfa_offset 4
	.cfi_offset 14, -4
	sub	sp, sp, #12
.LCFI6:
	.cfi_def_cfa_offset 16
	str	r0, [sp, #4]
	str	r1, [sp]
	.loc 1 85 0
	ldr	r3, [sp, #4]
	ldr	r2, [r3]	@ float
	ldr	r3, [sp]
	ldr	r3, [r3]	@ float
	mov	r0, r2
	mov	r1, r3
	bl	__aeabi_fadd(PLT)
	mov	r3, r0
	mov	r2, r3
	ldr	r3, [sp, #4]
	str	r2, [r3]	@ float
	ldr	r3, [sp, #4]
	ldr	r2, [r3, #4]	@ float
	ldr	r3, [sp]
	ldr	r3, [r3, #4]	@ float
	mov	r0, r2
	mov	r1, r3
	bl	__aeabi_fadd(PLT)
	mov	r3, r0
	mov	r2, r3
	ldr	r3, [sp, #4]
	str	r2, [r3, #4]	@ float
	.loc 1 86 0
	add	sp, sp, #12
	@ sp needed
	ldr	pc, [sp], #4
	.cfi_endproc
.LFE15:
	.size	_ZN6b2Vec2pLERKS_, .-_ZN6b2Vec2pLERKS_
	.global	__aeabi_fsub
	.section	.text._ZN6b2Vec2mIERKS_,"axG",%progbits,_ZN6b2Vec2mIERKS_,comdat
	.align	2
	.weak	_ZN6b2Vec2mIERKS_
	.hidden	_ZN6b2Vec2mIERKS_
	.type	_ZN6b2Vec2mIERKS_, %function
_ZN6b2Vec2mIERKS_:
.LFB16:
	.loc 1 89 0
	.cfi_startproc
	@ args = 0, pretend = 0, frame = 8
	@ frame_needed = 0, uses_anonymous_args = 0
	str	lr, [sp, #-4]!
.LCFI7:
	.cfi_def_cfa_offset 4
	.cfi_offset 14, -4
	sub	sp, sp, #12
.LCFI8:
	.cfi_def_cfa_offset 16
	str	r0, [sp, #4]
	str	r1, [sp]
	.loc 1 91 0
	ldr	r3, [sp, #4]
	ldr	r2, [r3]	@ float
	ldr	r3, [sp]
	ldr	r3, [r3]	@ float
	mov	r0, r2
	mov	r1, r3
	bl	__aeabi_fsub(PLT)
	mov	r3, r0
	mov	r2, r3
	ldr	r3, [sp, #4]
	str	r2, [r3]	@ float
	ldr	r3, [sp, #4]
	ldr	r2, [r3, #4]	@ float
	ldr	r3, [sp]
	ldr	r3, [r3, #4]	@ float
	mov	r0, r2
	mov	r1, r3
	bl	__aeabi_fsub(PLT)
	mov	r3, r0
	mov	r2, r3
	ldr	r3, [sp, #4]
	str	r2, [r3, #4]	@ float
	.loc 1 92 0
	add	sp, sp, #12
	@ sp needed
	ldr	pc, [sp], #4
	.cfi_endproc
.LFE16:
	.size	_ZN6b2Vec2mIERKS_, .-_ZN6b2Vec2mIERKS_
	.global	__aeabi_fmul
	.section	.text._ZNK6b2Vec26LengthEv,"axG",%progbits,_ZNK6b2Vec26LengthEv,comdat
	.align	2
	.weak	_ZNK6b2Vec26LengthEv
	.hidden	_ZNK6b2Vec26LengthEv
	.type	_ZNK6b2Vec26LengthEv, %function
_ZNK6b2Vec26LengthEv:
.LFB18:
	.loc 1 101 0
	.cfi_startproc
	@ args = 0, pretend = 0, frame = 8
	@ frame_needed = 0, uses_anonymous_args = 0
	stmfd	sp!, {r4, lr}
.LCFI9:
	.cfi_def_cfa_offset 8
	.cfi_offset 4, -8
	.cfi_offset 14, -4
	sub	sp, sp, #8
.LCFI10:
	.cfi_def_cfa_offset 16
	str	r0, [sp, #4]
	.loc 1 103 0
	ldr	r3, [sp, #4]
	ldr	r2, [r3]	@ float
	ldr	r3, [sp, #4]
	ldr	r3, [r3]	@ float
	mov	r0, r2
	mov	r1, r3
	bl	__aeabi_fmul(PLT)
	mov	r3, r0
	mov	r4, r3
	ldr	r3, [sp, #4]
	ldr	r2, [r3, #4]	@ float
	ldr	r3, [sp, #4]
	ldr	r3, [r3, #4]	@ float
	mov	r0, r2
	mov	r1, r3
	bl	__aeabi_fmul(PLT)
	mov	r3, r0
	mov	r0, r4
	mov	r1, r3
	bl	__aeabi_fadd(PLT)
	mov	r3, r0
	mov	r0, r3
	bl	sqrtf(PLT)
	mov	r3, r0
	.loc 1 104 0
	mov	r0, r3
	add	sp, sp, #8
	@ sp needed
	ldmfd	sp!, {r4, pc}
	.cfi_endproc
.LFE18:
	.size	_ZNK6b2Vec26LengthEv, .-_ZNK6b2Vec26LengthEv
	.section	.text._ZN6b2Vec3C2Ev,"axG",%progbits,_ZN6b2Vec3C5Ev,comdat
	.align	2
	.weak	_ZN6b2Vec3C2Ev
	.hidden	_ZN6b2Vec3C2Ev
	.type	_ZN6b2Vec3C2Ev, %function
_ZN6b2Vec3C2Ev:
.LFB24:
	.loc 1 147 0
	.cfi_startproc
	@ args = 0, pretend = 0, frame = 8
	@ frame_needed = 0, uses_anonymous_args = 0
	@ link register save eliminated.
	sub	sp, sp, #8
.LCFI11:
	.cfi_def_cfa_offset 8
	str	r0, [sp, #4]
	.loc 1 147 0
	ldr	r3, [sp, #4]
	mov	r0, r3
	add	sp, sp, #8
	@ sp needed
	bx	lr
	.cfi_endproc
.LFE24:
	.size	_ZN6b2Vec3C2Ev, .-_ZN6b2Vec3C2Ev
	.weak	_ZN6b2Vec3C1Ev
	.hidden	_ZN6b2Vec3C1Ev
	.set	_ZN6b2Vec3C1Ev,_ZN6b2Vec3C2Ev
	.section	.text._ZN6b2Vec3C2Efff,"axG",%progbits,_ZN6b2Vec3C5Efff,comdat
	.align	2
	.weak	_ZN6b2Vec3C2Efff
	.hidden	_ZN6b2Vec3C2Efff
	.type	_ZN6b2Vec3C2Efff, %function
_ZN6b2Vec3C2Efff:
.LFB27:
	.loc 1 150 0
	.cfi_startproc
	@ args = 0, pretend = 0, frame = 16
	@ frame_needed = 0, uses_anonymous_args = 0
	@ link register save eliminated.
	sub	sp, sp, #16
.LCFI12:
	.cfi_def_cfa_offset 16
	str	r0, [sp, #12]
	str	r1, [sp, #8]	@ float
	str	r2, [sp, #4]	@ float
	str	r3, [sp]	@ float
.LBB4:
	.loc 1 150 0
	ldr	r3, [sp, #12]
	ldr	r2, [sp, #8]	@ float
	str	r2, [r3]	@ float
	ldr	r3, [sp, #12]
	ldr	r2, [sp, #4]	@ float
	str	r2, [r3, #4]	@ float
	ldr	r3, [sp, #12]
	ldr	r2, [sp]	@ float
	str	r2, [r3, #8]	@ float
.LBE4:
	ldr	r3, [sp, #12]
	mov	r0, r3
	add	sp, sp, #16
	@ sp needed
	bx	lr
	.cfi_endproc
.LFE27:
	.size	_ZN6b2Vec3C2Efff, .-_ZN6b2Vec3C2Efff
	.weak	_ZN6b2Vec3C1Efff
	.hidden	_ZN6b2Vec3C1Efff
	.set	_ZN6b2Vec3C1Efff,_ZN6b2Vec3C2Efff
	.section	.text._ZN6b2Vec37SetZeroEv,"axG",%progbits,_ZN6b2Vec37SetZeroEv,comdat
	.align	2
	.weak	_ZN6b2Vec37SetZeroEv
	.hidden	_ZN6b2Vec37SetZeroEv
	.type	_ZN6b2Vec37SetZeroEv, %function
_ZN6b2Vec37SetZeroEv:
.LFB29:
	.loc 1 153 0
	.cfi_startproc
	@ args = 0, pretend = 0, frame = 8
	@ frame_needed = 0, uses_anonymous_args = 0
	@ link register save eliminated.
	sub	sp, sp, #8
.LCFI13:
	.cfi_def_cfa_offset 8
	str	r0, [sp, #4]
	.loc 1 153 0
	ldr	r3, [sp, #4]
	mov	r2, #0
	str	r2, [r3]	@ float
	ldr	r3, [sp, #4]
	mov	r2, #0
	str	r2, [r3, #4]	@ float
	ldr	r3, [sp, #4]
	mov	r2, #0
	str	r2, [r3, #8]	@ float
	add	sp, sp, #8
	@ sp needed
	bx	lr
	.cfi_endproc
.LFE29:
	.size	_ZN6b2Vec37SetZeroEv, .-_ZN6b2Vec37SetZeroEv
	.section	.text._ZN6b2Vec33SetEfff,"axG",%progbits,_ZN6b2Vec33SetEfff,comdat
	.align	2
	.weak	_ZN6b2Vec33SetEfff
	.hidden	_ZN6b2Vec33SetEfff
	.type	_ZN6b2Vec33SetEfff, %function
_ZN6b2Vec33SetEfff:
.LFB30:
	.loc 1 156 0
	.cfi_startproc
	@ args = 0, pretend = 0, frame = 16
	@ frame_needed = 0, uses_anonymous_args = 0
	@ link register save eliminated.
	sub	sp, sp, #16
.LCFI14:
	.cfi_def_cfa_offset 16
	str	r0, [sp, #12]
	str	r1, [sp, #8]	@ float
	str	r2, [sp, #4]	@ float
	str	r3, [sp]	@ float
	.loc 1 156 0
	ldr	r3, [sp, #12]
	ldr	r2, [sp, #8]	@ float
	str	r2, [r3]	@ float
	ldr	r3, [sp, #12]
	ldr	r2, [sp, #4]	@ float
	str	r2, [r3, #4]	@ float
	ldr	r3, [sp, #12]
	ldr	r2, [sp]	@ float
	str	r2, [r3, #8]	@ float
	add	sp, sp, #16
	@ sp needed
	bx	lr
	.cfi_endproc
.LFE30:
	.size	_ZN6b2Vec33SetEfff, .-_ZN6b2Vec33SetEfff
	.section	.text._ZNK6b2Vec3ngEv,"axG",%progbits,_ZNK6b2Vec3ngEv,comdat
	.align	2
	.weak	_ZNK6b2Vec3ngEv
	.hidden	_ZNK6b2Vec3ngEv
	.type	_ZNK6b2Vec3ngEv, %function
_ZNK6b2Vec3ngEv:
.LFB31:
	.loc 1 159 0
	.cfi_startproc
	@ args = 0, pretend = 0, frame = 8
	@ frame_needed = 0, uses_anonymous_args = 0
	str	lr, [sp, #-4]!
.LCFI15:
	.cfi_def_cfa_offset 4
	.cfi_offset 14, -4
	sub	sp, sp, #12
.LCFI16:
	.cfi_def_cfa_offset 16
	str	r0, [sp, #4]
	str	r1, [sp]
.LBB5:
	.loc 1 159 0
	ldr	r0, [sp, #4]
	bl	_ZN6b2Vec3C1Ev(PLT)
	ldr	r3, [sp]
	ldr	r3, [r3]	@ float
	eor	r1, r3, #-2147483648
	ldr	r3, [sp]
	ldr	r3, [r3, #4]	@ float
	eor	r2, r3, #-2147483648
	ldr	r3, [sp]
	ldr	r3, [r3, #8]	@ float
	eor	r3, r3, #-2147483648
	ldr	r0, [sp, #4]
	bl	_ZN6b2Vec33SetEfff(PLT)
	mov	r0, r0	@ nop
.LBE5:
	ldr	r0, [sp, #4]
	add	sp, sp, #12
	@ sp needed
	ldr	pc, [sp], #4
	.cfi_endproc
.LFE31:
	.size	_ZNK6b2Vec3ngEv, .-_ZNK6b2Vec3ngEv
	.section	.text._ZN6b2Vec3pLERKS_,"axG",%progbits,_ZN6b2Vec3pLERKS_,comdat
	.align	2
	.weak	_ZN6b2Vec3pLERKS_
	.hidden	_ZN6b2Vec3pLERKS_
	.type	_ZN6b2Vec3pLERKS_, %function
_ZN6b2Vec3pLERKS_:
.LFB32:
	.loc 1 162 0
	.cfi_startproc
	@ args = 0, pretend = 0, frame = 8
	@ frame_needed = 0, uses_anonymous_args = 0
	str	lr, [sp, #-4]!
.LCFI17:
	.cfi_def_cfa_offset 4
	.cfi_offset 14, -4
	sub	sp, sp, #12
.LCFI18:
	.cfi_def_cfa_offset 16
	str	r0, [sp, #4]
	str	r1, [sp]
	.loc 1 164 0
	ldr	r3, [sp, #4]
	ldr	r2, [r3]	@ float
	ldr	r3, [sp]
	ldr	r3, [r3]	@ float
	mov	r0, r2
	mov	r1, r3
	bl	__aeabi_fadd(PLT)
	mov	r3, r0
	mov	r2, r3
	ldr	r3, [sp, #4]
	str	r2, [r3]	@ float
	ldr	r3, [sp, #4]
	ldr	r2, [r3, #4]	@ float
	ldr	r3, [sp]
	ldr	r3, [r3, #4]	@ float
	mov	r0, r2
	mov	r1, r3
	bl	__aeabi_fadd(PLT)
	mov	r3, r0
	mov	r2, r3
	ldr	r3, [sp, #4]
	str	r2, [r3, #4]	@ float
	ldr	r3, [sp, #4]
	ldr	r2, [r3, #8]	@ float
	ldr	r3, [sp]
	ldr	r3, [r3, #8]	@ float
	mov	r0, r2
	mov	r1, r3
	bl	__aeabi_fadd(PLT)
	mov	r3, r0
	mov	r2, r3
	ldr	r3, [sp, #4]
	str	r2, [r3, #8]	@ float
	.loc 1 165 0
	add	sp, sp, #12
	@ sp needed
	ldr	pc, [sp], #4
	.cfi_endproc
.LFE32:
	.size	_ZN6b2Vec3pLERKS_, .-_ZN6b2Vec3pLERKS_
	.section	.text._ZN6b2Vec3mLEf,"axG",%progbits,_ZN6b2Vec3mLEf,comdat
	.align	2
	.weak	_ZN6b2Vec3mLEf
	.hidden	_ZN6b2Vec3mLEf
	.type	_ZN6b2Vec3mLEf, %function
_ZN6b2Vec3mLEf:
.LFB34:
	.loc 1 174 0
	.cfi_startproc
	@ args = 0, pretend = 0, frame = 8
	@ frame_needed = 0, uses_anonymous_args = 0
	str	lr, [sp, #-4]!
.LCFI19:
	.cfi_def_cfa_offset 4
	.cfi_offset 14, -4
	sub	sp, sp, #12
.LCFI20:
	.cfi_def_cfa_offset 16
	str	r0, [sp, #4]
	str	r1, [sp]	@ float
	.loc 1 176 0
	ldr	r3, [sp, #4]
	ldr	r3, [r3]	@ float
	mov	r0, r3
	ldr	r1, [sp]	@ float
	bl	__aeabi_fmul(PLT)
	mov	r3, r0
	mov	r2, r3
	ldr	r3, [sp, #4]
	str	r2, [r3]	@ float
	ldr	r3, [sp, #4]
	ldr	r3, [r3, #4]	@ float
	mov	r0, r3
	ldr	r1, [sp]	@ float
	bl	__aeabi_fmul(PLT)
	mov	r3, r0
	mov	r2, r3
	ldr	r3, [sp, #4]
	str	r2, [r3, #4]	@ float
	ldr	r3, [sp, #4]
	ldr	r3, [r3, #8]	@ float
	mov	r0, r3
	ldr	r1, [sp]	@ float
	bl	__aeabi_fmul(PLT)
	mov	r3, r0
	mov	r2, r3
	ldr	r3, [sp, #4]
	str	r2, [r3, #8]	@ float
	.loc 1 177 0
	add	sp, sp, #12
	@ sp needed
	ldr	pc, [sp], #4
	.cfi_endproc
.LFE34:
	.size	_ZN6b2Vec3mLEf, .-_ZN6b2Vec3mLEf
	.section	.text._ZN7b2Mat33C2Ev,"axG",%progbits,_ZN7b2Mat33C5Ev,comdat
	.align	2
	.weak	_ZN7b2Mat33C2Ev
	.hidden	_ZN7b2Mat33C2Ev
	.type	_ZN7b2Mat33C2Ev, %function
_ZN7b2Mat33C2Ev:
.LFB50:
	.loc 1 260 0
	.cfi_startproc
	@ args = 0, pretend = 0, frame = 8
	@ frame_needed = 0, uses_anonymous_args = 0
	str	lr, [sp, #-4]!
.LCFI21:
	.cfi_def_cfa_offset 4
	.cfi_offset 14, -4
	sub	sp, sp, #12
.LCFI22:
	.cfi_def_cfa_offset 16
	str	r0, [sp, #4]
.LBB6:
	.loc 1 260 0
	ldr	r3, [sp, #4]
	mov	r0, r3
	bl	_ZN6b2Vec3C1Ev(PLT)
	ldr	r3, [sp, #4]
	add	r3, r3, #12
	mov	r0, r3
	bl	_ZN6b2Vec3C1Ev(PLT)
	ldr	r3, [sp, #4]
	add	r3, r3, #24
	mov	r0, r3
	bl	_ZN6b2Vec3C1Ev(PLT)
.LBE6:
	ldr	r3, [sp, #4]
	mov	r0, r3
	add	sp, sp, #12
	@ sp needed
	ldr	pc, [sp], #4
	.cfi_endproc
.LFE50:
	.size	_ZN7b2Mat33C2Ev, .-_ZN7b2Mat33C2Ev
	.weak	_ZN7b2Mat33C1Ev
	.hidden	_ZN7b2Mat33C1Ev
	.set	_ZN7b2Mat33C1Ev,_ZN7b2Mat33C2Ev
	.section	.text._ZN5b2RotC2Ef,"axG",%progbits,_ZN5b2RotC5Ef,comdat
	.align	2
	.weak	_ZN5b2RotC2Ef
	.hidden	_ZN5b2RotC2Ef
	.type	_ZN5b2RotC2Ef, %function
_ZN5b2RotC2Ef:
.LFB60:
	.loc 1 304 0
	.cfi_startproc
	@ args = 0, pretend = 0, frame = 8
	@ frame_needed = 0, uses_anonymous_args = 0
	str	lr, [sp, #-4]!
.LCFI23:
	.cfi_def_cfa_offset 4
	.cfi_offset 14, -4
	sub	sp, sp, #12
.LCFI24:
	.cfi_def_cfa_offset 16
	str	r0, [sp, #4]
	str	r1, [sp]	@ float
.LBB7:
	.loc 1 307 0
	ldr	r0, [sp]	@ float
	bl	sinf(PLT)
	mov	r2, r0
	ldr	r3, [sp, #4]
	str	r2, [r3]	@ float
	.loc 1 308 0
	ldr	r0, [sp]	@ float
	bl	cosf(PLT)
	mov	r2, r0
	ldr	r3, [sp, #4]
	str	r2, [r3, #4]	@ float
.LBE7:
	.loc 1 309 0
	ldr	r3, [sp, #4]
	mov	r0, r3
	add	sp, sp, #12
	@ sp needed
	ldr	pc, [sp], #4
	.cfi_endproc
.LFE60:
	.size	_ZN5b2RotC2Ef, .-_ZN5b2RotC2Ef
	.weak	_ZN5b2RotC1Ef
	.hidden	_ZN5b2RotC1Ef
	.set	_ZN5b2RotC1Ef,_ZN5b2RotC2Ef
	.section	.text._Z7b2CrossRK6b2Vec2S1_,"axG",%progbits,_Z7b2CrossRK6b2Vec2S1_,comdat
	.align	2
	.weak	_Z7b2CrossRK6b2Vec2S1_
	.hidden	_Z7b2CrossRK6b2Vec2S1_
	.type	_Z7b2CrossRK6b2Vec2S1_, %function
_Z7b2CrossRK6b2Vec2S1_:
.LFB76:
	.loc 1 413 0
	.cfi_startproc
	@ args = 0, pretend = 0, frame = 8
	@ frame_needed = 0, uses_anonymous_args = 0
	stmfd	sp!, {r4, lr}
.LCFI25:
	.cfi_def_cfa_offset 8
	.cfi_offset 4, -8
	.cfi_offset 14, -4
	sub	sp, sp, #8
.LCFI26:
	.cfi_def_cfa_offset 16
	str	r0, [sp, #4]
	str	r1, [sp]
	.loc 1 414 0
	ldr	r3, [sp, #4]
	ldr	r2, [r3]	@ float
	ldr	r3, [sp]
	ldr	r3, [r3, #4]	@ float
	mov	r0, r2
	mov	r1, r3
	bl	__aeabi_fmul(PLT)
	mov	r3, r0
	mov	r4, r3
	ldr	r3, [sp, #4]
	ldr	r2, [r3, #4]	@ float
	ldr	r3, [sp]
	ldr	r3, [r3]	@ float
	mov	r0, r2
	mov	r1, r3
	bl	__aeabi_fmul(PLT)
	mov	r3, r0
	mov	r0, r4
	mov	r1, r3
	bl	__aeabi_fsub(PLT)
	mov	r3, r0
	.loc 1 415 0
	mov	r0, r3
	add	sp, sp, #8
	@ sp needed
	ldmfd	sp!, {r4, pc}
	.cfi_endproc
.LFE76:
	.size	_Z7b2CrossRK6b2Vec2S1_, .-_Z7b2CrossRK6b2Vec2S1_
	.section	.text._Z7b2CrossfRK6b2Vec2,"axG",%progbits,_Z7b2CrossfRK6b2Vec2,comdat
	.align	2
	.weak	_Z7b2CrossfRK6b2Vec2
	.hidden	_Z7b2CrossfRK6b2Vec2
	.type	_Z7b2CrossfRK6b2Vec2, %function
_Z7b2CrossfRK6b2Vec2:
.LFB78:
	.loc 1 427 0
	.cfi_startproc
	@ args = 0, pretend = 0, frame = 16
	@ frame_needed = 0, uses_anonymous_args = 0
	stmfd	sp!, {r4, lr}
.LCFI27:
	.cfi_def_cfa_offset 8
	.cfi_offset 4, -8
	.cfi_offset 14, -4
	sub	sp, sp, #16
.LCFI28:
	.cfi_def_cfa_offset 24
	str	r0, [sp, #12]
	str	r1, [sp, #8]	@ float
	str	r2, [sp, #4]
	.loc 1 428 0
	ldr	r3, [sp, #8]
	eor	r2, r3, #-2147483648
	ldr	r3, [sp, #4]
	ldr	r3, [r3, #4]	@ float
	mov	r0, r2
	mov	r1, r3
	bl	__aeabi_fmul(PLT)
	mov	r3, r0
	mov	r4, r3
	ldr	r3, [sp, #4]
	ldr	r3, [r3]	@ float
	mov	r0, r3
	ldr	r1, [sp, #8]	@ float
	bl	__aeabi_fmul(PLT)
	mov	r3, r0
	ldr	r0, [sp, #12]
	mov	r1, r4
	mov	r2, r3
	bl	_ZN6b2Vec2C1Eff(PLT)
	.loc 1 429 0
	ldr	r0, [sp, #12]
	add	sp, sp, #16
	@ sp needed
	ldmfd	sp!, {r4, pc}
	.cfi_endproc
.LFE78:
	.size	_Z7b2CrossfRK6b2Vec2, .-_Z7b2CrossfRK6b2Vec2
	.section	.text._ZplRK6b2Vec2S1_,"axG",%progbits,_ZplRK6b2Vec2S1_,comdat
	.align	2
	.weak	_ZplRK6b2Vec2S1_
	.hidden	_ZplRK6b2Vec2S1_
	.type	_ZplRK6b2Vec2S1_, %function
_ZplRK6b2Vec2S1_:
.LFB81:
	.loc 1 447 0
	.cfi_startproc
	@ args = 0, pretend = 0, frame = 16
	@ frame_needed = 0, uses_anonymous_args = 0
	stmfd	sp!, {r4, lr}
.LCFI29:
	.cfi_def_cfa_offset 8
	.cfi_offset 4, -8
	.cfi_offset 14, -4
	sub	sp, sp, #16
.LCFI30:
	.cfi_def_cfa_offset 24
	str	r0, [sp, #12]
	str	r1, [sp, #8]
	str	r2, [sp, #4]
	.loc 1 448 0
	ldr	r3, [sp, #8]
	ldr	r2, [r3]	@ float
	ldr	r3, [sp, #4]
	ldr	r3, [r3]	@ float
	mov	r0, r2
	mov	r1, r3
	bl	__aeabi_fadd(PLT)
	mov	r3, r0
	mov	r4, r3
	ldr	r3, [sp, #8]
	ldr	r2, [r3, #4]	@ float
	ldr	r3, [sp, #4]
	ldr	r3, [r3, #4]	@ float
	mov	r0, r2
	mov	r1, r3
	bl	__aeabi_fadd(PLT)
	mov	r3, r0
	ldr	r0, [sp, #12]
	mov	r1, r4
	mov	r2, r3
	bl	_ZN6b2Vec2C1Eff(PLT)
	.loc 1 449 0
	ldr	r0, [sp, #12]
	add	sp, sp, #16
	@ sp needed
	ldmfd	sp!, {r4, pc}
	.cfi_endproc
.LFE81:
	.size	_ZplRK6b2Vec2S1_, .-_ZplRK6b2Vec2S1_
	.section	.text._ZmiRK6b2Vec2S1_,"axG",%progbits,_ZmiRK6b2Vec2S1_,comdat
	.align	2
	.weak	_ZmiRK6b2Vec2S1_
	.hidden	_ZmiRK6b2Vec2S1_
	.type	_ZmiRK6b2Vec2S1_, %function
_ZmiRK6b2Vec2S1_:
.LFB82:
	.loc 1 453 0
	.cfi_startproc
	@ args = 0, pretend = 0, frame = 16
	@ frame_needed = 0, uses_anonymous_args = 0
	stmfd	sp!, {r4, lr}
.LCFI31:
	.cfi_def_cfa_offset 8
	.cfi_offset 4, -8
	.cfi_offset 14, -4
	sub	sp, sp, #16
.LCFI32:
	.cfi_def_cfa_offset 24
	str	r0, [sp, #12]
	str	r1, [sp, #8]
	str	r2, [sp, #4]
	.loc 1 454 0
	ldr	r3, [sp, #8]
	ldr	r2, [r3]	@ float
	ldr	r3, [sp, #4]
	ldr	r3, [r3]	@ float
	mov	r0, r2
	mov	r1, r3
	bl	__aeabi_fsub(PLT)
	mov	r3, r0
	mov	r4, r3
	ldr	r3, [sp, #8]
	ldr	r2, [r3, #4]	@ float
	ldr	r3, [sp, #4]
	ldr	r3, [r3, #4]	@ float
	mov	r0, r2
	mov	r1, r3
	bl	__aeabi_fsub(PLT)
	mov	r3, r0
	ldr	r0, [sp, #12]
	mov	r1, r4
	mov	r2, r3
	bl	_ZN6b2Vec2C1Eff(PLT)
	.loc 1 455 0
	ldr	r0, [sp, #12]
	add	sp, sp, #16
	@ sp needed
	ldmfd	sp!, {r4, pc}
	.cfi_endproc
.LFE82:
	.size	_ZmiRK6b2Vec2S1_, .-_ZmiRK6b2Vec2S1_
	.section	.text._ZmlfRK6b2Vec2,"axG",%progbits,_ZmlfRK6b2Vec2,comdat
	.align	2
	.weak	_ZmlfRK6b2Vec2
	.hidden	_ZmlfRK6b2Vec2
	.type	_ZmlfRK6b2Vec2, %function
_ZmlfRK6b2Vec2:
.LFB83:
	.loc 1 458 0
	.cfi_startproc
	@ args = 0, pretend = 0, frame = 16
	@ frame_needed = 0, uses_anonymous_args = 0
	stmfd	sp!, {r4, lr}
.LCFI33:
	.cfi_def_cfa_offset 8
	.cfi_offset 4, -8
	.cfi_offset 14, -4
	sub	sp, sp, #16
.LCFI34:
	.cfi_def_cfa_offset 24
	str	r0, [sp, #12]
	str	r1, [sp, #8]	@ float
	str	r2, [sp, #4]
	.loc 1 459 0
	ldr	r3, [sp, #4]
	ldr	r3, [r3]	@ float
	mov	r0, r3
	ldr	r1, [sp, #8]	@ float
	bl	__aeabi_fmul(PLT)
	mov	r3, r0
	mov	r4, r3
	ldr	r3, [sp, #4]
	ldr	r3, [r3, #4]	@ float
	mov	r0, r3
	ldr	r1, [sp, #8]	@ float
	bl	__aeabi_fmul(PLT)
	mov	r3, r0
	ldr	r0, [sp, #12]
	mov	r1, r4
	mov	r2, r3
	bl	_ZN6b2Vec2C1Eff(PLT)
	.loc 1 460 0
	ldr	r0, [sp, #12]
	add	sp, sp, #16
	@ sp needed
	ldmfd	sp!, {r4, pc}
	.cfi_endproc
.LFE83:
	.size	_ZmlfRK6b2Vec2, .-_ZmlfRK6b2Vec2
	.section	.text._ZmlfRK6b2Vec3,"axG",%progbits,_ZmlfRK6b2Vec3,comdat
	.align	2
	.weak	_ZmlfRK6b2Vec3
	.hidden	_ZmlfRK6b2Vec3
	.type	_ZmlfRK6b2Vec3, %function
_ZmlfRK6b2Vec3:
.LFB87:
	.loc 1 480 0
	.cfi_startproc
	@ args = 0, pretend = 0, frame = 16
	@ frame_needed = 0, uses_anonymous_args = 0
	stmfd	sp!, {r4, r5, lr}
.LCFI35:
	.cfi_def_cfa_offset 12
	.cfi_offset 4, -12
	.cfi_offset 5, -8
	.cfi_offset 14, -4
	sub	sp, sp, #20
.LCFI36:
	.cfi_def_cfa_offset 32
	str	r0, [sp, #12]
	str	r1, [sp, #8]	@ float
	str	r2, [sp, #4]
	.loc 1 481 0
	ldr	r3, [sp, #4]
	ldr	r3, [r3]	@ float
	mov	r0, r3
	ldr	r1, [sp, #8]	@ float
	bl	__aeabi_fmul(PLT)
	mov	r3, r0
	mov	r5, r3
	ldr	r3, [sp, #4]
	ldr	r3, [r3, #4]	@ float
	mov	r0, r3
	ldr	r1, [sp, #8]	@ float
	bl	__aeabi_fmul(PLT)
	mov	r3, r0
	mov	r4, r3
	ldr	r3, [sp, #4]
	ldr	r3, [r3, #8]	@ float
	mov	r0, r3
	ldr	r1, [sp, #8]	@ float
	bl	__aeabi_fmul(PLT)
	mov	r3, r0
	ldr	r0, [sp, #12]
	mov	r1, r5
	mov	r2, r4
	bl	_ZN6b2Vec3C1Efff(PLT)
	.loc 1 482 0
	ldr	r0, [sp, #12]
	add	sp, sp, #20
	@ sp needed
	ldmfd	sp!, {r4, r5, pc}
	.cfi_endproc
.LFE87:
	.size	_ZmlfRK6b2Vec3, .-_ZmlfRK6b2Vec3
	.section	.text._ZplRK6b2Vec3S1_,"axG",%progbits,_ZplRK6b2Vec3S1_,comdat
	.align	2
	.weak	_ZplRK6b2Vec3S1_
	.hidden	_ZplRK6b2Vec3S1_
	.type	_ZplRK6b2Vec3S1_, %function
_ZplRK6b2Vec3S1_:
.LFB88:
	.loc 1 486 0
	.cfi_startproc
	@ args = 0, pretend = 0, frame = 16
	@ frame_needed = 0, uses_anonymous_args = 0
	stmfd	sp!, {r4, r5, lr}
.LCFI37:
	.cfi_def_cfa_offset 12
	.cfi_offset 4, -12
	.cfi_offset 5, -8
	.cfi_offset 14, -4
	sub	sp, sp, #20
.LCFI38:
	.cfi_def_cfa_offset 32
	str	r0, [sp, #12]
	str	r1, [sp, #8]
	str	r2, [sp, #4]
	.loc 1 487 0
	ldr	r3, [sp, #8]
	ldr	r2, [r3]	@ float
	ldr	r3, [sp, #4]
	ldr	r3, [r3]	@ float
	mov	r0, r2
	mov	r1, r3
	bl	__aeabi_fadd(PLT)
	mov	r3, r0
	mov	r5, r3
	ldr	r3, [sp, #8]
	ldr	r2, [r3, #4]	@ float
	ldr	r3, [sp, #4]
	ldr	r3, [r3, #4]	@ float
	mov	r0, r2
	mov	r1, r3
	bl	__aeabi_fadd(PLT)
	mov	r3, r0
	mov	r4, r3
	ldr	r3, [sp, #8]
	ldr	r2, [r3, #8]	@ float
	ldr	r3, [sp, #4]
	ldr	r3, [r3, #8]	@ float
	mov	r0, r2
	mov	r1, r3
	bl	__aeabi_fadd(PLT)
	mov	r3, r0
	ldr	r0, [sp, #12]
	mov	r1, r5
	mov	r2, r4
	bl	_ZN6b2Vec3C1Efff(PLT)
	.loc 1 488 0
	ldr	r0, [sp, #12]
	add	sp, sp, #20
	@ sp needed
	ldmfd	sp!, {r4, r5, pc}
	.cfi_endproc
.LFE88:
	.size	_ZplRK6b2Vec3S1_, .-_ZplRK6b2Vec3S1_
	.section	.text._Z5b2MulRK7b2Mat33RK6b2Vec3,"axG",%progbits,_Z5b2MulRK7b2Mat33RK6b2Vec3,comdat
	.align	2
	.weak	_Z5b2MulRK7b2Mat33RK6b2Vec3
	.hidden	_Z5b2MulRK7b2Mat33RK6b2Vec3
	.type	_Z5b2MulRK7b2Mat33RK6b2Vec3, %function
_Z5b2MulRK7b2Mat33RK6b2Vec3:
.LFB95:
	.loc 1 529 0
	.cfi_startproc
	@ args = 0, pretend = 0, frame = 64
	@ frame_needed = 0, uses_anonymous_args = 0
	str	lr, [sp, #-4]!
.LCFI39:
	.cfi_def_cfa_offset 4
	.cfi_offset 14, -4
	sub	sp, sp, #68
.LCFI40:
	.cfi_def_cfa_offset 72
	str	r0, [sp, #12]
	str	r1, [sp, #8]
	str	r2, [sp, #4]
	.loc 1 530 0
	ldr	r3, [sp, #4]
	ldr	r2, [r3]	@ float
	ldr	r3, [sp, #8]
	add	r1, sp, #28
	mov	r0, r1
	mov	r1, r2
	mov	r2, r3
	bl	_ZmlfRK6b2Vec3(PLT)
	ldr	r3, [sp, #4]
	ldr	r2, [r3, #4]	@ float
	ldr	r3, [sp, #8]
	add	r3, r3, #12
	add	r1, sp, #40
	mov	r0, r1
	mov	r1, r2
	mov	r2, r3
	bl	_ZmlfRK6b2Vec3(PLT)
	add	r1, sp, #16
	add	r2, sp, #28
	add	r3, sp, #40
	mov	r0, r1
	mov	r1, r2
	mov	r2, r3
	bl	_ZplRK6b2Vec3S1_(PLT)
	ldr	r3, [sp, #4]
	ldr	r2, [r3, #8]	@ float
	ldr	r3, [sp, #8]
	add	r3, r3, #24
	add	r1, sp, #52
	mov	r0, r1
	mov	r1, r2
	mov	r2, r3
	bl	_ZmlfRK6b2Vec3(PLT)
	ldr	r1, [sp, #12]
	add	r2, sp, #16
	add	r3, sp, #52
	mov	r0, r1
	mov	r1, r2
	mov	r2, r3
	bl	_ZplRK6b2Vec3S1_(PLT)
	.loc 1 531 0
	ldr	r0, [sp, #12]
	add	sp, sp, #68
	@ sp needed
	ldr	pc, [sp], #4
	.cfi_endproc
.LFE95:
	.size	_Z5b2MulRK7b2Mat33RK6b2Vec3, .-_Z5b2MulRK7b2Mat33RK6b2Vec3
	.section	.text._Z7b2Mul22RK7b2Mat33RK6b2Vec2,"axG",%progbits,_Z7b2Mul22RK7b2Mat33RK6b2Vec2,comdat
	.align	2
	.weak	_Z7b2Mul22RK7b2Mat33RK6b2Vec2
	.hidden	_Z7b2Mul22RK7b2Mat33RK6b2Vec2
	.type	_Z7b2Mul22RK7b2Mat33RK6b2Vec2, %function
_Z7b2Mul22RK7b2Mat33RK6b2Vec2:
.LFB96:
	.loc 1 535 0
	.cfi_startproc
	@ args = 0, pretend = 0, frame = 16
	@ frame_needed = 0, uses_anonymous_args = 0
	stmfd	sp!, {r4, r5, lr}
.LCFI41:
	.cfi_def_cfa_offset 12
	.cfi_offset 4, -12
	.cfi_offset 5, -8
	.cfi_offset 14, -4
	sub	sp, sp, #20
.LCFI42:
	.cfi_def_cfa_offset 32
	str	r0, [sp, #12]
	str	r1, [sp, #8]
	str	r2, [sp, #4]
	.loc 1 536 0
	ldr	r3, [sp, #8]
	ldr	r2, [r3]	@ float
	ldr	r3, [sp, #4]
	ldr	r3, [r3]	@ float
	mov	r0, r2
	mov	r1, r3
	bl	__aeabi_fmul(PLT)
	mov	r3, r0
	mov	r4, r3
	ldr	r3, [sp, #8]
	ldr	r2, [r3, #12]	@ float
	ldr	r3, [sp, #4]
	ldr	r3, [r3, #4]	@ float
	mov	r0, r2
	mov	r1, r3
	bl	__aeabi_fmul(PLT)
	mov	r3, r0
	mov	r0, r4
	mov	r1, r3
	bl	__aeabi_fadd(PLT)
	mov	r3, r0
	mov	r4, r3
	ldr	r3, [sp, #8]
	ldr	r2, [r3, #4]	@ float
	ldr	r3, [sp, #4]
	ldr	r3, [r3]	@ float
	mov	r0, r2
	mov	r1, r3
	bl	__aeabi_fmul(PLT)
	mov	r3, r0
	mov	r5, r3
	ldr	r3, [sp, #8]
	ldr	r2, [r3, #16]	@ float
	ldr	r3, [sp, #4]
	ldr	r3, [r3, #4]	@ float
	mov	r0, r2
	mov	r1, r3
	bl	__aeabi_fmul(PLT)
	mov	r3, r0
	mov	r0, r5
	mov	r1, r3
	bl	__aeabi_fadd(PLT)
	mov	r3, r0
	ldr	r0, [sp, #12]
	mov	r1, r4
	mov	r2, r3
	bl	_ZN6b2Vec2C1Eff(PLT)
	.loc 1 537 0
	ldr	r0, [sp, #12]
	add	sp, sp, #20
	@ sp needed
	ldmfd	sp!, {r4, r5, pc}
	.cfi_endproc
.LFE96:
	.size	_Z7b2Mul22RK7b2Mat33RK6b2Vec2, .-_Z7b2Mul22RK7b2Mat33RK6b2Vec2
	.section	.text._Z5b2MulRK5b2RotRK6b2Vec2,"axG",%progbits,_Z5b2MulRK5b2RotRK6b2Vec2,comdat
	.align	2
	.weak	_Z5b2MulRK5b2RotRK6b2Vec2
	.hidden	_Z5b2MulRK5b2RotRK6b2Vec2
	.type	_Z5b2MulRK5b2RotRK6b2Vec2, %function
_Z5b2MulRK5b2RotRK6b2Vec2:
.LFB99:
	.loc 1 567 0
	.cfi_startproc
	@ args = 0, pretend = 0, frame = 16
	@ frame_needed = 0, uses_anonymous_args = 0
	stmfd	sp!, {r4, r5, lr}
.LCFI43:
	.cfi_def_cfa_offset 12
	.cfi_offset 4, -12
	.cfi_offset 5, -8
	.cfi_offset 14, -4
	sub	sp, sp, #20
.LCFI44:
	.cfi_def_cfa_offset 32
	str	r0, [sp, #12]
	str	r1, [sp, #8]
	str	r2, [sp, #4]
	.loc 1 568 0
	ldr	r3, [sp, #8]
	ldr	r2, [r3, #4]	@ float
	ldr	r3, [sp, #4]
	ldr	r3, [r3]	@ float
	mov	r0, r2
	mov	r1, r3
	bl	__aeabi_fmul(PLT)
	mov	r3, r0
	mov	r4, r3
	ldr	r3, [sp, #8]
	ldr	r2, [r3]	@ float
	ldr	r3, [sp, #4]
	ldr	r3, [r3, #4]	@ float
	mov	r0, r2
	mov	r1, r3
	bl	__aeabi_fmul(PLT)
	mov	r3, r0
	mov	r0, r4
	mov	r1, r3
	bl	__aeabi_fsub(PLT)
	mov	r3, r0
	mov	r4, r3
	ldr	r3, [sp, #8]
	ldr	r2, [r3]	@ float
	ldr	r3, [sp, #4]
	ldr	r3, [r3]	@ float
	mov	r0, r2
	mov	r1, r3
	bl	__aeabi_fmul(PLT)
	mov	r3, r0
	mov	r5, r3
	ldr	r3, [sp, #8]
	ldr	r2, [r3, #4]	@ float
	ldr	r3, [sp, #4]
	ldr	r3, [r3, #4]	@ float
	mov	r0, r2
	mov	r1, r3
	bl	__aeabi_fmul(PLT)
	mov	r3, r0
	mov	r0, r5
	mov	r1, r3
	bl	__aeabi_fadd(PLT)
	mov	r3, r0
	ldr	r0, [sp, #12]
	mov	r1, r4
	mov	r2, r3
	bl	_ZN6b2Vec2C1Eff(PLT)
	.loc 1 569 0
	ldr	r0, [sp, #12]
	add	sp, sp, #20
	@ sp needed
	ldmfd	sp!, {r4, r5, pc}
	.cfi_endproc
.LFE99:
	.size	_Z5b2MulRK5b2RotRK6b2Vec2, .-_Z5b2MulRK5b2RotRK6b2Vec2
	.section	.text._Z5b2MulRK11b2TransformRK6b2Vec2,"axG",%progbits,_Z5b2MulRK11b2TransformRK6b2Vec2,comdat
	.align	2
	.weak	_Z5b2MulRK11b2TransformRK6b2Vec2
	.hidden	_Z5b2MulRK11b2TransformRK6b2Vec2
	.type	_Z5b2MulRK11b2TransformRK6b2Vec2, %function
_Z5b2MulRK11b2TransformRK6b2Vec2:
.LFB101:
	.loc 1 578 0
	.cfi_startproc
	@ args = 0, pretend = 0, frame = 24
	@ frame_needed = 0, uses_anonymous_args = 0
	stmfd	sp!, {r4, lr}
.LCFI45:
	.cfi_def_cfa_offset 8
	.cfi_offset 4, -8
	.cfi_offset 14, -4
	sub	sp, sp, #24
.LCFI46:
	.cfi_def_cfa_offset 32
	str	r0, [sp, #12]
	str	r1, [sp, #8]
	str	r2, [sp, #4]
.LBB8:
	.loc 1 579 0
	ldr	r3, [sp, #8]
	ldr	r2, [r3, #12]	@ float
	ldr	r3, [sp, #4]
	ldr	r3, [r3]	@ float
	mov	r0, r2
	mov	r1, r3
	bl	__aeabi_fmul(PLT)
	mov	r3, r0
	mov	r4, r3
	ldr	r3, [sp, #8]
	ldr	r2, [r3, #8]	@ float
	ldr	r3, [sp, #4]
	ldr	r3, [r3, #4]	@ float
	mov	r0, r2
	mov	r1, r3
	bl	__aeabi_fmul(PLT)
	mov	r3, r0
	mov	r0, r4
	mov	r1, r3
	bl	__aeabi_fsub(PLT)
	mov	r3, r0
	mov	r2, r3
	ldr	r3, [sp, #8]
	ldr	r3, [r3]	@ float
	mov	r0, r2
	mov	r1, r3
	bl	__aeabi_fadd(PLT)
	mov	r3, r0
	str	r3, [sp, #20]	@ float
	.loc 1 580 0
	ldr	r3, [sp, #8]
	ldr	r2, [r3, #8]	@ float
	ldr	r3, [sp, #4]
	ldr	r3, [r3]	@ float
	mov	r0, r2
	mov	r1, r3
	bl	__aeabi_fmul(PLT)
	mov	r3, r0
	mov	r4, r3
	ldr	r3, [sp, #8]
	ldr	r2, [r3, #12]	@ float
	ldr	r3, [sp, #4]
	ldr	r3, [r3, #4]	@ float
	mov	r0, r2
	mov	r1, r3
	bl	__aeabi_fmul(PLT)
	mov	r3, r0
	mov	r0, r4
	mov	r1, r3
	bl	__aeabi_fadd(PLT)
	mov	r3, r0
	mov	r2, r3
	ldr	r3, [sp, #8]
	ldr	r3, [r3, #4]	@ float
	mov	r0, r2
	mov	r1, r3
	bl	__aeabi_fadd(PLT)
	mov	r3, r0
	str	r3, [sp, #16]	@ float
	.loc 1 582 0
	ldr	r0, [sp, #12]
	ldr	r1, [sp, #20]	@ float
	ldr	r2, [sp, #16]	@ float
	bl	_ZN6b2Vec2C1Eff(PLT)
.LBE8:
	.loc 1 583 0
	ldr	r0, [sp, #12]
	add	sp, sp, #24
	@ sp needed
	ldmfd	sp!, {r4, pc}
	.cfi_endproc
.LFE101:
	.size	_Z5b2MulRK11b2TransformRK6b2Vec2, .-_Z5b2MulRK11b2TransformRK6b2Vec2
	.section	.text._Z6b2MulTRK11b2TransformRK6b2Vec2,"axG",%progbits,_Z6b2MulTRK11b2TransformRK6b2Vec2,comdat
	.align	2
	.weak	_Z6b2MulTRK11b2TransformRK6b2Vec2
	.hidden	_Z6b2MulTRK11b2TransformRK6b2Vec2
	.type	_Z6b2MulTRK11b2TransformRK6b2Vec2, %function
_Z6b2MulTRK11b2TransformRK6b2Vec2:
.LFB102:
	.loc 1 586 0
	.cfi_startproc
	@ args = 0, pretend = 0, frame = 32
	@ frame_needed = 0, uses_anonymous_args = 0
	stmfd	sp!, {r4, lr}
.LCFI47:
	.cfi_def_cfa_offset 8
	.cfi_offset 4, -8
	.cfi_offset 14, -4
	sub	sp, sp, #32
.LCFI48:
	.cfi_def_cfa_offset 40
	str	r0, [sp, #12]
	str	r1, [sp, #8]
	str	r2, [sp, #4]
.LBB9:
	.loc 1 587 0
	ldr	r3, [sp, #4]
	ldr	r2, [r3]	@ float
	ldr	r3, [sp, #8]
	ldr	r3, [r3]	@ float
	mov	r0, r2
	mov	r1, r3
	bl	__aeabi_fsub(PLT)
	mov	r3, r0
	str	r3, [sp, #28]	@ float
	.loc 1 588 0
	ldr	r3, [sp, #4]
	ldr	r2, [r3, #4]	@ float
	ldr	r3, [sp, #8]
	ldr	r3, [r3, #4]	@ float
	mov	r0, r2
	mov	r1, r3
	bl	__aeabi_fsub(PLT)
	mov	r3, r0
	str	r3, [sp, #24]	@ float
	.loc 1 589 0
	ldr	r3, [sp, #8]
	ldr	r3, [r3, #12]	@ float
	mov	r0, r3
	ldr	r1, [sp, #28]	@ float
	bl	__aeabi_fmul(PLT)
	mov	r3, r0
	mov	r4, r3
	ldr	r3, [sp, #8]
	ldr	r3, [r3, #8]	@ float
	mov	r0, r3
	ldr	r1, [sp, #24]	@ float
	bl	__aeabi_fmul(PLT)
	mov	r3, r0
	mov	r0, r4
	mov	r1, r3
	bl	__aeabi_fadd(PLT)
	mov	r3, r0
	str	r3, [sp, #20]	@ float
	.loc 1 590 0
	ldr	r3, [sp, #8]
	ldr	r3, [r3, #8]	@ float
	eor	r3, r3, #-2147483648
	mov	r0, r3
	ldr	r1, [sp, #28]	@ float
	bl	__aeabi_fmul(PLT)
	mov	r3, r0
	mov	r4, r3
	ldr	r3, [sp, #8]
	ldr	r3, [r3, #12]	@ float
	mov	r0, r3
	ldr	r1, [sp, #24]	@ float
	bl	__aeabi_fmul(PLT)
	mov	r3, r0
	mov	r0, r4
	mov	r1, r3
	bl	__aeabi_fadd(PLT)
	mov	r3, r0
	str	r3, [sp, #16]	@ float
	.loc 1 592 0
	ldr	r0, [sp, #12]
	ldr	r1, [sp, #20]	@ float
	ldr	r2, [sp, #16]	@ float
	bl	_ZN6b2Vec2C1Eff(PLT)
.LBE9:
	.loc 1 593 0
	ldr	r0, [sp, #12]
	add	sp, sp, #32
	@ sp needed
	ldmfd	sp!, {r4, pc}
	.cfi_endproc
.LFE102:
	.size	_Z6b2MulTRK11b2TransformRK6b2Vec2, .-_Z6b2MulTRK11b2TransformRK6b2Vec2
	.section	.rodata
	.align	2
.LC0:
	.ascii	"// Dump is not supported for this joint type.\012\000"
	.section	.text._ZN7b2Joint4DumpEv,"axG",%progbits,_ZN7b2Joint4DumpEv,comdat
	.align	2
	.weak	_ZN7b2Joint4DumpEv
	.hidden	_ZN7b2Joint4DumpEv
	.type	_ZN7b2Joint4DumpEv, %function
_ZN7b2Joint4DumpEv:
.LFB123:
	.file 2 "c:/users/ben/desktop/fyp/finalyearproject/box2d/Box2D/Dynamics/Joints/b2Joint.h"
	.loc 2 147 0
	.cfi_startproc
	@ args = 0, pretend = 0, frame = 8
	@ frame_needed = 0, uses_anonymous_args = 0
	str	lr, [sp, #-4]!
.LCFI49:
	.cfi_def_cfa_offset 4
	.cfi_offset 14, -4
	sub	sp, sp, #12
.LCFI50:
	.cfi_def_cfa_offset 16
	str	r0, [sp, #4]
	.loc 2 147 0
	ldr	r3, .L57
.LPIC0:
	add	r3, pc, r3
	mov	r0, r3
	bl	_Z5b2LogPKcz(PLT)
	add	sp, sp, #12
	@ sp needed
	ldr	pc, [sp], #4
.L58:
	.align	2
.L57:
	.word	.LC0-(.LPIC0+8)
	.cfi_endproc
.LFE123:
	.size	_ZN7b2Joint4DumpEv, .-_ZN7b2Joint4DumpEv
	.section	.text._ZN7b2Joint11ShiftOriginERK6b2Vec2,"axG",%progbits,_ZN7b2Joint11ShiftOriginERK6b2Vec2,comdat
	.align	2
	.weak	_ZN7b2Joint11ShiftOriginERK6b2Vec2
	.hidden	_ZN7b2Joint11ShiftOriginERK6b2Vec2
	.type	_ZN7b2Joint11ShiftOriginERK6b2Vec2, %function
_ZN7b2Joint11ShiftOriginERK6b2Vec2:
.LFB124:
	.loc 2 150 0
	.cfi_startproc
	@ args = 0, pretend = 0, frame = 8
	@ frame_needed = 0, uses_anonymous_args = 0
	@ link register save eliminated.
	sub	sp, sp, #8
.LCFI51:
	.cfi_def_cfa_offset 8
	str	r0, [sp, #4]
	str	r1, [sp]
	.loc 2 150 0
	add	sp, sp, #8
	@ sp needed
	bx	lr
	.cfi_endproc
.LFE124:
	.size	_ZN7b2Joint11ShiftOriginERK6b2Vec2, .-_ZN7b2Joint11ShiftOriginERK6b2Vec2
	.section	.text._ZN7b2JointD2Ev,"axG",%progbits,_ZN7b2JointD5Ev,comdat
	.align	2
	.weak	_ZN7b2JointD2Ev
	.hidden	_ZN7b2JointD2Ev
	.type	_ZN7b2JointD2Ev, %function
_ZN7b2JointD2Ev:
.LFB126:
	.loc 2 162 0
	.cfi_startproc
	@ args = 0, pretend = 0, frame = 8
	@ frame_needed = 0, uses_anonymous_args = 0
	str	lr, [sp, #-4]!
.LCFI52:
	.cfi_def_cfa_offset 4
	.cfi_offset 14, -4
	sub	sp, sp, #12
.LCFI53:
	.cfi_def_cfa_offset 16
	str	r0, [sp, #4]
.LBB10:
	.loc 2 162 0
	ldr	r3, [sp, #4]
	ldr	r2, .L64
.LPIC1:
	add	r2, pc, r2
	add	r2, r2, #8
	str	r2, [r3]
.LBE10:
	mov	r3, #0
	cmp	r3, #0
	beq	.L62
	.loc 2 162 0 is_stmt 0 discriminator 1
	ldr	r0, [sp, #4]
	bl	_ZdlPv(PLT)
.L62:
	.loc 2 162 0 discriminator 2
	ldr	r3, [sp, #4]
	mov	r0, r3
	add	sp, sp, #12
	@ sp needed
	ldr	pc, [sp], #4
.L65:
	.align	2
.L64:
	.word	_ZTV7b2Joint-(.LPIC1+8)
	.cfi_endproc
.LFE126:
	.size	_ZN7b2JointD2Ev, .-_ZN7b2JointD2Ev
	.weak	_ZN7b2JointD1Ev
	.hidden	_ZN7b2JointD1Ev
	.set	_ZN7b2JointD1Ev,_ZN7b2JointD2Ev
	.section	.text._ZN7b2JointD0Ev,"axG",%progbits,_ZN7b2JointD0Ev,comdat
	.align	2
	.weak	_ZN7b2JointD0Ev
	.hidden	_ZN7b2JointD0Ev
	.type	_ZN7b2JointD0Ev, %function
_ZN7b2JointD0Ev:
.LFB128:
	.loc 2 162 0 is_stmt 1
	.cfi_startproc
	@ args = 0, pretend = 0, frame = 8
	@ frame_needed = 0, uses_anonymous_args = 0
	str	lr, [sp, #-4]!
.LCFI54:
	.cfi_def_cfa_offset 4
	.cfi_offset 14, -4
	sub	sp, sp, #12
.LCFI55:
	.cfi_def_cfa_offset 16
	str	r0, [sp, #4]
	.loc 2 162 0
	ldr	r0, [sp, #4]
	bl	_ZN7b2JointD1Ev(PLT)
	ldr	r0, [sp, #4]
	bl	_ZdlPv(PLT)
	ldr	r3, [sp, #4]
	mov	r0, r3
	add	sp, sp, #12
	@ sp needed
	ldr	pc, [sp], #4
	.cfi_endproc
.LFE128:
	.size	_ZN7b2JointD0Ev, .-_ZN7b2JointD0Ev
	.section	.text._ZNK6b2Body8GetAngleEv,"axG",%progbits,_ZNK6b2Body8GetAngleEv,comdat
	.align	2
	.weak	_ZNK6b2Body8GetAngleEv
	.hidden	_ZNK6b2Body8GetAngleEv
	.type	_ZNK6b2Body8GetAngleEv, %function
_ZNK6b2Body8GetAngleEv:
.LFB464:
	.file 3 "c:/users/ben/desktop/fyp/finalyearproject/box2d/Box2D/Dynamics/b2Body.h"
	.loc 3 485 0
	.cfi_startproc
	@ args = 0, pretend = 0, frame = 8
	@ frame_needed = 0, uses_anonymous_args = 0
	@ link register save eliminated.
	sub	sp, sp, #8
.LCFI56:
	.cfi_def_cfa_offset 8
	str	r0, [sp, #4]
	.loc 3 486 0
	ldr	r3, [sp, #4]
	ldr	r3, [r3, #56]	@ float
	.loc 3 487 0
	mov	r0, r3
	add	sp, sp, #8
	@ sp needed
	bx	lr
	.cfi_endproc
.LFE464:
	.size	_ZNK6b2Body8GetAngleEv, .-_ZNK6b2Body8GetAngleEv
	.section	.text._ZNK6b2Body13GetWorldPointERK6b2Vec2,"axG",%progbits,_ZNK6b2Body13GetWorldPointERK6b2Vec2,comdat
	.align	2
	.weak	_ZNK6b2Body13GetWorldPointERK6b2Vec2
	.hidden	_ZNK6b2Body13GetWorldPointERK6b2Vec2
	.type	_ZNK6b2Body13GetWorldPointERK6b2Vec2, %function
_ZNK6b2Body13GetWorldPointERK6b2Vec2:
.LFB474:
	.loc 3 557 0
	.cfi_startproc
	@ args = 0, pretend = 0, frame = 16
	@ frame_needed = 0, uses_anonymous_args = 0
	str	lr, [sp, #-4]!
.LCFI57:
	.cfi_def_cfa_offset 4
	.cfi_offset 14, -4
	sub	sp, sp, #20
.LCFI58:
	.cfi_def_cfa_offset 24
	str	r0, [sp, #12]
	str	r1, [sp, #8]
	str	r2, [sp, #4]
	.loc 3 558 0
	ldr	r3, [sp, #8]
	add	r3, r3, #12
	ldr	r2, [sp, #12]
	mov	r0, r2
	mov	r1, r3
	ldr	r2, [sp, #4]
	bl	_Z5b2MulRK11b2TransformRK6b2Vec2(PLT)
	.loc 3 559 0
	ldr	r0, [sp, #12]
	add	sp, sp, #20
	@ sp needed
	ldr	pc, [sp], #4
	.cfi_endproc
.LFE474:
	.size	_ZNK6b2Body13GetWorldPointERK6b2Vec2, .-_ZNK6b2Body13GetWorldPointERK6b2Vec2
	.section	.text._ZNK6b2Body13GetLocalPointERK6b2Vec2,"axG",%progbits,_ZNK6b2Body13GetLocalPointERK6b2Vec2,comdat
	.align	2
	.weak	_ZNK6b2Body13GetLocalPointERK6b2Vec2
	.hidden	_ZNK6b2Body13GetLocalPointERK6b2Vec2
	.type	_ZNK6b2Body13GetLocalPointERK6b2Vec2, %function
_ZNK6b2Body13GetLocalPointERK6b2Vec2:
.LFB476:
	.loc 3 567 0
	.cfi_startproc
	@ args = 0, pretend = 0, frame = 16
	@ frame_needed = 0, uses_anonymous_args = 0
	str	lr, [sp, #-4]!
.LCFI59:
	.cfi_def_cfa_offset 4
	.cfi_offset 14, -4
	sub	sp, sp, #20
.LCFI60:
	.cfi_def_cfa_offset 24
	str	r0, [sp, #12]
	str	r1, [sp, #8]
	str	r2, [sp, #4]
	.loc 3 568 0
	ldr	r3, [sp, #8]
	add	r3, r3, #12
	ldr	r2, [sp, #12]
	mov	r0, r2
	mov	r1, r3
	ldr	r2, [sp, #4]
	bl	_Z6b2MulTRK11b2TransformRK6b2Vec2(PLT)
	.loc 3 569 0
	ldr	r0, [sp, #12]
	add	sp, sp, #20
	@ sp needed
	ldr	pc, [sp], #4
	.cfi_endproc
.LFE476:
	.size	_ZNK6b2Body13GetLocalPointERK6b2Vec2, .-_ZNK6b2Body13GetLocalPointERK6b2Vec2
	.section	.text._ZN14b2WeldJointDef10InitializeEP6b2BodyS1_RK6b2Vec2,"ax",%progbits
	.align	2
	.global	_ZN14b2WeldJointDef10InitializeEP6b2BodyS1_RK6b2Vec2
	.hidden	_ZN14b2WeldJointDef10InitializeEP6b2BodyS1_RK6b2Vec2
	.type	_ZN14b2WeldJointDef10InitializeEP6b2BodyS1_RK6b2Vec2, %function
_ZN14b2WeldJointDef10InitializeEP6b2BodyS1_RK6b2Vec2:
.LFB513:
	.file 4 "c:/Users/Ben/Desktop/FYP/FinalYearProject/box2d/Box2D/Dynamics/Joints/b2WeldJoint.cpp"
	.loc 4 38 0
	.cfi_startproc
	@ args = 0, pretend = 0, frame = 24
	@ frame_needed = 0, uses_anonymous_args = 0
	stmfd	sp!, {r4, lr}
.LCFI61:
	.cfi_def_cfa_offset 8
	.cfi_offset 4, -8
	.cfi_offset 14, -4
	sub	sp, sp, #24
.LCFI62:
	.cfi_def_cfa_offset 32
	str	r0, [sp, #20]
	str	r1, [sp, #16]
	str	r2, [sp, #12]
	str	r3, [sp, #8]
	.loc 4 39 0
	ldr	r3, [sp, #20]
	ldr	r2, [sp, #16]
	str	r2, [r3, #8]
	.loc 4 40 0
	ldr	r3, [sp, #20]
	ldr	r2, [sp, #12]
	str	r2, [r3, #12]
	.loc 4 41 0
	ldr	r3, [sp, #20]
	ldr	r3, [r3, #8]
	ldr	r4, [sp, #20]
	mov	r2, sp
	mov	r0, r2
	mov	r1, r3
	ldr	r2, [sp, #8]
	bl	_ZNK6b2Body13GetLocalPointERK6b2Vec2(PLT)
	add	r3, r4, #20
	mov	r2, sp
	ldmia	r2, {r0, r1}
	stmia	r3, {r0, r1}
	.loc 4 42 0
	ldr	r3, [sp, #20]
	ldr	r3, [r3, #12]
	ldr	r4, [sp, #20]
	mov	r2, sp
	mov	r0, r2
	mov	r1, r3
	ldr	r2, [sp, #8]
	bl	_ZNK6b2Body13GetLocalPointERK6b2Vec2(PLT)
	add	r3, r4, #28
	mov	r2, sp
	ldmia	r2, {r0, r1}
	stmia	r3, {r0, r1}
	.loc 4 43 0
	ldr	r3, [sp, #20]
	ldr	r3, [r3, #12]
	mov	r0, r3
	bl	_ZNK6b2Body8GetAngleEv(PLT)
	mov	r4, r0
	ldr	r3, [sp, #20]
	ldr	r3, [r3, #8]
	mov	r0, r3
	bl	_ZNK6b2Body8GetAngleEv(PLT)
	mov	r3, r0
	mov	r0, r4
	mov	r1, r3
	bl	__aeabi_fsub(PLT)
	mov	r3, r0
	mov	r2, r3
	ldr	r3, [sp, #20]
	str	r2, [r3, #36]	@ float
	.loc 4 44 0
	add	sp, sp, #24
	@ sp needed
	ldmfd	sp!, {r4, pc}
	.cfi_endproc
.LFE513:
	.size	_ZN14b2WeldJointDef10InitializeEP6b2BodyS1_RK6b2Vec2, .-_ZN14b2WeldJointDef10InitializeEP6b2BodyS1_RK6b2Vec2
	.section	.text._ZN11b2WeldJointC2EPK14b2WeldJointDef,"ax",%progbits
	.align	2
	.global	_ZN11b2WeldJointC2EPK14b2WeldJointDef
	.hidden	_ZN11b2WeldJointC2EPK14b2WeldJointDef
	.type	_ZN11b2WeldJointC2EPK14b2WeldJointDef, %function
_ZN11b2WeldJointC2EPK14b2WeldJointDef:
.LFB515:
	.loc 4 46 0
	.cfi_startproc
	@ args = 0, pretend = 0, frame = 8
	@ frame_needed = 0, uses_anonymous_args = 0
	str	lr, [sp, #-4]!
.LCFI63:
	.cfi_def_cfa_offset 4
	.cfi_offset 14, -4
	sub	sp, sp, #12
.LCFI64:
	.cfi_def_cfa_offset 16
	str	r0, [sp, #4]
	str	r1, [sp]
.LBB11:
	.loc 4 47 0
	ldr	r3, [sp, #4]
	mov	r0, r3
	ldr	r1, [sp]
	bl	_ZN7b2JointC2EPK10b2JointDef(PLT)
	ldr	r3, [sp, #4]
	ldr	r2, .L79
.LPIC2:
	add	r2, pc, r2
	add	r2, r2, #8
	str	r2, [r3]
	ldr	r3, [sp, #4]
	add	r3, r3, #80
	mov	r0, r3
	bl	_ZN6b2Vec2C1Ev(PLT)
	ldr	r3, [sp, #4]
	add	r3, r3, #88
	mov	r0, r3
	bl	_ZN6b2Vec2C1Ev(PLT)
	ldr	r3, [sp, #4]
	add	r3, r3, #104
	mov	r0, r3
	bl	_ZN6b2Vec3C1Ev(PLT)
	ldr	r3, [sp, #4]
	add	r3, r3, #124
	mov	r0, r3
	bl	_ZN6b2Vec2C1Ev(PLT)
	ldr	r3, [sp, #4]
	add	r3, r3, #132
	mov	r0, r3
	bl	_ZN6b2Vec2C1Ev(PLT)
	ldr	r3, [sp, #4]
	add	r3, r3, #140
	mov	r0, r3
	bl	_ZN6b2Vec2C1Ev(PLT)
	ldr	r3, [sp, #4]
	add	r3, r3, #148
	mov	r0, r3
	bl	_ZN6b2Vec2C1Ev(PLT)
	ldr	r3, [sp, #4]
	add	r3, r3, #172
	mov	r0, r3
	bl	_ZN7b2Mat33C1Ev(PLT)
	.loc 4 49 0
	ldr	r3, [sp, #4]
	ldr	r2, [sp]
	add	r3, r3, #80
	add	r2, r2, #20
	ldmia	r2, {r0, r1}
	stmia	r3, {r0, r1}
	.loc 4 50 0
	ldr	r3, [sp, #4]
	ldr	r2, [sp]
	add	r3, r3, #88
	add	r2, r2, #28
	ldmia	r2, {r0, r1}
	stmia	r3, {r0, r1}
	.loc 4 51 0
	ldr	r3, [sp]
	ldr	r2, [r3, #36]	@ float
	ldr	r3, [sp, #4]
	str	r2, [r3, #96]	@ float
	.loc 4 52 0
	ldr	r3, [sp]
	ldr	r2, [r3, #40]	@ float
	ldr	r3, [sp, #4]
	str	r2, [r3, #68]	@ float
	.loc 4 53 0
	ldr	r3, [sp]
	ldr	r2, [r3, #44]	@ float
	ldr	r3, [sp, #4]
	str	r2, [r3, #72]	@ float
	.loc 4 55 0
	ldr	r3, [sp, #4]
	add	r3, r3, #104
	mov	r0, r3
	bl	_ZN6b2Vec37SetZeroEv(PLT)
.LBE11:
	.loc 4 56 0
	ldr	r3, [sp, #4]
	mov	r0, r3
	add	sp, sp, #12
	@ sp needed
	ldr	pc, [sp], #4
.L80:
	.align	2
.L79:
	.word	_ZTV11b2WeldJoint-(.LPIC2+8)
	.cfi_endproc
.LFE515:
	.size	_ZN11b2WeldJointC2EPK14b2WeldJointDef, .-_ZN11b2WeldJointC2EPK14b2WeldJointDef
	.global	_ZN11b2WeldJointC1EPK14b2WeldJointDef
	.hidden	_ZN11b2WeldJointC1EPK14b2WeldJointDef
	.set	_ZN11b2WeldJointC1EPK14b2WeldJointDef,_ZN11b2WeldJointC2EPK14b2WeldJointDef
	.global	__aeabi_fcmpgt
	.global	__aeabi_fdiv
	.global	__aeabi_fcmpeq
	.section	.text._ZN11b2WeldJoint23InitVelocityConstraintsERK12b2SolverData,"ax",%progbits
	.align	2
	.global	_ZN11b2WeldJoint23InitVelocityConstraintsERK12b2SolverData
	.hidden	_ZN11b2WeldJoint23InitVelocityConstraintsERK12b2SolverData
	.type	_ZN11b2WeldJoint23InitVelocityConstraintsERK12b2SolverData, %function
_ZN11b2WeldJoint23InitVelocityConstraintsERK12b2SolverData:
.LFB517:
	.loc 4 59 0
	.cfi_startproc
	@ args = 0, pretend = 0, frame = 184
	@ frame_needed = 0, uses_anonymous_args = 0
	stmfd	sp!, {r4, lr}
.LCFI65:
	.cfi_def_cfa_offset 8
	.cfi_offset 4, -8
	.cfi_offset 14, -4
	sub	sp, sp, #184
.LCFI66:
	.cfi_def_cfa_offset 192
	str	r0, [sp, #12]
	str	r1, [sp, #8]
.LBB12:
	.loc 4 60 0
	ldr	r3, [sp, #12]
	ldr	r3, [r3, #48]
	ldr	r2, [r3, #8]
	ldr	r3, [sp, #12]
	str	r2, [r3, #116]
	.loc 4 61 0
	ldr	r3, [sp, #12]
	ldr	r3, [r3, #52]
	ldr	r2, [r3, #8]
	ldr	r3, [sp, #12]
	str	r2, [r3, #120]
	.loc 4 62 0
	ldr	r3, [sp, #12]
	ldr	r2, [r3, #48]
	ldr	r3, [sp, #12]
	add	r3, r3, #140
	add	r2, r2, #28
	ldmia	r2, {r0, r1}
	stmia	r3, {r0, r1}
	.loc 4 63 0
	ldr	r3, [sp, #12]
	ldr	r2, [r3, #52]
	ldr	r3, [sp, #12]
	add	r3, r3, #148
	add	r2, r2, #28
	ldmia	r2, {r0, r1}
	stmia	r3, {r0, r1}
	.loc 4 64 0
	ldr	r3, [sp, #12]
	ldr	r3, [r3, #48]
	ldr	r2, [r3, #120]	@ float
	ldr	r3, [sp, #12]
	str	r2, [r3, #156]	@ float
	.loc 4 65 0
	ldr	r3, [sp, #12]
	ldr	r3, [r3, #52]
	ldr	r2, [r3, #120]	@ float
	ldr	r3, [sp, #12]
	str	r2, [r3, #160]	@ float
	.loc 4 66 0
	ldr	r3, [sp, #12]
	ldr	r3, [r3, #48]
	ldr	r2, [r3, #128]	@ float
	ldr	r3, [sp, #12]
	str	r2, [r3, #164]	@ float
	.loc 4 67 0
	ldr	r3, [sp, #12]
	ldr	r3, [r3, #52]
	ldr	r2, [r3, #128]	@ float
	ldr	r3, [sp, #12]
	str	r2, [r3, #168]	@ float
	.loc 4 69 0
	ldr	r3, [sp, #8]
	ldr	r1, [r3, #24]
	ldr	r3, [sp, #12]
	ldr	r3, [r3, #116]
	mov	r2, r3
	mov	r3, r2
	mov	r3, r3, asl #1
	add	r3, r3, r2
	mov	r3, r3, asl #2
	add	r3, r1, r3
	ldr	r3, [r3, #8]	@ float
	str	r3, [sp, #172]	@ float
	.loc 4 70 0
	ldr	r3, [sp, #8]
	ldr	r1, [r3, #28]
	ldr	r3, [sp, #12]
	ldr	r3, [r3, #116]
	mov	r2, r3
	mov	r3, r2
	mov	r3, r3, asl #1
	add	r3, r3, r2
	mov	r3, r3, asl #2
	add	r2, r1, r3
	add	r3, sp, #84
	ldmia	r2, {r0, r1}
	stmia	r3, {r0, r1}
	.loc 4 71 0
	ldr	r3, [sp, #8]
	ldr	r1, [r3, #28]
	ldr	r3, [sp, #12]
	ldr	r3, [r3, #116]
	mov	r2, r3
	mov	r3, r2
	mov	r3, r3, asl #1
	add	r3, r3, r2
	mov	r3, r3, asl #2
	add	r3, r1, r3
	ldr	r3, [r3, #8]	@ float
	str	r3, [sp, #180]	@ float
	.loc 4 73 0
	ldr	r3, [sp, #8]
	ldr	r1, [r3, #24]
	ldr	r3, [sp, #12]
	ldr	r3, [r3, #120]
	mov	r2, r3
	mov	r3, r2
	mov	r3, r3, asl #1
	add	r3, r3, r2
	mov	r3, r3, asl #2
	add	r3, r1, r3
	ldr	r3, [r3, #8]	@ float
	str	r3, [sp, #168]	@ float
	.loc 4 74 0
	ldr	r3, [sp, #8]
	ldr	r1, [r3, #28]
	ldr	r3, [sp, #12]
	ldr	r3, [r3, #120]
	mov	r2, r3
	mov	r3, r2
	mov	r3, r3, asl #1
	add	r3, r3, r2
	mov	r3, r3, asl #2
	add	r2, r1, r3
	add	r3, sp, #76
	ldmia	r2, {r0, r1}
	stmia	r3, {r0, r1}
	.loc 4 75 0
	ldr	r3, [sp, #8]
	ldr	r1, [r3, #28]
	ldr	r3, [sp, #12]
	ldr	r3, [r3, #120]
	mov	r2, r3
	mov	r3, r2
	mov	r3, r3, asl #1
	add	r3, r3, r2
	mov	r3, r3, asl #2
	add	r3, r1, r3
	ldr	r3, [r3, #8]	@ float
	str	r3, [sp, #176]	@ float
	.loc 4 77 0
	add	r3, sp, #68
	mov	r0, r3
	ldr	r1, [sp, #172]	@ float
	bl	_ZN5b2RotC1Ef(PLT)
	add	r3, sp, #60
	mov	r0, r3
	ldr	r1, [sp, #168]	@ float
	bl	_ZN5b2RotC1Ef(PLT)
	.loc 4 79 0
	ldr	r3, [sp, #12]
	add	r2, r3, #80
	ldr	r3, [sp, #12]
	add	r3, r3, #140
	add	r1, sp, #92
	mov	r0, r1
	mov	r1, r2
	mov	r2, r3
	bl	_ZmiRK6b2Vec2S1_(PLT)
	ldr	r4, [sp, #12]
	mov	r1, sp
	add	r2, sp, #68
	add	r3, sp, #92
	mov	r0, r1
	mov	r1, r2
	mov	r2, r3
	bl	_Z5b2MulRK5b2RotRK6b2Vec2(PLT)
	add	r3, r4, #124
	mov	r2, sp
	ldmia	r2, {r0, r1}
	stmia	r3, {r0, r1}
	.loc 4 80 0
	ldr	r3, [sp, #12]
	add	r2, r3, #88
	ldr	r3, [sp, #12]
	add	r3, r3, #148
	add	r1, sp, #100
	mov	r0, r1
	mov	r1, r2
	mov	r2, r3
	bl	_ZmiRK6b2Vec2S1_(PLT)
	ldr	r4, [sp, #12]
	mov	r1, sp
	add	r2, sp, #60
	add	r3, sp, #100
	mov	r0, r1
	mov	r1, r2
	mov	r2, r3
	bl	_Z5b2MulRK5b2RotRK6b2Vec2(PLT)
	add	r3, r4, #132
	mov	r2, sp
	ldmia	r2, {r0, r1}
	stmia	r3, {r0, r1}
	.loc 4 91 0
	ldr	r3, [sp, #12]
	ldr	r3, [r3, #156]	@ float
	str	r3, [sp, #164]	@ float
	ldr	r3, [sp, #12]
	ldr	r3, [r3, #160]	@ float
	str	r3, [sp, #160]	@ float
	.loc 4 92 0
	ldr	r3, [sp, #12]
	ldr	r3, [r3, #164]	@ float
	str	r3, [sp, #156]	@ float
	ldr	r3, [sp, #12]
	ldr	r3, [r3, #168]	@ float
	str	r3, [sp, #152]	@ float
	.loc 4 94 0
	add	r3, sp, #16
	mov	r0, r3
	bl	_ZN7b2Mat33C1Ev(PLT)
	.loc 4 95 0
	ldr	r0, [sp, #164]	@ float
	ldr	r1, [sp, #160]	@ float
	bl	__aeabi_fadd(PLT)
	mov	r3, r0
	mov	r4, r3
	ldr	r3, [sp, #12]
	ldr	r2, [r3, #128]	@ float
	ldr	r3, [sp, #12]
	ldr	r3, [r3, #128]	@ float
	mov	r0, r2
	mov	r1, r3
	bl	__aeabi_fmul(PLT)
	mov	r3, r0
	mov	r0, r3
	ldr	r1, [sp, #156]	@ float
	bl	__aeabi_fmul(PLT)
	mov	r3, r0
	mov	r0, r4
	mov	r1, r3
	bl	__aeabi_fadd(PLT)
	mov	r3, r0
	mov	r4, r3
	ldr	r3, [sp, #12]
	ldr	r2, [r3, #136]	@ float
	ldr	r3, [sp, #12]
	ldr	r3, [r3, #136]	@ float
	mov	r0, r2
	mov	r1, r3
	bl	__aeabi_fmul(PLT)
	mov	r3, r0
	mov	r0, r3
	ldr	r1, [sp, #152]	@ float
	bl	__aeabi_fmul(PLT)
	mov	r3, r0
	mov	r0, r4
	mov	r1, r3
	bl	__aeabi_fadd(PLT)
	mov	r3, r0
	str	r3, [sp, #16]	@ float
	.loc 4 96 0
	ldr	r3, [sp, #12]
	ldr	r3, [r3, #128]	@ float
	eor	r2, r3, #-2147483648
	ldr	r3, [sp, #12]
	ldr	r3, [r3, #124]	@ float
	mov	r0, r2
	mov	r1, r3
	bl	__aeabi_fmul(PLT)
	mov	r3, r0
	mov	r0, r3
	ldr	r1, [sp, #156]	@ float
	bl	__aeabi_fmul(PLT)
	mov	r3, r0
	mov	r4, r3
	ldr	r3, [sp, #12]
	ldr	r2, [r3, #136]	@ float
	ldr	r3, [sp, #12]
	ldr	r3, [r3, #132]	@ float
	mov	r0, r2
	mov	r1, r3
	bl	__aeabi_fmul(PLT)
	mov	r3, r0
	mov	r0, r3
	ldr	r1, [sp, #152]	@ float
	bl	__aeabi_fmul(PLT)
	mov	r3, r0
	mov	r0, r4
	mov	r1, r3
	bl	__aeabi_fsub(PLT)
	mov	r3, r0
	str	r3, [sp, #28]	@ float
	.loc 4 97 0
	ldr	r3, [sp, #12]
	ldr	r3, [r3, #128]	@ float
	eor	r3, r3, #-2147483648
	mov	r0, r3
	ldr	r1, [sp, #156]	@ float
	bl	__aeabi_fmul(PLT)
	mov	r3, r0
	mov	r4, r3
	ldr	r3, [sp, #12]
	ldr	r3, [r3, #136]	@ float
	mov	r0, r3
	ldr	r1, [sp, #152]	@ float
	bl	__aeabi_fmul(PLT)
	mov	r3, r0
	mov	r0, r4
	mov	r1, r3
	bl	__aeabi_fsub(PLT)
	mov	r3, r0
	str	r3, [sp, #40]	@ float
	.loc 4 98 0
	ldr	r3, [sp, #28]	@ float
	str	r3, [sp, #20]	@ float
	.loc 4 99 0
	ldr	r0, [sp, #164]	@ float
	ldr	r1, [sp, #160]	@ float
	bl	__aeabi_fadd(PLT)
	mov	r3, r0
	mov	r4, r3
	ldr	r3, [sp, #12]
	ldr	r2, [r3, #124]	@ float
	ldr	r3, [sp, #12]
	ldr	r3, [r3, #124]	@ float
	mov	r0, r2
	mov	r1, r3
	bl	__aeabi_fmul(PLT)
	mov	r3, r0
	mov	r0, r3
	ldr	r1, [sp, #156]	@ float
	bl	__aeabi_fmul(PLT)
	mov	r3, r0
	mov	r0, r4
	mov	r1, r3
	bl	__aeabi_fadd(PLT)
	mov	r3, r0
	mov	r4, r3
	ldr	r3, [sp, #12]
	ldr	r2, [r3, #132]	@ float
	ldr	r3, [sp, #12]
	ldr	r3, [r3, #132]	@ float
	mov	r0, r2
	mov	r1, r3
	bl	__aeabi_fmul(PLT)
	mov	r3, r0
	mov	r0, r3
	ldr	r1, [sp, #152]	@ float
	bl	__aeabi_fmul(PLT)
	mov	r3, r0
	mov	r0, r4
	mov	r1, r3
	bl	__aeabi_fadd(PLT)
	mov	r3, r0
	str	r3, [sp, #32]	@ float
	.loc 4 100 0
	ldr	r3, [sp, #12]
	ldr	r3, [r3, #124]	@ float
	mov	r0, r3
	ldr	r1, [sp, #156]	@ float
	bl	__aeabi_fmul(PLT)
	mov	r3, r0
	mov	r4, r3
	ldr	r3, [sp, #12]
	ldr	r3, [r3, #132]	@ float
	mov	r0, r3
	ldr	r1, [sp, #152]	@ float
	bl	__aeabi_fmul(PLT)
	mov	r3, r0
	mov	r0, r4
	mov	r1, r3
	bl	__aeabi_fadd(PLT)
	mov	r3, r0
	str	r3, [sp, #44]	@ float
	.loc 4 101 0
	ldr	r3, [sp, #40]	@ float
	str	r3, [sp, #24]	@ float
	.loc 4 102 0
	ldr	r3, [sp, #44]	@ float
	str	r3, [sp, #36]	@ float
	.loc 4 103 0
	ldr	r0, [sp, #156]	@ float
	ldr	r1, [sp, #152]	@ float
	bl	__aeabi_fadd(PLT)
	mov	r3, r0
	str	r3, [sp, #48]	@ float
.LBB13:
	.loc 4 105 0
	ldr	r3, [sp, #12]
	ldr	r3, [r3, #68]	@ float
	mov	r0, r3
	mov	r1, #0
	bl	__aeabi_fcmpgt(PLT)
	mov	r3, r0
	cmp	r3, #0
	beq	.L100
.LBB14:
	.loc 4 107 0
	ldr	r3, [sp, #12]
	add	r3, r3, #172
	add	r2, sp, #16
	mov	r0, r2
	mov	r1, r3
	bl	_ZNK7b2Mat3312GetInverse22EPS_(PLT)
	.loc 4 109 0
	ldr	r0, [sp, #156]	@ float
	ldr	r1, [sp, #152]	@ float
	bl	__aeabi_fadd(PLT)
	mov	r3, r0
	str	r3, [sp, #148]	@ float
	.loc 4 110 0
	ldr	r0, [sp, #148]	@ float
	mov	r1, #0
	bl	__aeabi_fcmpgt(PLT)
	mov	r3, r0
	cmp	r3, #0
	beq	.L101
	.loc 4 110 0 is_stmt 0 discriminator 1
	mov	r0, #1065353216
	ldr	r1, [sp, #148]	@ float
	bl	__aeabi_fdiv(PLT)
	mov	r3, r0
	b	.L86
.L101:
	.loc 4 110 0 discriminator 2
	mov	r3, #0
.L86:
	.loc 4 110 0 discriminator 3
	str	r3, [sp, #144]	@ float
	.loc 4 112 0 is_stmt 1 discriminator 3
	ldr	r0, [sp, #168]	@ float
	ldr	r1, [sp, #172]	@ float
	bl	__aeabi_fsub(PLT)
	mov	r3, r0
	mov	r2, r3
	ldr	r3, [sp, #12]
	ldr	r3, [r3, #96]	@ float
	mov	r0, r2
	mov	r1, r3
	bl	__aeabi_fsub(PLT)
	mov	r3, r0
	str	r3, [sp, #140]	@ float
	.loc 4 115 0 discriminator 3
	ldr	r3, [sp, #12]
	ldr	r3, [r3, #68]	@ float
	mov	r0, r3
	ldr	r1, .L104
	bl	__aeabi_fmul(PLT)
	mov	r3, r0
	str	r3, [sp, #136]	@ float
	.loc 4 118 0 discriminator 3
	ldr	r3, [sp, #144]	@ float
	mov	r0, r3
	mov	r1, r3
	bl	__aeabi_fadd(PLT)
	mov	r3, r0
	mov	r2, r3
	ldr	r3, [sp, #12]
	ldr	r3, [r3, #72]	@ float
	mov	r0, r2
	mov	r1, r3
	bl	__aeabi_fmul(PLT)
	mov	r3, r0
	mov	r0, r3
	ldr	r1, [sp, #136]	@ float
	bl	__aeabi_fmul(PLT)
	mov	r3, r0
	str	r3, [sp, #132]	@ float
	.loc 4 121 0 discriminator 3
	ldr	r0, [sp, #144]	@ float
	ldr	r1, [sp, #136]	@ float
	bl	__aeabi_fmul(PLT)
	mov	r3, r0
	mov	r0, r3
	ldr	r1, [sp, #136]	@ float
	bl	__aeabi_fmul(PLT)
	mov	r3, r0
	str	r3, [sp, #128]	@ float
	.loc 4 124 0 discriminator 3
	ldr	r3, [sp, #8]
	ldr	r3, [r3]	@ float
	str	r3, [sp, #124]	@ float
	.loc 4 125 0 discriminator 3
	ldr	r0, [sp, #124]	@ float
	ldr	r1, [sp, #128]	@ float
	bl	__aeabi_fmul(PLT)
	mov	r3, r0
	mov	r0, r3
	ldr	r1, [sp, #132]	@ float
	bl	__aeabi_fadd(PLT)
	mov	r3, r0
	mov	r0, r3
	ldr	r1, [sp, #124]	@ float
	bl	__aeabi_fmul(PLT)
	mov	r3, r0
	mov	r2, r3
	ldr	r3, [sp, #12]
	str	r2, [r3, #100]	@ float
	.loc 4 126 0 discriminator 3
	ldr	r3, [sp, #12]
	ldr	r3, [r3, #100]	@ float
	mov	r0, r3
	mov	r1, #0
	bl	__aeabi_fcmpeq(PLT)
	mov	r3, r0
	cmp	r3, #0
	bne	.L102
	.loc 4 126 0 is_stmt 0 discriminator 1
	ldr	r3, [sp, #12]
	ldr	r3, [r3, #100]	@ float
	mov	r0, #1065353216
	mov	r1, r3
	bl	__aeabi_fdiv(PLT)
	mov	r3, r0
	b	.L89
.L102:
	.loc 4 126 0 discriminator 2
	mov	r3, #0
.L89:
	.loc 4 126 0 discriminator 3
	ldr	r2, [sp, #12]
	str	r3, [r2, #100]	@ float
	.loc 4 127 0 is_stmt 1 discriminator 3
	ldr	r0, [sp, #140]	@ float
	ldr	r1, [sp, #124]	@ float
	bl	__aeabi_fmul(PLT)
	mov	r3, r0
	mov	r0, r3
	ldr	r1, [sp, #128]	@ float
	bl	__aeabi_fmul(PLT)
	mov	r3, r0
	mov	r2, r3
	ldr	r3, [sp, #12]
	ldr	r3, [r3, #100]	@ float
	mov	r0, r2
	mov	r1, r3
	bl	__aeabi_fmul(PLT)
	mov	r3, r0
	mov	r2, r3
	ldr	r3, [sp, #12]
	str	r2, [r3, #76]	@ float
	.loc 4 129 0 discriminator 3
	ldr	r3, [sp, #12]
	ldr	r3, [r3, #100]	@ float
	ldr	r0, [sp, #148]	@ float
	mov	r1, r3
	bl	__aeabi_fadd(PLT)
	mov	r3, r0
	str	r3, [sp, #148]	@ float
	.loc 4 130 0 discriminator 3
	ldr	r0, [sp, #148]	@ float
	mov	r1, #0
	bl	__aeabi_fcmpeq(PLT)
	mov	r3, r0
	cmp	r3, #0
	bne	.L103
	.loc 4 130 0 is_stmt 0 discriminator 1
	mov	r0, #1065353216
	ldr	r1, [sp, #148]	@ float
	bl	__aeabi_fdiv(PLT)
	mov	r3, r0
	b	.L92
.L103:
	.loc 4 130 0 discriminator 2
	mov	r3, #0
.L92:
	.loc 4 130 0 discriminator 1
	ldr	r2, [sp, #12]
	str	r3, [r2, #204]	@ float
.LBE14:
	b	.L93
.L100:
	.loc 4 134 0 is_stmt 1
	ldr	r3, [sp, #12]
	add	r3, r3, #172
	add	r2, sp, #16
	mov	r0, r2
	mov	r1, r3
	bl	_ZNK7b2Mat3315GetSymInverse33EPS_(PLT)
	.loc 4 135 0
	ldr	r3, [sp, #12]
	mov	r2, #0
	str	r2, [r3, #100]	@ float
	.loc 4 136 0
	ldr	r3, [sp, #12]
	mov	r2, #0
	str	r2, [r3, #76]	@ float
.L93:
.LBE13:
.LBB15:
	.loc 4 139 0
	ldr	r3, [sp, #8]
	ldrb	r3, [r3, #20]	@ zero_extendqisi2
	cmp	r3, #0
	beq	.L94
.LBB16:
	.loc 4 142 0
	ldr	r3, [sp, #12]
	add	r2, r3, #104
	ldr	r3, [sp, #8]
	ldr	r3, [r3, #8]	@ float
	mov	r0, r2
	mov	r1, r3
	bl	_ZN6b2Vec3mLEf(PLT)
	.loc 4 144 0
	ldr	r3, [sp, #12]
	ldr	r2, [r3, #104]	@ float
	ldr	r3, [sp, #12]
	ldr	r3, [r3, #108]	@ float
	add	r1, sp, #52
	mov	r0, r1
	mov	r1, r2
	mov	r2, r3
	bl	_ZN6b2Vec2C1Eff(PLT)
	.loc 4 146 0
	add	r2, sp, #108
	add	r3, sp, #52
	mov	r0, r2
	ldr	r1, [sp, #164]	@ float
	mov	r2, r3
	bl	_ZmlfRK6b2Vec2(PLT)
	add	r2, sp, #84
	add	r3, sp, #108
	mov	r0, r2
	mov	r1, r3
	bl	_ZN6b2Vec2mIERKS_(PLT)
	.loc 4 147 0
	ldr	r3, [sp, #12]
	add	r2, r3, #124
	add	r3, sp, #52
	mov	r0, r2
	mov	r1, r3
	bl	_Z7b2CrossRK6b2Vec2S1_(PLT)
	mov	r2, r0
	ldr	r3, [sp, #12]
	ldr	r3, [r3, #112]	@ float
	mov	r0, r2
	mov	r1, r3
	bl	__aeabi_fadd(PLT)
	mov	r3, r0
	mov	r0, r3
	ldr	r1, [sp, #156]	@ float
	bl	__aeabi_fmul(PLT)
	mov	r3, r0
	ldr	r0, [sp, #180]	@ float
	mov	r1, r3
	bl	__aeabi_fsub(PLT)
	mov	r3, r0
	str	r3, [sp, #180]	@ float
	.loc 4 149 0
	add	r2, sp, #116
	add	r3, sp, #52
	mov	r0, r2
	ldr	r1, [sp, #160]	@ float
	mov	r2, r3
	bl	_ZmlfRK6b2Vec2(PLT)
	add	r2, sp, #76
	add	r3, sp, #116
	mov	r0, r2
	mov	r1, r3
	bl	_ZN6b2Vec2pLERKS_(PLT)
	.loc 4 150 0
	ldr	r3, [sp, #12]
	add	r2, r3, #132
	add	r3, sp, #52
	mov	r0, r2
	mov	r1, r3
	bl	_Z7b2CrossRK6b2Vec2S1_(PLT)
	mov	r2, r0
	ldr	r3, [sp, #12]
	ldr	r3, [r3, #112]	@ float
	mov	r0, r2
	mov	r1, r3
	bl	__aeabi_fadd(PLT)
	mov	r3, r0
	mov	r0, r3
	ldr	r1, [sp, #152]	@ float
	bl	__aeabi_fmul(PLT)
	mov	r3, r0
	ldr	r0, [sp, #176]	@ float
	mov	r1, r3
	bl	__aeabi_fadd(PLT)
	mov	r3, r0
	str	r3, [sp, #176]	@ float
.LBE16:
	b	.L95
.L94:
	.loc 4 154 0
	ldr	r3, [sp, #12]
	add	r3, r3, #104
	mov	r0, r3
	bl	_ZN6b2Vec37SetZeroEv(PLT)
.L95:
.LBE15:
	.loc 4 157 0
	ldr	r3, [sp, #8]
	ldr	r1, [r3, #28]
	ldr	r3, [sp, #12]
	ldr	r3, [r3, #116]
	mov	r2, r3
	mov	r3, r2
	mov	r3, r3, asl #1
	add	r3, r3, r2
	mov	r3, r3, asl #2
	add	r3, r1, r3
	add	r2, sp, #84
	ldmia	r2, {r0, r1}
	stmia	r3, {r0, r1}
	.loc 4 158 0
	ldr	r3, [sp, #8]
	ldr	r1, [r3, #28]
	ldr	r3, [sp, #12]
	ldr	r3, [r3, #116]
	mov	r2, r3
	mov	r3, r2
	mov	r3, r3, asl #1
	add	r3, r3, r2
	mov	r3, r3, asl #2
	add	r3, r1, r3
	ldr	r2, [sp, #180]	@ float
	str	r2, [r3, #8]	@ float
	.loc 4 159 0
	ldr	r3, [sp, #8]
	ldr	r1, [r3, #28]
	ldr	r3, [sp, #12]
	ldr	r3, [r3, #120]
	mov	r2, r3
	mov	r3, r2
	mov	r3, r3, asl #1
	add	r3, r3, r2
	mov	r3, r3, asl #2
	add	r3, r1, r3
	add	r2, sp, #76
	ldmia	r2, {r0, r1}
	stmia	r3, {r0, r1}
	.loc 4 160 0
	ldr	r3, [sp, #8]
	ldr	r1, [r3, #28]
	ldr	r3, [sp, #12]
	ldr	r3, [r3, #120]
	mov	r2, r3
	mov	r3, r2
	mov	r3, r3, asl #1
	add	r3, r3, r2
	mov	r3, r3, asl #2
	add	r3, r1, r3
	ldr	r2, [sp, #176]	@ float
	str	r2, [r3, #8]	@ float
.LBE12:
	.loc 4 161 0
	add	sp, sp, #184
	@ sp needed
	ldmfd	sp!, {r4, pc}
.L105:
	.align	2
.L104:
	.word	1086918619
	.cfi_endproc
.LFE517:
	.size	_ZN11b2WeldJoint23InitVelocityConstraintsERK12b2SolverData, .-_ZN11b2WeldJoint23InitVelocityConstraintsERK12b2SolverData
	.section	.text._ZN11b2WeldJoint24SolveVelocityConstraintsERK12b2SolverData,"ax",%progbits
	.align	2
	.global	_ZN11b2WeldJoint24SolveVelocityConstraintsERK12b2SolverData
	.hidden	_ZN11b2WeldJoint24SolveVelocityConstraintsERK12b2SolverData
	.type	_ZN11b2WeldJoint24SolveVelocityConstraintsERK12b2SolverData, %function
_ZN11b2WeldJoint24SolveVelocityConstraintsERK12b2SolverData:
.LFB518:
	.loc 4 164 0
	.cfi_startproc
	@ args = 0, pretend = 0, frame = 240
	@ frame_needed = 0, uses_anonymous_args = 0
	stmfd	sp!, {r4, r5, lr}
.LCFI67:
	.cfi_def_cfa_offset 12
	.cfi_offset 4, -12
	.cfi_offset 5, -8
	.cfi_offset 14, -4
	sub	sp, sp, #244
.LCFI68:
	.cfi_def_cfa_offset 256
	str	r0, [sp, #4]
	str	r1, [sp]
.LBB17:
	.loc 4 165 0
	ldr	r3, [sp]
	ldr	r1, [r3, #28]
	ldr	r3, [sp, #4]
	ldr	r3, [r3, #116]
	mov	r2, r3
	mov	r3, r2
	mov	r3, r3, asl #1
	add	r3, r3, r2
	mov	r3, r3, asl #2
	add	r2, r1, r3
	add	r3, sp, #80
	ldmia	r2, {r0, r1}
	stmia	r3, {r0, r1}
	.loc 4 166 0
	ldr	r3, [sp]
	ldr	r1, [r3, #28]
	ldr	r3, [sp, #4]
	ldr	r3, [r3, #116]
	mov	r2, r3
	mov	r3, r2
	mov	r3, r3, asl #1
	add	r3, r3, r2
	mov	r3, r3, asl #2
	add	r3, r1, r3
	ldr	r3, [r3, #8]	@ float
	str	r3, [sp, #236]	@ float
	.loc 4 167 0
	ldr	r3, [sp]
	ldr	r1, [r3, #28]
	ldr	r3, [sp, #4]
	ldr	r3, [r3, #120]
	mov	r2, r3
	mov	r3, r2
	mov	r3, r3, asl #1
	add	r3, r3, r2
	mov	r3, r3, asl #2
	add	r2, r1, r3
	add	r3, sp, #72
	ldmia	r2, {r0, r1}
	stmia	r3, {r0, r1}
	.loc 4 168 0
	ldr	r3, [sp]
	ldr	r1, [r3, #28]
	ldr	r3, [sp, #4]
	ldr	r3, [r3, #120]
	mov	r2, r3
	mov	r3, r2
	mov	r3, r3, asl #1
	add	r3, r3, r2
	mov	r3, r3, asl #2
	add	r3, r1, r3
	ldr	r3, [r3, #8]	@ float
	str	r3, [sp, #232]	@ float
	.loc 4 170 0
	ldr	r3, [sp, #4]
	ldr	r3, [r3, #156]	@ float
	str	r3, [sp, #228]	@ float
	ldr	r3, [sp, #4]
	ldr	r3, [r3, #160]	@ float
	str	r3, [sp, #224]	@ float
	.loc 4 171 0
	ldr	r3, [sp, #4]
	ldr	r3, [r3, #164]	@ float
	str	r3, [sp, #220]	@ float
	ldr	r3, [sp, #4]
	ldr	r3, [r3, #168]	@ float
	str	r3, [sp, #216]	@ float
.LBB18:
	.loc 4 173 0
	ldr	r3, [sp, #4]
	ldr	r3, [r3, #68]	@ float
	mov	r0, r3
	mov	r1, #0
	bl	__aeabi_fcmpgt(PLT)
	mov	r3, r0
	cmp	r3, #0
	beq	.L111
.LBB19:
	.loc 4 175 0
	ldr	r0, [sp, #232]	@ float
	ldr	r1, [sp, #236]	@ float
	bl	__aeabi_fsub(PLT)
	mov	r3, r0
	str	r3, [sp, #212]	@ float
	.loc 4 177 0
	ldr	r3, [sp, #4]
	ldr	r3, [r3, #204]	@ float
	eor	r4, r3, #-2147483648
	ldr	r3, [sp, #4]
	ldr	r3, [r3, #76]	@ float
	mov	r0, r3
	ldr	r1, [sp, #212]	@ float
	bl	__aeabi_fadd(PLT)
	mov	r3, r0
	mov	r5, r3
	ldr	r3, [sp, #4]
	ldr	r2, [r3, #100]	@ float
	ldr	r3, [sp, #4]
	ldr	r3, [r3, #112]	@ float
	mov	r0, r2
	mov	r1, r3
	bl	__aeabi_fmul(PLT)
	mov	r3, r0
	mov	r0, r5
	mov	r1, r3
	bl	__aeabi_fadd(PLT)
	mov	r3, r0
	mov	r0, r4
	mov	r1, r3
	bl	__aeabi_fmul(PLT)
	mov	r3, r0
	str	r3, [sp, #208]	@ float
	.loc 4 178 0
	ldr	r3, [sp, #4]
	ldr	r3, [r3, #112]	@ float
	mov	r0, r3
	ldr	r1, [sp, #208]	@ float
	bl	__aeabi_fadd(PLT)
	mov	r3, r0
	mov	r2, r3
	ldr	r3, [sp, #4]
	str	r2, [r3, #112]	@ float
	.loc 4 180 0
	ldr	r0, [sp, #220]	@ float
	ldr	r1, [sp, #208]	@ float
	bl	__aeabi_fmul(PLT)
	mov	r3, r0
	ldr	r0, [sp, #236]	@ float
	mov	r1, r3
	bl	__aeabi_fsub(PLT)
	mov	r3, r0
	str	r3, [sp, #236]	@ float
	.loc 4 181 0
	ldr	r0, [sp, #216]	@ float
	ldr	r1, [sp, #208]	@ float
	bl	__aeabi_fmul(PLT)
	mov	r3, r0
	ldr	r0, [sp, #232]	@ float
	mov	r1, r3
	bl	__aeabi_fadd(PLT)
	mov	r3, r0
	str	r3, [sp, #232]	@ float
	.loc 4 183 0
	ldr	r3, [sp, #4]
	add	r3, r3, #132
	add	r2, sp, #104
	mov	r0, r2
	ldr	r1, [sp, #232]	@ float
	mov	r2, r3
	bl	_Z7b2CrossfRK6b2Vec2(PLT)
	add	r1, sp, #96
	add	r2, sp, #72
	add	r3, sp, #104
	mov	r0, r1
	mov	r1, r2
	mov	r2, r3
	bl	_ZplRK6b2Vec2S1_(PLT)
	add	r1, sp, #88
	add	r2, sp, #96
	add	r3, sp, #80
	mov	r0, r1
	mov	r1, r2
	mov	r2, r3
	bl	_ZmiRK6b2Vec2S1_(PLT)
	ldr	r3, [sp, #4]
	add	r3, r3, #124
	add	r2, sp, #112
	mov	r0, r2
	ldr	r1, [sp, #236]	@ float
	mov	r2, r3
	bl	_Z7b2CrossfRK6b2Vec2(PLT)
	add	r1, sp, #64
	add	r2, sp, #88
	add	r3, sp, #112
	mov	r0, r1
	mov	r1, r2
	mov	r2, r3
	bl	_ZmiRK6b2Vec2S1_(PLT)
	.loc 4 185 0
	ldr	r3, [sp, #4]
	add	r2, r3, #172
	add	r1, sp, #120
	add	r3, sp, #64
	mov	r0, r1
	mov	r1, r2
	mov	r2, r3
	bl	_Z7b2Mul22RK7b2Mat33RK6b2Vec2(PLT)
	add	r2, sp, #56
	add	r3, sp, #120
	mov	r0, r2
	mov	r1, r3
	bl	_ZNK6b2Vec2ngEv(PLT)
	.loc 4 186 0
	ldr	r3, [sp, #4]
	ldr	r2, [r3, #104]	@ float
	ldr	r3, [sp, #56]	@ float
	mov	r0, r2
	mov	r1, r3
	bl	__aeabi_fadd(PLT)
	mov	r3, r0
	mov	r2, r3
	ldr	r3, [sp, #4]
	str	r2, [r3, #104]	@ float
	.loc 4 187 0
	ldr	r3, [sp, #4]
	ldr	r2, [r3, #108]	@ float
	ldr	r3, [sp, #60]	@ float
	mov	r0, r2
	mov	r1, r3
	bl	__aeabi_fadd(PLT)
	mov	r3, r0
	mov	r2, r3
	ldr	r3, [sp, #4]
	str	r2, [r3, #108]	@ float
	.loc 4 189 0
	add	r3, sp, #48
	add	r2, sp, #56
	ldmia	r2, {r0, r1}
	stmia	r3, {r0, r1}
	.loc 4 191 0
	add	r2, sp, #128
	add	r3, sp, #48
	mov	r0, r2
	ldr	r1, [sp, #228]	@ float
	mov	r2, r3
	bl	_ZmlfRK6b2Vec2(PLT)
	add	r2, sp, #80
	add	r3, sp, #128
	mov	r0, r2
	mov	r1, r3
	bl	_ZN6b2Vec2mIERKS_(PLT)
	.loc 4 192 0
	ldr	r3, [sp, #4]
	add	r2, r3, #124
	add	r3, sp, #48
	mov	r0, r2
	mov	r1, r3
	bl	_Z7b2CrossRK6b2Vec2S1_(PLT)
	mov	r3, r0
	mov	r0, r3
	ldr	r1, [sp, #220]	@ float
	bl	__aeabi_fmul(PLT)
	mov	r3, r0
	ldr	r0, [sp, #236]	@ float
	mov	r1, r3
	bl	__aeabi_fsub(PLT)
	mov	r3, r0
	str	r3, [sp, #236]	@ float
	.loc 4 194 0
	add	r2, sp, #136
	add	r3, sp, #48
	mov	r0, r2
	ldr	r1, [sp, #224]	@ float
	mov	r2, r3
	bl	_ZmlfRK6b2Vec2(PLT)
	add	r2, sp, #72
	add	r3, sp, #136
	mov	r0, r2
	mov	r1, r3
	bl	_ZN6b2Vec2pLERKS_(PLT)
	.loc 4 195 0
	ldr	r3, [sp, #4]
	add	r2, r3, #132
	add	r3, sp, #48
	mov	r0, r2
	mov	r1, r3
	bl	_Z7b2CrossRK6b2Vec2S1_(PLT)
	mov	r3, r0
	mov	r0, r3
	ldr	r1, [sp, #216]	@ float
	bl	__aeabi_fmul(PLT)
	mov	r3, r0
	ldr	r0, [sp, #232]	@ float
	mov	r1, r3
	bl	__aeabi_fadd(PLT)
	mov	r3, r0
	str	r3, [sp, #232]	@ float
.LBE19:
	b	.L109
.L111:
.LBB20:
	.loc 4 199 0
	ldr	r3, [sp, #4]
	add	r3, r3, #132
	add	r2, sp, #160
	mov	r0, r2
	ldr	r1, [sp, #232]	@ float
	mov	r2, r3
	bl	_Z7b2CrossfRK6b2Vec2(PLT)
	add	r1, sp, #152
	add	r2, sp, #72
	add	r3, sp, #160
	mov	r0, r1
	mov	r1, r2
	mov	r2, r3
	bl	_ZplRK6b2Vec2S1_(PLT)
	add	r1, sp, #144
	add	r2, sp, #152
	add	r3, sp, #80
	mov	r0, r1
	mov	r1, r2
	mov	r2, r3
	bl	_ZmiRK6b2Vec2S1_(PLT)
	ldr	r3, [sp, #4]
	add	r3, r3, #124
	add	r2, sp, #168
	mov	r0, r2
	ldr	r1, [sp, #236]	@ float
	mov	r2, r3
	bl	_Z7b2CrossfRK6b2Vec2(PLT)
	add	r1, sp, #40
	add	r2, sp, #144
	add	r3, sp, #168
	mov	r0, r1
	mov	r1, r2
	mov	r2, r3
	bl	_ZmiRK6b2Vec2S1_(PLT)
	.loc 4 200 0
	ldr	r0, [sp, #232]	@ float
	ldr	r1, [sp, #236]	@ float
	bl	__aeabi_fsub(PLT)
	mov	r3, r0
	str	r3, [sp, #204]	@ float
	.loc 4 201 0
	ldr	r2, [sp, #40]	@ float
	ldr	r3, [sp, #44]	@ float
	add	r1, sp, #28
	mov	r0, r1
	mov	r1, r2
	mov	r2, r3
	ldr	r3, [sp, #204]	@ float
	bl	_ZN6b2Vec3C1Efff(PLT)
	.loc 4 203 0
	ldr	r3, [sp, #4]
	add	r2, r3, #172
	add	r1, sp, #176
	add	r3, sp, #28
	mov	r0, r1
	mov	r1, r2
	mov	r2, r3
	bl	_Z5b2MulRK7b2Mat33RK6b2Vec3(PLT)
	add	r2, sp, #16
	add	r3, sp, #176
	mov	r0, r2
	mov	r1, r3
	bl	_ZNK6b2Vec3ngEv(PLT)
	.loc 4 204 0
	ldr	r3, [sp, #4]
	add	r2, r3, #104
	add	r3, sp, #16
	mov	r0, r2
	mov	r1, r3
	bl	_ZN6b2Vec3pLERKS_(PLT)
	.loc 4 206 0
	ldr	r2, [sp, #16]	@ float
	ldr	r3, [sp, #20]	@ float
	add	r1, sp, #8
	mov	r0, r1
	mov	r1, r2
	mov	r2, r3
	bl	_ZN6b2Vec2C1Eff(PLT)
	.loc 4 208 0
	add	r2, sp, #188
	add	r3, sp, #8
	mov	r0, r2
	ldr	r1, [sp, #228]	@ float
	mov	r2, r3
	bl	_ZmlfRK6b2Vec2(PLT)
	add	r2, sp, #80
	add	r3, sp, #188
	mov	r0, r2
	mov	r1, r3
	bl	_ZN6b2Vec2mIERKS_(PLT)
	.loc 4 209 0
	ldr	r3, [sp, #4]
	add	r2, r3, #124
	add	r3, sp, #8
	mov	r0, r2
	mov	r1, r3
	bl	_Z7b2CrossRK6b2Vec2S1_(PLT)
	mov	r2, r0
	ldr	r3, [sp, #24]	@ float
	mov	r0, r2
	mov	r1, r3
	bl	__aeabi_fadd(PLT)
	mov	r3, r0
	mov	r0, r3
	ldr	r1, [sp, #220]	@ float
	bl	__aeabi_fmul(PLT)
	mov	r3, r0
	ldr	r0, [sp, #236]	@ float
	mov	r1, r3
	bl	__aeabi_fsub(PLT)
	mov	r3, r0
	str	r3, [sp, #236]	@ float
	.loc 4 211 0
	add	r2, sp, #196
	add	r3, sp, #8
	mov	r0, r2
	ldr	r1, [sp, #224]	@ float
	mov	r2, r3
	bl	_ZmlfRK6b2Vec2(PLT)
	add	r2, sp, #72
	add	r3, sp, #196
	mov	r0, r2
	mov	r1, r3
	bl	_ZN6b2Vec2pLERKS_(PLT)
	.loc 4 212 0
	ldr	r3, [sp, #4]
	add	r2, r3, #132
	add	r3, sp, #8
	mov	r0, r2
	mov	r1, r3
	bl	_Z7b2CrossRK6b2Vec2S1_(PLT)
	mov	r2, r0
	ldr	r3, [sp, #24]	@ float
	mov	r0, r2
	mov	r1, r3
	bl	__aeabi_fadd(PLT)
	mov	r3, r0
	mov	r0, r3
	ldr	r1, [sp, #216]	@ float
	bl	__aeabi_fmul(PLT)
	mov	r3, r0
	ldr	r0, [sp, #232]	@ float
	mov	r1, r3
	bl	__aeabi_fadd(PLT)
	mov	r3, r0
	str	r3, [sp, #232]	@ float
.L109:
.LBE20:
.LBE18:
	.loc 4 215 0
	ldr	r3, [sp]
	ldr	r1, [r3, #28]
	ldr	r3, [sp, #4]
	ldr	r3, [r3, #116]
	mov	r2, r3
	mov	r3, r2
	mov	r3, r3, asl #1
	add	r3, r3, r2
	mov	r3, r3, asl #2
	add	r3, r1, r3
	add	r2, sp, #80
	ldmia	r2, {r0, r1}
	stmia	r3, {r0, r1}
	.loc 4 216 0
	ldr	r3, [sp]
	ldr	r1, [r3, #28]
	ldr	r3, [sp, #4]
	ldr	r3, [r3, #116]
	mov	r2, r3
	mov	r3, r2
	mov	r3, r3, asl #1
	add	r3, r3, r2
	mov	r3, r3, asl #2
	add	r3, r1, r3
	ldr	r2, [sp, #236]	@ float
	str	r2, [r3, #8]	@ float
	.loc 4 217 0
	ldr	r3, [sp]
	ldr	r1, [r3, #28]
	ldr	r3, [sp, #4]
	ldr	r3, [r3, #120]
	mov	r2, r3
	mov	r3, r2
	mov	r3, r3, asl #1
	add	r3, r3, r2
	mov	r3, r3, asl #2
	add	r3, r1, r3
	add	r2, sp, #72
	ldmia	r2, {r0, r1}
	stmia	r3, {r0, r1}
	.loc 4 218 0
	ldr	r3, [sp]
	ldr	r1, [r3, #28]
	ldr	r3, [sp, #4]
	ldr	r3, [r3, #120]
	mov	r2, r3
	mov	r3, r2
	mov	r3, r3, asl #1
	add	r3, r3, r2
	mov	r3, r3, asl #2
	add	r3, r1, r3
	ldr	r2, [sp, #232]	@ float
	str	r2, [r3, #8]	@ float
.LBE17:
	.loc 4 219 0
	add	sp, sp, #244
	@ sp needed
	ldmfd	sp!, {r4, r5, pc}
	.cfi_endproc
.LFE518:
	.size	_ZN11b2WeldJoint24SolveVelocityConstraintsERK12b2SolverData, .-_ZN11b2WeldJoint24SolveVelocityConstraintsERK12b2SolverData
	.global	__aeabi_fcmple
	.section	.text._ZN11b2WeldJoint24SolvePositionConstraintsERK12b2SolverData,"ax",%progbits
	.align	2
	.global	_ZN11b2WeldJoint24SolvePositionConstraintsERK12b2SolverData
	.hidden	_ZN11b2WeldJoint24SolvePositionConstraintsERK12b2SolverData
	.type	_ZN11b2WeldJoint24SolvePositionConstraintsERK12b2SolverData, %function
_ZN11b2WeldJoint24SolvePositionConstraintsERK12b2SolverData:
.LFB519:
	.loc 4 222 0
	.cfi_startproc
	@ args = 0, pretend = 0, frame = 288
	@ frame_needed = 0, uses_anonymous_args = 0
	stmfd	sp!, {r4, lr}
.LCFI69:
	.cfi_def_cfa_offset 8
	.cfi_offset 4, -8
	.cfi_offset 14, -4
	sub	sp, sp, #288
.LCFI70:
	.cfi_def_cfa_offset 296
	str	r0, [sp, #4]
	str	r1, [sp]
.LBB21:
	.loc 4 223 0
	ldr	r3, [sp]
	ldr	r1, [r3, #24]
	ldr	r3, [sp, #4]
	ldr	r3, [r3, #116]
	mov	r2, r3
	mov	r3, r2
	mov	r3, r3, asl #1
	add	r3, r3, r2
	mov	r3, r3, asl #2
	add	r2, r1, r3
	add	r3, sp, #144
	ldmia	r2, {r0, r1}
	stmia	r3, {r0, r1}
	.loc 4 224 0
	ldr	r3, [sp]
	ldr	r1, [r3, #24]
	ldr	r3, [sp, #4]
	ldr	r3, [r3, #116]
	mov	r2, r3
	mov	r3, r2
	mov	r3, r3, asl #1
	add	r3, r3, r2
	mov	r3, r3, asl #2
	add	r3, r1, r3
	ldr	r3, [r3, #8]	@ float
	str	r3, [sp, #284]	@ float
	.loc 4 225 0
	ldr	r3, [sp]
	ldr	r1, [r3, #24]
	ldr	r3, [sp, #4]
	ldr	r3, [r3, #120]
	mov	r2, r3
	mov	r3, r2
	mov	r3, r3, asl #1
	add	r3, r3, r2
	mov	r3, r3, asl #2
	add	r2, r1, r3
	add	r3, sp, #136
	ldmia	r2, {r0, r1}
	stmia	r3, {r0, r1}
	.loc 4 226 0
	ldr	r3, [sp]
	ldr	r1, [r3, #24]
	ldr	r3, [sp, #4]
	ldr	r3, [r3, #120]
	mov	r2, r3
	mov	r3, r2
	mov	r3, r3, asl #1
	add	r3, r3, r2
	mov	r3, r3, asl #2
	add	r3, r1, r3
	ldr	r3, [r3, #8]	@ float
	str	r3, [sp, #280]	@ float
	.loc 4 228 0
	add	r3, sp, #128
	mov	r0, r3
	ldr	r1, [sp, #284]	@ float
	bl	_ZN5b2RotC1Ef(PLT)
	add	r3, sp, #120
	mov	r0, r3
	ldr	r1, [sp, #280]	@ float
	bl	_ZN5b2RotC1Ef(PLT)
	.loc 4 230 0
	ldr	r3, [sp, #4]
	ldr	r3, [r3, #156]	@ float
	str	r3, [sp, #268]	@ float
	ldr	r3, [sp, #4]
	ldr	r3, [r3, #160]	@ float
	str	r3, [sp, #264]	@ float
	.loc 4 231 0
	ldr	r3, [sp, #4]
	ldr	r3, [r3, #164]	@ float
	str	r3, [sp, #260]	@ float
	ldr	r3, [sp, #4]
	ldr	r3, [r3, #168]	@ float
	str	r3, [sp, #256]	@ float
	.loc 4 233 0
	ldr	r3, [sp, #4]
	add	r2, r3, #80
	ldr	r3, [sp, #4]
	add	r3, r3, #140
	add	r1, sp, #152
	mov	r0, r1
	mov	r1, r2
	mov	r2, r3
	bl	_ZmiRK6b2Vec2S1_(PLT)
	add	r1, sp, #112
	add	r2, sp, #128
	add	r3, sp, #152
	mov	r0, r1
	mov	r1, r2
	mov	r2, r3
	bl	_Z5b2MulRK5b2RotRK6b2Vec2(PLT)
	.loc 4 234 0
	ldr	r3, [sp, #4]
	add	r2, r3, #88
	ldr	r3, [sp, #4]
	add	r3, r3, #148
	add	r1, sp, #160
	mov	r0, r1
	mov	r1, r2
	mov	r2, r3
	bl	_ZmiRK6b2Vec2S1_(PLT)
	add	r1, sp, #104
	add	r2, sp, #120
	add	r3, sp, #160
	mov	r0, r1
	mov	r1, r2
	mov	r2, r3
	bl	_Z5b2MulRK5b2RotRK6b2Vec2(PLT)
	.loc 4 238 0
	add	r3, sp, #12
	mov	r0, r3
	bl	_ZN7b2Mat33C1Ev(PLT)
	.loc 4 239 0
	ldr	r0, [sp, #268]	@ float
	ldr	r1, [sp, #264]	@ float
	bl	__aeabi_fadd(PLT)
	mov	r3, r0
	mov	r4, r3
	ldr	r2, [sp, #116]	@ float
	ldr	r3, [sp, #116]	@ float
	mov	r0, r2
	mov	r1, r3
	bl	__aeabi_fmul(PLT)
	mov	r3, r0
	mov	r0, r3
	ldr	r1, [sp, #260]	@ float
	bl	__aeabi_fmul(PLT)
	mov	r3, r0
	mov	r0, r4
	mov	r1, r3
	bl	__aeabi_fadd(PLT)
	mov	r3, r0
	mov	r4, r3
	ldr	r2, [sp, #108]	@ float
	ldr	r3, [sp, #108]	@ float
	mov	r0, r2
	mov	r1, r3
	bl	__aeabi_fmul(PLT)
	mov	r3, r0
	mov	r0, r3
	ldr	r1, [sp, #256]	@ float
	bl	__aeabi_fmul(PLT)
	mov	r3, r0
	mov	r0, r4
	mov	r1, r3
	bl	__aeabi_fadd(PLT)
	mov	r3, r0
	str	r3, [sp, #12]	@ float
	.loc 4 240 0
	ldr	r3, [sp, #116]	@ float
	eor	r2, r3, #-2147483648
	ldr	r3, [sp, #112]	@ float
	mov	r0, r2
	mov	r1, r3
	bl	__aeabi_fmul(PLT)
	mov	r3, r0
	mov	r0, r3
	ldr	r1, [sp, #260]	@ float
	bl	__aeabi_fmul(PLT)
	mov	r3, r0
	mov	r4, r3
	ldr	r2, [sp, #108]	@ float
	ldr	r3, [sp, #104]	@ float
	mov	r0, r2
	mov	r1, r3
	bl	__aeabi_fmul(PLT)
	mov	r3, r0
	mov	r0, r3
	ldr	r1, [sp, #256]	@ float
	bl	__aeabi_fmul(PLT)
	mov	r3, r0
	mov	r0, r4
	mov	r1, r3
	bl	__aeabi_fsub(PLT)
	mov	r3, r0
	str	r3, [sp, #24]	@ float
	.loc 4 241 0
	ldr	r3, [sp, #116]	@ float
	eor	r3, r3, #-2147483648
	mov	r0, r3
	ldr	r1, [sp, #260]	@ float
	bl	__aeabi_fmul(PLT)
	mov	r3, r0
	mov	r4, r3
	ldr	r3, [sp, #108]	@ float
	mov	r0, r3
	ldr	r1, [sp, #256]	@ float
	bl	__aeabi_fmul(PLT)
	mov	r3, r0
	mov	r0, r4
	mov	r1, r3
	bl	__aeabi_fsub(PLT)
	mov	r3, r0
	str	r3, [sp, #36]	@ float
	.loc 4 242 0
	ldr	r3, [sp, #24]	@ float
	str	r3, [sp, #16]	@ float
	.loc 4 243 0
	ldr	r0, [sp, #268]	@ float
	ldr	r1, [sp, #264]	@ float
	bl	__aeabi_fadd(PLT)
	mov	r3, r0
	mov	r4, r3
	ldr	r2, [sp, #112]	@ float
	ldr	r3, [sp, #112]	@ float
	mov	r0, r2
	mov	r1, r3
	bl	__aeabi_fmul(PLT)
	mov	r3, r0
	mov	r0, r3
	ldr	r1, [sp, #260]	@ float
	bl	__aeabi_fmul(PLT)
	mov	r3, r0
	mov	r0, r4
	mov	r1, r3
	bl	__aeabi_fadd(PLT)
	mov	r3, r0
	mov	r4, r3
	ldr	r2, [sp, #104]	@ float
	ldr	r3, [sp, #104]	@ float
	mov	r0, r2
	mov	r1, r3
	bl	__aeabi_fmul(PLT)
	mov	r3, r0
	mov	r0, r3
	ldr	r1, [sp, #256]	@ float
	bl	__aeabi_fmul(PLT)
	mov	r3, r0
	mov	r0, r4
	mov	r1, r3
	bl	__aeabi_fadd(PLT)
	mov	r3, r0
	str	r3, [sp, #28]	@ float
	.loc 4 244 0
	ldr	r3, [sp, #112]	@ float
	mov	r0, r3
	ldr	r1, [sp, #260]	@ float
	bl	__aeabi_fmul(PLT)
	mov	r3, r0
	mov	r4, r3
	ldr	r3, [sp, #104]	@ float
	mov	r0, r3
	ldr	r1, [sp, #256]	@ float
	bl	__aeabi_fmul(PLT)
	mov	r3, r0
	mov	r0, r4
	mov	r1, r3
	bl	__aeabi_fadd(PLT)
	mov	r3, r0
	str	r3, [sp, #40]	@ float
	.loc 4 245 0
	ldr	r3, [sp, #36]	@ float
	str	r3, [sp, #20]	@ float
	.loc 4 246 0
	ldr	r3, [sp, #40]	@ float
	str	r3, [sp, #32]	@ float
	.loc 4 247 0
	ldr	r0, [sp, #260]	@ float
	ldr	r1, [sp, #256]	@ float
	bl	__aeabi_fadd(PLT)
	mov	r3, r0
	str	r3, [sp, #44]	@ float
.LBB22:
	.loc 4 249 0
	ldr	r3, [sp, #4]
	ldr	r3, [r3, #68]	@ float
	mov	r0, r3
	mov	r1, #0
	bl	__aeabi_fcmpgt(PLT)
	mov	r3, r0
	cmp	r3, #0
	beq	.L124
.LBB23:
	.loc 4 251 0
	add	r1, sp, #176
	add	r2, sp, #136
	add	r3, sp, #104
	mov	r0, r1
	mov	r1, r2
	mov	r2, r3
	bl	_ZplRK6b2Vec2S1_(PLT)
	add	r1, sp, #168
	add	r2, sp, #176
	add	r3, sp, #144
	mov	r0, r1
	mov	r1, r2
	mov	r2, r3
	bl	_ZmiRK6b2Vec2S1_(PLT)
	add	r1, sp, #96
	add	r2, sp, #168
	add	r3, sp, #112
	mov	r0, r1
	mov	r1, r2
	mov	r2, r3
	bl	_ZmiRK6b2Vec2S1_(PLT)
	.loc 4 253 0
	add	r3, sp, #96
	mov	r0, r3
	bl	_ZNK6b2Vec26LengthEv(PLT)
	str	r0, [sp, #276]	@ float
	.loc 4 254 0
	mov	r3, #0
	str	r3, [sp, #272]	@ float
	.loc 4 256 0
	add	r1, sp, #184
	add	r2, sp, #12
	add	r3, sp, #96
	mov	r0, r1
	mov	r1, r2
	mov	r2, r3
	bl	_ZNK7b2Mat337Solve22ERK6b2Vec2(PLT)
	add	r2, sp, #88
	add	r3, sp, #184
	mov	r0, r2
	mov	r1, r3
	bl	_ZNK6b2Vec2ngEv(PLT)
	.loc 4 258 0
	add	r2, sp, #192
	add	r3, sp, #88
	mov	r0, r2
	ldr	r1, [sp, #268]	@ float
	mov	r2, r3
	bl	_ZmlfRK6b2Vec2(PLT)
	add	r2, sp, #144
	add	r3, sp, #192
	mov	r0, r2
	mov	r1, r3
	bl	_ZN6b2Vec2mIERKS_(PLT)
	.loc 4 259 0
	add	r2, sp, #112
	add	r3, sp, #88
	mov	r0, r2
	mov	r1, r3
	bl	_Z7b2CrossRK6b2Vec2S1_(PLT)
	mov	r3, r0
	mov	r0, r3
	ldr	r1, [sp, #260]	@ float
	bl	__aeabi_fmul(PLT)
	mov	r3, r0
	ldr	r0, [sp, #284]	@ float
	mov	r1, r3
	bl	__aeabi_fsub(PLT)
	mov	r3, r0
	str	r3, [sp, #284]	@ float
	.loc 4 261 0
	add	r2, sp, #200
	add	r3, sp, #88
	mov	r0, r2
	ldr	r1, [sp, #264]	@ float
	mov	r2, r3
	bl	_ZmlfRK6b2Vec2(PLT)
	add	r2, sp, #136
	add	r3, sp, #200
	mov	r0, r2
	mov	r1, r3
	bl	_ZN6b2Vec2pLERKS_(PLT)
	.loc 4 262 0
	add	r2, sp, #104
	add	r3, sp, #88
	mov	r0, r2
	mov	r1, r3
	bl	_Z7b2CrossRK6b2Vec2S1_(PLT)
	mov	r3, r0
	mov	r0, r3
	ldr	r1, [sp, #256]	@ float
	bl	__aeabi_fmul(PLT)
	mov	r3, r0
	ldr	r0, [sp, #280]	@ float
	mov	r1, r3
	bl	__aeabi_fadd(PLT)
	mov	r3, r0
	str	r3, [sp, #280]	@ float
.LBE23:
	b	.L115
.L124:
.LBB24:
	.loc 4 266 0
	add	r1, sp, #216
	add	r2, sp, #136
	add	r3, sp, #104
	mov	r0, r1
	mov	r1, r2
	mov	r2, r3
	bl	_ZplRK6b2Vec2S1_(PLT)
	add	r1, sp, #208
	add	r2, sp, #216
	add	r3, sp, #144
	mov	r0, r1
	mov	r1, r2
	mov	r2, r3
	bl	_ZmiRK6b2Vec2S1_(PLT)
	add	r1, sp, #80
	add	r2, sp, #208
	add	r3, sp, #112
	mov	r0, r1
	mov	r1, r2
	mov	r2, r3
	bl	_ZmiRK6b2Vec2S1_(PLT)
	.loc 4 267 0
	ldr	r0, [sp, #280]	@ float
	ldr	r1, [sp, #284]	@ float
	bl	__aeabi_fsub(PLT)
	mov	r3, r0
	mov	r2, r3
	ldr	r3, [sp, #4]
	ldr	r3, [r3, #96]	@ float
	mov	r0, r2
	mov	r1, r3
	bl	__aeabi_fsub(PLT)
	mov	r3, r0
	str	r3, [sp, #252]	@ float
	.loc 4 269 0
	add	r3, sp, #80
	mov	r0, r3
	bl	_ZNK6b2Vec26LengthEv(PLT)
	str	r0, [sp, #276]	@ float
	.loc 4 270 0
	ldr	r0, [sp, #252]	@ float
	bl	_Z5b2AbsIfET_S0_(PLT)
	str	r0, [sp, #272]	@ float
	.loc 4 272 0
	ldr	r2, [sp, #80]	@ float
	ldr	r3, [sp, #84]	@ float
	add	r1, sp, #68
	mov	r0, r1
	mov	r1, r2
	mov	r2, r3
	ldr	r3, [sp, #252]	@ float
	bl	_ZN6b2Vec3C1Efff(PLT)
	.loc 4 274 0
	add	r1, sp, #224
	add	r2, sp, #12
	add	r3, sp, #68
	mov	r0, r1
	mov	r1, r2
	mov	r2, r3
	bl	_ZNK7b2Mat337Solve33ERK6b2Vec3(PLT)
	add	r2, sp, #56
	add	r3, sp, #224
	mov	r0, r2
	mov	r1, r3
	bl	_ZNK6b2Vec3ngEv(PLT)
	.loc 4 275 0
	ldr	r2, [sp, #56]	@ float
	ldr	r3, [sp, #60]	@ float
	add	r1, sp, #48
	mov	r0, r1
	mov	r1, r2
	mov	r2, r3
	bl	_ZN6b2Vec2C1Eff(PLT)
	.loc 4 277 0
	add	r2, sp, #236
	add	r3, sp, #48
	mov	r0, r2
	ldr	r1, [sp, #268]	@ float
	mov	r2, r3
	bl	_ZmlfRK6b2Vec2(PLT)
	add	r2, sp, #144
	add	r3, sp, #236
	mov	r0, r2
	mov	r1, r3
	bl	_ZN6b2Vec2mIERKS_(PLT)
	.loc 4 278 0
	add	r2, sp, #112
	add	r3, sp, #48
	mov	r0, r2
	mov	r1, r3
	bl	_Z7b2CrossRK6b2Vec2S1_(PLT)
	mov	r2, r0
	ldr	r3, [sp, #64]	@ float
	mov	r0, r2
	mov	r1, r3
	bl	__aeabi_fadd(PLT)
	mov	r3, r0
	mov	r0, r3
	ldr	r1, [sp, #260]	@ float
	bl	__aeabi_fmul(PLT)
	mov	r3, r0
	ldr	r0, [sp, #284]	@ float
	mov	r1, r3
	bl	__aeabi_fsub(PLT)
	mov	r3, r0
	str	r3, [sp, #284]	@ float
	.loc 4 280 0
	add	r2, sp, #244
	add	r3, sp, #48
	mov	r0, r2
	ldr	r1, [sp, #264]	@ float
	mov	r2, r3
	bl	_ZmlfRK6b2Vec2(PLT)
	add	r2, sp, #136
	add	r3, sp, #244
	mov	r0, r2
	mov	r1, r3
	bl	_ZN6b2Vec2pLERKS_(PLT)
	.loc 4 281 0
	add	r2, sp, #104
	add	r3, sp, #48
	mov	r0, r2
	mov	r1, r3
	bl	_Z7b2CrossRK6b2Vec2S1_(PLT)
	mov	r2, r0
	ldr	r3, [sp, #64]	@ float
	mov	r0, r2
	mov	r1, r3
	bl	__aeabi_fadd(PLT)
	mov	r3, r0
	mov	r0, r3
	ldr	r1, [sp, #256]	@ float
	bl	__aeabi_fmul(PLT)
	mov	r3, r0
	ldr	r0, [sp, #280]	@ float
	mov	r1, r3
	bl	__aeabi_fadd(PLT)
	mov	r3, r0
	str	r3, [sp, #280]	@ float
.L115:
.LBE24:
.LBE22:
	.loc 4 284 0
	ldr	r3, [sp]
	ldr	r1, [r3, #24]
	ldr	r3, [sp, #4]
	ldr	r3, [r3, #116]
	mov	r2, r3
	mov	r3, r2
	mov	r3, r3, asl #1
	add	r3, r3, r2
	mov	r3, r3, asl #2
	add	r3, r1, r3
	add	r2, sp, #144
	ldmia	r2, {r0, r1}
	stmia	r3, {r0, r1}
	.loc 4 285 0
	ldr	r3, [sp]
	ldr	r1, [r3, #24]
	ldr	r3, [sp, #4]
	ldr	r3, [r3, #116]
	mov	r2, r3
	mov	r3, r2
	mov	r3, r3, asl #1
	add	r3, r3, r2
	mov	r3, r3, asl #2
	add	r3, r1, r3
	ldr	r2, [sp, #284]	@ float
	str	r2, [r3, #8]	@ float
	.loc 4 286 0
	ldr	r3, [sp]
	ldr	r1, [r3, #24]
	ldr	r3, [sp, #4]
	ldr	r3, [r3, #120]
	mov	r2, r3
	mov	r3, r2
	mov	r3, r3, asl #1
	add	r3, r3, r2
	mov	r3, r3, asl #2
	add	r3, r1, r3
	add	r2, sp, #136
	ldmia	r2, {r0, r1}
	stmia	r3, {r0, r1}
	.loc 4 287 0
	ldr	r3, [sp]
	ldr	r1, [r3, #24]
	ldr	r3, [sp, #4]
	ldr	r3, [r3, #120]
	mov	r2, r3
	mov	r3, r2
	mov	r3, r3, asl #1
	add	r3, r3, r2
	mov	r3, r3, asl #2
	add	r3, r1, r3
	ldr	r2, [sp, #280]	@ float
	str	r2, [r3, #8]	@ float
	.loc 4 289 0
	ldr	r0, [sp, #276]	@ float
	ldr	r1, .L125
	bl	__aeabi_fcmple(PLT)
	mov	r3, r0
	cmp	r3, #0
	beq	.L116
	.loc 4 289 0 is_stmt 0 discriminator 1
	ldr	r0, [sp, #272]	@ float
	ldr	r1, .L125+4
	bl	__aeabi_fcmple(PLT)
	mov	r3, r0
	cmp	r3, #0
	beq	.L116
	.loc 4 289 0 discriminator 3
	mov	r3, #1
	b	.L119
.L116:
	.loc 4 289 0 discriminator 2
	mov	r3, #0
.L119:
.LBE21:
	.loc 4 290 0 is_stmt 1 discriminator 4
	mov	r0, r3
	add	sp, sp, #288
	@ sp needed
	ldmfd	sp!, {r4, pc}
.L126:
	.align	2
.L125:
	.word	1000593162
	.word	1024391734
	.cfi_endproc
.LFE519:
	.size	_ZN11b2WeldJoint24SolvePositionConstraintsERK12b2SolverData, .-_ZN11b2WeldJoint24SolvePositionConstraintsERK12b2SolverData
	.section	.text._ZNK11b2WeldJoint10GetAnchorAEv,"ax",%progbits
	.align	2
	.global	_ZNK11b2WeldJoint10GetAnchorAEv
	.hidden	_ZNK11b2WeldJoint10GetAnchorAEv
	.type	_ZNK11b2WeldJoint10GetAnchorAEv, %function
_ZNK11b2WeldJoint10GetAnchorAEv:
.LFB520:
	.loc 4 293 0
	.cfi_startproc
	@ args = 0, pretend = 0, frame = 8
	@ frame_needed = 0, uses_anonymous_args = 0
	str	lr, [sp, #-4]!
.LCFI71:
	.cfi_def_cfa_offset 4
	.cfi_offset 14, -4
	sub	sp, sp, #12
.LCFI72:
	.cfi_def_cfa_offset 16
	str	r0, [sp, #4]
	str	r1, [sp]
	.loc 4 294 0
	ldr	r3, [sp]
	ldr	r2, [r3, #48]
	ldr	r3, [sp]
	add	r3, r3, #80
	ldr	r1, [sp, #4]
	mov	r0, r1
	mov	r1, r2
	mov	r2, r3
	bl	_ZNK6b2Body13GetWorldPointERK6b2Vec2(PLT)
	.loc 4 295 0
	ldr	r0, [sp, #4]
	add	sp, sp, #12
	@ sp needed
	ldr	pc, [sp], #4
	.cfi_endproc
.LFE520:
	.size	_ZNK11b2WeldJoint10GetAnchorAEv, .-_ZNK11b2WeldJoint10GetAnchorAEv
	.section	.text._ZNK11b2WeldJoint10GetAnchorBEv,"ax",%progbits
	.align	2
	.global	_ZNK11b2WeldJoint10GetAnchorBEv
	.hidden	_ZNK11b2WeldJoint10GetAnchorBEv
	.type	_ZNK11b2WeldJoint10GetAnchorBEv, %function
_ZNK11b2WeldJoint10GetAnchorBEv:
.LFB521:
	.loc 4 298 0
	.cfi_startproc
	@ args = 0, pretend = 0, frame = 8
	@ frame_needed = 0, uses_anonymous_args = 0
	str	lr, [sp, #-4]!
.LCFI73:
	.cfi_def_cfa_offset 4
	.cfi_offset 14, -4
	sub	sp, sp, #12
.LCFI74:
	.cfi_def_cfa_offset 16
	str	r0, [sp, #4]
	str	r1, [sp]
	.loc 4 299 0
	ldr	r3, [sp]
	ldr	r2, [r3, #52]
	ldr	r3, [sp]
	add	r3, r3, #88
	ldr	r1, [sp, #4]
	mov	r0, r1
	mov	r1, r2
	mov	r2, r3
	bl	_ZNK6b2Body13GetWorldPointERK6b2Vec2(PLT)
	.loc 4 300 0
	ldr	r0, [sp, #4]
	add	sp, sp, #12
	@ sp needed
	ldr	pc, [sp], #4
	.cfi_endproc
.LFE521:
	.size	_ZNK11b2WeldJoint10GetAnchorBEv, .-_ZNK11b2WeldJoint10GetAnchorBEv
	.section	.text._ZNK11b2WeldJoint16GetReactionForceEf,"ax",%progbits
	.align	2
	.global	_ZNK11b2WeldJoint16GetReactionForceEf
	.hidden	_ZNK11b2WeldJoint16GetReactionForceEf
	.type	_ZNK11b2WeldJoint16GetReactionForceEf, %function
_ZNK11b2WeldJoint16GetReactionForceEf:
.LFB522:
	.loc 4 303 0
	.cfi_startproc
	@ args = 0, pretend = 0, frame = 24
	@ frame_needed = 0, uses_anonymous_args = 0
	str	lr, [sp, #-4]!
.LCFI75:
	.cfi_def_cfa_offset 4
	.cfi_offset 14, -4
	sub	sp, sp, #28
.LCFI76:
	.cfi_def_cfa_offset 32
	str	r0, [sp, #12]
	str	r1, [sp, #8]
	str	r2, [sp, #4]	@ float
.LBB25:
	.loc 4 304 0
	ldr	r3, [sp, #8]
	ldr	r2, [r3, #104]	@ float
	ldr	r3, [sp, #8]
	ldr	r3, [r3, #108]	@ float
	add	r1, sp, #16
	mov	r0, r1
	mov	r1, r2
	mov	r2, r3
	bl	_ZN6b2Vec2C1Eff(PLT)
	.loc 4 305 0
	ldr	r2, [sp, #12]
	add	r3, sp, #16
	mov	r0, r2
	ldr	r1, [sp, #4]	@ float
	mov	r2, r3
	bl	_ZmlfRK6b2Vec2(PLT)
.LBE25:
	.loc 4 306 0
	ldr	r0, [sp, #12]
	add	sp, sp, #28
	@ sp needed
	ldr	pc, [sp], #4
	.cfi_endproc
.LFE522:
	.size	_ZNK11b2WeldJoint16GetReactionForceEf, .-_ZNK11b2WeldJoint16GetReactionForceEf
	.section	.text._ZNK11b2WeldJoint17GetReactionTorqueEf,"ax",%progbits
	.align	2
	.global	_ZNK11b2WeldJoint17GetReactionTorqueEf
	.hidden	_ZNK11b2WeldJoint17GetReactionTorqueEf
	.type	_ZNK11b2WeldJoint17GetReactionTorqueEf, %function
_ZNK11b2WeldJoint17GetReactionTorqueEf:
.LFB523:
	.loc 4 309 0
	.cfi_startproc
	@ args = 0, pretend = 0, frame = 8
	@ frame_needed = 0, uses_anonymous_args = 0
	str	lr, [sp, #-4]!
.LCFI77:
	.cfi_def_cfa_offset 4
	.cfi_offset 14, -4
	sub	sp, sp, #12
.LCFI78:
	.cfi_def_cfa_offset 16
	str	r0, [sp, #4]
	str	r1, [sp]	@ float
	.loc 4 310 0
	ldr	r3, [sp, #4]
	ldr	r3, [r3, #112]	@ float
	mov	r0, r3
	ldr	r1, [sp]	@ float
	bl	__aeabi_fmul(PLT)
	mov	r3, r0
	.loc 4 311 0
	mov	r0, r3
	add	sp, sp, #12
	@ sp needed
	ldr	pc, [sp], #4
	.cfi_endproc
.LFE523:
	.size	_ZNK11b2WeldJoint17GetReactionTorqueEf, .-_ZNK11b2WeldJoint17GetReactionTorqueEf
	.section	.rodata
	.align	2
.LC1:
	.ascii	"  b2WeldJointDef jd;\012\000"
	.align	2
.LC2:
	.ascii	"  jd.bodyA = bodies[%d];\012\000"
	.align	2
.LC3:
	.ascii	"  jd.bodyB = bodies[%d];\012\000"
	.align	2
.LC4:
	.ascii	"  jd.collideConnected = bool(%d);\012\000"
	.global	__aeabi_f2d
	.align	2
.LC5:
	.ascii	"  jd.localAnchorA.Set(%.15lef, %.15lef);\012\000"
	.align	2
.LC6:
	.ascii	"  jd.localAnchorB.Set(%.15lef, %.15lef);\012\000"
	.align	2
.LC7:
	.ascii	"  jd.referenceAngle = %.15lef;\012\000"
	.align	2
.LC8:
	.ascii	"  jd.frequencyHz = %.15lef;\012\000"
	.align	2
.LC9:
	.ascii	"  jd.dampingRatio = %.15lef;\012\000"
	.align	2
.LC10:
	.ascii	"  joints[%d] = m_world->CreateJoint(&jd);\012\000"
	.section	.text._ZN11b2WeldJoint4DumpEv,"ax",%progbits
	.align	2
	.global	_ZN11b2WeldJoint4DumpEv
	.hidden	_ZN11b2WeldJoint4DumpEv
	.type	_ZN11b2WeldJoint4DumpEv, %function
_ZN11b2WeldJoint4DumpEv:
.LFB524:
	.loc 4 314 0
	.cfi_startproc
	@ args = 0, pretend = 0, frame = 16
	@ frame_needed = 0, uses_anonymous_args = 0
	stmfd	sp!, {r4, r5, lr}
.LCFI79:
	.cfi_def_cfa_offset 12
	.cfi_offset 4, -12
	.cfi_offset 5, -8
	.cfi_offset 14, -4
	sub	sp, sp, #28
.LCFI80:
	.cfi_def_cfa_offset 40
	str	r0, [sp, #12]
.LBB26:
	.loc 4 315 0
	ldr	r3, [sp, #12]
	ldr	r3, [r3, #48]
	ldr	r3, [r3, #8]
	str	r3, [sp, #20]
	.loc 4 316 0
	ldr	r3, [sp, #12]
	ldr	r3, [r3, #52]
	ldr	r3, [r3, #8]
	str	r3, [sp, #16]
	.loc 4 318 0
	ldr	r3, .L136
.LPIC3:
	add	r3, pc, r3
	mov	r0, r3
	bl	_Z5b2LogPKcz(PLT)
	.loc 4 319 0
	ldr	r3, .L136+4
.LPIC4:
	add	r3, pc, r3
	mov	r0, r3
	ldr	r1, [sp, #20]
	bl	_Z5b2LogPKcz(PLT)
	.loc 4 320 0
	ldr	r3, .L136+8
.LPIC5:
	add	r3, pc, r3
	mov	r0, r3
	ldr	r1, [sp, #16]
	bl	_Z5b2LogPKcz(PLT)
	.loc 4 321 0
	ldr	r3, [sp, #12]
	ldrb	r3, [r3, #61]	@ zero_extendqisi2
	ldr	r2, .L136+12
.LPIC6:
	add	r2, pc, r2
	mov	r0, r2
	mov	r1, r3
	bl	_Z5b2LogPKcz(PLT)
	.loc 4 322 0
	ldr	r3, [sp, #12]
	ldr	r3, [r3, #80]	@ float
	mov	r0, r3
	bl	__aeabi_f2d(PLT)
	mov	r4, r0
	mov	r5, r1
	ldr	r3, [sp, #12]
	ldr	r3, [r3, #84]	@ float
	mov	r0, r3
	bl	__aeabi_f2d(PLT)
	mov	r2, r0
	mov	r3, r1
	strd	r2, [sp]
	ldr	r3, .L136+16
.LPIC7:
	add	r3, pc, r3
	mov	r0, r3
	mov	r2, r4
	mov	r3, r5
	bl	_Z5b2LogPKcz(PLT)
	.loc 4 323 0
	ldr	r3, [sp, #12]
	ldr	r3, [r3, #88]	@ float
	mov	r0, r3
	bl	__aeabi_f2d(PLT)
	mov	r4, r0
	mov	r5, r1
	ldr	r3, [sp, #12]
	ldr	r3, [r3, #92]	@ float
	mov	r0, r3
	bl	__aeabi_f2d(PLT)
	mov	r2, r0
	mov	r3, r1
	strd	r2, [sp]
	ldr	r3, .L136+20
.LPIC8:
	add	r3, pc, r3
	mov	r0, r3
	mov	r2, r4
	mov	r3, r5
	bl	_Z5b2LogPKcz(PLT)
	.loc 4 324 0
	ldr	r3, [sp, #12]
	ldr	r3, [r3, #96]	@ float
	mov	r0, r3
	bl	__aeabi_f2d(PLT)
	mov	r2, r0
	mov	r3, r1
	ldr	r1, .L136+24
.LPIC9:
	add	r1, pc, r1
	mov	r0, r1
	bl	_Z5b2LogPKcz(PLT)
	.loc 4 325 0
	ldr	r3, [sp, #12]
	ldr	r3, [r3, #68]	@ float
	mov	r0, r3
	bl	__aeabi_f2d(PLT)
	mov	r2, r0
	mov	r3, r1
	ldr	r1, .L136+28
.LPIC10:
	add	r1, pc, r1
	mov	r0, r1
	bl	_Z5b2LogPKcz(PLT)
	.loc 4 326 0
	ldr	r3, [sp, #12]
	ldr	r3, [r3, #72]	@ float
	mov	r0, r3
	bl	__aeabi_f2d(PLT)
	mov	r2, r0
	mov	r3, r1
	ldr	r1, .L136+32
.LPIC11:
	add	r1, pc, r1
	mov	r0, r1
	bl	_Z5b2LogPKcz(PLT)
	.loc 4 327 0
	ldr	r3, [sp, #12]
	ldr	r3, [r3, #56]
	ldr	r2, .L136+36
.LPIC12:
	add	r2, pc, r2
	mov	r0, r2
	mov	r1, r3
	bl	_Z5b2LogPKcz(PLT)
.LBE26:
	.loc 4 328 0
	add	sp, sp, #28
	@ sp needed
	ldmfd	sp!, {r4, r5, pc}
.L137:
	.align	2
.L136:
	.word	.LC1-(.LPIC3+8)
	.word	.LC2-(.LPIC4+8)
	.word	.LC3-(.LPIC5+8)
	.word	.LC4-(.LPIC6+8)
	.word	.LC5-(.LPIC7+8)
	.word	.LC6-(.LPIC8+8)
	.word	.LC7-(.LPIC9+8)
	.word	.LC8-(.LPIC10+8)
	.word	.LC9-(.LPIC11+8)
	.word	.LC10-(.LPIC12+8)
	.cfi_endproc
.LFE524:
	.size	_ZN11b2WeldJoint4DumpEv, .-_ZN11b2WeldJoint4DumpEv
	.section	.text._Z5b2AbsIfET_S0_,"axG",%progbits,_Z5b2AbsIfET_S0_,comdat
	.align	2
	.weak	_Z5b2AbsIfET_S0_
	.hidden	_Z5b2AbsIfET_S0_
	.type	_Z5b2AbsIfET_S0_, %function
_Z5b2AbsIfET_S0_:
.LFB525:
	.loc 1 616 0
	.cfi_startproc
	@ args = 0, pretend = 0, frame = 8
	@ frame_needed = 0, uses_anonymous_args = 0
	str	lr, [sp, #-4]!
.LCFI81:
	.cfi_def_cfa_offset 4
	.cfi_offset 14, -4
	sub	sp, sp, #12
.LCFI82:
	.cfi_def_cfa_offset 16
	str	r0, [sp, #4]	@ float
	.loc 1 618 0
	ldr	r0, [sp, #4]	@ float
	mov	r1, #0
	bl	__aeabi_fcmpgt(PLT)
	mov	r3, r0
	cmp	r3, #0
	beq	.L144
	.loc 1 618 0 is_stmt 0 discriminator 1
	ldr	r3, [sp, #4]	@ float
	b	.L141
.L144:
	.loc 1 618 0 discriminator 2
	ldr	r3, [sp, #4]
	eor	r3, r3, #-2147483648
.L141:
	.loc 1 619 0 is_stmt 1 discriminator 3
	mov	r0, r3
	add	sp, sp, #12
	@ sp needed
	ldr	pc, [sp], #4
	.cfi_endproc
.LFE525:
	.size	_Z5b2AbsIfET_S0_, .-_Z5b2AbsIfET_S0_
	.hidden	_ZTV11b2WeldJoint
	.global	_ZTV11b2WeldJoint
	.section	.data.rel.ro,"aw",%progbits
	.align	3
	.type	_ZTV11b2WeldJoint, %object
	.size	_ZTV11b2WeldJoint, 52
_ZTV11b2WeldJoint:
	.word	0
	.word	_ZTI11b2WeldJoint
	.word	_ZNK11b2WeldJoint10GetAnchorAEv
	.word	_ZNK11b2WeldJoint10GetAnchorBEv
	.word	_ZNK11b2WeldJoint16GetReactionForceEf
	.word	_ZNK11b2WeldJoint17GetReactionTorqueEf
	.word	_ZN11b2WeldJoint4DumpEv
	.word	_ZN7b2Joint11ShiftOriginERK6b2Vec2
	.word	_ZN11b2WeldJointD1Ev
	.word	_ZN11b2WeldJointD0Ev
	.word	_ZN11b2WeldJoint23InitVelocityConstraintsERK12b2SolverData
	.word	_ZN11b2WeldJoint24SolveVelocityConstraintsERK12b2SolverData
	.word	_ZN11b2WeldJoint24SolvePositionConstraintsERK12b2SolverData
	.section	.text._ZN11b2WeldJointD2Ev,"axG",%progbits,_ZN11b2WeldJointD5Ev,comdat
	.align	2
	.weak	_ZN11b2WeldJointD2Ev
	.hidden	_ZN11b2WeldJointD2Ev
	.type	_ZN11b2WeldJointD2Ev, %function
_ZN11b2WeldJointD2Ev:
.LFB531:
	.file 5 "c:/users/ben/desktop/fyp/finalyearproject/box2d/Box2D/Dynamics/Joints/b2WeldJoint.h"
	.loc 5 62 0
	.cfi_startproc
	@ args = 0, pretend = 0, frame = 8
	@ frame_needed = 0, uses_anonymous_args = 0
	str	lr, [sp, #-4]!
.LCFI83:
	.cfi_def_cfa_offset 4
	.cfi_offset 14, -4
	sub	sp, sp, #12
.LCFI84:
	.cfi_def_cfa_offset 16
	str	r0, [sp, #4]
.LBB27:
	.loc 5 62 0
	ldr	r3, [sp, #4]
	ldr	r2, .L149
.LPIC13:
	add	r2, pc, r2
	add	r2, r2, #8
	str	r2, [r3]
	ldr	r3, [sp, #4]
	mov	r0, r3
	bl	_ZN7b2JointD2Ev(PLT)
.LBE27:
	mov	r3, #0
	cmp	r3, #0
	beq	.L147
	.loc 5 62 0 is_stmt 0 discriminator 1
	ldr	r0, [sp, #4]
	bl	_ZdlPv(PLT)
.L147:
	.loc 5 62 0 discriminator 2
	ldr	r3, [sp, #4]
	mov	r0, r3
	add	sp, sp, #12
	@ sp needed
	ldr	pc, [sp], #4
.L150:
	.align	2
.L149:
	.word	_ZTV11b2WeldJoint-(.LPIC13+8)
	.cfi_endproc
.LFE531:
	.size	_ZN11b2WeldJointD2Ev, .-_ZN11b2WeldJointD2Ev
	.weak	_ZN11b2WeldJointD1Ev
	.hidden	_ZN11b2WeldJointD1Ev
	.set	_ZN11b2WeldJointD1Ev,_ZN11b2WeldJointD2Ev
	.section	.text._ZN11b2WeldJointD0Ev,"axG",%progbits,_ZN11b2WeldJointD0Ev,comdat
	.align	2
	.weak	_ZN11b2WeldJointD0Ev
	.hidden	_ZN11b2WeldJointD0Ev
	.type	_ZN11b2WeldJointD0Ev, %function
_ZN11b2WeldJointD0Ev:
.LFB533:
	.loc 5 62 0 is_stmt 1
	.cfi_startproc
	@ args = 0, pretend = 0, frame = 8
	@ frame_needed = 0, uses_anonymous_args = 0
	str	lr, [sp, #-4]!
.LCFI85:
	.cfi_def_cfa_offset 4
	.cfi_offset 14, -4
	sub	sp, sp, #12
.LCFI86:
	.cfi_def_cfa_offset 16
	str	r0, [sp, #4]
	.loc 5 62 0
	ldr	r0, [sp, #4]
	bl	_ZN11b2WeldJointD1Ev(PLT)
	ldr	r0, [sp, #4]
	bl	_ZdlPv(PLT)
	ldr	r3, [sp, #4]
	mov	r0, r3
	add	sp, sp, #12
	@ sp needed
	ldr	pc, [sp], #4
	.cfi_endproc
.LFE533:
	.size	_ZN11b2WeldJointD0Ev, .-_ZN11b2WeldJointD0Ev
	.hidden	_ZTV7b2Joint
	.weak	_ZTV7b2Joint
	.section	.data.rel.ro._ZTV7b2Joint,"awG",%progbits,_ZTV7b2Joint,comdat
	.align	3
	.type	_ZTV7b2Joint, %object
	.size	_ZTV7b2Joint, 52
_ZTV7b2Joint:
	.word	0
	.word	_ZTI7b2Joint
	.word	__cxa_pure_virtual
	.word	__cxa_pure_virtual
	.word	__cxa_pure_virtual
	.word	__cxa_pure_virtual
	.word	_ZN7b2Joint4DumpEv
	.word	_ZN7b2Joint11ShiftOriginERK6b2Vec2
	.word	_ZN7b2JointD1Ev
	.word	_ZN7b2JointD0Ev
	.word	__cxa_pure_virtual
	.word	__cxa_pure_virtual
	.word	__cxa_pure_virtual
	.hidden	_ZTI11b2WeldJoint
	.global	_ZTI11b2WeldJoint
	.section	.data.rel.ro
	.align	2
	.type	_ZTI11b2WeldJoint, %object
	.size	_ZTI11b2WeldJoint, 12
_ZTI11b2WeldJoint:
	.word	_ZTVN10__cxxabiv120__si_class_type_infoE+8
	.word	_ZTS11b2WeldJoint
	.word	_ZTI7b2Joint
	.hidden	_ZTS11b2WeldJoint
	.global	_ZTS11b2WeldJoint
	.section	.rodata
	.align	2
	.type	_ZTS11b2WeldJoint, %object
	.size	_ZTS11b2WeldJoint, 14
_ZTS11b2WeldJoint:
	.ascii	"11b2WeldJoint\000"
	.hidden	_ZTS7b2Joint
	.weak	_ZTS7b2Joint
	.section	.rodata._ZTS7b2Joint,"aG",%progbits,_ZTS7b2Joint,comdat
	.align	2
	.type	_ZTS7b2Joint, %object
	.size	_ZTS7b2Joint, 9
_ZTS7b2Joint:
	.ascii	"7b2Joint\000"
	.hidden	_ZTI7b2Joint
	.weak	_ZTI7b2Joint
	.section	.data.rel.ro._ZTI7b2Joint,"awG",%progbits,_ZTI7b2Joint,comdat
	.align	2
	.type	_ZTI7b2Joint, %object
	.size	_ZTI7b2Joint, 8
_ZTI7b2Joint:
	.word	_ZTVN10__cxxabiv117__class_type_infoE+8
	.word	_ZTS7b2Joint
	.section	.rodata
	.align	2
	.type	_ZL12b2_chunkSize, %object
	.size	_ZL12b2_chunkSize, 4
_ZL12b2_chunkSize:
	.word	16384
	.align	2
	.type	_ZL15b2_maxBlockSize, %object
	.size	_ZL15b2_maxBlockSize, 4
_ZL15b2_maxBlockSize:
	.word	640
	.align	2
	.type	_ZL13b2_blockSizes, %object
	.size	_ZL13b2_blockSizes, 4
_ZL13b2_blockSizes:
	.word	14
	.align	2
	.type	_ZL22b2_chunkArrayIncrement, %object
	.size	_ZL22b2_chunkArrayIncrement, 4
_ZL22b2_chunkArrayIncrement:
	.word	128
	.type	_ZL14b2_nullFeature, %object
	.size	_ZL14b2_nullFeature, 1
_ZL14b2_nullFeature:
	.byte	-1
	.text
.Letext0:
	.file 6 "c:/marmalade/7.4/s3e/h/std/stddef.h"
	.file 7 "c:/marmalade/7.4/s3e/h/s3eTypes.h"
	.file 8 "c:/users/ben/desktop/fyp/finalyearproject/box2d/Box2D/Common/b2Settings.h"
	.file 9 "c:/users/ben/desktop/fyp/finalyearproject/box2d/Box2D/Common/b2BlockAllocator.h"
	.file 10 "c:/users/ben/desktop/fyp/finalyearproject/box2d/Box2D/Collision/b2Collision.h"
	.file 11 "c:/users/ben/desktop/fyp/finalyearproject/box2d/Box2D/Collision/Shapes/b2Shape.h"
	.file 12 "c:/marmalade/7.4/s3e/h/std/c++/cstddef"
	.file 13 "c:/marmalade/7.4/s3e/h/std/c++/cstdlib"
	.file 14 "c:/marmalade/7.4/s3e/h/std/c++/using/cstring"
	.file 15 "c:/marmalade/7.4/s3e/h/std/c++/cstdio"
	.file 16 "c:/marmalade/7.4/s3e/h/std/c++/exception"
	.file 17 "c:/marmalade/7.4/s3e/h/std/c++/stl/_config.h"
	.file 18 "c:/marmalade/7.4/s3e/h/ext/../std/stdlib.h"
	.file 19 "c:/marmalade/7.4/s3e/h/ext/../std/string.h"
	.file 20 "c:/marmalade/7.4/s3e/h/ext/../std/stdio.h"
	.file 21 "c:/users/ben/desktop/fyp/finalyearproject/box2d/Box2D/Dynamics/b2TimeStep.h"
	.file 22 "<built-in>"