	.arch armv6
	.fpu softvfp
	.eabi_attribute 20, 1
	.eabi_attribute 21, 1
	.eabi_attribute 23, 3
	.eabi_attribute 24, 1
	.eabi_attribute 25, 1
	.eabi_attribute 26, 2
	.eabi_attribute 30, 6
	.eabi_attribute 34, 1
	.eabi_attribute 18, 2
	.file	"b2WorldCallbacks.cpp"
	.text
.Ltext0:
	.cfi_sections	.debug_frame
	.section	.text._ZN15b2ContactFilterD2Ev,"axG",%progbits,_ZN15b2ContactFilterD5Ev,comdat
	.align	2
	.weak	_ZN15b2ContactFilterD2Ev
	.hidden	_ZN15b2ContactFilterD2Ev
	.type	_ZN15b2ContactFilterD2Ev, %function
_ZN15b2ContactFilterD2Ev:
.LFB5:
	.file 1 "c:/users/ben/desktop/fyp/finalyearproject/box2d/Box2D/Dynamics/b2WorldCallbacks.h"
	.loc 1 55 0
	.cfi_startproc
	@ args = 0, pretend = 0, frame = 8
	@ frame_needed = 0, uses_anonymous_args = 0
	str	lr, [sp, #-4]!
.LCFI0:
	.cfi_def_cfa_offset 4
	.cfi_offset 14, -4
	sub	sp, sp, #12
.LCFI1:
	.cfi_def_cfa_offset 16
	str	r0, [sp, #4]
.LBB2:
	.loc 1 55 0
	ldr	r3, [sp, #4]
	ldr	r2, .L5
.LPIC0:
	add	r2, pc, r2
	add	r2, r2, #8
	str	r2, [r3]
.LBE2:
	mov	r3, #0
	cmp	r3, #0
	beq	.L3
	.loc 1 55 0 is_stmt 0 discriminator 1
	ldr	r0, [sp, #4]
	bl	_ZdlPv(PLT)
.L3:
	.loc 1 55 0 discriminator 2
	ldr	r3, [sp, #4]
	mov	r0, r3
	add	sp, sp, #12
	@ sp needed
	ldr	pc, [sp], #4
.L6:
	.align	2
.L5:
	.word	_ZTV15b2ContactFilter-(.LPIC0+8)
	.cfi_endproc
.LFE5:
	.size	_ZN15b2ContactFilterD2Ev, .-_ZN15b2ContactFilterD2Ev
	.weak	_ZN15b2ContactFilterD1Ev
	.hidden	_ZN15b2ContactFilterD1Ev
	.set	_ZN15b2ContactFilterD1Ev,_ZN15b2ContactFilterD2Ev
	.section	.text._ZN15b2ContactFilterD0Ev,"axG",%progbits,_ZN15b2ContactFilterD0Ev,comdat
	.align	2
	.weak	_ZN15b2ContactFilterD0Ev
	.hidden	_ZN15b2ContactFilterD0Ev
	.type	_ZN15b2ContactFilterD0Ev, %function
_ZN15b2ContactFilterD0Ev:
.LFB7:
	.loc 1 55 0 is_stmt 1
	.cfi_startproc
	@ args = 0, pretend = 0, frame = 8
	@ frame_needed = 0, uses_anonymous_args = 0
	str	lr, [sp, #-4]!
.LCFI2:
	.cfi_def_cfa_offset 4
	.cfi_offset 14, -4
	sub	sp, sp, #12
.LCFI3:
	.cfi_def_cfa_offset 16
	str	r0, [sp, #4]
	.loc 1 55 0
	ldr	r0, [sp, #4]
	bl	_ZN15b2ContactFilterD1Ev(PLT)
	ldr	r0, [sp, #4]
	bl	_ZdlPv(PLT)
	ldr	r3, [sp, #4]
	mov	r0, r3
	add	sp, sp, #12
	@ sp needed
	ldr	pc, [sp], #4
	.cfi_endproc
.LFE7:
	.size	_ZN15b2ContactFilterD0Ev, .-_ZN15b2ContactFilterD0Ev
	.section	.text._ZNK9b2Fixture13GetFilterDataEv,"axG",%progbits,_ZNK9b2Fixture13GetFilterDataEv,comdat
	.align	2
	.weak	_ZNK9b2Fixture13GetFilterDataEv
	.hidden	_ZNK9b2Fixture13GetFilterDataEv
	.type	_ZNK9b2Fixture13GetFilterDataEv, %function
_ZNK9b2Fixture13GetFilterDataEv:
.LFB520:
	.file 2 "c:/users/ben/desktop/fyp/finalyearproject/box2d/Box2D/Dynamics/b2Fixture.h"
	.loc 2 259 0
	.cfi_startproc
	@ args = 0, pretend = 0, frame = 8
	@ frame_needed = 0, uses_anonymous_args = 0
	@ link register save eliminated.
	sub	sp, sp, #8
.LCFI4:
	.cfi_def_cfa_offset 8
	str	r0, [sp, #4]
	.loc 2 260 0
	ldr	r3, [sp, #4]
	add	r3, r3, #32
	.loc 2 261 0
	mov	r0, r3
	add	sp, sp, #8
	@ sp needed
	bx	lr
	.cfi_endproc
.LFE520:
	.size	_ZNK9b2Fixture13GetFilterDataEv, .-_ZNK9b2Fixture13GetFilterDataEv
	.section	.text._ZN15b2ContactFilter13ShouldCollideEP9b2FixtureS1_,"ax",%progbits
	.align	2
	.global	_ZN15b2ContactFilter13ShouldCollideEP9b2FixtureS1_
	.hidden	_ZN15b2ContactFilter13ShouldCollideEP9b2FixtureS1_
	.type	_ZN15b2ContactFilter13ShouldCollideEP9b2FixtureS1_, %function
_ZN15b2ContactFilter13ShouldCollideEP9b2FixtureS1_:
.LFB537:
	.file 3 "c:/Users/Ben/Desktop/FYP/FinalYearProject/box2d/Box2D/Dynamics/b2WorldCallbacks.cpp"
	.loc 3 25 0
	.cfi_startproc
	@ args = 0, pretend = 0, frame = 32
	@ frame_needed = 0, uses_anonymous_args = 0
	str	lr, [sp, #-4]!
.LCFI5:
	.cfi_def_cfa_offset 4
	.cfi_offset 14, -4
	sub	sp, sp, #36
.LCFI6:
	.cfi_def_cfa_offset 40
	str	r0, [sp, #12]
	str	r1, [sp, #8]
	str	r2, [sp, #4]
.LBB3:
	.loc 3 26 0
	ldr	r0, [sp, #8]
	bl	_ZNK9b2Fixture13GetFilterDataEv(PLT)
	str	r0, [sp, #28]
	.loc 3 27 0
	ldr	r0, [sp, #4]
	bl	_ZNK9b2Fixture13GetFilterDataEv(PLT)
	str	r0, [sp, #24]
	.loc 3 29 0
	ldr	r3, [sp, #28]
	ldrh	r2, [r3, #4]
	ldr	r3, [sp, #24]
	ldrh	r3, [r3, #4]
	sxth	r2, r2
	sxth	r3, r3
	cmp	r2, r3
	bne	.L13
	.loc 3 29 0 is_stmt 0 discriminator 1
	ldr	r3, [sp, #28]
	ldrh	r3, [r3, #4]
	cmp	r3, #0
	beq	.L13
	.loc 3 31 0 is_stmt 1
	ldr	r3, [sp, #28]
	ldrh	r3, [r3, #4]
	sxth	r3, r3
	cmp	r3, #0
	movle	r3, #0
	movgt	r3, #1
	uxtb	r3, r3
	b	.L14
.L13:
	.loc 3 34 0
	ldr	r3, [sp, #28]
	ldrh	r2, [r3, #2]
	ldr	r3, [sp, #24]
	ldrh	r3, [r3]
	and	r3, r2, r3
	uxth	r3, r3
	cmp	r3, #0
	beq	.L15
	.loc 3 34 0 is_stmt 0 discriminator 1
	ldr	r3, [sp, #28]
	ldrh	r2, [r3]
	ldr	r3, [sp, #24]
	ldrh	r3, [r3, #2]
	and	r3, r2, r3
	uxth	r3, r3
	cmp	r3, #0
	beq	.L15
	.loc 3 34 0 discriminator 3
	mov	r3, #1
	b	.L16
.L15:
	.loc 3 34 0 discriminator 2
	mov	r3, #0
.L16:
	.loc 3 34 0 discriminator 4
	strb	r3, [sp, #23]
	.loc 3 35 0 is_stmt 1 discriminator 4
	ldrb	r3, [sp, #23]	@ zero_extendqisi2
.L14:
.LBE3:
	.loc 3 36 0
	mov	r0, r3
	add	sp, sp, #36
	@ sp needed
	ldr	pc, [sp], #4
	.cfi_endproc
.LFE537:
	.size	_ZN15b2ContactFilter13ShouldCollideEP9b2FixtureS1_, .-_ZN15b2ContactFilter13ShouldCollideEP9b2FixtureS1_
	.hidden	_ZTV15b2ContactFilter
	.global	_ZTV15b2ContactFilter
	.section	.data.rel.ro,"aw",%progbits
	.align	3
	.type	_ZTV15b2ContactFilter, %object
	.size	_ZTV15b2ContactFilter, 20
_ZTV15b2ContactFilter:
	.word	0
	.word	_ZTI15b2ContactFilter
	.word	_ZN15b2ContactFilterD1Ev
	.word	_ZN15b2ContactFilterD0Ev
	.word	_ZN15b2ContactFilter13ShouldCollideEP9b2FixtureS1_
	.hidden	_ZTI15b2ContactFilter
	.global	_ZTI15b2ContactFilter
	.align	2
	.type	_ZTI15b2ContactFilter, %object
	.size	_ZTI15b2ContactFilter, 8
_ZTI15b2ContactFilter:
	.word	_ZTVN10__cxxabiv117__class_type_infoE+8
	.word	_ZTS15b2ContactFilter
	.hidden	_ZTS15b2ContactFilter
	.global	_ZTS15b2ContactFilter
	.section	.rodata
	.align	2
	.type	_ZTS15b2ContactFilter, %object
	.size	_ZTS15b2ContactFilter, 18
_ZTS15b2ContactFilter:
	.ascii	"15b2ContactFilter\000"
	.align	2
	.type	_ZL12b2_chunkSize, %object
	.size	_ZL12b2_chunkSize, 4
_ZL12b2_chunkSize:
	.word	16384
	.align	2
	.type	_ZL15b2_maxBlockSize, %object
	.size	_ZL15b2_maxBlockSize, 4
_ZL15b2_maxBlockSize:
	.word	640
	.align	2
	.type	_ZL13b2_blockSizes, %object
	.size	_ZL13b2_blockSizes, 4
_ZL13b2_blockSizes:
	.word	14
	.align	2
	.type	_ZL22b2_chunkArrayIncrement, %object
	.size	_ZL22b2_chunkArrayIncrement, 4
_ZL22b2_chunkArrayIncrement:
	.word	128
	.type	_ZL14b2_nullFeature, %object
	.size	_ZL14b2_nullFeature, 1
_ZL14b2_nullFeature:
	.byte	-1
	.text
.Letext0:
	.file 4 "c:/marmalade/7.4/s3e/h/std/stddef.h"
	.file 5 "c:/marmalade/7.4/s3e/h/s3eTypes.h"
	.file 6 "c:/users/ben/desktop/fyp/finalyearproject/box2d/Box2D/Common/b2Settings.h"
	.file 7 "c:/users/ben/desktop/fyp/finalyearproject/box2d/Box2D/Common/b2Math.h"
	.file 8 "c:/users/ben/desktop/fyp/finalyearproject/box2d/Box2D/Common/b2BlockAllocator.h"
	.file 9 "c:/users/ben/desktop/fyp/finalyearproject/box2d/Box2D/Collision/b2Collision.h"
	.file 10 "c:/users/ben/desktop/fyp/finalyearproject/box2d/Box2D/Collision/Shapes/b2Shape.h"
	.file 11 "c:/marmalade/7.4/s3e/h/std/c++/cstddef"
	.file 12 "c:/marmalade/7.4/s3e/h/std/c++/cstdlib"
	.file 13 "c:/marmalade/7.4/s3e/h/std/c++/using/cstring"
	.file 14 "c:/marmalade/7.4/s3e/h/std/c++/cstdio"
	.file 15 "c:/marmalade/7.4/s3e/h/std/c++/exception"
	.file 16 "c:/marmalade/7.4/s3e/h/std/c++/stl/_config.h"
	.file 17 "c:/marmalade/7.4/s3e/h/ext/../std/stdlib.h"
	.file 18 "c:/marmalade/7.4/s3e/h/ext/../std/string.h"
	.file 19 "c:/marmalade/7.4/s3e/h/ext/../std/stdio.h"
	.file 20 "c:/users/ben/desktop/fyp/finalyearproject/box2d/Box2D/Dynamics/b2Body.h"
	.file 21 "<built-in>"