	.arch armv6
	.fpu softvfp
	.eabi_attribute 20, 1
	.eabi_attribute 21, 1
	.eabi_attribute 23, 3
	.eabi_attribute 24, 1
	.eabi_attribute 25, 1
	.eabi_attribute 26, 2
	.eabi_attribute 30, 6
	.eabi_attribute 34, 1
	.eabi_attribute 18, 2
	.file	"b2World.cpp"
	.text
.Ltext0:
	.cfi_sections	.debug_frame
	.section	.text._ZN6b2Vec2C2Ev,"axG",%progbits,_ZN6b2Vec2C5Ev,comdat
	.align	2
	.weak	_ZN6b2Vec2C2Ev
	.hidden	_ZN6b2Vec2C2Ev
	.type	_ZN6b2Vec2C2Ev, %function
_ZN6b2Vec2C2Ev:
.LFB5:
	.file 1 "c:/users/ben/desktop/fyp/finalyearproject/box2d/Box2D/Common/b2Math.h"
	.loc 1 56 0
	.cfi_startproc
	@ args = 0, pretend = 0, frame = 8
	@ frame_needed = 0, uses_anonymous_args = 0
	@ link register save eliminated.
	sub	sp, sp, #8
.LCFI0:
	.cfi_def_cfa_offset 8
	str	r0, [sp, #4]
	.loc 1 56 0
	ldr	r3, [sp, #4]
	mov	r0, r3
	add	sp, sp, #8
	@ sp needed
	bx	lr
	.cfi_endproc
.LFE5:
	.size	_ZN6b2Vec2C2Ev, .-_ZN6b2Vec2C2Ev
	.weak	_ZN6b2Vec2C1Ev
	.hidden	_ZN6b2Vec2C1Ev
	.set	_ZN6b2Vec2C1Ev,_ZN6b2Vec2C2Ev
	.section	.text._ZN6b2Vec2C2Eff,"axG",%progbits,_ZN6b2Vec2C5Eff,comdat
	.align	2
	.weak	_ZN6b2Vec2C2Eff
	.hidden	_ZN6b2Vec2C2Eff
	.type	_ZN6b2Vec2C2Eff, %function
_ZN6b2Vec2C2Eff:
.LFB8:
	.loc 1 59 0
	.cfi_startproc
	@ args = 0, pretend = 0, frame = 16
	@ frame_needed = 0, uses_anonymous_args = 0
	@ link register save eliminated.
	sub	sp, sp, #16
.LCFI1:
	.cfi_def_cfa_offset 16
	str	r0, [sp, #12]
	str	r1, [sp, #8]	@ float
	str	r2, [sp, #4]	@ float
.LBB2:
	.loc 1 59 0
	ldr	r3, [sp, #12]
	ldr	r2, [sp, #8]	@ float
	str	r2, [r3]	@ float
	ldr	r3, [sp, #12]
	ldr	r2, [sp, #4]	@ float
	str	r2, [r3, #4]	@ float
.LBE2:
	ldr	r3, [sp, #12]
	mov	r0, r3
	add	sp, sp, #16
	@ sp needed
	bx	lr
	.cfi_endproc
.LFE8:
	.size	_ZN6b2Vec2C2Eff, .-_ZN6b2Vec2C2Eff
	.weak	_ZN6b2Vec2C1Eff
	.hidden	_ZN6b2Vec2C1Eff
	.set	_ZN6b2Vec2C1Eff,_ZN6b2Vec2C2Eff
	.section	.text._ZN6b2Vec27SetZeroEv,"axG",%progbits,_ZN6b2Vec27SetZeroEv,comdat
	.align	2
	.weak	_ZN6b2Vec27SetZeroEv
	.hidden	_ZN6b2Vec27SetZeroEv
	.type	_ZN6b2Vec27SetZeroEv, %function
_ZN6b2Vec27SetZeroEv:
.LFB10:
	.loc 1 62 0
	.cfi_startproc
	@ args = 0, pretend = 0, frame = 8
	@ frame_needed = 0, uses_anonymous_args = 0
	@ link register save eliminated.
	sub	sp, sp, #8
.LCFI2:
	.cfi_def_cfa_offset 8
	str	r0, [sp, #4]
	.loc 1 62 0
	ldr	r3, [sp, #4]
	mov	r2, #0
	str	r2, [r3]	@ float
	ldr	r3, [sp, #4]
	mov	r2, #0
	str	r2, [r3, #4]	@ float
	add	sp, sp, #8
	@ sp needed
	bx	lr
	.cfi_endproc
.LFE10:
	.size	_ZN6b2Vec27SetZeroEv, .-_ZN6b2Vec27SetZeroEv
	.section	.text._ZN6b2Vec23SetEff,"axG",%progbits,_ZN6b2Vec23SetEff,comdat
	.align	2
	.weak	_ZN6b2Vec23SetEff
	.hidden	_ZN6b2Vec23SetEff
	.type	_ZN6b2Vec23SetEff, %function
_ZN6b2Vec23SetEff:
.LFB11:
	.loc 1 65 0
	.cfi_startproc
	@ args = 0, pretend = 0, frame = 16
	@ frame_needed = 0, uses_anonymous_args = 0
	@ link register save eliminated.
	sub	sp, sp, #16
.LCFI3:
	.cfi_def_cfa_offset 16
	str	r0, [sp, #12]
	str	r1, [sp, #8]	@ float
	str	r2, [sp, #4]	@ float
	.loc 1 65 0
	ldr	r3, [sp, #12]
	ldr	r2, [sp, #8]	@ float
	str	r2, [r3]	@ float
	ldr	r3, [sp, #12]
	ldr	r2, [sp, #4]	@ float
	str	r2, [r3, #4]	@ float
	add	sp, sp, #16
	@ sp needed
	bx	lr
	.cfi_endproc
.LFE11:
	.size	_ZN6b2Vec23SetEff, .-_ZN6b2Vec23SetEff
	.global	__aeabi_fadd
	.section	.text._ZN6b2Vec2pLERKS_,"axG",%progbits,_ZN6b2Vec2pLERKS_,comdat
	.align	2
	.weak	_ZN6b2Vec2pLERKS_
	.hidden	_ZN6b2Vec2pLERKS_
	.type	_ZN6b2Vec2pLERKS_, %function
_ZN6b2Vec2pLERKS_:
.LFB15:
	.loc 1 83 0
	.cfi_startproc
	@ args = 0, pretend = 0, frame = 8
	@ frame_needed = 0, uses_anonymous_args = 0
	str	lr, [sp, #-4]!
.LCFI4:
	.cfi_def_cfa_offset 4
	.cfi_offset 14, -4
	sub	sp, sp, #12
.LCFI5:
	.cfi_def_cfa_offset 16
	str	r0, [sp, #4]
	str	r1, [sp]
	.loc 1 85 0
	ldr	r3, [sp, #4]
	ldr	r2, [r3]	@ float
	ldr	r3, [sp]
	ldr	r3, [r3]	@ float
	mov	r0, r2
	mov	r1, r3
	bl	__aeabi_fadd(PLT)
	mov	r3, r0
	mov	r2, r3
	ldr	r3, [sp, #4]
	str	r2, [r3]	@ float
	ldr	r3, [sp, #4]
	ldr	r2, [r3, #4]	@ float
	ldr	r3, [sp]
	ldr	r3, [r3, #4]	@ float
	mov	r0, r2
	mov	r1, r3
	bl	__aeabi_fadd(PLT)
	mov	r3, r0
	mov	r2, r3
	ldr	r3, [sp, #4]
	str	r2, [r3, #4]	@ float
	.loc 1 86 0
	add	sp, sp, #12
	@ sp needed
	ldr	pc, [sp], #4
	.cfi_endproc
.LFE15:
	.size	_ZN6b2Vec2pLERKS_, .-_ZN6b2Vec2pLERKS_
	.global	__aeabi_fsub
	.section	.text._ZN6b2Vec2mIERKS_,"axG",%progbits,_ZN6b2Vec2mIERKS_,comdat
	.align	2
	.weak	_ZN6b2Vec2mIERKS_
	.hidden	_ZN6b2Vec2mIERKS_
	.type	_ZN6b2Vec2mIERKS_, %function
_ZN6b2Vec2mIERKS_:
.LFB16:
	.loc 1 89 0
	.cfi_startproc
	@ args = 0, pretend = 0, frame = 8
	@ frame_needed = 0, uses_anonymous_args = 0
	str	lr, [sp, #-4]!
.LCFI6:
	.cfi_def_cfa_offset 4
	.cfi_offset 14, -4
	sub	sp, sp, #12
.LCFI7:
	.cfi_def_cfa_offset 16
	str	r0, [sp, #4]
	str	r1, [sp]
	.loc 1 91 0
	ldr	r3, [sp, #4]
	ldr	r2, [r3]	@ float
	ldr	r3, [sp]
	ldr	r3, [r3]	@ float
	mov	r0, r2
	mov	r1, r3
	bl	__aeabi_fsub(PLT)
	mov	r3, r0
	mov	r2, r3
	ldr	r3, [sp, #4]
	str	r2, [r3]	@ float
	ldr	r3, [sp, #4]
	ldr	r2, [r3, #4]	@ float
	ldr	r3, [sp]
	ldr	r3, [r3, #4]	@ float
	mov	r0, r2
	mov	r1, r3
	bl	__aeabi_fsub(PLT)
	mov	r3, r0
	mov	r2, r3
	ldr	r3, [sp, #4]
	str	r2, [r3, #4]	@ float
	.loc 1 92 0
	add	sp, sp, #12
	@ sp needed
	ldr	pc, [sp], #4
	.cfi_endproc
.LFE16:
	.size	_ZN6b2Vec2mIERKS_, .-_ZN6b2Vec2mIERKS_
	.global	__aeabi_fmul
	.section	.text._ZNK6b2Vec26LengthEv,"axG",%progbits,_ZNK6b2Vec26LengthEv,comdat
	.align	2
	.weak	_ZNK6b2Vec26LengthEv
	.hidden	_ZNK6b2Vec26LengthEv
	.type	_ZNK6b2Vec26LengthEv, %function
_ZNK6b2Vec26LengthEv:
.LFB18:
	.loc 1 101 0
	.cfi_startproc
	@ args = 0, pretend = 0, frame = 8
	@ frame_needed = 0, uses_anonymous_args = 0
	stmfd	sp!, {r4, lr}
.LCFI8:
	.cfi_def_cfa_offset 8
	.cfi_offset 4, -8
	.cfi_offset 14, -4
	sub	sp, sp, #8
.LCFI9:
	.cfi_def_cfa_offset 16
	str	r0, [sp, #4]
	.loc 1 103 0
	ldr	r3, [sp, #4]
	ldr	r2, [r3]	@ float
	ldr	r3, [sp, #4]
	ldr	r3, [r3]	@ float
	mov	r0, r2
	mov	r1, r3
	bl	__aeabi_fmul(PLT)
	mov	r3, r0
	mov	r4, r3
	ldr	r3, [sp, #4]
	ldr	r2, [r3, #4]	@ float
	ldr	r3, [sp, #4]
	ldr	r3, [r3, #4]	@ float
	mov	r0, r2
	mov	r1, r3
	bl	__aeabi_fmul(PLT)
	mov	r3, r0
	mov	r0, r4
	mov	r1, r3
	bl	__aeabi_fadd(PLT)
	mov	r3, r0
	mov	r0, r3
	bl	sqrtf(PLT)
	mov	r3, r0
	.loc 1 104 0
	mov	r0, r3
	add	sp, sp, #8
	@ sp needed
	ldmfd	sp!, {r4, pc}
	.cfi_endproc
.LFE18:
	.size	_ZNK6b2Vec26LengthEv, .-_ZNK6b2Vec26LengthEv
	.section	.text._ZNK6b2Vec213LengthSquaredEv,"axG",%progbits,_ZNK6b2Vec213LengthSquaredEv,comdat
	.align	2
	.weak	_ZNK6b2Vec213LengthSquaredEv
	.hidden	_ZNK6b2Vec213LengthSquaredEv
	.type	_ZNK6b2Vec213LengthSquaredEv, %function
_ZNK6b2Vec213LengthSquaredEv:
.LFB19:
	.loc 1 108 0
	.cfi_startproc
	@ args = 0, pretend = 0, frame = 8
	@ frame_needed = 0, uses_anonymous_args = 0
	stmfd	sp!, {r4, lr}
.LCFI10:
	.cfi_def_cfa_offset 8
	.cfi_offset 4, -8
	.cfi_offset 14, -4
	sub	sp, sp, #8
.LCFI11:
	.cfi_def_cfa_offset 16
	str	r0, [sp, #4]
	.loc 1 110 0
	ldr	r3, [sp, #4]
	ldr	r2, [r3]	@ float
	ldr	r3, [sp, #4]
	ldr	r3, [r3]	@ float
	mov	r0, r2
	mov	r1, r3
	bl	__aeabi_fmul(PLT)
	mov	r3, r0
	mov	r4, r3
	ldr	r3, [sp, #4]
	ldr	r2, [r3, #4]	@ float
	ldr	r3, [sp, #4]
	ldr	r3, [r3, #4]	@ float
	mov	r0, r2
	mov	r1, r3
	bl	__aeabi_fmul(PLT)
	mov	r3, r0
	mov	r0, r4
	mov	r1, r3
	bl	__aeabi_fadd(PLT)
	mov	r3, r0
	.loc 1 111 0
	mov	r0, r3
	add	sp, sp, #8
	@ sp needed
	ldmfd	sp!, {r4, pc}
	.cfi_endproc
.LFE19:
	.size	_ZNK6b2Vec213LengthSquaredEv, .-_ZNK6b2Vec213LengthSquaredEv
	.global	__aeabi_fcmplt
	.global	__aeabi_fdiv
	.section	.text._ZN6b2Vec29NormalizeEv,"axG",%progbits,_ZN6b2Vec29NormalizeEv,comdat
	.align	2
	.weak	_ZN6b2Vec29NormalizeEv
	.hidden	_ZN6b2Vec29NormalizeEv
	.type	_ZN6b2Vec29NormalizeEv, %function
_ZN6b2Vec29NormalizeEv:
.LFB20:
	.loc 1 114 0
	.cfi_startproc
	@ args = 0, pretend = 0, frame = 16
	@ frame_needed = 0, uses_anonymous_args = 0
	str	lr, [sp, #-4]!
.LCFI12:
	.cfi_def_cfa_offset 4
	.cfi_offset 14, -4
	sub	sp, sp, #20
.LCFI13:
	.cfi_def_cfa_offset 24
	str	r0, [sp, #4]
.LBB3:
	.loc 1 116 0
	ldr	r0, [sp, #4]
	bl	_ZNK6b2Vec26LengthEv(PLT)
	str	r0, [sp, #12]	@ float
	.loc 1 117 0
	ldr	r0, [sp, #12]	@ float
	mov	r1, #872415232
	bl	__aeabi_fcmplt(PLT)
	mov	r3, r0
	cmp	r3, #0
	beq	.L20
	.loc 1 119 0
	mov	r3, #0
	b	.L18
.L20:
	.loc 1 121 0
	mov	r0, #1065353216
	ldr	r1, [sp, #12]	@ float
	bl	__aeabi_fdiv(PLT)
	mov	r3, r0
	str	r3, [sp, #8]	@ float
	.loc 1 122 0
	ldr	r3, [sp, #4]
	ldr	r3, [r3]	@ float
	mov	r0, r3
	ldr	r1, [sp, #8]	@ float
	bl	__aeabi_fmul(PLT)
	mov	r3, r0
	mov	r2, r3
	ldr	r3, [sp, #4]
	str	r2, [r3]	@ float
	.loc 1 123 0
	ldr	r3, [sp, #4]
	ldr	r3, [r3, #4]	@ float
	mov	r0, r3
	ldr	r1, [sp, #8]	@ float
	bl	__aeabi_fmul(PLT)
	mov	r3, r0
	mov	r2, r3
	ldr	r3, [sp, #4]
	str	r2, [r3, #4]	@ float
	.loc 1 125 0
	ldr	r3, [sp, #12]	@ float
.L18:
.LBE3:
	.loc 1 126 0
	mov	r0, r3
	add	sp, sp, #20
	@ sp needed
	ldr	pc, [sp], #4
	.cfi_endproc
.LFE20:
	.size	_ZN6b2Vec29NormalizeEv, .-_ZN6b2Vec29NormalizeEv
	.section	.text._ZN5b2Rot3SetEf,"axG",%progbits,_ZN5b2Rot3SetEf,comdat
	.align	2
	.weak	_ZN5b2Rot3SetEf
	.hidden	_ZN5b2Rot3SetEf
	.type	_ZN5b2Rot3SetEf, %function
_ZN5b2Rot3SetEf:
.LFB62:
	.loc 1 312 0
	.cfi_startproc
	@ args = 0, pretend = 0, frame = 8
	@ frame_needed = 0, uses_anonymous_args = 0
	str	lr, [sp, #-4]!
.LCFI14:
	.cfi_def_cfa_offset 4
	.cfi_offset 14, -4
	sub	sp, sp, #12
.LCFI15:
	.cfi_def_cfa_offset 16
	str	r0, [sp, #4]
	str	r1, [sp]	@ float
	.loc 1 315 0
	ldr	r0, [sp]	@ float
	bl	sinf(PLT)
	mov	r2, r0
	ldr	r3, [sp, #4]
	str	r2, [r3]	@ float
	.loc 1 316 0
	ldr	r0, [sp]	@ float
	bl	cosf(PLT)
	mov	r2, r0
	ldr	r3, [sp, #4]
	str	r2, [r3, #4]	@ float
	.loc 1 317 0
	add	sp, sp, #12
	@ sp needed
	ldr	pc, [sp], #4
	.cfi_endproc
.LFE62:
	.size	_ZN5b2Rot3SetEf, .-_ZN5b2Rot3SetEf
	.section	.text._Z5b2DotRK6b2Vec2S1_,"axG",%progbits,_Z5b2DotRK6b2Vec2S1_,comdat
	.align	2
	.weak	_Z5b2DotRK6b2Vec2S1_
	.hidden	_Z5b2DotRK6b2Vec2S1_
	.type	_Z5b2DotRK6b2Vec2S1_, %function
_Z5b2DotRK6b2Vec2S1_:
.LFB75:
	.loc 1 407 0
	.cfi_startproc
	@ args = 0, pretend = 0, frame = 8
	@ frame_needed = 0, uses_anonymous_args = 0
	stmfd	sp!, {r4, lr}
.LCFI16:
	.cfi_def_cfa_offset 8
	.cfi_offset 4, -8
	.cfi_offset 14, -4
	sub	sp, sp, #8
.LCFI17:
	.cfi_def_cfa_offset 16
	str	r0, [sp, #4]
	str	r1, [sp]
	.loc 1 408 0
	ldr	r3, [sp, #4]
	ldr	r2, [r3]	@ float
	ldr	r3, [sp]
	ldr	r3, [r3]	@ float
	mov	r0, r2
	mov	r1, r3
	bl	__aeabi_fmul(PLT)
	mov	r3, r0
	mov	r4, r3
	ldr	r3, [sp, #4]
	ldr	r2, [r3, #4]	@ float
	ldr	r3, [sp]
	ldr	r3, [r3, #4]	@ float
	mov	r0, r2
	mov	r1, r3
	bl	__aeabi_fmul(PLT)
	mov	r3, r0
	mov	r0, r4
	mov	r1, r3
	bl	__aeabi_fadd(PLT)
	mov	r3, r0
	.loc 1 409 0
	mov	r0, r3
	add	sp, sp, #8
	@ sp needed
	ldmfd	sp!, {r4, pc}
	.cfi_endproc
.LFE75:
	.size	_Z5b2DotRK6b2Vec2S1_, .-_Z5b2DotRK6b2Vec2S1_
	.section	.text._Z7b2CrossfRK6b2Vec2,"axG",%progbits,_Z7b2CrossfRK6b2Vec2,comdat
	.align	2
	.weak	_Z7b2CrossfRK6b2Vec2
	.hidden	_Z7b2CrossfRK6b2Vec2
	.type	_Z7b2CrossfRK6b2Vec2, %function
_Z7b2CrossfRK6b2Vec2:
.LFB78:
	.loc 1 427 0
	.cfi_startproc
	@ args = 0, pretend = 0, frame = 16
	@ frame_needed = 0, uses_anonymous_args = 0
	stmfd	sp!, {r4, lr}
.LCFI18:
	.cfi_def_cfa_offset 8
	.cfi_offset 4, -8
	.cfi_offset 14, -4
	sub	sp, sp, #16
.LCFI19:
	.cfi_def_cfa_offset 24
	str	r0, [sp, #12]
	str	r1, [sp, #8]	@ float
	str	r2, [sp, #4]
	.loc 1 428 0
	ldr	r3, [sp, #8]
	eor	r2, r3, #-2147483648
	ldr	r3, [sp, #4]
	ldr	r3, [r3, #4]	@ float
	mov	r0, r2
	mov	r1, r3
	bl	__aeabi_fmul(PLT)
	mov	r3, r0
	mov	r4, r3
	ldr	r3, [sp, #4]
	ldr	r3, [r3]	@ float
	mov	r0, r3
	ldr	r1, [sp, #8]	@ float
	bl	__aeabi_fmul(PLT)
	mov	r3, r0
	ldr	r0, [sp, #12]
	mov	r1, r4
	mov	r2, r3
	bl	_ZN6b2Vec2C1Eff(PLT)
	.loc 1 429 0
	ldr	r0, [sp, #12]
	add	sp, sp, #16
	@ sp needed
	ldmfd	sp!, {r4, pc}
	.cfi_endproc
.LFE78:
	.size	_Z7b2CrossfRK6b2Vec2, .-_Z7b2CrossfRK6b2Vec2
	.section	.text._ZplRK6b2Vec2S1_,"axG",%progbits,_ZplRK6b2Vec2S1_,comdat
	.align	2
	.weak	_ZplRK6b2Vec2S1_
	.hidden	_ZplRK6b2Vec2S1_
	.type	_ZplRK6b2Vec2S1_, %function
_ZplRK6b2Vec2S1_:
.LFB81:
	.loc 1 447 0
	.cfi_startproc
	@ args = 0, pretend = 0, frame = 16
	@ frame_needed = 0, uses_anonymous_args = 0
	stmfd	sp!, {r4, lr}
.LCFI20:
	.cfi_def_cfa_offset 8
	.cfi_offset 4, -8
	.cfi_offset 14, -4
	sub	sp, sp, #16
.LCFI21:
	.cfi_def_cfa_offset 24
	str	r0, [sp, #12]
	str	r1, [sp, #8]
	str	r2, [sp, #4]
	.loc 1 448 0
	ldr	r3, [sp, #8]
	ldr	r2, [r3]	@ float
	ldr	r3, [sp, #4]
	ldr	r3, [r3]	@ float
	mov	r0, r2
	mov	r1, r3
	bl	__aeabi_fadd(PLT)
	mov	r3, r0
	mov	r4, r3
	ldr	r3, [sp, #8]
	ldr	r2, [r3, #4]	@ float
	ldr	r3, [sp, #4]
	ldr	r3, [r3, #4]	@ float
	mov	r0, r2
	mov	r1, r3
	bl	__aeabi_fadd(PLT)
	mov	r3, r0
	ldr	r0, [sp, #12]
	mov	r1, r4
	mov	r2, r3
	bl	_ZN6b2Vec2C1Eff(PLT)
	.loc 1 449 0
	ldr	r0, [sp, #12]
	add	sp, sp, #16
	@ sp needed
	ldmfd	sp!, {r4, pc}
	.cfi_endproc
.LFE81:
	.size	_ZplRK6b2Vec2S1_, .-_ZplRK6b2Vec2S1_
	.section	.text._ZmiRK6b2Vec2S1_,"axG",%progbits,_ZmiRK6b2Vec2S1_,comdat
	.align	2
	.weak	_ZmiRK6b2Vec2S1_
	.hidden	_ZmiRK6b2Vec2S1_
	.type	_ZmiRK6b2Vec2S1_, %function
_ZmiRK6b2Vec2S1_:
.LFB82:
	.loc 1 453 0
	.cfi_startproc
	@ args = 0, pretend = 0, frame = 16
	@ frame_needed = 0, uses_anonymous_args = 0
	stmfd	sp!, {r4, lr}
.LCFI22:
	.cfi_def_cfa_offset 8
	.cfi_offset 4, -8
	.cfi_offset 14, -4
	sub	sp, sp, #16
.LCFI23:
	.cfi_def_cfa_offset 24
	str	r0, [sp, #12]
	str	r1, [sp, #8]
	str	r2, [sp, #4]
	.loc 1 454 0
	ldr	r3, [sp, #8]
	ldr	r2, [r3]	@ float
	ldr	r3, [sp, #4]
	ldr	r3, [r3]	@ float
	mov	r0, r2
	mov	r1, r3
	bl	__aeabi_fsub(PLT)
	mov	r3, r0
	mov	r4, r3
	ldr	r3, [sp, #8]
	ldr	r2, [r3, #4]	@ float
	ldr	r3, [sp, #4]
	ldr	r3, [r3, #4]	@ float
	mov	r0, r2
	mov	r1, r3
	bl	__aeabi_fsub(PLT)
	mov	r3, r0
	ldr	r0, [sp, #12]
	mov	r1, r4
	mov	r2, r3
	bl	_ZN6b2Vec2C1Eff(PLT)
	.loc 1 455 0
	ldr	r0, [sp, #12]
	add	sp, sp, #16
	@ sp needed
	ldmfd	sp!, {r4, pc}
	.cfi_endproc
.LFE82:
	.size	_ZmiRK6b2Vec2S1_, .-_ZmiRK6b2Vec2S1_
	.section	.text._ZmlfRK6b2Vec2,"axG",%progbits,_ZmlfRK6b2Vec2,comdat
	.align	2
	.weak	_ZmlfRK6b2Vec2
	.hidden	_ZmlfRK6b2Vec2
	.type	_ZmlfRK6b2Vec2, %function
_ZmlfRK6b2Vec2:
.LFB83:
	.loc 1 458 0
	.cfi_startproc
	@ args = 0, pretend = 0, frame = 16
	@ frame_needed = 0, uses_anonymous_args = 0
	stmfd	sp!, {r4, lr}
.LCFI24:
	.cfi_def_cfa_offset 8
	.cfi_offset 4, -8
	.cfi_offset 14, -4
	sub	sp, sp, #16
.LCFI25:
	.cfi_def_cfa_offset 24
	str	r0, [sp, #12]
	str	r1, [sp, #8]	@ float
	str	r2, [sp, #4]
	.loc 1 459 0
	ldr	r3, [sp, #4]
	ldr	r3, [r3]	@ float
	mov	r0, r3
	ldr	r1, [sp, #8]	@ float
	bl	__aeabi_fmul(PLT)
	mov	r3, r0
	mov	r4, r3
	ldr	r3, [sp, #4]
	ldr	r3, [r3, #4]	@ float
	mov	r0, r3
	ldr	r1, [sp, #8]	@ float
	bl	__aeabi_fmul(PLT)
	mov	r3, r0
	ldr	r0, [sp, #12]
	mov	r1, r4
	mov	r2, r3
	bl	_ZN6b2Vec2C1Eff(PLT)
	.loc 1 460 0
	ldr	r0, [sp, #12]
	add	sp, sp, #16
	@ sp needed
	ldmfd	sp!, {r4, pc}
	.cfi_endproc
.LFE83:
	.size	_ZmlfRK6b2Vec2, .-_ZmlfRK6b2Vec2
	.section	.text._Z5b2MulRK5b2RotRK6b2Vec2,"axG",%progbits,_Z5b2MulRK5b2RotRK6b2Vec2,comdat
	.align	2
	.weak	_Z5b2MulRK5b2RotRK6b2Vec2
	.hidden	_Z5b2MulRK5b2RotRK6b2Vec2
	.type	_Z5b2MulRK5b2RotRK6b2Vec2, %function
_Z5b2MulRK5b2RotRK6b2Vec2:
.LFB99:
	.loc 1 567 0
	.cfi_startproc
	@ args = 0, pretend = 0, frame = 16
	@ frame_needed = 0, uses_anonymous_args = 0
	stmfd	sp!, {r4, r5, lr}
.LCFI26:
	.cfi_def_cfa_offset 12
	.cfi_offset 4, -12
	.cfi_offset 5, -8
	.cfi_offset 14, -4
	sub	sp, sp, #20
.LCFI27:
	.cfi_def_cfa_offset 32
	str	r0, [sp, #12]
	str	r1, [sp, #8]
	str	r2, [sp, #4]
	.loc 1 568 0
	ldr	r3, [sp, #8]
	ldr	r2, [r3, #4]	@ float
	ldr	r3, [sp, #4]
	ldr	r3, [r3]	@ float
	mov	r0, r2
	mov	r1, r3
	bl	__aeabi_fmul(PLT)
	mov	r3, r0
	mov	r4, r3
	ldr	r3, [sp, #8]
	ldr	r2, [r3]	@ float
	ldr	r3, [sp, #4]
	ldr	r3, [r3, #4]	@ float
	mov	r0, r2
	mov	r1, r3
	bl	__aeabi_fmul(PLT)
	mov	r3, r0
	mov	r0, r4
	mov	r1, r3
	bl	__aeabi_fsub(PLT)
	mov	r3, r0
	mov	r4, r3
	ldr	r3, [sp, #8]
	ldr	r2, [r3]	@ float
	ldr	r3, [sp, #4]
	ldr	r3, [r3]	@ float
	mov	r0, r2
	mov	r1, r3
	bl	__aeabi_fmul(PLT)
	mov	r3, r0
	mov	r5, r3
	ldr	r3, [sp, #8]
	ldr	r2, [r3, #4]	@ float
	ldr	r3, [sp, #4]
	ldr	r3, [r3, #4]	@ float
	mov	r0, r2
	mov	r1, r3
	bl	__aeabi_fmul(PLT)
	mov	r3, r0
	mov	r0, r5
	mov	r1, r3
	bl	__aeabi_fadd(PLT)
	mov	r3, r0
	ldr	r0, [sp, #12]
	mov	r1, r4
	mov	r2, r3
	bl	_ZN6b2Vec2C1Eff(PLT)
	.loc 1 569 0
	ldr	r0, [sp, #12]
	add	sp, sp, #20
	@ sp needed
	ldmfd	sp!, {r4, r5, pc}
	.cfi_endproc
.LFE99:
	.size	_Z5b2MulRK5b2RotRK6b2Vec2, .-_Z5b2MulRK5b2RotRK6b2Vec2
	.section	.text._Z5b2MulRK11b2TransformRK6b2Vec2,"axG",%progbits,_Z5b2MulRK11b2TransformRK6b2Vec2,comdat
	.align	2
	.weak	_Z5b2MulRK11b2TransformRK6b2Vec2
	.hidden	_Z5b2MulRK11b2TransformRK6b2Vec2
	.type	_Z5b2MulRK11b2TransformRK6b2Vec2, %function
_Z5b2MulRK11b2TransformRK6b2Vec2:
.LFB101:
	.loc 1 578 0
	.cfi_startproc
	@ args = 0, pretend = 0, frame = 24
	@ frame_needed = 0, uses_anonymous_args = 0
	stmfd	sp!, {r4, lr}
.LCFI28:
	.cfi_def_cfa_offset 8
	.cfi_offset 4, -8
	.cfi_offset 14, -4
	sub	sp, sp, #24
.LCFI29:
	.cfi_def_cfa_offset 32
	str	r0, [sp, #12]
	str	r1, [sp, #8]
	str	r2, [sp, #4]
.LBB4:
	.loc 1 579 0
	ldr	r3, [sp, #8]
	ldr	r2, [r3, #12]	@ float
	ldr	r3, [sp, #4]
	ldr	r3, [r3]	@ float
	mov	r0, r2
	mov	r1, r3
	bl	__aeabi_fmul(PLT)
	mov	r3, r0
	mov	r4, r3
	ldr	r3, [sp, #8]
	ldr	r2, [r3, #8]	@ float
	ldr	r3, [sp, #4]
	ldr	r3, [r3, #4]	@ float
	mov	r0, r2
	mov	r1, r3
	bl	__aeabi_fmul(PLT)
	mov	r3, r0
	mov	r0, r4
	mov	r1, r3
	bl	__aeabi_fsub(PLT)
	mov	r3, r0
	mov	r2, r3
	ldr	r3, [sp, #8]
	ldr	r3, [r3]	@ float
	mov	r0, r2
	mov	r1, r3
	bl	__aeabi_fadd(PLT)
	mov	r3, r0
	str	r3, [sp, #20]	@ float
	.loc 1 580 0
	ldr	r3, [sp, #8]
	ldr	r2, [r3, #8]	@ float
	ldr	r3, [sp, #4]
	ldr	r3, [r3]	@ float
	mov	r0, r2
	mov	r1, r3
	bl	__aeabi_fmul(PLT)
	mov	r3, r0
	mov	r4, r3
	ldr	r3, [sp, #8]
	ldr	r2, [r3, #12]	@ float
	ldr	r3, [sp, #4]
	ldr	r3, [r3, #4]	@ float
	mov	r0, r2
	mov	r1, r3
	bl	__aeabi_fmul(PLT)
	mov	r3, r0
	mov	r0, r4
	mov	r1, r3
	bl	__aeabi_fadd(PLT)
	mov	r3, r0
	mov	r2, r3
	ldr	r3, [sp, #8]
	ldr	r3, [r3, #4]	@ float
	mov	r0, r2
	mov	r1, r3
	bl	__aeabi_fadd(PLT)
	mov	r3, r0
	str	r3, [sp, #16]	@ float
	.loc 1 582 0
	ldr	r0, [sp, #12]
	ldr	r1, [sp, #20]	@ float
	ldr	r2, [sp, #16]	@ float
	bl	_ZN6b2Vec2C1Eff(PLT)
.LBE4:
	.loc 1 583 0
	ldr	r0, [sp, #12]
	add	sp, sp, #24
	@ sp needed
	ldmfd	sp!, {r4, pc}
	.cfi_endproc
.LFE101:
	.size	_Z5b2MulRK11b2TransformRK6b2Vec2, .-_Z5b2MulRK11b2TransformRK6b2Vec2
	.section	.text._Z5b2AbsRK6b2Vec2,"axG",%progbits,_Z5b2AbsRK6b2Vec2,comdat
	.align	2
	.weak	_Z5b2AbsRK6b2Vec2
	.hidden	_Z5b2AbsRK6b2Vec2
	.type	_Z5b2AbsRK6b2Vec2, %function
_Z5b2AbsRK6b2Vec2:
.LFB106:
	.loc 1 622 0
	.cfi_startproc
	@ args = 0, pretend = 0, frame = 8
	@ frame_needed = 0, uses_anonymous_args = 0
	stmfd	sp!, {r4, lr}
.LCFI30:
	.cfi_def_cfa_offset 8
	.cfi_offset 4, -8
	.cfi_offset 14, -4
	sub	sp, sp, #8
.LCFI31:
	.cfi_def_cfa_offset 16
	str	r0, [sp, #4]
	str	r1, [sp]
	.loc 1 623 0
	ldr	r3, [sp]
	ldr	r3, [r3]	@ float
	mov	r0, r3
	bl	_Z5b2AbsIfET_S0_(PLT)
	mov	r4, r0
	ldr	r3, [sp]
	ldr	r3, [r3, #4]	@ float
	mov	r0, r3
	bl	_Z5b2AbsIfET_S0_(PLT)
	mov	r3, r0
	ldr	r0, [sp, #4]
	mov	r1, r4
	mov	r2, r3
	bl	_ZN6b2Vec2C1Eff(PLT)
	.loc 1 624 0
	ldr	r0, [sp, #4]
	add	sp, sp, #8
	@ sp needed
	ldmfd	sp!, {r4, pc}
	.cfi_endproc
.LFE106:
	.size	_Z5b2AbsRK6b2Vec2, .-_Z5b2AbsRK6b2Vec2
	.section	.text._Z5b2MinRK6b2Vec2S1_,"axG",%progbits,_Z5b2MinRK6b2Vec2S1_,comdat
	.align	2
	.weak	_Z5b2MinRK6b2Vec2S1_
	.hidden	_Z5b2MinRK6b2Vec2S1_
	.type	_Z5b2MinRK6b2Vec2S1_, %function
_Z5b2MinRK6b2Vec2S1_:
.LFB109:
	.loc 1 638 0
	.cfi_startproc
	@ args = 0, pretend = 0, frame = 16
	@ frame_needed = 0, uses_anonymous_args = 0
	stmfd	sp!, {r4, lr}
.LCFI32:
	.cfi_def_cfa_offset 8
	.cfi_offset 4, -8
	.cfi_offset 14, -4
	sub	sp, sp, #16
.LCFI33:
	.cfi_def_cfa_offset 24
	str	r0, [sp, #12]
	str	r1, [sp, #8]
	str	r2, [sp, #4]
	.loc 1 639 0
	ldr	r3, [sp, #8]
	ldr	r2, [r3]	@ float
	ldr	r3, [sp, #4]
	ldr	r3, [r3]	@ float
	mov	r0, r2
	mov	r1, r3
	bl	_Z5b2MinIfET_S0_S0_(PLT)
	mov	r4, r0
	ldr	r3, [sp, #8]
	ldr	r2, [r3, #4]	@ float
	ldr	r3, [sp, #4]
	ldr	r3, [r3, #4]	@ float
	mov	r0, r2
	mov	r1, r3
	bl	_Z5b2MinIfET_S0_S0_(PLT)
	mov	r3, r0
	ldr	r0, [sp, #12]
	mov	r1, r4
	mov	r2, r3
	bl	_ZN6b2Vec2C1Eff(PLT)
	.loc 1 640 0
	ldr	r0, [sp, #12]
	add	sp, sp, #16
	@ sp needed
	ldmfd	sp!, {r4, pc}
	.cfi_endproc
.LFE109:
	.size	_Z5b2MinRK6b2Vec2S1_, .-_Z5b2MinRK6b2Vec2S1_
	.section	.text._Z5b2MaxRK6b2Vec2S1_,"axG",%progbits,_Z5b2MaxRK6b2Vec2S1_,comdat
	.align	2
	.weak	_Z5b2MaxRK6b2Vec2S1_
	.hidden	_Z5b2MaxRK6b2Vec2S1_
	.type	_Z5b2MaxRK6b2Vec2S1_, %function
_Z5b2MaxRK6b2Vec2S1_:
.LFB111:
	.loc 1 649 0
	.cfi_startproc
	@ args = 0, pretend = 0, frame = 16
	@ frame_needed = 0, uses_anonymous_args = 0
	stmfd	sp!, {r4, lr}
.LCFI34:
	.cfi_def_cfa_offset 8
	.cfi_offset 4, -8
	.cfi_offset 14, -4
	sub	sp, sp, #16
.LCFI35:
	.cfi_def_cfa_offset 24
	str	r0, [sp, #12]
	str	r1, [sp, #8]
	str	r2, [sp, #4]
	.loc 1 650 0
	ldr	r3, [sp, #8]
	ldr	r2, [r3]	@ float
	ldr	r3, [sp, #4]
	ldr	r3, [r3]	@ float
	mov	r0, r2
	mov	r1, r3
	bl	_Z5b2MaxIfET_S0_S0_(PLT)
	mov	r4, r0
	ldr	r3, [sp, #8]
	ldr	r2, [r3, #4]	@ float
	ldr	r3, [sp, #4]
	ldr	r3, [r3, #4]	@ float
	mov	r0, r2
	mov	r1, r3
	bl	_Z5b2MaxIfET_S0_S0_(PLT)
	mov	r3, r0
	ldr	r0, [sp, #12]
	mov	r1, r4
	mov	r2, r3
	bl	_ZN6b2Vec2C1Eff(PLT)
	.loc 1 651 0
	ldr	r0, [sp, #12]
	add	sp, sp, #16
	@ sp needed
	ldmfd	sp!, {r4, pc}
	.cfi_endproc
.LFE111:
	.size	_Z5b2MaxRK6b2Vec2S1_, .-_Z5b2MaxRK6b2Vec2S1_
	.section	.rodata
	.align	2
.LC0:
	.ascii	"c:/users/ben/desktop/fyp/finalyearproject/box2d/Box"
	.ascii	"2D/Common/b2Math.h\000"
	.align	2
.LC1:
	.ascii	"alpha0 < 1.0f\000"
	.section	.text._ZN7b2Sweep7AdvanceEf,"axG",%progbits,_ZN7b2Sweep7AdvanceEf,comdat
	.align	2
	.weak	_ZN7b2Sweep7AdvanceEf
	.hidden	_ZN7b2Sweep7AdvanceEf
	.type	_ZN7b2Sweep7AdvanceEf, %function
_ZN7b2Sweep7AdvanceEf:
.LFB118:
	.loc 1 703 0
	.cfi_startproc
	@ args = 0, pretend = 0, frame = 32
	@ frame_needed = 0, uses_anonymous_args = 0
	stmfd	sp!, {r4, lr}
.LCFI36:
	.cfi_def_cfa_offset 8
	.cfi_offset 4, -8
	.cfi_offset 14, -4
	sub	sp, sp, #32
.LCFI37:
	.cfi_def_cfa_offset 40
	str	r0, [sp, #4]
	str	r1, [sp]	@ float
.LBB5:
	.loc 1 704 0
	ldr	r3, [sp, #4]
	ldr	r3, [r3, #32]	@ float
	mov	r0, r3
	mov	r1, #1065353216
	bl	__aeabi_fcmplt(PLT)
	mov	r3, r0
	cmp	r3, #0
	bne	.L43
	.loc 1 704 0 is_stmt 0 discriminator 1
	ldr	r3, .L44
.LPIC0:
	add	r3, pc, r3
	mov	r0, r3
	mov	r1, #704
	ldr	r3, .L44+4
.LPIC1:
	add	r3, pc, r3
	mov	r2, r3
	bl	__assert(PLT)
.L43:
	.loc 1 705 0 is_stmt 1
	ldr	r3, [sp, #4]
	ldr	r3, [r3, #32]	@ float
	ldr	r0, [sp]	@ float
	mov	r1, r3
	bl	__aeabi_fsub(PLT)
	mov	r3, r0
	mov	r4, r3
	ldr	r3, [sp, #4]
	ldr	r3, [r3, #32]	@ float
	mov	r0, #1065353216
	mov	r1, r3
	bl	__aeabi_fsub(PLT)
	mov	r3, r0
	mov	r0, r4
	mov	r1, r3
	bl	__aeabi_fdiv(PLT)
	mov	r3, r0
	str	r3, [sp, #28]	@ float
	.loc 1 706 0
	ldr	r3, [sp, #4]
	add	r4, r3, #8
	ldr	r3, [sp, #4]
	add	r2, r3, #16
	ldr	r3, [sp, #4]
	add	r3, r3, #8
	add	r1, sp, #20
	mov	r0, r1
	mov	r1, r2
	mov	r2, r3
	bl	_ZmiRK6b2Vec2S1_(PLT)
	add	r2, sp, #12
	add	r3, sp, #20
	mov	r0, r2
	ldr	r1, [sp, #28]	@ float
	mov	r2, r3
	bl	_ZmlfRK6b2Vec2(PLT)
	add	r3, sp, #12
	mov	r0, r4
	mov	r1, r3
	bl	_ZN6b2Vec2pLERKS_(PLT)
	.loc 1 707 0
	ldr	r3, [sp, #4]
	ldr	r4, [r3, #24]	@ float
	ldr	r3, [sp, #4]
	ldr	r2, [r3, #28]	@ float
	ldr	r3, [sp, #4]
	ldr	r3, [r3, #24]	@ float
	mov	r0, r2
	mov	r1, r3
	bl	__aeabi_fsub(PLT)
	mov	r3, r0
	mov	r0, r3
	ldr	r1, [sp, #28]	@ float
	bl	__aeabi_fmul(PLT)
	mov	r3, r0
	mov	r0, r4
	mov	r1, r3
	bl	__aeabi_fadd(PLT)
	mov	r3, r0
	mov	r2, r3
	ldr	r3, [sp, #4]
	str	r2, [r3, #24]	@ float
	.loc 1 708 0
	ldr	r3, [sp, #4]
	ldr	r2, [sp]	@ float
	str	r2, [r3, #32]	@ float
.LBE5:
	.loc 1 709 0
	add	sp, sp, #32
	@ sp needed
	ldmfd	sp!, {r4, pc}
.L45:
	.align	2
.L44:
	.word	.LC0-(.LPIC0+8)
	.word	.LC1-(.LPIC1+8)
	.cfi_endproc
.LFE118:
	.size	_ZN7b2Sweep7AdvanceEf, .-_ZN7b2Sweep7AdvanceEf
	.section	.text._ZNK6b2AABB9GetCenterEv,"axG",%progbits,_ZNK6b2AABB9GetCenterEv,comdat
	.align	2
	.weak	_ZNK6b2AABB9GetCenterEv
	.hidden	_ZNK6b2AABB9GetCenterEv
	.type	_ZNK6b2AABB9GetCenterEv, %function
_ZNK6b2AABB9GetCenterEv:
.LFB120:
	.file 2 "c:/users/ben/desktop/fyp/finalyearproject/box2d/Box2D/Collision/b2Collision.h"
	.loc 2 168 0
	.cfi_startproc
	@ args = 0, pretend = 0, frame = 16
	@ frame_needed = 0, uses_anonymous_args = 0
	str	lr, [sp, #-4]!
.LCFI38:
	.cfi_def_cfa_offset 4
	.cfi_offset 14, -4
	sub	sp, sp, #20
.LCFI39:
	.cfi_def_cfa_offset 24
	str	r0, [sp, #4]
	str	r1, [sp]
	.loc 2 170 0
	ldr	r2, [sp]
	ldr	r3, [sp]
	add	r3, r3, #8
	add	r1, sp, #8
	mov	r0, r1
	mov	r1, r2
	mov	r2, r3
	bl	_ZplRK6b2Vec2S1_(PLT)
	ldr	r2, [sp, #4]
	add	r3, sp, #8
	mov	r0, r2
	mov	r1, #1056964608
	mov	r2, r3
	bl	_ZmlfRK6b2Vec2(PLT)
	.loc 2 171 0
	ldr	r0, [sp, #4]
	add	sp, sp, #20
	@ sp needed
	ldr	pc, [sp], #4
	.cfi_endproc
.LFE120:
	.size	_ZNK6b2AABB9GetCenterEv, .-_ZNK6b2AABB9GetCenterEv
	.section	.text._ZNK6b2AABB10GetExtentsEv,"axG",%progbits,_ZNK6b2AABB10GetExtentsEv,comdat
	.align	2
	.weak	_ZNK6b2AABB10GetExtentsEv
	.hidden	_ZNK6b2AABB10GetExtentsEv
	.type	_ZNK6b2AABB10GetExtentsEv, %function
_ZNK6b2AABB10GetExtentsEv:
.LFB121:
	.loc 2 174 0
	.cfi_startproc
	@ args = 0, pretend = 0, frame = 16
	@ frame_needed = 0, uses_anonymous_args = 0
	str	lr, [sp, #-4]!
.LCFI40:
	.cfi_def_cfa_offset 4
	.cfi_offset 14, -4
	sub	sp, sp, #20
.LCFI41:
	.cfi_def_cfa_offset 24
	str	r0, [sp, #4]
	str	r1, [sp]
	.loc 2 176 0
	ldr	r3, [sp]
	add	r2, r3, #8
	ldr	r3, [sp]
	add	r1, sp, #8
	mov	r0, r1
	mov	r1, r2
	mov	r2, r3
	bl	_ZmiRK6b2Vec2S1_(PLT)
	ldr	r2, [sp, #4]
	add	r3, sp, #8
	mov	r0, r2
	mov	r1, #1056964608
	mov	r2, r3
	bl	_ZmlfRK6b2Vec2(PLT)
	.loc 2 177 0
	ldr	r0, [sp, #4]
	add	sp, sp, #20
	@ sp needed
	ldr	pc, [sp], #4
	.cfi_endproc
.LFE121:
	.size	_ZNK6b2AABB10GetExtentsEv, .-_ZNK6b2AABB10GetExtentsEv
	.global	__aeabi_fcmpgt
	.section	.text._Z13b2TestOverlapRK6b2AABBS1_,"axG",%progbits,_Z13b2TestOverlapRK6b2AABBS1_,comdat
	.align	2
	.weak	_Z13b2TestOverlapRK6b2AABBS1_
	.hidden	_Z13b2TestOverlapRK6b2AABBS1_
	.type	_Z13b2TestOverlapRK6b2AABBS1_, %function
_Z13b2TestOverlapRK6b2AABBS1_:
.LFB127:
	.loc 2 263 0
	.cfi_startproc
	@ args = 0, pretend = 0, frame = 32
	@ frame_needed = 0, uses_anonymous_args = 0
	str	lr, [sp, #-4]!
.LCFI42:
	.cfi_def_cfa_offset 4
	.cfi_offset 14, -4
	sub	sp, sp, #36
.LCFI43:
	.cfi_def_cfa_offset 40
	str	r0, [sp, #12]
	str	r1, [sp, #8]
.LBB6:
	.loc 2 264 0
	add	r3, sp, #24
	mov	r0, r3
	bl	_ZN6b2Vec2C1Ev(PLT)
	add	r3, sp, #16
	mov	r0, r3
	bl	_ZN6b2Vec2C1Ev(PLT)
	.loc 2 265 0
	ldr	r2, [sp, #8]
	ldr	r3, [sp, #12]
	add	r3, r3, #8
	mov	r1, sp
	mov	r0, r1
	mov	r1, r2
	mov	r2, r3
	bl	_ZmiRK6b2Vec2S1_(PLT)
	add	r3, sp, #24
	mov	r2, sp
	ldmia	r2, {r0, r1}
	stmia	r3, {r0, r1}
	.loc 2 266 0
	ldr	r2, [sp, #12]
	ldr	r3, [sp, #8]
	add	r3, r3, #8
	mov	r1, sp
	mov	r0, r1
	mov	r1, r2
	mov	r2, r3
	bl	_ZmiRK6b2Vec2S1_(PLT)
	add	r3, sp, #16
	mov	r2, sp
	ldmia	r2, {r0, r1}
	stmia	r3, {r0, r1}
	.loc 2 268 0
	ldr	r3, [sp, #24]	@ float
	mov	r0, r3
	mov	r1, #0
	bl	__aeabi_fcmpgt(PLT)
	mov	r3, r0
	cmp	r3, #0
	bne	.L51
	.loc 2 268 0 is_stmt 0 discriminator 1
	ldr	r3, [sp, #28]	@ float
	mov	r0, r3
	mov	r1, #0
	bl	__aeabi_fcmpgt(PLT)
	mov	r3, r0
	cmp	r3, #0
	beq	.L59
.L51:
	.loc 2 269 0 is_stmt 1
	mov	r3, #0
	b	.L58
.L59:
	.loc 2 271 0
	ldr	r3, [sp, #16]	@ float
	mov	r0, r3
	mov	r1, #0
	bl	__aeabi_fcmpgt(PLT)
	mov	r3, r0
	cmp	r3, #0
	bne	.L55
	.loc 2 271 0 is_stmt 0 discriminator 1
	ldr	r3, [sp, #20]	@ float
	mov	r0, r3
	mov	r1, #0
	bl	__aeabi_fcmpgt(PLT)
	mov	r3, r0
	cmp	r3, #0
	beq	.L60
.L55:
	.loc 2 272 0 is_stmt 1
	mov	r3, #0
	b	.L58
.L60:
	.loc 2 274 0
	mov	r3, #1
.L58:
.LBE6:
	.loc 2 275 0
	mov	r0, r3
	add	sp, sp, #36
	@ sp needed
	ldr	pc, [sp], #4
	.cfi_endproc
.LFE127:
	.size	_Z13b2TestOverlapRK6b2AABBS1_, .-_Z13b2TestOverlapRK6b2AABBS1_
	.section	.text._ZNK10b2TreeNode6IsLeafEv,"axG",%progbits,_ZNK10b2TreeNode6IsLeafEv,comdat
	.align	2
	.weak	_ZNK10b2TreeNode6IsLeafEv
	.hidden	_ZNK10b2TreeNode6IsLeafEv
	.type	_ZNK10b2TreeNode6IsLeafEv, %function
_ZNK10b2TreeNode6IsLeafEv:
.LFB133:
	.file 3 "c:/users/ben/desktop/fyp/finalyearproject/box2d/Box2D/Collision/b2DynamicTree.h"
	.loc 3 30 0
	.cfi_startproc
	@ args = 0, pretend = 0, frame = 8
	@ frame_needed = 0, uses_anonymous_args = 0
	@ link register save eliminated.
	sub	sp, sp, #8
.LCFI44:
	.cfi_def_cfa_offset 8
	str	r0, [sp, #4]
	.loc 3 32 0
	ldr	r3, [sp, #4]
	ldr	r3, [r3, #24]
	cmn	r3, #1
	movne	r3, #0
	moveq	r3, #1
	uxtb	r3, r3
	.loc 3 33 0
	mov	r0, r3
	add	sp, sp, #8
	@ sp needed
	bx	lr
	.cfi_endproc
.LFE133:
	.size	_ZNK10b2TreeNode6IsLeafEv, .-_ZNK10b2TreeNode6IsLeafEv
	.section	.rodata
	.align	2
.LC2:
	.ascii	"c:/users/ben/desktop/fyp/finalyearproject/box2d/Box"
	.ascii	"2D/Collision/b2DynamicTree.h\000"
	.align	2
.LC3:
	.ascii	"0 <= proxyId && proxyId < m_nodeCapacity\000"
	.section	.text._ZNK13b2DynamicTree11GetUserDataEi,"axG",%progbits,_ZNK13b2DynamicTree11GetUserDataEi,comdat
	.align	2
	.weak	_ZNK13b2DynamicTree11GetUserDataEi
	.hidden	_ZNK13b2DynamicTree11GetUserDataEi
	.type	_ZNK13b2DynamicTree11GetUserDataEi, %function
_ZNK13b2DynamicTree11GetUserDataEi:
.LFB134:
	.loc 3 157 0
	.cfi_startproc
	@ args = 0, pretend = 0, frame = 8
	@ frame_needed = 0, uses_anonymous_args = 0
	str	lr, [sp, #-4]!
.LCFI45:
	.cfi_def_cfa_offset 4
	.cfi_offset 14, -4
	sub	sp, sp, #12
.LCFI46:
	.cfi_def_cfa_offset 16
	str	r0, [sp, #4]
	str	r1, [sp]
	.loc 3 158 0
	ldr	r3, [sp]
	cmp	r3, #0
	blt	.L64
	.loc 3 158 0 is_stmt 0 discriminator 2
	ldr	r3, [sp, #4]
	ldr	r2, [r3, #12]
	ldr	r3, [sp]
	cmp	r2, r3
	bgt	.L65
.L64:
	.loc 3 158 0 discriminator 1
	ldr	r3, .L67
.LPIC2:
	add	r3, pc, r3
	mov	r0, r3
	mov	r1, #158
	ldr	r3, .L67+4
.LPIC3:
	add	r3, pc, r3
	mov	r2, r3
	bl	__assert(PLT)
.L65:
	.loc 3 159 0 is_stmt 1
	ldr	r3, [sp, #4]
	ldr	r1, [r3, #4]
	ldr	r2, [sp]
	mov	r3, r2
	mov	r3, r3, asl #3
	add	r3, r3, r2
	mov	r3, r3, asl #2
	add	r3, r1, r3
	ldr	r3, [r3, #16]
	.loc 3 160 0
	mov	r0, r3
	add	sp, sp, #12
	@ sp needed
	ldr	pc, [sp], #4
.L68:
	.align	2
.L67:
	.word	.LC2-(.LPIC2+8)
	.word	.LC3-(.LPIC3+8)
	.cfi_endproc
.LFE134:
	.size	_ZNK13b2DynamicTree11GetUserDataEi, .-_ZNK13b2DynamicTree11GetUserDataEi
	.section	.text._ZNK13b2DynamicTree10GetFatAABBEi,"axG",%progbits,_ZNK13b2DynamicTree10GetFatAABBEi,comdat
	.align	2
	.weak	_ZNK13b2DynamicTree10GetFatAABBEi
	.hidden	_ZNK13b2DynamicTree10GetFatAABBEi
	.type	_ZNK13b2DynamicTree10GetFatAABBEi, %function
_ZNK13b2DynamicTree10GetFatAABBEi:
.LFB135:
	.loc 3 163 0
	.cfi_startproc
	@ args = 0, pretend = 0, frame = 8
	@ frame_needed = 0, uses_anonymous_args = 0
	str	lr, [sp, #-4]!
.LCFI47:
	.cfi_def_cfa_offset 4
	.cfi_offset 14, -4
	sub	sp, sp, #12
.LCFI48:
	.cfi_def_cfa_offset 16
	str	r0, [sp, #4]
	str	r1, [sp]
	.loc 3 164 0
	ldr	r3, [sp]
	cmp	r3, #0
	blt	.L70
	.loc 3 164 0 is_stmt 0 discriminator 2
	ldr	r3, [sp, #4]
	ldr	r2, [r3, #12]
	ldr	r3, [sp]
	cmp	r2, r3
	bgt	.L71
.L70:
	.loc 3 164 0 discriminator 1
	ldr	r3, .L73
.LPIC4:
	add	r3, pc, r3
	mov	r0, r3
	mov	r1, #164
	ldr	r3, .L73+4
.LPIC5:
	add	r3, pc, r3
	mov	r2, r3
	bl	__assert(PLT)
.L71:
	.loc 3 165 0 is_stmt 1
	ldr	r3, [sp, #4]
	ldr	r1, [r3, #4]
	ldr	r2, [sp]
	mov	r3, r2
	mov	r3, r3, asl #3
	add	r3, r3, r2
	mov	r3, r3, asl #2
	add	r3, r1, r3
	.loc 3 166 0
	mov	r0, r3
	add	sp, sp, #12
	@ sp needed
	ldr	pc, [sp], #4
.L74:
	.align	2
.L73:
	.word	.LC2-(.LPIC4+8)
	.word	.LC3-(.LPIC5+8)
	.cfi_endproc
.LFE135:
	.size	_ZNK13b2DynamicTree10GetFatAABBEi, .-_ZNK13b2DynamicTree10GetFatAABBEi
	.section	.text._ZnwjPv,"axG",%progbits,_ZnwjPv,comdat
	.align	2
	.weak	_ZnwjPv
	.hidden	_ZnwjPv
	.type	_ZnwjPv, %function
_ZnwjPv:
.LFB302:
	.file 4 "c:/marmalade/7.4/s3e/h/std/c++/new.h"
	.loc 4 52 0
	.cfi_startproc
	@ args = 0, pretend = 0, frame = 8
	@ frame_needed = 0, uses_anonymous_args = 0
	@ link register save eliminated.
	sub	sp, sp, #8
.LCFI49:
	.cfi_def_cfa_offset 8
	str	r0, [sp, #4]
	str	r1, [sp]
	.loc 4 52 0
	ldr	r3, [sp]
	mov	r0, r3
	add	sp, sp, #8
	@ sp needed
	bx	lr
	.cfi_endproc
.LFE302:
	.size	_ZnwjPv, .-_ZnwjPv
	.section	.text._ZNK12b2BroadPhase11GetUserDataEi,"axG",%progbits,_ZNK12b2BroadPhase11GetUserDataEi,comdat
	.align	2
	.weak	_ZNK12b2BroadPhase11GetUserDataEi
	.hidden	_ZNK12b2BroadPhase11GetUserDataEi
	.type	_ZNK12b2BroadPhase11GetUserDataEi, %function
_ZNK12b2BroadPhase11GetUserDataEi:
.LFB548:
	.file 5 "c:/users/ben/desktop/fyp/finalyearproject/box2d/Box2D/Collision/b2BroadPhase.h"
	.loc 5 148 0
	.cfi_startproc
	@ args = 0, pretend = 0, frame = 8
	@ frame_needed = 0, uses_anonymous_args = 0
	str	lr, [sp, #-4]!
.LCFI50:
	.cfi_def_cfa_offset 4
	.cfi_offset 14, -4
	sub	sp, sp, #12
.LCFI51:
	.cfi_def_cfa_offset 16
	str	r0, [sp, #4]
	str	r1, [sp]
	.loc 5 149 0
	ldr	r3, [sp, #4]
	mov	r0, r3
	ldr	r1, [sp]
	bl	_ZNK13b2DynamicTree11GetUserDataEi(PLT)
	mov	r3, r0
	.loc 5 150 0
	mov	r0, r3
	add	sp, sp, #12
	@ sp needed
	ldr	pc, [sp], #4
	.cfi_endproc
.LFE548:
	.size	_ZNK12b2BroadPhase11GetUserDataEi, .-_ZNK12b2BroadPhase11GetUserDataEi
	.section	.text._ZNK12b2BroadPhase10GetFatAABBEi,"axG",%progbits,_ZNK12b2BroadPhase10GetFatAABBEi,comdat
	.align	2
	.weak	_ZNK12b2BroadPhase10GetFatAABBEi
	.hidden	_ZNK12b2BroadPhase10GetFatAABBEi
	.type	_ZNK12b2BroadPhase10GetFatAABBEi, %function
_ZNK12b2BroadPhase10GetFatAABBEi:
.LFB550:
	.loc 5 160 0
	.cfi_startproc
	@ args = 0, pretend = 0, frame = 8
	@ frame_needed = 0, uses_anonymous_args = 0
	str	lr, [sp, #-4]!
.LCFI52:
	.cfi_def_cfa_offset 4
	.cfi_offset 14, -4
	sub	sp, sp, #12
.LCFI53:
	.cfi_def_cfa_offset 16
	str	r0, [sp, #4]
	str	r1, [sp]
	.loc 5 161 0
	ldr	r3, [sp, #4]
	mov	r0, r3
	ldr	r1, [sp]
	bl	_ZNK13b2DynamicTree10GetFatAABBEi(PLT)
	mov	r3, r0
	.loc 5 162 0
	mov	r0, r3
	add	sp, sp, #12
	@ sp needed
	ldr	pc, [sp], #4
	.cfi_endproc
.LFE550:
	.size	_ZNK12b2BroadPhase10GetFatAABBEi, .-_ZNK12b2BroadPhase10GetFatAABBEi
	.section	.text._ZNK12b2BroadPhase13GetProxyCountEv,"axG",%progbits,_ZNK12b2BroadPhase13GetProxyCountEv,comdat
	.align	2
	.weak	_ZNK12b2BroadPhase13GetProxyCountEv
	.hidden	_ZNK12b2BroadPhase13GetProxyCountEv
	.type	_ZNK12b2BroadPhase13GetProxyCountEv, %function
_ZNK12b2BroadPhase13GetProxyCountEv:
.LFB551:
	.loc 5 165 0
	.cfi_startproc
	@ args = 0, pretend = 0, frame = 8
	@ frame_needed = 0, uses_anonymous_args = 0
	@ link register save eliminated.
	sub	sp, sp, #8
.LCFI54:
	.cfi_def_cfa_offset 8
	str	r0, [sp, #4]
	.loc 5 166 0
	ldr	r3, [sp, #4]
	ldr	r3, [r3, #28]
	.loc 5 167 0
	mov	r0, r3
	add	sp, sp, #8
	@ sp needed
	bx	lr
	.cfi_endproc
.LFE551:
	.size	_ZNK12b2BroadPhase13GetProxyCountEv, .-_ZNK12b2BroadPhase13GetProxyCountEv
	.section	.text._ZNK12b2BroadPhase13GetTreeHeightEv,"axG",%progbits,_ZNK12b2BroadPhase13GetTreeHeightEv,comdat
	.align	2
	.weak	_ZNK12b2BroadPhase13GetTreeHeightEv
	.hidden	_ZNK12b2BroadPhase13GetTreeHeightEv
	.type	_ZNK12b2BroadPhase13GetTreeHeightEv, %function
_ZNK12b2BroadPhase13GetTreeHeightEv:
.LFB552:
	.loc 5 170 0
	.cfi_startproc
	@ args = 0, pretend = 0, frame = 8
	@ frame_needed = 0, uses_anonymous_args = 0
	str	lr, [sp, #-4]!
.LCFI55:
	.cfi_def_cfa_offset 4
	.cfi_offset 14, -4
	sub	sp, sp, #12
.LCFI56:
	.cfi_def_cfa_offset 16
	str	r0, [sp, #4]
	.loc 5 171 0
	ldr	r3, [sp, #4]
	mov	r0, r3
	bl	_ZNK13b2DynamicTree9GetHeightEv(PLT)
	mov	r3, r0
	.loc 5 172 0
	mov	r0, r3
	add	sp, sp, #12
	@ sp needed
	ldr	pc, [sp], #4
	.cfi_endproc
.LFE552:
	.size	_ZNK12b2BroadPhase13GetTreeHeightEv, .-_ZNK12b2BroadPhase13GetTreeHeightEv
	.section	.text._ZNK12b2BroadPhase14GetTreeBalanceEv,"axG",%progbits,_ZNK12b2BroadPhase14GetTreeBalanceEv,comdat
	.align	2
	.weak	_ZNK12b2BroadPhase14GetTreeBalanceEv
	.hidden	_ZNK12b2BroadPhase14GetTreeBalanceEv
	.type	_ZNK12b2BroadPhase14GetTreeBalanceEv, %function
_ZNK12b2BroadPhase14GetTreeBalanceEv:
.LFB553:
	.loc 5 175 0
	.cfi_startproc
	@ args = 0, pretend = 0, frame = 8
	@ frame_needed = 0, uses_anonymous_args = 0
	str	lr, [sp, #-4]!
.LCFI57:
	.cfi_def_cfa_offset 4
	.cfi_offset 14, -4
	sub	sp, sp, #12
.LCFI58:
	.cfi_def_cfa_offset 16
	str	r0, [sp, #4]
	.loc 5 176 0
	ldr	r3, [sp, #4]
	mov	r0, r3
	bl	_ZNK13b2DynamicTree13GetMaxBalanceEv(PLT)
	mov	r3, r0
	.loc 5 177 0
	mov	r0, r3
	add	sp, sp, #12
	@ sp needed
	ldr	pc, [sp], #4
	.cfi_endproc
.LFE553:
	.size	_ZNK12b2BroadPhase14GetTreeBalanceEv, .-_ZNK12b2BroadPhase14GetTreeBalanceEv
	.section	.text._ZNK12b2BroadPhase14GetTreeQualityEv,"axG",%progbits,_ZNK12b2BroadPhase14GetTreeQualityEv,comdat
	.align	2
	.weak	_ZNK12b2BroadPhase14GetTreeQualityEv
	.hidden	_ZNK12b2BroadPhase14GetTreeQualityEv
	.type	_ZNK12b2BroadPhase14GetTreeQualityEv, %function
_ZNK12b2BroadPhase14GetTreeQualityEv:
.LFB554:
	.loc 5 180 0
	.cfi_startproc
	@ args = 0, pretend = 0, frame = 8
	@ frame_needed = 0, uses_anonymous_args = 0
	str	lr, [sp, #-4]!
.LCFI59:
	.cfi_def_cfa_offset 4
	.cfi_offset 14, -4
	sub	sp, sp, #12
.LCFI60:
	.cfi_def_cfa_offset 16
	str	r0, [sp, #4]
	.loc 5 181 0
	ldr	r3, [sp, #4]
	mov	r0, r3
	bl	_ZNK13b2DynamicTree12GetAreaRatioEv(PLT)
	mov	r3, r0
	.loc 5 182 0
	mov	r0, r3
	add	sp, sp, #12
	@ sp needed
	ldr	pc, [sp], #4
	.cfi_endproc
.LFE554:
	.size	_ZNK12b2BroadPhase14GetTreeQualityEv, .-_ZNK12b2BroadPhase14GetTreeQualityEv
	.section	.text._ZN12b2BroadPhase11ShiftOriginERK6b2Vec2,"axG",%progbits,_ZN12b2BroadPhase11ShiftOriginERK6b2Vec2,comdat
	.align	2
	.weak	_ZN12b2BroadPhase11ShiftOriginERK6b2Vec2
	.hidden	_ZN12b2BroadPhase11ShiftOriginERK6b2Vec2
	.type	_ZN12b2BroadPhase11ShiftOriginERK6b2Vec2, %function
_ZN12b2BroadPhase11ShiftOriginERK6b2Vec2:
.LFB558:
	.loc 5 253 0
	.cfi_startproc
	@ args = 0, pretend = 0, frame = 8
	@ frame_needed = 0, uses_anonymous_args = 0
	str	lr, [sp, #-4]!
.LCFI61:
	.cfi_def_cfa_offset 4
	.cfi_offset 14, -4
	sub	sp, sp, #12
.LCFI62:
	.cfi_def_cfa_offset 16
	str	r0, [sp, #4]
	str	r1, [sp]
	.loc 5 254 0
	ldr	r3, [sp, #4]
	mov	r0, r3
	ldr	r1, [sp]
	bl	_ZN13b2DynamicTree11ShiftOriginERK6b2Vec2(PLT)
	.loc 5 255 0
	add	sp, sp, #12
	@ sp needed
	ldr	pc, [sp], #4
	.cfi_endproc
.LFE558:
	.size	_ZN12b2BroadPhase11ShiftOriginERK6b2Vec2, .-_ZN12b2BroadPhase11ShiftOriginERK6b2Vec2
	.section	.text._ZNK7b2World8IsLockedEv,"axG",%progbits,_ZNK7b2World8IsLockedEv,comdat
	.align	2
	.weak	_ZNK7b2World8IsLockedEv
	.hidden	_ZNK7b2World8IsLockedEv
	.type	_ZNK7b2World8IsLockedEv, %function
_ZNK7b2World8IsLockedEv:
.LFB601:
	.file 6 "c:/users/ben/desktop/fyp/finalyearproject/box2d/Box2D/Dynamics/b2World.h"
	.loc 6 322 0
	.cfi_startproc
	@ args = 0, pretend = 0, frame = 8
	@ frame_needed = 0, uses_anonymous_args = 0
	@ link register save eliminated.
	sub	sp, sp, #8
.LCFI63:
	.cfi_def_cfa_offset 8
	str	r0, [sp, #4]
	.loc 6 323 0
	ldr	r2, [sp, #4]
	ldr	r3, .L92
	ldr	r3, [r2, r3]
	and	r3, r3, #2
	cmp	r3, #0
	moveq	r3, #0
	movne	r3, #1
	uxtb	r3, r3
	.loc 6 324 0
	mov	r0, r3
	add	sp, sp, #8
	@ sp needed
	bx	lr
.L93:
	.align	2
.L92:
	.word	102868
	.cfi_endproc
.LFE601:
	.size	_ZNK7b2World8IsLockedEv, .-_ZNK7b2World8IsLockedEv
	.section	.text._ZNK7b2Shape7GetTypeEv,"axG",%progbits,_ZNK7b2Shape7GetTypeEv,comdat
	.align	2
	.weak	_ZNK7b2Shape7GetTypeEv
	.hidden	_ZNK7b2Shape7GetTypeEv
	.type	_ZNK7b2Shape7GetTypeEv, %function
_ZNK7b2Shape7GetTypeEv:
.LFB610:
	.file 7 "c:/users/ben/desktop/fyp/finalyearproject/box2d/Box2D/Collision/Shapes/b2Shape.h"
	.loc 7 97 0
	.cfi_startproc
	@ args = 0, pretend = 0, frame = 8
	@ frame_needed = 0, uses_anonymous_args = 0
	@ link register save eliminated.
	sub	sp, sp, #8
.LCFI64:
	.cfi_def_cfa_offset 8
	str	r0, [sp, #4]
	.loc 7 98 0
	ldr	r3, [sp, #4]
	ldr	r3, [r3, #4]
	.loc 7 99 0
	mov	r0, r3
	add	sp, sp, #8
	@ sp needed
	bx	lr
	.cfi_endproc
.LFE610:
	.size	_ZNK7b2Shape7GetTypeEv, .-_ZNK7b2Shape7GetTypeEv
	.section	.text._ZNK6b2Body7GetTypeEv,"axG",%progbits,_ZNK6b2Body7GetTypeEv,comdat
	.align	2
	.weak	_ZNK6b2Body7GetTypeEv
	.hidden	_ZNK6b2Body7GetTypeEv
	.type	_ZNK6b2Body7GetTypeEv, %function
_ZNK6b2Body7GetTypeEv:
.LFB693:
	.file 8 "c:/users/ben/desktop/fyp/finalyearproject/box2d/Box2D/Dynamics/b2Body.h"
	.loc 8 470 0
	.cfi_startproc
	@ args = 0, pretend = 0, frame = 8
	@ frame_needed = 0, uses_anonymous_args = 0
	@ link register save eliminated.
	sub	sp, sp, #8
.LCFI65:
	.cfi_def_cfa_offset 8
	str	r0, [sp, #4]
	.loc 8 471 0
	ldr	r3, [sp, #4]
	ldr	r3, [r3]
	.loc 8 472 0
	mov	r0, r3
	add	sp, sp, #8
	@ sp needed
	bx	lr
	.cfi_endproc
.LFE693:
	.size	_ZNK6b2Body7GetTypeEv, .-_ZNK6b2Body7GetTypeEv
	.section	.text._ZNK6b2Body12GetTransformEv,"axG",%progbits,_ZNK6b2Body12GetTransformEv,comdat
	.align	2
	.weak	_ZNK6b2Body12GetTransformEv
	.hidden	_ZNK6b2Body12GetTransformEv
	.type	_ZNK6b2Body12GetTransformEv, %function
_ZNK6b2Body12GetTransformEv:
.LFB694:
	.loc 8 475 0
	.cfi_startproc
	@ args = 0, pretend = 0, frame = 8
	@ frame_needed = 0, uses_anonymous_args = 0
	@ link register save eliminated.
	sub	sp, sp, #8
.LCFI66:
	.cfi_def_cfa_offset 8
	str	r0, [sp, #4]
	.loc 8 476 0
	ldr	r3, [sp, #4]
	add	r3, r3, #12
	.loc 8 477 0
	mov	r0, r3
	add	sp, sp, #8
	@ sp needed
	bx	lr
	.cfi_endproc
.LFE694:
	.size	_ZNK6b2Body12GetTransformEv, .-_ZNK6b2Body12GetTransformEv
	.section	.text._ZNK6b2Body14GetWorldCenterEv,"axG",%progbits,_ZNK6b2Body14GetWorldCenterEv,comdat
	.align	2
	.weak	_ZNK6b2Body14GetWorldCenterEv
	.hidden	_ZNK6b2Body14GetWorldCenterEv
	.type	_ZNK6b2Body14GetWorldCenterEv, %function
_ZNK6b2Body14GetWorldCenterEv:
.LFB697:
	.loc 8 490 0
	.cfi_startproc
	@ args = 0, pretend = 0, frame = 8
	@ frame_needed = 0, uses_anonymous_args = 0
	@ link register save eliminated.
	sub	sp, sp, #8
.LCFI67:
	.cfi_def_cfa_offset 8
	str	r0, [sp, #4]
	.loc 8 491 0
	ldr	r3, [sp, #4]
	add	r3, r3, #44
	.loc 8 492 0
	mov	r0, r3
	add	sp, sp, #8
	@ sp needed
	bx	lr
	.cfi_endproc
.LFE697:
	.size	_ZNK6b2Body14GetWorldCenterEv, .-_ZNK6b2Body14GetWorldCenterEv
	.section	.text._ZNK6b2Body8IsBulletEv,"axG",%progbits,_ZNK6b2Body8IsBulletEv,comdat
	.align	2
	.weak	_ZNK6b2Body8IsBulletEv
	.hidden	_ZNK6b2Body8IsBulletEv
	.type	_ZNK6b2Body8IsBulletEv, %function
_ZNK6b2Body8IsBulletEv:
.LFB719:
	.loc 8 629 0
	.cfi_startproc
	@ args = 0, pretend = 0, frame = 8
	@ frame_needed = 0, uses_anonymous_args = 0
	@ link register save eliminated.
	sub	sp, sp, #8
.LCFI68:
	.cfi_def_cfa_offset 8
	str	r0, [sp, #4]
	.loc 8 630 0
	ldr	r3, [sp, #4]
	ldrh	r3, [r3, #4]
	and	r3, r3, #8
	cmp	r3, #0
	moveq	r3, #0
	movne	r3, #1
	uxtb	r3, r3
	.loc 8 631 0
	mov	r0, r3
	add	sp, sp, #8
	@ sp needed
	bx	lr
	.cfi_endproc
.LFE719:
	.size	_ZNK6b2Body8IsBulletEv, .-_ZNK6b2Body8IsBulletEv
	.section	.text._ZN6b2Body8SetAwakeEb,"axG",%progbits,_ZN6b2Body8SetAwakeEb,comdat
	.align	2
	.weak	_ZN6b2Body8SetAwakeEb
	.hidden	_ZN6b2Body8SetAwakeEb
	.type	_ZN6b2Body8SetAwakeEb, %function
_ZN6b2Body8SetAwakeEb:
.LFB720:
	.loc 8 634 0
	.cfi_startproc
	@ args = 0, pretend = 0, frame = 8
	@ frame_needed = 0, uses_anonymous_args = 0
	str	lr, [sp, #-4]!
.LCFI69:
	.cfi_def_cfa_offset 4
	.cfi_offset 14, -4
	sub	sp, sp, #12
.LCFI70:
	.cfi_def_cfa_offset 16
	str	r0, [sp, #4]
	mov	r3, r1
	strb	r3, [sp, #3]
	.loc 8 635 0
	ldrb	r3, [sp, #3]	@ zero_extendqisi2
	cmp	r3, #0
	beq	.L105
	.loc 8 637 0
	ldr	r3, [sp, #4]
	ldrh	r3, [r3, #4]
	and	r3, r3, #2
	cmp	r3, #0
	bne	.L104
	.loc 8 639 0
	ldr	r3, [sp, #4]
	ldrh	r3, [r3, #4]
	orr	r3, r3, #2
	uxth	r2, r3
	ldr	r3, [sp, #4]
	strh	r2, [r3, #4]	@ movhi
	.loc 8 640 0
	ldr	r3, [sp, #4]
	mov	r2, #0
	str	r2, [r3, #144]	@ float
	b	.L104
.L105:
	.loc 8 645 0
	ldr	r3, [sp, #4]
	ldrh	r3, [r3, #4]
	bic	r3, r3, #2
	uxth	r2, r3
	ldr	r3, [sp, #4]
	strh	r2, [r3, #4]	@ movhi
	.loc 8 646 0
	ldr	r3, [sp, #4]
	mov	r2, #0
	str	r2, [r3, #144]	@ float
	.loc 8 647 0
	ldr	r3, [sp, #4]
	add	r3, r3, #64
	mov	r0, r3
	bl	_ZN6b2Vec27SetZeroEv(PLT)
	.loc 8 648 0
	ldr	r3, [sp, #4]
	mov	r2, #0
	str	r2, [r3, #72]	@ float
	.loc 8 649 0
	ldr	r3, [sp, #4]
	add	r3, r3, #76
	mov	r0, r3
	bl	_ZN6b2Vec27SetZeroEv(PLT)
	.loc 8 650 0
	ldr	r3, [sp, #4]
	mov	r2, #0
	str	r2, [r3, #84]	@ float
.L104:
	.loc 8 652 0
	add	sp, sp, #12
	@ sp needed
	ldr	pc, [sp], #4
	.cfi_endproc
.LFE720:
	.size	_ZN6b2Body8SetAwakeEb, .-_ZN6b2Body8SetAwakeEb
	.section	.text._ZNK6b2Body7IsAwakeEv,"axG",%progbits,_ZNK6b2Body7IsAwakeEv,comdat
	.align	2
	.weak	_ZNK6b2Body7IsAwakeEv
	.hidden	_ZNK6b2Body7IsAwakeEv
	.type	_ZNK6b2Body7IsAwakeEv, %function
_ZNK6b2Body7IsAwakeEv:
.LFB721:
	.loc 8 655 0
	.cfi_startproc
	@ args = 0, pretend = 0, frame = 8
	@ frame_needed = 0, uses_anonymous_args = 0
	@ link register save eliminated.
	sub	sp, sp, #8
.LCFI71:
	.cfi_def_cfa_offset 8
	str	r0, [sp, #4]
	.loc 8 656 0
	ldr	r3, [sp, #4]
	ldrh	r3, [r3, #4]
	and	r3, r3, #2
	cmp	r3, #0
	moveq	r3, #0
	movne	r3, #1
	uxtb	r3, r3
	.loc 8 657 0
	mov	r0, r3
	add	sp, sp, #8
	@ sp needed
	bx	lr
	.cfi_endproc
.LFE721:
	.size	_ZNK6b2Body7IsAwakeEv, .-_ZNK6b2Body7IsAwakeEv
	.section	.text._ZNK6b2Body8IsActiveEv,"axG",%progbits,_ZNK6b2Body8IsActiveEv,comdat
	.align	2
	.weak	_ZNK6b2Body8IsActiveEv
	.hidden	_ZNK6b2Body8IsActiveEv
	.type	_ZNK6b2Body8IsActiveEv, %function
_ZNK6b2Body8IsActiveEv:
.LFB722:
	.loc 8 660 0
	.cfi_startproc
	@ args = 0, pretend = 0, frame = 8
	@ frame_needed = 0, uses_anonymous_args = 0
	@ link register save eliminated.
	sub	sp, sp, #8
.LCFI72:
	.cfi_def_cfa_offset 8
	str	r0, [sp, #4]
	.loc 8 661 0
	ldr	r3, [sp, #4]
	ldrh	r3, [r3, #4]
	and	r3, r3, #32
	cmp	r3, #0
	moveq	r3, #0
	movne	r3, #1
	uxtb	r3, r3
	.loc 8 662 0
	mov	r0, r3
	add	sp, sp, #8
	@ sp needed
	bx	lr
	.cfi_endproc
.LFE722:
	.size	_ZNK6b2Body8IsActiveEv, .-_ZNK6b2Body8IsActiveEv
	.section	.text._ZN6b2Body14GetFixtureListEv,"axG",%progbits,_ZN6b2Body14GetFixtureListEv,comdat
	.align	2
	.weak	_ZN6b2Body14GetFixtureListEv
	.hidden	_ZN6b2Body14GetFixtureListEv
	.type	_ZN6b2Body14GetFixtureListEv, %function
_ZN6b2Body14GetFixtureListEv:
.LFB726:
	.loc 8 688 0
	.cfi_startproc
	@ args = 0, pretend = 0, frame = 8
	@ frame_needed = 0, uses_anonymous_args = 0
	@ link register save eliminated.
	sub	sp, sp, #8
.LCFI73:
	.cfi_def_cfa_offset 8
	str	r0, [sp, #4]
	.loc 8 689 0
	ldr	r3, [sp, #4]
	ldr	r3, [r3, #100]
	.loc 8 690 0
	mov	r0, r3
	add	sp, sp, #8
	@ sp needed
	bx	lr
	.cfi_endproc
.LFE726:
	.size	_ZN6b2Body14GetFixtureListEv, .-_ZN6b2Body14GetFixtureListEv
	.section	.text._ZN6b2Body14GetContactListEv,"axG",%progbits,_ZN6b2Body14GetContactListEv,comdat
	.align	2
	.weak	_ZN6b2Body14GetContactListEv
	.hidden	_ZN6b2Body14GetContactListEv
	.type	_ZN6b2Body14GetContactListEv, %function
_ZN6b2Body14GetContactListEv:
.LFB730:
	.loc 8 708 0
	.cfi_startproc
	@ args = 0, pretend = 0, frame = 8
	@ frame_needed = 0, uses_anonymous_args = 0
	@ link register save eliminated.
	sub	sp, sp, #8
.LCFI74:
	.cfi_def_cfa_offset 8
	str	r0, [sp, #4]
	.loc 8 709 0
	ldr	r3, [sp, #4]
	ldr	r3, [r3, #112]
	.loc 8 710 0
	mov	r0, r3
	add	sp, sp, #8
	@ sp needed
	bx	lr
	.cfi_endproc
.LFE730:
	.size	_ZN6b2Body14GetContactListEv, .-_ZN6b2Body14GetContactListEv
	.section	.text._ZN6b2Body7GetNextEv,"axG",%progbits,_ZN6b2Body7GetNextEv,comdat
	.align	2
	.weak	_ZN6b2Body7GetNextEv
	.hidden	_ZN6b2Body7GetNextEv
	.type	_ZN6b2Body7GetNextEv, %function
_ZN6b2Body7GetNextEv:
.LFB732:
	.loc 8 718 0
	.cfi_startproc
	@ args = 0, pretend = 0, frame = 8
	@ frame_needed = 0, uses_anonymous_args = 0
	@ link register save eliminated.
	sub	sp, sp, #8
.LCFI75:
	.cfi_def_cfa_offset 8
	str	r0, [sp, #4]
	.loc 8 719 0
	ldr	r3, [sp, #4]
	ldr	r3, [r3, #96]
	.loc 8 720 0
	mov	r0, r3
	add	sp, sp, #8
	@ sp needed
	bx	lr
	.cfi_endproc
.LFE732:
	.size	_ZN6b2Body7GetNextEv, .-_ZN6b2Body7GetNextEv
	.section	.text._ZN6b2Body20SynchronizeTransformEv,"axG",%progbits,_ZN6b2Body20SynchronizeTransformEv,comdat
	.align	2
	.weak	_ZN6b2Body20SynchronizeTransformEv
	.hidden	_ZN6b2Body20SynchronizeTransformEv
	.type	_ZN6b2Body20SynchronizeTransformEv, %function
_ZN6b2Body20SynchronizeTransformEv:
.LFB741:
	.loc 8 835 0
	.cfi_startproc
	@ args = 0, pretend = 0, frame = 24
	@ frame_needed = 0, uses_anonymous_args = 0
	stmfd	sp!, {r4, r5, lr}
.LCFI76:
	.cfi_def_cfa_offset 12
	.cfi_offset 4, -12
	.cfi_offset 5, -8
	.cfi_offset 14, -4
	sub	sp, sp, #28
.LCFI77:
	.cfi_def_cfa_offset 40
	str	r0, [sp, #12]
	.loc 8 836 0
	ldr	r3, [sp, #12]
	add	r2, r3, #20
	ldr	r3, [sp, #12]
	ldr	r3, [r3, #56]	@ float
	mov	r0, r2
	mov	r1, r3
	bl	_ZN5b2Rot3SetEf(PLT)
	.loc 8 837 0
	ldr	r3, [sp, #12]
	add	r5, r3, #44
	ldr	r3, [sp, #12]
	add	r2, r3, #20
	ldr	r3, [sp, #12]
	add	r3, r3, #28
	add	r1, sp, #16
	mov	r0, r1
	mov	r1, r2
	mov	r2, r3
	bl	_Z5b2MulRK5b2RotRK6b2Vec2(PLT)
	ldr	r4, [sp, #12]
	mov	r2, sp
	add	r3, sp, #16
	mov	r0, r2
	mov	r1, r5
	mov	r2, r3
	bl	_ZmiRK6b2Vec2S1_(PLT)
	add	r3, r4, #12
	mov	r2, sp
	ldmia	r2, {r0, r1}
	stmia	r3, {r0, r1}
	.loc 8 838 0
	add	sp, sp, #28
	@ sp needed
	ldmfd	sp!, {r4, r5, pc}
	.cfi_endproc
.LFE741:
	.size	_ZN6b2Body20SynchronizeTransformEv, .-_ZN6b2Body20SynchronizeTransformEv
	.section	.text._ZN6b2Body7AdvanceEf,"axG",%progbits,_ZN6b2Body7AdvanceEf,comdat
	.align	2
	.weak	_ZN6b2Body7AdvanceEf
	.hidden	_ZN6b2Body7AdvanceEf
	.type	_ZN6b2Body7AdvanceEf, %function
_ZN6b2Body7AdvanceEf:
.LFB742:
	.loc 8 841 0
	.cfi_startproc
	@ args = 0, pretend = 0, frame = 24
	@ frame_needed = 0, uses_anonymous_args = 0
	stmfd	sp!, {r4, r5, lr}
.LCFI78:
	.cfi_def_cfa_offset 12
	.cfi_offset 4, -12
	.cfi_offset 5, -8
	.cfi_offset 14, -4
	sub	sp, sp, #28
.LCFI79:
	.cfi_def_cfa_offset 40
	str	r0, [sp, #12]
	str	r1, [sp, #8]	@ float
	.loc 8 843 0
	ldr	r3, [sp, #12]
	add	r3, r3, #28
	mov	r0, r3
	ldr	r1, [sp, #8]	@ float
	bl	_ZN7b2Sweep7AdvanceEf(PLT)
	.loc 8 844 0
	ldr	r3, [sp, #12]
	ldr	r2, [sp, #12]
	add	r3, r3, #44
	add	r2, r2, #36
	ldmia	r2, {r0, r1}
	stmia	r3, {r0, r1}
	.loc 8 845 0
	ldr	r3, [sp, #12]
	ldr	r2, [r3, #52]	@ float
	ldr	r3, [sp, #12]
	str	r2, [r3, #56]	@ float
	.loc 8 846 0
	ldr	r3, [sp, #12]
	add	r2, r3, #20
	ldr	r3, [sp, #12]
	ldr	r3, [r3, #56]	@ float
	mov	r0, r2
	mov	r1, r3
	bl	_ZN5b2Rot3SetEf(PLT)
	.loc 8 847 0
	ldr	r3, [sp, #12]
	add	r5, r3, #44
	ldr	r3, [sp, #12]
	add	r2, r3, #20
	ldr	r3, [sp, #12]
	add	r3, r3, #28
	add	r1, sp, #16
	mov	r0, r1
	mov	r1, r2
	mov	r2, r3
	bl	_Z5b2MulRK5b2RotRK6b2Vec2(PLT)
	ldr	r4, [sp, #12]
	mov	r2, sp
	add	r3, sp, #16
	mov	r0, r2
	mov	r1, r5
	mov	r2, r3
	bl	_ZmiRK6b2Vec2S1_(PLT)
	add	r3, r4, #12
	mov	r2, sp
	ldmia	r2, {r0, r1}
	stmia	r3, {r0, r1}
	.loc 8 848 0
	add	sp, sp, #28
	@ sp needed
	ldmfd	sp!, {r4, r5, pc}
	.cfi_endproc
.LFE742:
	.size	_ZN6b2Body7AdvanceEf, .-_ZN6b2Body7AdvanceEf
	.section	.text._ZNK9b2Fixture7GetTypeEv,"axG",%progbits,_ZNK9b2Fixture7GetTypeEv,comdat
	.align	2
	.weak	_ZNK9b2Fixture7GetTypeEv
	.hidden	_ZNK9b2Fixture7GetTypeEv
	.type	_ZNK9b2Fixture7GetTypeEv, %function
_ZNK9b2Fixture7GetTypeEv:
.LFB751:
	.file 9 "c:/users/ben/desktop/fyp/finalyearproject/box2d/Box2D/Dynamics/b2Fixture.h"
	.loc 9 239 0
	.cfi_startproc
	@ args = 0, pretend = 0, frame = 8
	@ frame_needed = 0, uses_anonymous_args = 0
	str	lr, [sp, #-4]!
.LCFI80:
	.cfi_def_cfa_offset 4
	.cfi_offset 14, -4
	sub	sp, sp, #12
.LCFI81:
	.cfi_def_cfa_offset 16
	str	r0, [sp, #4]
	.loc 9 240 0
	ldr	r3, [sp, #4]
	ldr	r3, [r3, #12]
	mov	r0, r3
	bl	_ZNK7b2Shape7GetTypeEv(PLT)
	mov	r3, r0
	.loc 9 241 0
	mov	r0, r3
	add	sp, sp, #12
	@ sp needed
	ldr	pc, [sp], #4
	.cfi_endproc
.LFE751:
	.size	_ZNK9b2Fixture7GetTypeEv, .-_ZNK9b2Fixture7GetTypeEv
	.section	.text._ZN9b2Fixture8GetShapeEv,"axG",%progbits,_ZN9b2Fixture8GetShapeEv,comdat
	.align	2
	.weak	_ZN9b2Fixture8GetShapeEv
	.hidden	_ZN9b2Fixture8GetShapeEv
	.type	_ZN9b2Fixture8GetShapeEv, %function
_ZN9b2Fixture8GetShapeEv:
.LFB752:
	.loc 9 244 0
	.cfi_startproc
	@ args = 0, pretend = 0, frame = 8
	@ frame_needed = 0, uses_anonymous_args = 0
	@ link register save eliminated.
	sub	sp, sp, #8
.LCFI82:
	.cfi_def_cfa_offset 8
	str	r0, [sp, #4]
	.loc 9 245 0
	ldr	r3, [sp, #4]
	ldr	r3, [r3, #12]
	.loc 9 246 0
	mov	r0, r3
	add	sp, sp, #8
	@ sp needed
	bx	lr
	.cfi_endproc
.LFE752:
	.size	_ZN9b2Fixture8GetShapeEv, .-_ZN9b2Fixture8GetShapeEv
	.section	.text._ZNK9b2Fixture8IsSensorEv,"axG",%progbits,_ZNK9b2Fixture8IsSensorEv,comdat
	.align	2
	.weak	_ZNK9b2Fixture8IsSensorEv
	.hidden	_ZNK9b2Fixture8IsSensorEv
	.type	_ZNK9b2Fixture8IsSensorEv, %function
_ZNK9b2Fixture8IsSensorEv:
.LFB754:
	.loc 9 254 0
	.cfi_startproc
	@ args = 0, pretend = 0, frame = 8
	@ frame_needed = 0, uses_anonymous_args = 0
	@ link register save eliminated.
	sub	sp, sp, #8
.LCFI83:
	.cfi_def_cfa_offset 8
	str	r0, [sp, #4]
	.loc 9 255 0
	ldr	r3, [sp, #4]
	ldrb	r3, [r3, #38]	@ zero_extendqisi2
	.loc 9 256 0
	mov	r0, r3
	add	sp, sp, #8
	@ sp needed
	bx	lr
	.cfi_endproc
.LFE754:
	.size	_ZNK9b2Fixture8IsSensorEv, .-_ZNK9b2Fixture8IsSensorEv
	.section	.text._ZN9b2Fixture7GetBodyEv,"axG",%progbits,_ZN9b2Fixture7GetBodyEv,comdat
	.align	2
	.weak	_ZN9b2Fixture7GetBodyEv
	.hidden	_ZN9b2Fixture7GetBodyEv
	.type	_ZN9b2Fixture7GetBodyEv, %function
_ZN9b2Fixture7GetBodyEv:
.LFB758:
	.loc 9 274 0
	.cfi_startproc
	@ args = 0, pretend = 0, frame = 8
	@ frame_needed = 0, uses_anonymous_args = 0
	@ link register save eliminated.
	sub	sp, sp, #8
.LCFI84:
	.cfi_def_cfa_offset 8
	str	r0, [sp, #4]
	.loc 9 275 0
	ldr	r3, [sp, #4]
	ldr	r3, [r3, #8]
	.loc 9 276 0
	mov	r0, r3
	add	sp, sp, #8
	@ sp needed
	bx	lr
	.cfi_endproc
.LFE758:
	.size	_ZN9b2Fixture7GetBodyEv, .-_ZN9b2Fixture7GetBodyEv
	.section	.text._ZN9b2Fixture7GetNextEv,"axG",%progbits,_ZN9b2Fixture7GetNextEv,comdat
	.align	2
	.weak	_ZN9b2Fixture7GetNextEv
	.hidden	_ZN9b2Fixture7GetNextEv
	.type	_ZN9b2Fixture7GetNextEv, %function
_ZN9b2Fixture7GetNextEv:
.LFB760:
	.loc 9 284 0
	.cfi_startproc
	@ args = 0, pretend = 0, frame = 8
	@ frame_needed = 0, uses_anonymous_args = 0
	@ link register save eliminated.
	sub	sp, sp, #8
.LCFI85:
	.cfi_def_cfa_offset 8
	str	r0, [sp, #4]
	.loc 9 285 0
	ldr	r3, [sp, #4]
	ldr	r3, [r3, #4]
	.loc 9 286 0
	mov	r0, r3
	add	sp, sp, #8
	@ sp needed
	bx	lr
	.cfi_endproc
.LFE760:
	.size	_ZN9b2Fixture7GetNextEv, .-_ZN9b2Fixture7GetNextEv
	.section	.text._ZNK9b2Fixture7RayCastEP15b2RayCastOutputRK14b2RayCastInputi,"axG",%progbits,_ZNK9b2Fixture7RayCastEP15b2RayCastOutputRK14b2RayCastInputi,comdat
	.align	2
	.weak	_ZNK9b2Fixture7RayCastEP15b2RayCastOutputRK14b2RayCastInputi
	.hidden	_ZNK9b2Fixture7RayCastEP15b2RayCastOutputRK14b2RayCastInputi
	.type	_ZNK9b2Fixture7RayCastEP15b2RayCastOutputRK14b2RayCastInputi, %function
_ZNK9b2Fixture7RayCastEP15b2RayCastOutputRK14b2RayCastInputi:
.LFB769:
	.loc 9 330 0
	.cfi_startproc
	@ args = 0, pretend = 0, frame = 16
	@ frame_needed = 0, uses_anonymous_args = 0
	stmfd	sp!, {r4, r5, lr}
.LCFI86:
	.cfi_def_cfa_offset 12
	.cfi_offset 4, -12
	.cfi_offset 5, -8
	.cfi_offset 14, -4
	sub	sp, sp, #28
.LCFI87:
	.cfi_def_cfa_offset 40
	str	r0, [sp, #20]
	str	r1, [sp, #16]
	str	r2, [sp, #12]
	str	r3, [sp, #8]
	.loc 9 331 0
	ldr	r3, [sp, #20]
	ldr	r3, [r3, #12]
	ldr	r3, [r3]
	add	r3, r3, #20
	ldr	r4, [r3]
	ldr	r3, [sp, #20]
	ldr	r5, [r3, #12]
	ldr	r3, [sp, #20]
	ldr	r3, [r3, #8]
	mov	r0, r3
	bl	_ZNK6b2Body12GetTransformEv(PLT)
	mov	r3, r0
	ldr	r2, [sp, #8]
	str	r2, [sp]
	mov	r0, r5
	ldr	r1, [sp, #16]
	ldr	r2, [sp, #12]
	blx	r4
	mov	r3, r0
	.loc 9 332 0
	mov	r0, r3
	add	sp, sp, #28
	@ sp needed
	ldmfd	sp!, {r4, r5, pc}
	.cfi_endproc
.LFE769:
	.size	_ZNK9b2Fixture7RayCastEP15b2RayCastOutputRK14b2RayCastInputi, .-_ZNK9b2Fixture7RayCastEP15b2RayCastOutputRK14b2RayCastInputi
	.section	.text._ZN8b2Island5ClearEv,"axG",%progbits,_ZN8b2Island5ClearEv,comdat
	.align	2
	.weak	_ZN8b2Island5ClearEv
	.hidden	_ZN8b2Island5ClearEv
	.type	_ZN8b2Island5ClearEv, %function
_ZN8b2Island5ClearEv:
.LFB772:
	.file 10 "c:/users/ben/desktop/fyp/finalyearproject/box2d/Box2D/Dynamics/b2Island.h"
	.loc 10 41 0
	.cfi_startproc
	@ args = 0, pretend = 0, frame = 8
	@ frame_needed = 0, uses_anonymous_args = 0
	@ link register save eliminated.
	sub	sp, sp, #8
.LCFI88:
	.cfi_def_cfa_offset 8
	str	r0, [sp, #4]
	.loc 10 43 0
	ldr	r3, [sp, #4]
	mov	r2, #0
	str	r2, [r3, #28]
	.loc 10 44 0
	ldr	r3, [sp, #4]
	mov	r2, #0
	str	r2, [r3, #36]
	.loc 10 45 0
	ldr	r3, [sp, #4]
	mov	r2, #0
	str	r2, [r3, #32]
	.loc 10 46 0
	add	sp, sp, #8
	@ sp needed
	bx	lr
	.cfi_endproc
.LFE772:
	.size	_ZN8b2Island5ClearEv, .-_ZN8b2Island5ClearEv
	.section	.rodata
	.align	2
.LC4:
	.ascii	"c:/users/ben/desktop/fyp/finalyearproject/box2d/Box"
	.ascii	"2D/Dynamics/b2Island.h\000"
	.align	2
.LC5:
	.ascii	"m_bodyCount < m_bodyCapacity\000"
	.section	.text._ZN8b2Island3AddEP6b2Body,"axG",%progbits,_ZN8b2Island3AddEP6b2Body,comdat
	.align	2
	.weak	_ZN8b2Island3AddEP6b2Body
	.hidden	_ZN8b2Island3AddEP6b2Body
	.type	_ZN8b2Island3AddEP6b2Body, %function
_ZN8b2Island3AddEP6b2Body:
.LFB773:
	.loc 10 52 0
	.cfi_startproc
	@ args = 0, pretend = 0, frame = 8
	@ frame_needed = 0, uses_anonymous_args = 0
	str	lr, [sp, #-4]!
.LCFI89:
	.cfi_def_cfa_offset 4
	.cfi_offset 14, -4
	sub	sp, sp, #12
.LCFI90:
	.cfi_def_cfa_offset 16
	str	r0, [sp, #4]
	str	r1, [sp]
	.loc 10 54 0
	ldr	r3, [sp, #4]
	ldr	r2, [r3, #28]
	ldr	r3, [sp, #4]
	ldr	r3, [r3, #40]
	cmp	r2, r3
	blt	.L133
	.loc 10 54 0 is_stmt 0 discriminator 1
	ldr	r3, .L134
.LPIC6:
	add	r3, pc, r3
	mov	r0, r3
	mov	r1, #54
	ldr	r3, .L134+4
.LPIC7:
	add	r3, pc, r3
	mov	r2, r3
	bl	__assert(PLT)
.L133:
	.loc 10 55 0 is_stmt 1
	ldr	r3, [sp, #4]
	ldr	r2, [r3, #28]
	ldr	r3, [sp]
	str	r2, [r3, #8]
	.loc 10 56 0
	ldr	r3, [sp, #4]
	ldr	r2, [r3, #8]
	ldr	r3, [sp, #4]
	ldr	r3, [r3, #28]
	mov	r3, r3, asl #2
	add	r3, r2, r3
	ldr	r2, [sp]
	str	r2, [r3]
	.loc 10 57 0
	ldr	r3, [sp, #4]
	ldr	r3, [r3, #28]
	add	r2, r3, #1
	ldr	r3, [sp, #4]
	str	r2, [r3, #28]
	.loc 10 58 0
	add	sp, sp, #12
	@ sp needed
	ldr	pc, [sp], #4
.L135:
	.align	2
.L134:
	.word	.LC4-(.LPIC6+8)
	.word	.LC5-(.LPIC7+8)
	.cfi_endproc
.LFE773:
	.size	_ZN8b2Island3AddEP6b2Body, .-_ZN8b2Island3AddEP6b2Body
	.section	.rodata
	.align	2
.LC6:
	.ascii	"m_contactCount < m_contactCapacity\000"
	.section	.text._ZN8b2Island3AddEP9b2Contact,"axG",%progbits,_ZN8b2Island3AddEP9b2Contact,comdat
	.align	2
	.weak	_ZN8b2Island3AddEP9b2Contact
	.hidden	_ZN8b2Island3AddEP9b2Contact
	.type	_ZN8b2Island3AddEP9b2Contact, %function
_ZN8b2Island3AddEP9b2Contact:
.LFB774:
	.loc 10 60 0
	.cfi_startproc
	@ args = 0, pretend = 0, frame = 8
	@ frame_needed = 0, uses_anonymous_args = 0
	str	lr, [sp, #-4]!
.LCFI91:
	.cfi_def_cfa_offset 4
	.cfi_offset 14, -4
	sub	sp, sp, #12
.LCFI92:
	.cfi_def_cfa_offset 16
	str	r0, [sp, #4]
	str	r1, [sp]
	.loc 10 62 0
	ldr	r3, [sp, #4]
	ldr	r2, [r3, #36]
	ldr	r3, [sp, #4]
	ldr	r3, [r3, #44]
	cmp	r2, r3
	blt	.L137
	.loc 10 62 0 is_stmt 0 discriminator 1
	ldr	r3, .L138
.LPIC8:
	add	r3, pc, r3
	mov	r0, r3
	mov	r1, #62
	ldr	r3, .L138+4
.LPIC9:
	add	r3, pc, r3
	mov	r2, r3
	bl	__assert(PLT)
.L137:
	.loc 10 63 0 is_stmt 1
	ldr	r3, [sp, #4]
	ldr	r2, [r3, #12]
	ldr	r3, [sp, #4]
	ldr	r3, [r3, #36]
	add	r0, r3, #1
	ldr	r1, [sp, #4]
	str	r0, [r1, #36]
	mov	r3, r3, asl #2
	add	r3, r2, r3
	ldr	r2, [sp]
	str	r2, [r3]
	.loc 10 64 0
	add	sp, sp, #12
	@ sp needed
	ldr	pc, [sp], #4
.L139:
	.align	2
.L138:
	.word	.LC4-(.LPIC8+8)
	.word	.LC6-(.LPIC9+8)
	.cfi_endproc
.LFE774:
	.size	_ZN8b2Island3AddEP9b2Contact, .-_ZN8b2Island3AddEP9b2Contact
	.section	.rodata
	.align	2
.LC7:
	.ascii	"m_jointCount < m_jointCapacity\000"
	.section	.text._ZN8b2Island3AddEP7b2Joint,"axG",%progbits,_ZN8b2Island3AddEP7b2Joint,comdat
	.align	2
	.weak	_ZN8b2Island3AddEP7b2Joint
	.hidden	_ZN8b2Island3AddEP7b2Joint
	.type	_ZN8b2Island3AddEP7b2Joint, %function
_ZN8b2Island3AddEP7b2Joint:
.LFB775:
	.loc 10 66 0
	.cfi_startproc
	@ args = 0, pretend = 0, frame = 8
	@ frame_needed = 0, uses_anonymous_args = 0
	str	lr, [sp, #-4]!
.LCFI93:
	.cfi_def_cfa_offset 4
	.cfi_offset 14, -4
	sub	sp, sp, #12
.LCFI94:
	.cfi_def_cfa_offset 16
	str	r0, [sp, #4]
	str	r1, [sp]
	.loc 10 68 0
	ldr	r3, [sp, #4]
	ldr	r2, [r3, #32]
	ldr	r3, [sp, #4]
	ldr	r3, [r3, #48]
	cmp	r2, r3
	blt	.L141
	.loc 10 68 0 is_stmt 0 discriminator 1
	ldr	r3, .L142
.LPIC10:
	add	r3, pc, r3
	mov	r0, r3
	mov	r1, #68
	ldr	r3, .L142+4
.LPIC11:
	add	r3, pc, r3
	mov	r2, r3
	bl	__assert(PLT)
.L141:
	.loc 10 69 0 is_stmt 1
	ldr	r3, [sp, #4]
	ldr	r2, [r3, #16]
	ldr	r3, [sp, #4]
	ldr	r3, [r3, #32]
	add	r0, r3, #1
	ldr	r1, [sp, #4]
	str	r0, [r1, #32]
	mov	r3, r3, asl #2
	add	r3, r2, r3
	ldr	r2, [sp]
	str	r2, [r3]
	.loc 10 70 0
	add	sp, sp, #12
	@ sp needed
	ldr	pc, [sp], #4
.L143:
	.align	2
.L142:
	.word	.LC4-(.LPIC10+8)
	.word	.LC7-(.LPIC11+8)
	.cfi_endproc
.LFE775:
	.size	_ZN8b2Island3AddEP7b2Joint, .-_ZN8b2Island3AddEP7b2Joint
	.section	.text._ZNK7b2Joint7GetTypeEv,"axG",%progbits,_ZNK7b2Joint7GetTypeEv,comdat
	.align	2
	.weak	_ZNK7b2Joint7GetTypeEv
	.hidden	_ZNK7b2Joint7GetTypeEv
	.type	_ZNK7b2Joint7GetTypeEv, %function
_ZNK7b2Joint7GetTypeEv:
.LFB785:
	.file 11 "c:/users/ben/desktop/fyp/finalyearproject/box2d/Box2D/Dynamics/Joints/b2Joint.h"
	.loc 11 187 0
	.cfi_startproc
	@ args = 0, pretend = 0, frame = 8
	@ frame_needed = 0, uses_anonymous_args = 0
	@ link register save eliminated.
	sub	sp, sp, #8
.LCFI95:
	.cfi_def_cfa_offset 8
	str	r0, [sp, #4]
	.loc 11 188 0
	ldr	r3, [sp, #4]
	ldr	r3, [r3, #4]
	.loc 11 189 0
	mov	r0, r3
	add	sp, sp, #8
	@ sp needed
	bx	lr
	.cfi_endproc
.LFE785:
	.size	_ZNK7b2Joint7GetTypeEv, .-_ZNK7b2Joint7GetTypeEv
	.section	.text._ZN7b2Joint8GetBodyAEv,"axG",%progbits,_ZN7b2Joint8GetBodyAEv,comdat
	.align	2
	.weak	_ZN7b2Joint8GetBodyAEv
	.hidden	_ZN7b2Joint8GetBodyAEv
	.type	_ZN7b2Joint8GetBodyAEv, %function
_ZN7b2Joint8GetBodyAEv:
.LFB786:
	.loc 11 192 0
	.cfi_startproc
	@ args = 0, pretend = 0, frame = 8
	@ frame_needed = 0, uses_anonymous_args = 0
	@ link register save eliminated.
	sub	sp, sp, #8
.LCFI96:
	.cfi_def_cfa_offset 8
	str	r0, [sp, #4]
	.loc 11 193 0
	ldr	r3, [sp, #4]
	ldr	r3, [r3, #48]
	.loc 11 194 0
	mov	r0, r3
	add	sp, sp, #8
	@ sp needed
	bx	lr
	.cfi_endproc
.LFE786:
	.size	_ZN7b2Joint8GetBodyAEv, .-_ZN7b2Joint8GetBodyAEv
	.section	.text._ZN7b2Joint8GetBodyBEv,"axG",%progbits,_ZN7b2Joint8GetBodyBEv,comdat
	.align	2
	.weak	_ZN7b2Joint8GetBodyBEv
	.hidden	_ZN7b2Joint8GetBodyBEv
	.type	_ZN7b2Joint8GetBodyBEv, %function
_ZN7b2Joint8GetBodyBEv:
.LFB787:
	.loc 11 197 0
	.cfi_startproc
	@ args = 0, pretend = 0, frame = 8
	@ frame_needed = 0, uses_anonymous_args = 0
	@ link register save eliminated.
	sub	sp, sp, #8
.LCFI97:
	.cfi_def_cfa_offset 8
	str	r0, [sp, #4]
	.loc 11 198 0
	ldr	r3, [sp, #4]
	ldr	r3, [r3, #52]
	.loc 11 199 0
	mov	r0, r3
	add	sp, sp, #8
	@ sp needed
	bx	lr
	.cfi_endproc
.LFE787:
	.size	_ZN7b2Joint8GetBodyBEv, .-_ZN7b2Joint8GetBodyBEv
	.section	.text._ZN7b2Joint7GetNextEv,"axG",%progbits,_ZN7b2Joint7GetNextEv,comdat
	.align	2
	.weak	_ZN7b2Joint7GetNextEv
	.hidden	_ZN7b2Joint7GetNextEv
	.type	_ZN7b2Joint7GetNextEv, %function
_ZN7b2Joint7GetNextEv:
.LFB788:
	.loc 11 202 0
	.cfi_startproc
	@ args = 0, pretend = 0, frame = 8
	@ frame_needed = 0, uses_anonymous_args = 0
	@ link register save eliminated.
	sub	sp, sp, #8
.LCFI98:
	.cfi_def_cfa_offset 8
	str	r0, [sp, #4]
	.loc 11 203 0
	ldr	r3, [sp, #4]
	ldr	r3, [r3, #12]
	.loc 11 204 0
	mov	r0, r3
	add	sp, sp, #8
	@ sp needed
	bx	lr
	.cfi_endproc
.LFE788:
	.size	_ZN7b2Joint7GetNextEv, .-_ZN7b2Joint7GetNextEv
	.section	.text._ZN9b2Contact10SetEnabledEb,"axG",%progbits,_ZN9b2Contact10SetEnabledEb,comdat
	.align	2
	.weak	_ZN9b2Contact10SetEnabledEb
	.hidden	_ZN9b2Contact10SetEnabledEb
	.type	_ZN9b2Contact10SetEnabledEb, %function
_ZN9b2Contact10SetEnabledEb:
.LFB814:
	.file 12 "c:/users/ben/desktop/fyp/finalyearproject/box2d/Box2D/Dynamics/Contacts/b2Contact.h"
	.loc 12 243 0
	.cfi_startproc
	@ args = 0, pretend = 0, frame = 8
	@ frame_needed = 0, uses_anonymous_args = 0
	@ link register save eliminated.
	sub	sp, sp, #8
.LCFI99:
	.cfi_def_cfa_offset 8
	str	r0, [sp, #4]
	mov	r3, r1
	strb	r3, [sp, #3]
	.loc 12 244 0
	ldrb	r3, [sp, #3]	@ zero_extendqisi2
	cmp	r3, #0
	beq	.L153
	.loc 12 246 0
	ldr	r3, [sp, #4]
	ldr	r3, [r3, #4]
	orr	r2, r3, #4
	ldr	r3, [sp, #4]
	str	r2, [r3, #4]
	b	.L152
.L153:
	.loc 12 250 0
	ldr	r3, [sp, #4]
	ldr	r3, [r3, #4]
	bic	r2, r3, #4
	ldr	r3, [sp, #4]
	str	r2, [r3, #4]
.L152:
	.loc 12 252 0
	add	sp, sp, #8
	@ sp needed
	bx	lr
	.cfi_endproc
.LFE814:
	.size	_ZN9b2Contact10SetEnabledEb, .-_ZN9b2Contact10SetEnabledEb
	.section	.text._ZNK9b2Contact9IsEnabledEv,"axG",%progbits,_ZNK9b2Contact9IsEnabledEv,comdat
	.align	2
	.weak	_ZNK9b2Contact9IsEnabledEv
	.hidden	_ZNK9b2Contact9IsEnabledEv
	.type	_ZNK9b2Contact9IsEnabledEv, %function
_ZNK9b2Contact9IsEnabledEv:
.LFB815:
	.loc 12 255 0
	.cfi_startproc
	@ args = 0, pretend = 0, frame = 8
	@ frame_needed = 0, uses_anonymous_args = 0
	@ link register save eliminated.
	sub	sp, sp, #8
.LCFI100:
	.cfi_def_cfa_offset 8
	str	r0, [sp, #4]
	.loc 12 256 0
	ldr	r3, [sp, #4]
	ldr	r3, [r3, #4]
	and	r3, r3, #4
	cmp	r3, #0
	moveq	r3, #0
	movne	r3, #1
	uxtb	r3, r3
	.loc 12 257 0
	mov	r0, r3
	add	sp, sp, #8
	@ sp needed
	bx	lr
	.cfi_endproc
.LFE815:
	.size	_ZNK9b2Contact9IsEnabledEv, .-_ZNK9b2Contact9IsEnabledEv
	.section	.text._ZNK9b2Contact10IsTouchingEv,"axG",%progbits,_ZNK9b2Contact10IsTouchingEv,comdat
	.align	2
	.weak	_ZNK9b2Contact10IsTouchingEv
	.hidden	_ZNK9b2Contact10IsTouchingEv
	.type	_ZNK9b2Contact10IsTouchingEv, %function
_ZNK9b2Contact10IsTouchingEv:
.LFB816:
	.loc 12 260 0
	.cfi_startproc
	@ args = 0, pretend = 0, frame = 8
	@ frame_needed = 0, uses_anonymous_args = 0
	@ link register save eliminated.
	sub	sp, sp, #8
.LCFI101:
	.cfi_def_cfa_offset 8
	str	r0, [sp, #4]
	.loc 12 261 0
	ldr	r3, [sp, #4]
	ldr	r3, [r3, #4]
	and	r3, r3, #2
	cmp	r3, #0
	moveq	r3, #0
	movne	r3, #1
	uxtb	r3, r3
	.loc 12 262 0
	mov	r0, r3
	add	sp, sp, #8
	@ sp needed
	bx	lr
	.cfi_endproc
.LFE816:
	.size	_ZNK9b2Contact10IsTouchingEv, .-_ZNK9b2Contact10IsTouchingEv
	.section	.text._ZN9b2Contact7GetNextEv,"axG",%progbits,_ZN9b2Contact7GetNextEv,comdat
	.align	2
	.weak	_ZN9b2Contact7GetNextEv
	.hidden	_ZN9b2Contact7GetNextEv
	.type	_ZN9b2Contact7GetNextEv, %function
_ZN9b2Contact7GetNextEv:
.LFB817:
	.loc 12 265 0
	.cfi_startproc
	@ args = 0, pretend = 0, frame = 8
	@ frame_needed = 0, uses_anonymous_args = 0
	@ link register save eliminated.
	sub	sp, sp, #8
.LCFI102:
	.cfi_def_cfa_offset 8
	str	r0, [sp, #4]
	.loc 12 266 0
	ldr	r3, [sp, #4]
	ldr	r3, [r3, #12]
	.loc 12 267 0
	mov	r0, r3
	add	sp, sp, #8
	@ sp needed
	bx	lr
	.cfi_endproc
.LFE817:
	.size	_ZN9b2Contact7GetNextEv, .-_ZN9b2Contact7GetNextEv
	.section	.text._ZN9b2Contact11GetFixtureAEv,"axG",%progbits,_ZN9b2Contact11GetFixtureAEv,comdat
	.align	2
	.weak	_ZN9b2Contact11GetFixtureAEv
	.hidden	_ZN9b2Contact11GetFixtureAEv
	.type	_ZN9b2Contact11GetFixtureAEv, %function
_ZN9b2Contact11GetFixtureAEv:
.LFB819:
	.loc 12 275 0
	.cfi_startproc
	@ args = 0, pretend = 0, frame = 8
	@ frame_needed = 0, uses_anonymous_args = 0
	@ link register save eliminated.
	sub	sp, sp, #8
.LCFI103:
	.cfi_def_cfa_offset 8
	str	r0, [sp, #4]
	.loc 12 276 0
	ldr	r3, [sp, #4]
	ldr	r3, [r3, #48]
	.loc 12 277 0
	mov	r0, r3
	add	sp, sp, #8
	@ sp needed
	bx	lr
	.cfi_endproc
.LFE819:
	.size	_ZN9b2Contact11GetFixtureAEv, .-_ZN9b2Contact11GetFixtureAEv
	.section	.text._ZN9b2Contact11GetFixtureBEv,"axG",%progbits,_ZN9b2Contact11GetFixtureBEv,comdat
	.align	2
	.weak	_ZN9b2Contact11GetFixtureBEv
	.hidden	_ZN9b2Contact11GetFixtureBEv
	.type	_ZN9b2Contact11GetFixtureBEv, %function
_ZN9b2Contact11GetFixtureBEv:
.LFB821:
	.loc 12 285 0
	.cfi_startproc
	@ args = 0, pretend = 0, frame = 8
	@ frame_needed = 0, uses_anonymous_args = 0
	@ link register save eliminated.
	sub	sp, sp, #8
.LCFI104:
	.cfi_def_cfa_offset 8
	str	r0, [sp, #4]
	.loc 12 286 0
	ldr	r3, [sp, #4]
	ldr	r3, [r3, #52]
	.loc 12 287 0
	mov	r0, r3
	add	sp, sp, #8
	@ sp needed
	bx	lr
	.cfi_endproc
.LFE821:
	.size	_ZN9b2Contact11GetFixtureBEv, .-_ZN9b2Contact11GetFixtureBEv
	.section	.text._ZNK9b2Contact14GetChildIndexAEv,"axG",%progbits,_ZNK9b2Contact14GetChildIndexAEv,comdat
	.align	2
	.weak	_ZNK9b2Contact14GetChildIndexAEv
	.hidden	_ZNK9b2Contact14GetChildIndexAEv
	.type	_ZNK9b2Contact14GetChildIndexAEv, %function
_ZNK9b2Contact14GetChildIndexAEv:
.LFB822:
	.loc 12 290 0
	.cfi_startproc
	@ args = 0, pretend = 0, frame = 8
	@ frame_needed = 0, uses_anonymous_args = 0
	@ link register save eliminated.
	sub	sp, sp, #8
.LCFI105:
	.cfi_def_cfa_offset 8
	str	r0, [sp, #4]
	.loc 12 291 0
	ldr	r3, [sp, #4]
	ldr	r3, [r3, #56]
	.loc 12 292 0
	mov	r0, r3
	add	sp, sp, #8
	@ sp needed
	bx	lr
	.cfi_endproc
.LFE822:
	.size	_ZNK9b2Contact14GetChildIndexAEv, .-_ZNK9b2Contact14GetChildIndexAEv
	.section	.text._ZNK9b2Contact14GetChildIndexBEv,"axG",%progbits,_ZNK9b2Contact14GetChildIndexBEv,comdat
	.align	2
	.weak	_ZNK9b2Contact14GetChildIndexBEv
	.hidden	_ZNK9b2Contact14GetChildIndexBEv
	.type	_ZNK9b2Contact14GetChildIndexBEv, %function
_ZNK9b2Contact14GetChildIndexBEv:
.LFB824:
	.loc 12 300 0
	.cfi_startproc
	@ args = 0, pretend = 0, frame = 8
	@ frame_needed = 0, uses_anonymous_args = 0
	@ link register save eliminated.
	sub	sp, sp, #8
.LCFI106:
	.cfi_def_cfa_offset 8
	str	r0, [sp, #4]
	.loc 12 301 0
	ldr	r3, [sp, #4]
	ldr	r3, [r3, #60]
	.loc 12 302 0
	mov	r0, r3
	add	sp, sp, #8
	@ sp needed
	bx	lr
	.cfi_endproc
.LFE824:
	.size	_ZNK9b2Contact14GetChildIndexBEv, .-_ZNK9b2Contact14GetChildIndexBEv
	.section	.text._ZN9b2Contact16FlagForFilteringEv,"axG",%progbits,_ZN9b2Contact16FlagForFilteringEv,comdat
	.align	2
	.weak	_ZN9b2Contact16FlagForFilteringEv
	.hidden	_ZN9b2Contact16FlagForFilteringEv
	.type	_ZN9b2Contact16FlagForFilteringEv, %function
_ZN9b2Contact16FlagForFilteringEv:
.LFB825:
	.loc 12 305 0
	.cfi_startproc
	@ args = 0, pretend = 0, frame = 8
	@ frame_needed = 0, uses_anonymous_args = 0
	@ link register save eliminated.
	sub	sp, sp, #8
.LCFI107:
	.cfi_def_cfa_offset 8
	str	r0, [sp, #4]
	.loc 12 306 0
	ldr	r3, [sp, #4]
	ldr	r3, [r3, #4]
	orr	r2, r3, #8
	ldr	r3, [sp, #4]
	str	r2, [r3, #4]
	.loc 12 307 0
	add	sp, sp, #8
	@ sp needed
	bx	lr
	.cfi_endproc
.LFE825:
	.size	_ZN9b2Contact16FlagForFilteringEv, .-_ZN9b2Contact16FlagForFilteringEv
	.section	.text._ZN15b2DistanceProxyC2Ev,"axG",%progbits,_ZN15b2DistanceProxyC5Ev,comdat
	.align	2
	.weak	_ZN15b2DistanceProxyC2Ev
	.hidden	_ZN15b2DistanceProxyC2Ev
	.type	_ZN15b2DistanceProxyC2Ev, %function
_ZN15b2DistanceProxyC2Ev:
.LFB856:
	.file 13 "c:/users/ben/desktop/fyp/finalyearproject/box2d/Box2D/Collision/b2Distance.h"
	.loc 13 31 0
	.cfi_startproc
	@ args = 0, pretend = 0, frame = 8
	@ frame_needed = 0, uses_anonymous_args = 0
	stmfd	sp!, {r4, r5, lr}
.LCFI108:
	.cfi_def_cfa_offset 12
	.cfi_offset 4, -12
	.cfi_offset 5, -8
	.cfi_offset 14, -4
	sub	sp, sp, #12
.LCFI109:
	.cfi_def_cfa_offset 24
	str	r0, [sp, #4]
.LBB7:
	.loc 13 31 0
	ldr	r3, [sp, #4]
	mov	r4, #1
	mov	r5, r3
	b	.L171
.L172:
	.loc 13 31 0 is_stmt 0 discriminator 2
	mov	r0, r5
	bl	_ZN6b2Vec2C1Ev(PLT)
	add	r5, r5, #8
	sub	r4, r4, #1
.L171:
	.loc 13 31 0 discriminator 1
	cmn	r4, #1
	bne	.L172
	.loc 13 31 0 discriminator 3
	ldr	r3, [sp, #4]
	mov	r2, #0
	str	r2, [r3, #16]
	ldr	r3, [sp, #4]
	mov	r2, #0
	str	r2, [r3, #20]
	ldr	r3, [sp, #4]
	mov	r2, #0
	str	r2, [r3, #24]	@ float
.LBE7:
	ldr	r3, [sp, #4]
	mov	r0, r3
	add	sp, sp, #12
	@ sp needed
	ldmfd	sp!, {r4, r5, pc}
	.cfi_endproc
.LFE856:
	.size	_ZN15b2DistanceProxyC2Ev, .-_ZN15b2DistanceProxyC2Ev
	.weak	_ZN15b2DistanceProxyC1Ev
	.hidden	_ZN15b2DistanceProxyC1Ev
	.set	_ZN15b2DistanceProxyC1Ev,_ZN15b2DistanceProxyC2Ev
	.section	.text._ZN7b2ColorC2Efff,"axG",%progbits,_ZN7b2ColorC5Efff,comdat
	.align	2
	.weak	_ZN7b2ColorC2Efff
	.hidden	_ZN7b2ColorC2Efff
	.type	_ZN7b2ColorC2Efff, %function
_ZN7b2ColorC2Efff:
.LFB866:
	.file 14 "c:/users/ben/desktop/fyp/finalyearproject/box2d/Box2D/Common/b2Draw.h"
	.loc 14 28 0 is_stmt 1
	.cfi_startproc
	@ args = 0, pretend = 0, frame = 16
	@ frame_needed = 0, uses_anonymous_args = 0
	@ link register save eliminated.
	sub	sp, sp, #16
.LCFI110:
	.cfi_def_cfa_offset 16
	str	r0, [sp, #12]
	str	r1, [sp, #8]	@ float
	str	r2, [sp, #4]	@ float
	str	r3, [sp]	@ float
.LBB8:
	.loc 14 28 0
	ldr	r3, [sp, #12]
	ldr	r2, [sp, #8]	@ float
	str	r2, [r3]	@ float
	ldr	r3, [sp, #12]
	ldr	r2, [sp, #4]	@ float
	str	r2, [r3, #4]	@ float
	ldr	r3, [sp, #12]
	ldr	r2, [sp]	@ float
	str	r2, [r3, #8]	@ float
.LBE8:
	ldr	r3, [sp, #12]
	mov	r0, r3
	add	sp, sp, #16
	@ sp needed
	bx	lr
	.cfi_endproc
.LFE866:
	.size	_ZN7b2ColorC2Efff, .-_ZN7b2ColorC2Efff
	.weak	_ZN7b2ColorC1Efff
	.hidden	_ZN7b2ColorC1Efff
	.set	_ZN7b2ColorC1Efff,_ZN7b2ColorC2Efff
	.section	.text._ZN16b2ContactManagerD2Ev,"axG",%progbits,_ZN16b2ContactManagerD5Ev,comdat
	.align	2
	.weak	_ZN16b2ContactManagerD2Ev
	.hidden	_ZN16b2ContactManagerD2Ev
	.type	_ZN16b2ContactManagerD2Ev, %function
_ZN16b2ContactManagerD2Ev:
.LFB875:
	.file 15 "c:/users/ben/desktop/fyp/finalyearproject/box2d/Box2D/Dynamics/b2ContactManager.h"
	.loc 15 30 0
	.cfi_startproc
	@ args = 0, pretend = 0, frame = 8
	@ frame_needed = 0, uses_anonymous_args = 0
	str	lr, [sp, #-4]!
.LCFI111:
	.cfi_def_cfa_offset 4
	.cfi_offset 14, -4
	sub	sp, sp, #12
.LCFI112:
	.cfi_def_cfa_offset 16
	str	r0, [sp, #4]
.LBB9:
	.loc 15 30 0
	ldr	r3, [sp, #4]
	mov	r0, r3
	bl	_ZN12b2BroadPhaseD1Ev(PLT)
.LBE9:
	ldr	r3, [sp, #4]
	mov	r0, r3
	add	sp, sp, #12
	@ sp needed
	ldr	pc, [sp], #4
	.cfi_endproc
.LFE875:
	.size	_ZN16b2ContactManagerD2Ev, .-_ZN16b2ContactManagerD2Ev
	.weak	_ZN16b2ContactManagerD1Ev
	.hidden	_ZN16b2ContactManagerD1Ev
	.set	_ZN16b2ContactManagerD1Ev,_ZN16b2ContactManagerD2Ev
	.section	.text._ZN7b2WorldC2ERK6b2Vec2,"ax",%progbits
	.align	2
	.global	_ZN7b2WorldC2ERK6b2Vec2
	.hidden	_ZN7b2WorldC2ERK6b2Vec2
	.type	_ZN7b2WorldC2ERK6b2Vec2, %function
_ZN7b2WorldC2ERK6b2Vec2:
.LFB877:
	.file 16 "c:/Users/Ben/Desktop/FYP/FinalYearProject/box2d/Box2D/Dynamics/b2World.cpp"
	.loc 16 37 0
	.cfi_startproc
	@ args = 0, pretend = 0, frame = 8
	@ frame_needed = 0, uses_anonymous_args = 0
	str	lr, [sp, #-4]!
.LCFI113:
	.cfi_def_cfa_offset 4
	.cfi_offset 14, -4
	sub	sp, sp, #12
.LCFI114:
	.cfi_def_cfa_offset 16
	str	r0, [sp, #4]
	str	r1, [sp]
.LBB10:
	.loc 16 37 0
	ldr	r3, [sp, #4]
	mov	r0, r3
	bl	_ZN16b2BlockAllocatorC1Ev(PLT)
	ldr	r3, [sp, #4]
	add	r3, r3, #68
	mov	r0, r3
	bl	_ZN16b2StackAllocatorC1Ev(PLT)
	ldr	r3, [sp, #4]
	add	r3, r3, #102400
	add	r3, r3, #472
	mov	r0, r3
	bl	_ZN16b2ContactManagerC1Ev(PLT)
	ldr	r3, [sp, #4]
	add	r3, r3, #102400
	add	r3, r3, #568
	mov	r0, r3
	bl	_ZN6b2Vec2C1Ev(PLT)
	.loc 16 39 0
	ldr	r2, [sp, #4]
	ldr	r3, .L184
	mov	r1, #0
	str	r1, [r2, r3]
	.loc 16 40 0
	ldr	r2, [sp, #4]
	ldr	r3, .L184+4
	mov	r1, #0
	str	r1, [r2, r3]
	.loc 16 42 0
	ldr	r2, [sp, #4]
	ldr	r3, .L184+8
	mov	r1, #0
	str	r1, [r2, r3]
	.loc 16 43 0
	ldr	r2, [sp, #4]
	ldr	r3, .L184+12
	mov	r1, #0
	str	r1, [r2, r3]
	.loc 16 45 0
	ldr	r2, [sp, #4]
	ldr	r3, .L184+16
	mov	r1, #0
	str	r1, [r2, r3]
	.loc 16 46 0
	ldr	r2, [sp, #4]
	ldr	r3, .L184+20
	mov	r1, #0
	str	r1, [r2, r3]
	.loc 16 48 0
	ldr	r2, [sp, #4]
	ldr	r3, .L184+24
	mov	r1, #1
	strb	r1, [r2, r3]
	.loc 16 49 0
	ldr	r2, [sp, #4]
	ldr	r3, .L184+28
	mov	r1, #1
	strb	r1, [r2, r3]
	.loc 16 50 0
	ldr	r2, [sp, #4]
	ldr	r3, .L184+32
	mov	r1, #0
	strb	r1, [r2, r3]
	.loc 16 52 0
	ldr	r2, [sp, #4]
	ldr	r3, .L184+36
	mov	r1, #1
	strb	r1, [r2, r3]
	.loc 16 54 0
	ldr	r2, [sp, #4]
	ldr	r3, .L184+40
	mov	r1, #1
	strb	r1, [r2, r3]
	.loc 16 55 0
	ldr	r1, [sp, #4]
	ldr	r3, .L184+44
	ldr	r2, [sp]
	add	r3, r1, r3
	ldmia	r2, {r0, r1}
	stmia	r3, {r0, r1}
	.loc 16 57 0
	ldr	r2, [sp, #4]
	ldr	r3, .L184+48
	mov	r1, #4
	str	r1, [r2, r3]
	.loc 16 59 0
	ldr	r2, [sp, #4]
	ldr	r3, .L184+52
	mov	r1, #0
	str	r1, [r2, r3]	@ float
	.loc 16 61 0
	ldr	r1, [sp, #4]
	ldr	r2, [sp, #4]
	ldr	r3, .L184+56
	str	r1, [r2, r3]
	.loc 16 63 0
	ldr	r3, [sp, #4]
	add	r3, r3, #102400
	add	r3, r3, #596
	mov	r0, r3
	mov	r1, #0
	mov	r2, #32
	bl	memset(PLT)
.LBE10:
	.loc 16 64 0
	ldr	r3, [sp, #4]
	mov	r0, r3
	add	sp, sp, #12
	@ sp needed
	ldr	pc, [sp], #4
.L185:
	.align	2
.L184:
	.word	102980
	.word	102984
	.word	102952
	.word	102956
	.word	102960
	.word	102964
	.word	102992
	.word	102993
	.word	102994
	.word	102995
	.word	102976
	.word	102968
	.word	102868
	.word	102988
	.word	102948
	.cfi_endproc
.LFE877:
	.size	_ZN7b2WorldC2ERK6b2Vec2, .-_ZN7b2WorldC2ERK6b2Vec2
	.global	_ZN7b2WorldC1ERK6b2Vec2
	.hidden	_ZN7b2WorldC1ERK6b2Vec2
	.set	_ZN7b2WorldC1ERK6b2Vec2,_ZN7b2WorldC2ERK6b2Vec2
	.section	.text._ZN7b2WorldD2Ev,"ax",%progbits
	.align	2
	.global	_ZN7b2WorldD2Ev
	.hidden	_ZN7b2WorldD2Ev
	.type	_ZN7b2WorldD2Ev, %function
_ZN7b2WorldD2Ev:
.LFB880:
	.loc 16 66 0
	.cfi_startproc
	@ args = 0, pretend = 0, frame = 24
	@ frame_needed = 0, uses_anonymous_args = 0
	str	lr, [sp, #-4]!
.LCFI115:
	.cfi_def_cfa_offset 4
	.cfi_offset 14, -4
	sub	sp, sp, #28
.LCFI116:
	.cfi_def_cfa_offset 32
	str	r0, [sp, #4]
.LBB11:
.LBB12:
	.loc 16 69 0
	ldr	r2, [sp, #4]
	ldr	r3, .L193
	ldr	r3, [r2, r3]
	str	r3, [sp, #20]
	.loc 16 70 0
	b	.L187
.L190:
.LBB13:
	.loc 16 72 0
	ldr	r3, [sp, #20]
	ldr	r3, [r3, #96]
	str	r3, [sp, #12]
	.loc 16 74 0
	ldr	r3, [sp, #20]
	ldr	r3, [r3, #100]
	str	r3, [sp, #16]
	.loc 16 75 0
	b	.L188
.L189:
.LBB14:
	.loc 16 77 0
	ldr	r3, [sp, #16]
	ldr	r3, [r3, #4]
	str	r3, [sp, #8]
	.loc 16 78 0
	ldr	r3, [sp, #16]
	mov	r2, #0
	str	r2, [r3, #28]
	.loc 16 79 0
	ldr	r3, [sp, #4]
	ldr	r0, [sp, #16]
	mov	r1, r3
	bl	_ZN9b2Fixture7DestroyEP16b2BlockAllocator(PLT)
	.loc 16 80 0
	ldr	r3, [sp, #8]
	str	r3, [sp, #16]
.L188:
.LBE14:
	.loc 16 75 0 discriminator 1
	ldr	r3, [sp, #16]
	cmp	r3, #0
	bne	.L189
	.loc 16 83 0
	ldr	r3, [sp, #12]
	str	r3, [sp, #20]
.L187:
.LBE13:
	.loc 16 70 0 discriminator 1
	ldr	r3, [sp, #20]
	cmp	r3, #0
	bne	.L190
.LBE12:
	.loc 16 66 0
	ldr	r3, [sp, #4]
	add	r3, r3, #102400
	add	r3, r3, #472
	mov	r0, r3
	bl	_ZN16b2ContactManagerD1Ev(PLT)
	ldr	r3, [sp, #4]
	add	r3, r3, #68
	mov	r0, r3
	bl	_ZN16b2StackAllocatorD1Ev(PLT)
	ldr	r3, [sp, #4]
	.loc 16 85 0
	mov	r0, r3
	bl	_ZN16b2BlockAllocatorD1Ev(PLT)
.LBE11:
	ldr	r3, [sp, #4]
	mov	r0, r3
	add	sp, sp, #28
	@ sp needed
	ldr	pc, [sp], #4
.L194:
	.align	2
.L193:
	.word	102952
	.cfi_endproc
.LFE880:
	.size	_ZN7b2WorldD2Ev, .-_ZN7b2WorldD2Ev
	.global	_ZN7b2WorldD1Ev
	.hidden	_ZN7b2WorldD1Ev
	.set	_ZN7b2WorldD1Ev,_ZN7b2WorldD2Ev
	.section	.text._ZN7b2World22SetDestructionListenerEP21b2DestructionListener,"ax",%progbits
	.align	2
	.global	_ZN7b2World22SetDestructionListenerEP21b2DestructionListener
	.hidden	_ZN7b2World22SetDestructionListenerEP21b2DestructionListener
	.type	_ZN7b2World22SetDestructionListenerEP21b2DestructionListener, %function
_ZN7b2World22SetDestructionListenerEP21b2DestructionListener:
.LFB882:
	.loc 16 88 0
	.cfi_startproc
	@ args = 0, pretend = 0, frame = 8
	@ frame_needed = 0, uses_anonymous_args = 0
	@ link register save eliminated.
	sub	sp, sp, #8
.LCFI117:
	.cfi_def_cfa_offset 8
	str	r0, [sp, #4]
	str	r1, [sp]
	.loc 16 89 0
	ldr	r2, [sp, #4]
	ldr	r3, .L196
	ldr	r1, [sp]
	str	r1, [r2, r3]
	.loc 16 90 0
	add	sp, sp, #8
	@ sp needed
	bx	lr
.L197:
	.align	2
.L196:
	.word	102980
	.cfi_endproc
.LFE882:
	.size	_ZN7b2World22SetDestructionListenerEP21b2DestructionListener, .-_ZN7b2World22SetDestructionListenerEP21b2DestructionListener
	.section	.text._ZN7b2World16SetContactFilterEP15b2ContactFilter,"ax",%progbits
	.align	2
	.global	_ZN7b2World16SetContactFilterEP15b2ContactFilter
	.hidden	_ZN7b2World16SetContactFilterEP15b2ContactFilter
	.type	_ZN7b2World16SetContactFilterEP15b2ContactFilter, %function
_ZN7b2World16SetContactFilterEP15b2ContactFilter:
.LFB883:
	.loc 16 93 0
	.cfi_startproc
	@ args = 0, pretend = 0, frame = 8
	@ frame_needed = 0, uses_anonymous_args = 0
	@ link register save eliminated.
	sub	sp, sp, #8
.LCFI118:
	.cfi_def_cfa_offset 8
	str	r0, [sp, #4]
	str	r1, [sp]
	.loc 16 94 0
	ldr	r2, [sp, #4]
	ldr	r3, .L199
	ldr	r1, [sp]
	str	r1, [r2, r3]
	.loc 16 95 0
	add	sp, sp, #8
	@ sp needed
	bx	lr
.L200:
	.align	2
.L199:
	.word	102940
	.cfi_endproc
.LFE883:
	.size	_ZN7b2World16SetContactFilterEP15b2ContactFilter, .-_ZN7b2World16SetContactFilterEP15b2ContactFilter
	.section	.text._ZN7b2World18SetContactListenerEP17b2ContactListener,"ax",%progbits
	.align	2
	.global	_ZN7b2World18SetContactListenerEP17b2ContactListener
	.hidden	_ZN7b2World18SetContactListenerEP17b2ContactListener
	.type	_ZN7b2World18SetContactListenerEP17b2ContactListener, %function
_ZN7b2World18SetContactListenerEP17b2ContactListener:
.LFB884:
	.loc 16 98 0
	.cfi_startproc
	@ args = 0, pretend = 0, frame = 8
	@ frame_needed = 0, uses_anonymous_args = 0
	@ link register save eliminated.
	sub	sp, sp, #8
.LCFI119:
	.cfi_def_cfa_offset 8
	str	r0, [sp, #4]
	str	r1, [sp]
	.loc 16 99 0
	ldr	r2, [sp, #4]
	ldr	r3, .L202
	ldr	r1, [sp]
	str	r1, [r2, r3]
	.loc 16 100 0
	add	sp, sp, #8
	@ sp needed
	bx	lr
.L203:
	.align	2
.L202:
	.word	102944
	.cfi_endproc
.LFE884:
	.size	_ZN7b2World18SetContactListenerEP17b2ContactListener, .-_ZN7b2World18SetContactListenerEP17b2ContactListener
	.section	.text._ZN7b2World12SetDebugDrawEP6b2Draw,"ax",%progbits
	.align	2
	.global	_ZN7b2World12SetDebugDrawEP6b2Draw
	.hidden	_ZN7b2World12SetDebugDrawEP6b2Draw
	.type	_ZN7b2World12SetDebugDrawEP6b2Draw, %function
_ZN7b2World12SetDebugDrawEP6b2Draw:
.LFB885:
	.loc 16 103 0
	.cfi_startproc
	@ args = 0, pretend = 0, frame = 8
	@ frame_needed = 0, uses_anonymous_args = 0
	@ link register save eliminated.
	sub	sp, sp, #8
.LCFI120:
	.cfi_def_cfa_offset 8
	str	r0, [sp, #4]
	str	r1, [sp]
	.loc 16 104 0
	ldr	r2, [sp, #4]
	ldr	r3, .L205
	ldr	r1, [sp]
	str	r1, [r2, r3]
	.loc 16 105 0
	add	sp, sp, #8
	@ sp needed
	bx	lr
.L206:
	.align	2
.L205:
	.word	102984
	.cfi_endproc
.LFE885:
	.size	_ZN7b2World12SetDebugDrawEP6b2Draw, .-_ZN7b2World12SetDebugDrawEP6b2Draw
	.section	.rodata
	.align	2
.LC8:
	.ascii	"c:/Users/Ben/Desktop/FYP/FinalYearProject/box2d/Box"
	.ascii	"2D/Dynamics/b2World.cpp\000"
	.align	2
.LC9:
	.ascii	"IsLocked() == false\000"
	.section	.text._ZN7b2World10CreateBodyEPK9b2BodyDef,"ax",%progbits
	.align	2
	.global	_ZN7b2World10CreateBodyEPK9b2BodyDef
	.hidden	_ZN7b2World10CreateBodyEPK9b2BodyDef
	.type	_ZN7b2World10CreateBodyEPK9b2BodyDef, %function
_ZN7b2World10CreateBodyEPK9b2BodyDef:
.LFB886:
	.loc 16 108 0
	.cfi_startproc
	@ args = 0, pretend = 0, frame = 16
	@ frame_needed = 0, uses_anonymous_args = 0
	stmfd	sp!, {r4, lr}
.LCFI121:
	.cfi_def_cfa_offset 8
	.cfi_offset 4, -8
	.cfi_offset 14, -4
	sub	sp, sp, #16
.LCFI122:
	.cfi_def_cfa_offset 24
	str	r0, [sp, #4]
	str	r1, [sp]
.LBB15:
	.loc 16 109 0
	ldr	r0, [sp, #4]
	bl	_ZNK7b2World8IsLockedEv(PLT)
	mov	r3, r0
	cmp	r3, #0
	beq	.L208
	.loc 16 109 0 is_stmt 0 discriminator 1
	ldr	r3, .L212
.LPIC12:
	add	r3, pc, r3
	mov	r0, r3
	mov	r1, #109
	ldr	r3, .L212+4
.LPIC13:
	add	r3, pc, r3
	mov	r2, r3
	bl	__assert(PLT)
.L208:
	.loc 16 110 0 is_stmt 1
	ldr	r0, [sp, #4]
	bl	_ZNK7b2World8IsLockedEv(PLT)
	mov	r3, r0
	cmp	r3, #0
	beq	.L209
	.loc 16 112 0
	mov	r3, #0
	b	.L210
.L209:
	.loc 16 115 0
	ldr	r3, [sp, #4]
	mov	r0, r3
	mov	r1, #152
	bl	_ZN16b2BlockAllocator8AllocateEi(PLT)
	str	r0, [sp, #12]
	.loc 16 116 0
	ldr	r3, [sp, #12]
	mov	r0, #152
	mov	r1, r3
	bl	_ZnwjPv(PLT)
	mov	r4, r0
	mov	r0, r4
	ldr	r1, [sp]
	ldr	r2, [sp, #4]
	bl	_ZN6b2BodyC1EPK9b2BodyDefP7b2World(PLT)
	str	r4, [sp, #8]
	.loc 16 119 0
	ldr	r3, [sp, #8]
	mov	r2, #0
	str	r2, [r3, #92]
	.loc 16 120 0
	ldr	r2, [sp, #4]
	ldr	r3, .L212+8
	ldr	r2, [r2, r3]
	ldr	r3, [sp, #8]
	str	r2, [r3, #96]
	.loc 16 121 0
	ldr	r2, [sp, #4]
	ldr	r3, .L212+8
	ldr	r3, [r2, r3]
	cmp	r3, #0
	beq	.L211
	.loc 16 123 0
	ldr	r2, [sp, #4]
	ldr	r3, .L212+8
	ldr	r3, [r2, r3]
	ldr	r2, [sp, #8]
	str	r2, [r3, #92]
.L211:
	.loc 16 125 0
	ldr	r2, [sp, #4]
	ldr	r3, .L212+8
	ldr	r1, [sp, #8]
	str	r1, [r2, r3]
	.loc 16 126 0
	ldr	r2, [sp, #4]
	ldr	r3, .L212+12
	ldr	r3, [r2, r3]
	add	r1, r3, #1
	ldr	r2, [sp, #4]
	ldr	r3, .L212+12
	str	r1, [r2, r3]
	.loc 16 128 0
	ldr	r3, [sp, #8]
.L210:
.LBE15:
	.loc 16 129 0
	mov	r0, r3
	add	sp, sp, #16
	@ sp needed
	ldmfd	sp!, {r4, pc}
.L213:
	.align	2
.L212:
	.word	.LC8-(.LPIC12+8)
	.word	.LC9-(.LPIC13+8)
	.word	102952
	.word	102960
	.cfi_endproc
.LFE886:
	.size	_ZN7b2World10CreateBodyEPK9b2BodyDef, .-_ZN7b2World10CreateBodyEPK9b2BodyDef
	.section	.rodata
	.align	2
.LC10:
	.ascii	"m_bodyCount > 0\000"
	.section	.text._ZN7b2World11DestroyBodyEP6b2Body,"ax",%progbits
	.align	2
	.global	_ZN7b2World11DestroyBodyEP6b2Body
	.hidden	_ZN7b2World11DestroyBodyEP6b2Body
	.type	_ZN7b2World11DestroyBodyEP6b2Body, %function
_ZN7b2World11DestroyBodyEP6b2Body:
.LFB887:
	.loc 16 132 0
	.cfi_startproc
	@ args = 0, pretend = 0, frame = 32
	@ frame_needed = 0, uses_anonymous_args = 0
	str	lr, [sp, #-4]!
.LCFI123:
	.cfi_def_cfa_offset 4
	.cfi_offset 14, -4
	sub	sp, sp, #36
.LCFI124:
	.cfi_def_cfa_offset 40
	str	r0, [sp, #4]
	str	r1, [sp]
.LBB16:
	.loc 16 133 0
	ldr	r2, [sp, #4]
	ldr	r3, .L230
	ldr	r3, [r2, r3]
	cmp	r3, #0
	bgt	.L215
	.loc 16 133 0 is_stmt 0 discriminator 1
	ldr	r3, .L230+4
.LPIC14:
	add	r3, pc, r3
	mov	r0, r3
	mov	r1, #133
	ldr	r3, .L230+8
.LPIC15:
	add	r3, pc, r3
	mov	r2, r3
	bl	__assert(PLT)
.L215:
	.loc 16 134 0 is_stmt 1
	ldr	r0, [sp, #4]
	bl	_ZNK7b2World8IsLockedEv(PLT)
	mov	r3, r0
	cmp	r3, #0
	beq	.L216
	.loc 16 134 0 is_stmt 0 discriminator 1
	ldr	r3, .L230+12
.LPIC16:
	add	r3, pc, r3
	mov	r0, r3
	mov	r1, #134
	ldr	r3, .L230+16
.LPIC17:
	add	r3, pc, r3
	mov	r2, r3
	bl	__assert(PLT)
.L216:
	.loc 16 135 0 is_stmt 1
	ldr	r0, [sp, #4]
	bl	_ZNK7b2World8IsLockedEv(PLT)
	mov	r3, r0
	cmp	r3, #0
	beq	.L217
	.loc 16 137 0
	b	.L214
.L217:
	.loc 16 141 0
	ldr	r3, [sp]
	ldr	r3, [r3, #108]
	str	r3, [sp, #28]
	.loc 16 142 0
	b	.L219
.L221:
.LBB17:
	.loc 16 144 0
	ldr	r3, [sp, #28]
	str	r3, [sp, #16]
	.loc 16 145 0
	ldr	r3, [sp, #28]
	ldr	r3, [r3, #12]
	str	r3, [sp, #28]
	.loc 16 147 0
	ldr	r2, [sp, #4]
	ldr	r3, .L230+20
	ldr	r3, [r2, r3]
	cmp	r3, #0
	beq	.L220
	.loc 16 149 0
	ldr	r2, [sp, #4]
	ldr	r3, .L230+20
	ldr	r3, [r2, r3]
	ldr	r3, [r3]
	add	r3, r3, #8
	ldr	r3, [r3]
	ldr	r1, [sp, #4]
	ldr	r2, .L230+20
	ldr	r1, [r1, r2]
	ldr	r2, [sp, #16]
	ldr	r2, [r2, #4]
	mov	r0, r1
	mov	r1, r2
	blx	r3
.L220:
	.loc 16 152 0
	ldr	r3, [sp, #16]
	ldr	r3, [r3, #4]
	ldr	r0, [sp, #4]
	mov	r1, r3
	bl	_ZN7b2World12DestroyJointEP7b2Joint(PLT)
	.loc 16 154 0
	ldr	r3, [sp]
	ldr	r2, [sp, #28]
	str	r2, [r3, #108]
.L219:
.LBE17:
	.loc 16 142 0 discriminator 1
	ldr	r3, [sp, #28]
	cmp	r3, #0
	bne	.L221
	.loc 16 156 0
	ldr	r3, [sp]
	mov	r2, #0
	str	r2, [r3, #108]
	.loc 16 159 0
	ldr	r3, [sp]
	ldr	r3, [r3, #112]
	str	r3, [sp, #24]
	.loc 16 160 0
	b	.L222
.L223:
.LBB18:
	.loc 16 162 0
	ldr	r3, [sp, #24]
	str	r3, [sp, #12]
	.loc 16 163 0
	ldr	r3, [sp, #24]
	ldr	r3, [r3, #12]
	str	r3, [sp, #24]
	.loc 16 164 0
	ldr	r3, [sp, #4]
	add	r3, r3, #102400
	add	r3, r3, #472
	ldr	r2, [sp, #12]
	ldr	r2, [r2, #4]
	mov	r0, r3
	mov	r1, r2
	bl	_ZN16b2ContactManager7DestroyEP9b2Contact(PLT)
.L222:
.LBE18:
	.loc 16 160 0 discriminator 1
	ldr	r3, [sp, #24]
	cmp	r3, #0
	bne	.L223
	.loc 16 166 0
	ldr	r3, [sp]
	mov	r2, #0
	str	r2, [r3, #112]
	.loc 16 169 0
	ldr	r3, [sp]
	ldr	r3, [r3, #100]
	str	r3, [sp, #20]
	.loc 16 170 0
	b	.L224
.L226:
.LBB19:
	.loc 16 172 0
	ldr	r3, [sp, #20]
	str	r3, [sp, #8]
	.loc 16 173 0
	ldr	r3, [sp, #20]
	ldr	r3, [r3, #4]
	str	r3, [sp, #20]
	.loc 16 175 0
	ldr	r2, [sp, #4]
	ldr	r3, .L230+20
	ldr	r3, [r2, r3]
	cmp	r3, #0
	beq	.L225
	.loc 16 177 0
	ldr	r2, [sp, #4]
	ldr	r3, .L230+20
	ldr	r3, [r2, r3]
	ldr	r3, [r3]
	add	r3, r3, #12
	ldr	r3, [r3]
	ldr	r1, [sp, #4]
	ldr	r2, .L230+20
	ldr	r2, [r1, r2]
	mov	r0, r2
	ldr	r1, [sp, #8]
	blx	r3
.L225:
	.loc 16 180 0
	ldr	r3, [sp, #4]
	add	r3, r3, #102400
	add	r3, r3, #472
	ldr	r0, [sp, #8]
	mov	r1, r3
	bl	_ZN9b2Fixture14DestroyProxiesEP12b2BroadPhase(PLT)
	.loc 16 181 0
	ldr	r3, [sp, #4]
	ldr	r0, [sp, #8]
	mov	r1, r3
	bl	_ZN9b2Fixture7DestroyEP16b2BlockAllocator(PLT)
	.loc 16 183 0
	ldr	r3, [sp, #4]
	mov	r0, r3
	ldr	r1, [sp, #8]
	mov	r2, #44
	bl	_ZN16b2BlockAllocator4FreeEPvi(PLT)
	.loc 16 185 0
	ldr	r3, [sp]
	ldr	r2, [sp, #20]
	str	r2, [r3, #100]
	.loc 16 186 0
	ldr	r3, [sp]
	ldr	r3, [r3, #104]
	sub	r2, r3, #1
	ldr	r3, [sp]
	str	r2, [r3, #104]
.L224:
.LBE19:
	.loc 16 170 0 discriminator 1
	ldr	r3, [sp, #20]
	cmp	r3, #0
	bne	.L226
	.loc 16 188 0
	ldr	r3, [sp]
	mov	r2, #0
	str	r2, [r3, #100]
	.loc 16 189 0
	ldr	r3, [sp]
	mov	r2, #0
	str	r2, [r3, #104]
	.loc 16 192 0
	ldr	r3, [sp]
	ldr	r3, [r3, #92]
	cmp	r3, #0
	beq	.L227
	.loc 16 194 0
	ldr	r3, [sp]
	ldr	r3, [r3, #92]
	ldr	r2, [sp]
	ldr	r2, [r2, #96]
	str	r2, [r3, #96]
.L227:
	.loc 16 197 0
	ldr	r3, [sp]
	ldr	r3, [r3, #96]
	cmp	r3, #0
	beq	.L228
	.loc 16 199 0
	ldr	r3, [sp]
	ldr	r3, [r3, #96]
	ldr	r2, [sp]
	ldr	r2, [r2, #92]
	str	r2, [r3, #92]
.L228:
	.loc 16 202 0
	ldr	r2, [sp, #4]
	ldr	r3, .L230+24
	ldr	r2, [r2, r3]
	ldr	r3, [sp]
	cmp	r2, r3
	bne	.L229
	.loc 16 204 0
	ldr	r3, [sp]
	ldr	r1, [r3, #96]
	ldr	r2, [sp, #4]
	ldr	r3, .L230+24
	str	r1, [r2, r3]
.L229:
	.loc 16 207 0
	ldr	r2, [sp, #4]
	ldr	r3, .L230
	ldr	r3, [r2, r3]
	sub	r1, r3, #1
	ldr	r2, [sp, #4]
	ldr	r3, .L230
	str	r1, [r2, r3]
	.loc 16 208 0
	ldr	r0, [sp]
	bl	_ZN6b2BodyD1Ev(PLT)
	.loc 16 209 0
	ldr	r3, [sp, #4]
	mov	r0, r3
	ldr	r1, [sp]
	mov	r2, #152
	bl	_ZN16b2BlockAllocator4FreeEPvi(PLT)
.L214:
.LBE16:
	.loc 16 210 0
	add	sp, sp, #36
	@ sp needed
	ldr	pc, [sp], #4
.L231:
	.align	2
.L230:
	.word	102960
	.word	.LC8-(.LPIC14+8)
	.word	.LC10-(.LPIC15+8)
	.word	.LC8-(.LPIC16+8)
	.word	.LC9-(.LPIC17+8)
	.word	102980
	.word	102952
	.cfi_endproc
.LFE887:
	.size	_ZN7b2World11DestroyBodyEP6b2Body, .-_ZN7b2World11DestroyBodyEP6b2Body
	.section	.text._ZN7b2World11CreateJointEPK10b2JointDef,"ax",%progbits
	.align	2
	.global	_ZN7b2World11CreateJointEPK10b2JointDef
	.hidden	_ZN7b2World11CreateJointEPK10b2JointDef
	.type	_ZN7b2World11CreateJointEPK10b2JointDef, %function
_ZN7b2World11CreateJointEPK10b2JointDef:
.LFB888:
	.loc 16 213 0
	.cfi_startproc
	@ args = 0, pretend = 0, frame = 24
	@ frame_needed = 0, uses_anonymous_args = 0
	str	lr, [sp, #-4]!
.LCFI125:
	.cfi_def_cfa_offset 4
	.cfi_offset 14, -4
	sub	sp, sp, #28
.LCFI126:
	.cfi_def_cfa_offset 32
	str	r0, [sp, #4]
	str	r1, [sp]
.LBB20:
	.loc 16 214 0
	ldr	r0, [sp, #4]
	bl	_ZNK7b2World8IsLockedEv(PLT)
	mov	r3, r0
	cmp	r3, #0
	beq	.L233
	.loc 16 214 0 is_stmt 0 discriminator 1
	ldr	r3, .L243
.LPIC18:
	add	r3, pc, r3
	mov	r0, r3
	mov	r1, #214
	ldr	r3, .L243+4
.LPIC19:
	add	r3, pc, r3
	mov	r2, r3
	bl	__assert(PLT)
.L233:
	.loc 16 215 0 is_stmt 1
	ldr	r0, [sp, #4]
	bl	_ZNK7b2World8IsLockedEv(PLT)
	mov	r3, r0
	cmp	r3, #0
	beq	.L234
	.loc 16 217 0
	mov	r3, #0
	b	.L235
.L234:
	.loc 16 220 0
	ldr	r3, [sp, #4]
	ldr	r0, [sp]
	mov	r1, r3
	bl	_ZN7b2Joint6CreateEPK10b2JointDefP16b2BlockAllocator(PLT)
	str	r0, [sp, #16]
	.loc 16 223 0
	ldr	r3, [sp, #16]
	mov	r2, #0
	str	r2, [r3, #8]
	.loc 16 224 0
	ldr	r2, [sp, #4]
	ldr	r3, .L243+8
	ldr	r2, [r2, r3]
	ldr	r3, [sp, #16]
	str	r2, [r3, #12]
	.loc 16 225 0
	ldr	r2, [sp, #4]
	ldr	r3, .L243+8
	ldr	r3, [r2, r3]
	cmp	r3, #0
	beq	.L236
	.loc 16 227 0
	ldr	r2, [sp, #4]
	ldr	r3, .L243+8
	ldr	r3, [r2, r3]
	ldr	r2, [sp, #16]
	str	r2, [r3, #8]
.L236:
	.loc 16 229 0
	ldr	r2, [sp, #4]
	ldr	r3, .L243+8
	ldr	r1, [sp, #16]
	str	r1, [r2, r3]
	.loc 16 230 0
	ldr	r2, [sp, #4]
	ldr	r3, .L243+12
	ldr	r3, [r2, r3]
	add	r1, r3, #1
	ldr	r2, [sp, #4]
	ldr	r3, .L243+12
	str	r1, [r2, r3]
	.loc 16 233 0
	ldr	r3, [sp, #16]
	ldr	r2, [sp, #16]
	str	r2, [r3, #20]
	.loc 16 234 0
	ldr	r3, [sp, #16]
	ldr	r2, [r3, #52]
	ldr	r3, [sp, #16]
	str	r2, [r3, #16]
	.loc 16 235 0
	ldr	r3, [sp, #16]
	mov	r2, #0
	str	r2, [r3, #24]
	.loc 16 236 0
	ldr	r3, [sp, #16]
	ldr	r3, [r3, #48]
	ldr	r2, [r3, #108]
	ldr	r3, [sp, #16]
	str	r2, [r3, #28]
	.loc 16 237 0
	ldr	r3, [sp, #16]
	ldr	r3, [r3, #48]
	ldr	r3, [r3, #108]
	cmp	r3, #0
	beq	.L237
	.loc 16 237 0 is_stmt 0 discriminator 1
	ldr	r3, [sp, #16]
	ldr	r3, [r3, #48]
	ldr	r3, [r3, #108]
	ldr	r2, [sp, #16]
	add	r2, r2, #16
	str	r2, [r3, #8]
.L237:
	.loc 16 238 0 is_stmt 1
	ldr	r3, [sp, #16]
	ldr	r3, [r3, #48]
	ldr	r2, [sp, #16]
	add	r2, r2, #16
	str	r2, [r3, #108]
	.loc 16 240 0
	ldr	r3, [sp, #16]
	ldr	r2, [sp, #16]
	str	r2, [r3, #36]
	.loc 16 241 0
	ldr	r3, [sp, #16]
	ldr	r2, [r3, #48]
	ldr	r3, [sp, #16]
	str	r2, [r3, #32]
	.loc 16 242 0
	ldr	r3, [sp, #16]
	mov	r2, #0
	str	r2, [r3, #40]
	.loc 16 243 0
	ldr	r3, [sp, #16]
	ldr	r3, [r3, #52]
	ldr	r2, [r3, #108]
	ldr	r3, [sp, #16]
	str	r2, [r3, #44]
	.loc 16 244 0
	ldr	r3, [sp, #16]
	ldr	r3, [r3, #52]
	ldr	r3, [r3, #108]
	cmp	r3, #0
	beq	.L238
	.loc 16 244 0 is_stmt 0 discriminator 1
	ldr	r3, [sp, #16]
	ldr	r3, [r3, #52]
	ldr	r3, [r3, #108]
	ldr	r2, [sp, #16]
	add	r2, r2, #32
	str	r2, [r3, #8]
.L238:
	.loc 16 245 0 is_stmt 1
	ldr	r3, [sp, #16]
	ldr	r3, [r3, #52]
	ldr	r2, [sp, #16]
	add	r2, r2, #32
	str	r2, [r3, #108]
	.loc 16 247 0
	ldr	r3, [sp]
	ldr	r3, [r3, #8]
	str	r3, [sp, #12]
	.loc 16 248 0
	ldr	r3, [sp]
	ldr	r3, [r3, #12]
	str	r3, [sp, #8]
.LBB21:
	.loc 16 251 0
	ldr	r3, [sp]
	ldrb	r3, [r3, #16]	@ zero_extendqisi2
	eor	r3, r3, #1
	uxtb	r3, r3
	cmp	r3, #0
	beq	.L239
.LBB22:
	.loc 16 253 0
	ldr	r0, [sp, #8]
	bl	_ZN6b2Body14GetContactListEv(PLT)
	str	r0, [sp, #20]
	.loc 16 254 0
	b	.L240
.L242:
	.loc 16 256 0
	ldr	r3, [sp, #20]
	ldr	r2, [r3]
	ldr	r3, [sp, #12]
	cmp	r2, r3
	bne	.L241
	.loc 16 260 0
	ldr	r3, [sp, #20]
	ldr	r3, [r3, #4]
	mov	r0, r3
	bl	_ZN9b2Contact16FlagForFilteringEv(PLT)
.L241:
	.loc 16 263 0
	ldr	r3, [sp, #20]
	ldr	r3, [r3, #12]
	str	r3, [sp, #20]
.L240:
	.loc 16 254 0 discriminator 1
	ldr	r3, [sp, #20]
	cmp	r3, #0
	bne	.L242
.L239:
.LBE22:
.LBE21:
	.loc 16 269 0
	ldr	r3, [sp, #16]
.L235:
.LBE20:
	.loc 16 270 0
	mov	r0, r3
	add	sp, sp, #28
	@ sp needed
	ldr	pc, [sp], #4
.L244:
	.align	2
.L243:
	.word	.LC8-(.LPIC18+8)
	.word	.LC9-(.LPIC19+8)
	.word	102956
	.word	102964
	.cfi_endproc
.LFE888:
	.size	_ZN7b2World11CreateJointEPK10b2JointDef, .-_ZN7b2World11CreateJointEPK10b2JointDef
	.section	.rodata
	.align	2
.LC11:
	.ascii	"m_jointCount > 0\000"
	.section	.text._ZN7b2World12DestroyJointEP7b2Joint,"ax",%progbits
	.align	2
	.global	_ZN7b2World12DestroyJointEP7b2Joint
	.hidden	_ZN7b2World12DestroyJointEP7b2Joint
	.type	_ZN7b2World12DestroyJointEP7b2Joint, %function
_ZN7b2World12DestroyJointEP7b2Joint:
.LFB889:
	.loc 16 273 0
	.cfi_startproc
	@ args = 0, pretend = 0, frame = 24
	@ frame_needed = 0, uses_anonymous_args = 0
	str	lr, [sp, #-4]!
.LCFI127:
	.cfi_def_cfa_offset 4
	.cfi_offset 14, -4
	sub	sp, sp, #28
.LCFI128:
	.cfi_def_cfa_offset 32
	str	r0, [sp, #4]
	str	r1, [sp]
.LBB23:
	.loc 16 274 0
	ldr	r0, [sp, #4]
	bl	_ZNK7b2World8IsLockedEv(PLT)
	mov	r3, r0
	cmp	r3, #0
	beq	.L246
	.loc 16 274 0 is_stmt 0 discriminator 1
	ldr	r3, .L262
.LPIC20:
	add	r3, pc, r3
	mov	r0, r3
	ldr	r1, .L262+4
	ldr	r3, .L262+8
.LPIC21:
	add	r3, pc, r3
	mov	r2, r3
	bl	__assert(PLT)
.L246:
	.loc 16 275 0 is_stmt 1
	ldr	r0, [sp, #4]
	bl	_ZNK7b2World8IsLockedEv(PLT)
	mov	r3, r0
	cmp	r3, #0
	beq	.L247
	.loc 16 277 0
	b	.L245
.L247:
	.loc 16 280 0
	ldr	r3, [sp]
	ldrb	r3, [r3, #61]
	strb	r3, [sp, #19]
	.loc 16 283 0
	ldr	r3, [sp]
	ldr	r3, [r3, #8]
	cmp	r3, #0
	beq	.L249
	.loc 16 285 0
	ldr	r3, [sp]
	ldr	r3, [r3, #8]
	ldr	r2, [sp]
	ldr	r2, [r2, #12]
	str	r2, [r3, #12]
.L249:
	.loc 16 288 0
	ldr	r3, [sp]
	ldr	r3, [r3, #12]
	cmp	r3, #0
	beq	.L250
	.loc 16 290 0
	ldr	r3, [sp]
	ldr	r3, [r3, #12]
	ldr	r2, [sp]
	ldr	r2, [r2, #8]
	str	r2, [r3, #8]
.L250:
	.loc 16 293 0
	ldr	r2, [sp, #4]
	ldr	r3, .L262+12
	ldr	r2, [r2, r3]
	ldr	r3, [sp]
	cmp	r2, r3
	bne	.L251
	.loc 16 295 0
	ldr	r3, [sp]
	ldr	r1, [r3, #12]
	ldr	r2, [sp, #4]
	ldr	r3, .L262+12
	str	r1, [r2, r3]
.L251:
	.loc 16 299 0
	ldr	r3, [sp]
	ldr	r3, [r3, #48]
	str	r3, [sp, #12]
	.loc 16 300 0
	ldr	r3, [sp]
	ldr	r3, [r3, #52]
	str	r3, [sp, #8]
	.loc 16 303 0
	ldr	r0, [sp, #12]
	mov	r1, #1
	bl	_ZN6b2Body8SetAwakeEb(PLT)
	.loc 16 304 0
	ldr	r0, [sp, #8]
	mov	r1, #1
	bl	_ZN6b2Body8SetAwakeEb(PLT)
	.loc 16 307 0
	ldr	r3, [sp]
	ldr	r3, [r3, #24]
	cmp	r3, #0
	beq	.L252
	.loc 16 309 0
	ldr	r3, [sp]
	ldr	r3, [r3, #24]
	ldr	r2, [sp]
	ldr	r2, [r2, #28]
	str	r2, [r3, #12]
.L252:
	.loc 16 312 0
	ldr	r3, [sp]
	ldr	r3, [r3, #28]
	cmp	r3, #0
	beq	.L253
	.loc 16 314 0
	ldr	r3, [sp]
	ldr	r3, [r3, #28]
	ldr	r2, [sp]
	ldr	r2, [r2, #24]
	str	r2, [r3, #8]
.L253:
	.loc 16 317 0
	ldr	r3, [sp]
	add	r2, r3, #16
	ldr	r3, [sp, #12]
	ldr	r3, [r3, #108]
	cmp	r2, r3
	bne	.L254
	.loc 16 319 0
	ldr	r3, [sp]
	ldr	r2, [r3, #28]
	ldr	r3, [sp, #12]
	str	r2, [r3, #108]
.L254:
	.loc 16 322 0
	ldr	r3, [sp]
	mov	r2, #0
	str	r2, [r3, #24]
	.loc 16 323 0
	ldr	r3, [sp]
	mov	r2, #0
	str	r2, [r3, #28]
	.loc 16 326 0
	ldr	r3, [sp]
	ldr	r3, [r3, #40]
	cmp	r3, #0
	beq	.L255
	.loc 16 328 0
	ldr	r3, [sp]
	ldr	r3, [r3, #40]
	ldr	r2, [sp]
	ldr	r2, [r2, #44]
	str	r2, [r3, #12]
.L255:
	.loc 16 331 0
	ldr	r3, [sp]
	ldr	r3, [r3, #44]
	cmp	r3, #0
	beq	.L256
	.loc 16 333 0
	ldr	r3, [sp]
	ldr	r3, [r3, #44]
	ldr	r2, [sp]
	ldr	r2, [r2, #40]
	str	r2, [r3, #8]
.L256:
	.loc 16 336 0
	ldr	r3, [sp]
	add	r2, r3, #32
	ldr	r3, [sp, #8]
	ldr	r3, [r3, #108]
	cmp	r2, r3
	bne	.L257
	.loc 16 338 0
	ldr	r3, [sp]
	ldr	r2, [r3, #44]
	ldr	r3, [sp, #8]
	str	r2, [r3, #108]
.L257:
	.loc 16 341 0
	ldr	r3, [sp]
	mov	r2, #0
	str	r2, [r3, #40]
	.loc 16 342 0
	ldr	r3, [sp]
	mov	r2, #0
	str	r2, [r3, #44]
	.loc 16 344 0
	ldr	r3, [sp, #4]
	ldr	r0, [sp]
	mov	r1, r3
	bl	_ZN7b2Joint7DestroyEPS_P16b2BlockAllocator(PLT)
	.loc 16 346 0
	ldr	r2, [sp, #4]
	ldr	r3, .L262+16
	ldr	r3, [r2, r3]
	cmp	r3, #0
	bgt	.L258
	.loc 16 346 0 is_stmt 0 discriminator 1
	ldr	r3, .L262+20
.LPIC22:
	add	r3, pc, r3
	mov	r0, r3
	ldr	r1, .L262+24
	ldr	r3, .L262+28
.LPIC23:
	add	r3, pc, r3
	mov	r2, r3
	bl	__assert(PLT)
.L258:
	.loc 16 347 0 is_stmt 1
	ldr	r2, [sp, #4]
	ldr	r3, .L262+16
	ldr	r3, [r2, r3]
	sub	r1, r3, #1
	ldr	r2, [sp, #4]
	ldr	r3, .L262+16
	str	r1, [r2, r3]
.LBB24:
	.loc 16 350 0
	ldrb	r3, [sp, #19]
	eor	r3, r3, #1
	uxtb	r3, r3
	cmp	r3, #0
	beq	.L245
.LBB25:
	.loc 16 352 0
	ldr	r0, [sp, #8]
	bl	_ZN6b2Body14GetContactListEv(PLT)
	str	r0, [sp, #20]
	.loc 16 353 0
	b	.L259
.L261:
	.loc 16 355 0
	ldr	r3, [sp, #20]
	ldr	r2, [r3]
	ldr	r3, [sp, #12]
	cmp	r2, r3
	bne	.L260
	.loc 16 359 0
	ldr	r3, [sp, #20]
	ldr	r3, [r3, #4]
	mov	r0, r3
	bl	_ZN9b2Contact16FlagForFilteringEv(PLT)
.L260:
	.loc 16 362 0
	ldr	r3, [sp, #20]
	ldr	r3, [r3, #12]
	str	r3, [sp, #20]
.L259:
	.loc 16 353 0 discriminator 1
	ldr	r3, [sp, #20]
	cmp	r3, #0
	bne	.L261
.L245:
.LBE25:
.LBE24:
.LBE23:
	.loc 16 365 0
	add	sp, sp, #28
	@ sp needed
	ldr	pc, [sp], #4
.L263:
	.align	2
.L262:
	.word	.LC8-(.LPIC20+8)
	.word	274
	.word	.LC9-(.LPIC21+8)
	.word	102956
	.word	102964
	.word	.LC8-(.LPIC22+8)
	.word	346
	.word	.LC11-(.LPIC23+8)
	.cfi_endproc
.LFE889:
	.size	_ZN7b2World12DestroyJointEP7b2Joint, .-_ZN7b2World12DestroyJointEP7b2Joint
	.section	.text._ZN7b2World16SetAllowSleepingEb,"ax",%progbits
	.align	2
	.global	_ZN7b2World16SetAllowSleepingEb
	.hidden	_ZN7b2World16SetAllowSleepingEb
	.type	_ZN7b2World16SetAllowSleepingEb, %function
_ZN7b2World16SetAllowSleepingEb:
.LFB890:
	.loc 16 369 0
	.cfi_startproc
	@ args = 0, pretend = 0, frame = 16
	@ frame_needed = 0, uses_anonymous_args = 0
	str	lr, [sp, #-4]!
.LCFI129:
	.cfi_def_cfa_offset 4
	.cfi_offset 14, -4
	sub	sp, sp, #20
.LCFI130:
	.cfi_def_cfa_offset 24
	str	r0, [sp, #4]
	mov	r3, r1
	strb	r3, [sp, #3]
.LBB26:
	.loc 16 370 0
	ldr	r2, [sp, #4]
	ldr	r3, .L269
	ldrb	r3, [r2, r3]	@ zero_extendqisi2
	ldrb	r2, [sp, #3]	@ zero_extendqisi2
	cmp	r2, r3
	bne	.L265
	.loc 16 372 0
	b	.L264
.L265:
	.loc 16 375 0
	ldr	r2, [sp, #4]
	ldr	r3, .L269
	ldrb	r1, [sp, #3]
	strb	r1, [r2, r3]
.LBB27:
	.loc 16 376 0
	ldr	r2, [sp, #4]
	ldr	r3, .L269
	ldrb	r3, [r2, r3]	@ zero_extendqisi2
	eor	r3, r3, #1
	uxtb	r3, r3
	cmp	r3, #0
	beq	.L264
.LBB28:
.LBB29:
	.loc 16 378 0
	ldr	r2, [sp, #4]
	ldr	r3, .L269+4
	ldr	r3, [r2, r3]
	str	r3, [sp, #12]
	b	.L267
.L268:
	.loc 16 380 0 discriminator 2
	ldr	r0, [sp, #12]
	mov	r1, #1
	bl	_ZN6b2Body8SetAwakeEb(PLT)
	.loc 16 378 0 discriminator 2
	ldr	r3, [sp, #12]
	ldr	r3, [r3, #96]
	str	r3, [sp, #12]
.L267:
	.loc 16 378 0 is_stmt 0 discriminator 1
	ldr	r3, [sp, #12]
	cmp	r3, #0
	bne	.L268
.L264:
.LBE29:
.LBE28:
.LBE27:
.LBE26:
	.loc 16 383 0 is_stmt 1
	add	sp, sp, #20
	@ sp needed
	ldr	pc, [sp], #4
.L270:
	.align	2
.L269:
	.word	102976
	.word	102952
	.cfi_endproc
.LFE890:
	.size	_ZN7b2World16SetAllowSleepingEb, .-_ZN7b2World16SetAllowSleepingEb
	.section	.rodata
	.align	2
.LC12:
	.ascii	"b->IsActive() == true\000"
	.align	2
.LC13:
	.ascii	"stackCount < stackSize\000"
	.section	.text._ZN7b2World5SolveERK10b2TimeStep,"ax",%progbits
	.align	2
	.global	_ZN7b2World5SolveERK10b2TimeStep
	.hidden	_ZN7b2World5SolveERK10b2TimeStep
	.type	_ZN7b2World5SolveERK10b2TimeStep, %function
_ZN7b2World5SolveERK10b2TimeStep:
.LFB891:
	.loc 16 387 0
	.cfi_startproc
	@ args = 0, pretend = 0, frame = 168
	@ frame_needed = 0, uses_anonymous_args = 0
	str	lr, [sp, #-4]!
.LCFI131:
	.cfi_def_cfa_offset 4
	.cfi_offset 14, -4
	sub	sp, sp, #180
.LCFI132:
	.cfi_def_cfa_offset 184
	str	r0, [sp, #12]
	str	r1, [sp, #8]
.LBB30:
	.loc 16 388 0
	ldr	r2, [sp, #12]
	ldr	r3, .L319
	mov	r1, #0
	str	r1, [r2, r3]	@ float
	.loc 16 389 0
	ldr	r2, [sp, #12]
	ldr	r3, .L319+4
	mov	r1, #0
	str	r1, [r2, r3]	@ float
	.loc 16 390 0
	ldr	r2, [sp, #12]
	ldr	r3, .L319+8
	mov	r1, #0
	str	r1, [r2, r3]	@ float
	.loc 16 397 0
	ldr	r2, [sp, #12]
	ldr	r3, .L319+12
	ldr	r1, [r2, r3]
	ldr	r2, [sp, #12]
	ldr	r3, .L319+16
	ldr	r2, [r2, r3]
	ldr	r0, [sp, #12]
	ldr	r3, .L319+20
	ldr	r3, [r0, r3]
	ldr	r0, [sp, #12]
	add	lr, r0, #68
	ldr	ip, [sp, #12]
	ldr	r0, .L319+24
	ldr	ip, [ip, r0]
	add	r0, sp, #52
	str	lr, [sp]
	str	ip, [sp, #4]
	bl	_ZN8b2IslandC1EiiiP16b2StackAllocatorP17b2ContactListener(PLT)
.LBB31:
	.loc 16 400 0
	ldr	r2, [sp, #12]
	ldr	r3, .L319+28
	ldr	r3, [r2, r3]
	str	r3, [sp, #172]
	b	.L272
.L273:
	.loc 16 402 0 discriminator 2
	ldr	r3, [sp, #172]
	ldrh	r3, [r3, #4]
	bic	r3, r3, #1
	uxth	r2, r3
	ldr	r3, [sp, #172]
	strh	r2, [r3, #4]	@ movhi
	.loc 16 400 0 discriminator 2
	ldr	r3, [sp, #172]
	ldr	r3, [r3, #96]
	str	r3, [sp, #172]
.L272:
	.loc 16 400 0 is_stmt 0 discriminator 1
	ldr	r3, [sp, #172]
	cmp	r3, #0
	bne	.L273
.LBE31:
.LBB32:
	.loc 16 404 0 is_stmt 1
	ldr	r2, [sp, #12]
	ldr	r3, .L319+32
	ldr	r3, [r2, r3]
	str	r3, [sp, #168]
	b	.L274
.L275:
	.loc 16 406 0 discriminator 2
	ldr	r3, [sp, #168]
	ldr	r3, [r3, #4]
	bic	r2, r3, #1
	ldr	r3, [sp, #168]
	str	r2, [r3, #4]
	.loc 16 404 0 discriminator 2
	ldr	r3, [sp, #168]
	ldr	r3, [r3, #12]
	str	r3, [sp, #168]
.L274:
	.loc 16 404 0 is_stmt 0 discriminator 1
	ldr	r3, [sp, #168]
	cmp	r3, #0
	bne	.L275
.LBE32:
.LBB33:
	.loc 16 408 0 is_stmt 1
	ldr	r2, [sp, #12]
	ldr	r3, .L319+36
	ldr	r3, [r2, r3]
	str	r3, [sp, #164]
	b	.L276
.L277:
	.loc 16 410 0 discriminator 2
	ldr	r3, [sp, #164]
	mov	r2, #0
	strb	r2, [r3, #60]
	.loc 16 408 0 discriminator 2
	ldr	r3, [sp, #164]
	ldr	r3, [r3, #12]
	str	r3, [sp, #164]
.L276:
	.loc 16 408 0 is_stmt 0 discriminator 1
	ldr	r3, [sp, #164]
	cmp	r3, #0
	bne	.L277
.LBE33:
	.loc 16 414 0 is_stmt 1
	ldr	r2, [sp, #12]
	ldr	r3, .L319+12
	ldr	r3, [r2, r3]
	str	r3, [sp, #136]
	.loc 16 415 0
	ldr	r3, [sp, #12]
	add	r2, r3, #68
	ldr	r3, [sp, #136]
	mov	r3, r3, asl #2
	mov	r0, r2
	mov	r1, r3
	bl	_ZN16b2StackAllocator8AllocateEi(PLT)
	str	r0, [sp, #132]
.LBB34:
	.loc 16 416 0
	ldr	r2, [sp, #12]
	ldr	r3, .L319+28
	ldr	r3, [r2, r3]
	str	r3, [sp, #160]
	b	.L278
.L313:
.LBB35:
	.loc 16 418 0
	ldr	r3, [sp, #160]
	ldrh	r3, [r3, #4]
	and	r3, r3, #1
	cmp	r3, #0
	beq	.L279
	.loc 16 420 0
	b	.L312
.L279:
	.loc 16 423 0
	ldr	r0, [sp, #160]
	bl	_ZNK6b2Body7IsAwakeEv(PLT)
	mov	r3, r0
	eor	r3, r3, #1
	uxtb	r3, r3
	cmp	r3, #0
	bne	.L281
	.loc 16 423 0 is_stmt 0 discriminator 2
	ldr	r0, [sp, #160]
	bl	_ZNK6b2Body8IsActiveEv(PLT)
	mov	r3, r0
	eor	r3, r3, #1
	uxtb	r3, r3
	cmp	r3, #0
	beq	.L282
.L281:
	.loc 16 423 0 discriminator 1
	mov	r3, #1
	b	.L283
.L282:
	.loc 16 423 0 discriminator 3
	mov	r3, #0
.L283:
	.loc 16 423 0 discriminator 4
	cmp	r3, #0
	beq	.L284
	.loc 16 425 0 is_stmt 1
	b	.L312
.L284:
	.loc 16 429 0
	ldr	r0, [sp, #160]
	bl	_ZNK6b2Body7GetTypeEv(PLT)
	mov	r3, r0
	cmp	r3, #0
	movne	r3, #0
	moveq	r3, #1
	uxtb	r3, r3
	cmp	r3, #0
	beq	.L285
	.loc 16 431 0
	b	.L312
.L285:
	.loc 16 435 0
	add	r3, sp, #52
	mov	r0, r3
	bl	_ZN8b2Island5ClearEv(PLT)
	.loc 16 436 0
	mov	r3, #0
	str	r3, [sp, #156]
	.loc 16 437 0
	ldr	r3, [sp, #156]
	add	r2, r3, #1
	str	r2, [sp, #156]
	mov	r3, r3, asl #2
	ldr	r2, [sp, #132]
	add	r3, r2, r3
	ldr	r2, [sp, #160]
	str	r2, [r3]
	.loc 16 438 0
	ldr	r3, [sp, #160]
	ldrh	r3, [r3, #4]
	orr	r3, r3, #1
	uxth	r2, r3
	ldr	r3, [sp, #160]
	strh	r2, [r3, #4]	@ movhi
	.loc 16 441 0
	b	.L286
.L308:
.LBB36:
	.loc 16 444 0
	ldr	r3, [sp, #156]
	sub	r3, r3, #1
	str	r3, [sp, #156]
	ldr	r3, [sp, #156]
	mov	r3, r3, asl #2
	ldr	r2, [sp, #132]
	add	r3, r2, r3
	ldr	r3, [r3]
	str	r3, [sp, #128]
	.loc 16 445 0
	ldr	r0, [sp, #128]
	bl	_ZNK6b2Body8IsActiveEv(PLT)
	mov	r3, r0
	cmp	r3, #0
	bne	.L287
	.loc 16 445 0 is_stmt 0 discriminator 1
	ldr	r3, .L319+40
.LPIC24:
	add	r3, pc, r3
	mov	r0, r3
	ldr	r1, .L319+44
	ldr	r3, .L319+48
.LPIC25:
	add	r3, pc, r3
	mov	r2, r3
	bl	__assert(PLT)
.L287:
	.loc 16 446 0 is_stmt 1
	add	r3, sp, #52
	mov	r0, r3
	ldr	r1, [sp, #128]
	bl	_ZN8b2Island3AddEP6b2Body(PLT)
	.loc 16 449 0
	ldr	r0, [sp, #128]
	mov	r1, #1
	bl	_ZN6b2Body8SetAwakeEb(PLT)
	.loc 16 453 0
	ldr	r0, [sp, #128]
	bl	_ZNK6b2Body7GetTypeEv(PLT)
	mov	r3, r0
	cmp	r3, #0
	movne	r3, #0
	moveq	r3, #1
	uxtb	r3, r3
	cmp	r3, #0
	beq	.L288
	.loc 16 455 0
	b	.L286
.L288:
.LBB37:
	.loc 16 459 0
	ldr	r3, [sp, #128]
	ldr	r3, [r3, #112]
	str	r3, [sp, #152]
	b	.L289
.L300:
.LBB38:
	.loc 16 461 0
	ldr	r3, [sp, #152]
	ldr	r3, [r3, #4]
	str	r3, [sp, #124]
	.loc 16 464 0
	ldr	r3, [sp, #124]
	ldr	r3, [r3, #4]
	and	r3, r3, #1
	cmp	r3, #0
	beq	.L290
	.loc 16 466 0
	b	.L291
.L290:
	.loc 16 470 0
	ldr	r0, [sp, #124]
	bl	_ZNK9b2Contact9IsEnabledEv(PLT)
	mov	r3, r0
	eor	r3, r3, #1
	uxtb	r3, r3
	cmp	r3, #0
	bne	.L292
	.loc 16 471 0 discriminator 2
	ldr	r0, [sp, #124]
	bl	_ZNK9b2Contact10IsTouchingEv(PLT)
	mov	r3, r0
	eor	r3, r3, #1
	uxtb	r3, r3
	.loc 16 470 0 discriminator 2
	cmp	r3, #0
	beq	.L293
.L292:
	.loc 16 470 0 is_stmt 0 discriminator 1
	mov	r3, #1
	b	.L294
.L293:
	.loc 16 470 0 discriminator 3
	mov	r3, #0
.L294:
	.loc 16 470 0 discriminator 4
	cmp	r3, #0
	beq	.L295
	.loc 16 473 0 is_stmt 1
	b	.L291
.L295:
	.loc 16 477 0
	ldr	r3, [sp, #124]
	ldr	r3, [r3, #48]
	ldrb	r3, [r3, #38]
	strb	r3, [sp, #123]
	.loc 16 478 0
	ldr	r3, [sp, #124]
	ldr	r3, [r3, #52]
	ldrb	r3, [r3, #38]
	strb	r3, [sp, #122]
	.loc 16 479 0
	ldrb	r3, [sp, #123]	@ zero_extendqisi2
	cmp	r3, #0
	bne	.L296
	.loc 16 479 0 is_stmt 0 discriminator 1
	ldrb	r3, [sp, #122]	@ zero_extendqisi2
	cmp	r3, #0
	beq	.L297
.L296:
	.loc 16 481 0 is_stmt 1
	b	.L291
.L297:
	.loc 16 484 0
	add	r3, sp, #52
	mov	r0, r3
	ldr	r1, [sp, #124]
	bl	_ZN8b2Island3AddEP9b2Contact(PLT)
	.loc 16 485 0
	ldr	r3, [sp, #124]
	ldr	r3, [r3, #4]
	orr	r2, r3, #1
	ldr	r3, [sp, #124]
	str	r2, [r3, #4]
	.loc 16 487 0
	ldr	r3, [sp, #152]
	ldr	r3, [r3]
	str	r3, [sp, #116]
	.loc 16 490 0
	ldr	r3, [sp, #116]
	ldrh	r3, [r3, #4]
	and	r3, r3, #1
	cmp	r3, #0
	beq	.L298
	.loc 16 492 0
	b	.L291
.L298:
	.loc 16 495 0
	ldr	r2, [sp, #156]
	ldr	r3, [sp, #136]
	cmp	r2, r3
	blt	.L299
	.loc 16 495 0 is_stmt 0 discriminator 1
	ldr	r3, .L319+52
.LPIC26:
	add	r3, pc, r3
	mov	r0, r3
	ldr	r1, .L319+56
	ldr	r3, .L319+60
.LPIC27:
	add	r3, pc, r3
	mov	r2, r3
	bl	__assert(PLT)
.L299:
	.loc 16 496 0 is_stmt 1
	ldr	r3, [sp, #156]
	add	r2, r3, #1
	str	r2, [sp, #156]
	mov	r3, r3, asl #2
	ldr	r2, [sp, #132]
	add	r3, r2, r3
	ldr	r2, [sp, #116]
	str	r2, [r3]
	.loc 16 497 0
	ldr	r3, [sp, #116]
	ldrh	r3, [r3, #4]
	orr	r3, r3, #1
	uxth	r2, r3
	ldr	r3, [sp, #116]
	strh	r2, [r3, #4]	@ movhi
.L291:
.LBE38:
	.loc 16 459 0
	ldr	r3, [sp, #152]
	ldr	r3, [r3, #12]
	str	r3, [sp, #152]
.L289:
	.loc 16 459 0 is_stmt 0 discriminator 1
	ldr	r3, [sp, #152]
	cmp	r3, #0
	bne	.L300
.LBE37:
.LBB39:
	.loc 16 501 0 is_stmt 1
	ldr	r3, [sp, #128]
	ldr	r3, [r3, #108]
	str	r3, [sp, #148]
	b	.L301
.L307:
.LBB40:
	.loc 16 503 0
	ldr	r3, [sp, #148]
	ldr	r3, [r3, #4]
	ldrb	r3, [r3, #60]	@ zero_extendqisi2
	cmp	r3, #0
	beq	.L302
	.loc 16 505 0
	b	.L303
.L302:
	.loc 16 508 0
	ldr	r3, [sp, #148]
	ldr	r3, [r3]
	str	r3, [sp, #112]
	.loc 16 511 0
	ldr	r0, [sp, #112]
	bl	_ZNK6b2Body8IsActiveEv(PLT)
	mov	r3, r0
	eor	r3, r3, #1
	uxtb	r3, r3
	cmp	r3, #0
	beq	.L304
	.loc 16 513 0
	b	.L303
.L304:
	.loc 16 516 0
	ldr	r3, [sp, #148]
	ldr	r3, [r3, #4]
	add	r2, sp, #52
	mov	r0, r2
	mov	r1, r3
	bl	_ZN8b2Island3AddEP7b2Joint(PLT)
	.loc 16 517 0
	ldr	r3, [sp, #148]
	ldr	r3, [r3, #4]
	mov	r2, #1
	strb	r2, [r3, #60]
	.loc 16 519 0
	ldr	r3, [sp, #112]
	ldrh	r3, [r3, #4]
	and	r3, r3, #1
	cmp	r3, #0
	beq	.L305
	.loc 16 521 0
	b	.L303
.L305:
	.loc 16 524 0
	ldr	r2, [sp, #156]
	ldr	r3, [sp, #136]
	cmp	r2, r3
	blt	.L306
	.loc 16 524 0 is_stmt 0 discriminator 1
	ldr	r3, .L319+64
.LPIC28:
	add	r3, pc, r3
	mov	r0, r3
	mov	r1, #524
	ldr	r3, .L319+68
.LPIC29:
	add	r3, pc, r3
	mov	r2, r3
	bl	__assert(PLT)
.L306:
	.loc 16 525 0 is_stmt 1
	ldr	r3, [sp, #156]
	add	r2, r3, #1
	str	r2, [sp, #156]
	mov	r3, r3, asl #2
	ldr	r2, [sp, #132]
	add	r3, r2, r3
	ldr	r2, [sp, #112]
	str	r2, [r3]
	.loc 16 526 0
	ldr	r3, [sp, #112]
	ldrh	r3, [r3, #4]
	orr	r3, r3, #1
	uxth	r2, r3
	ldr	r3, [sp, #112]
	strh	r2, [r3, #4]	@ movhi
.L303:
.LBE40:
	.loc 16 501 0
	ldr	r3, [sp, #148]
	ldr	r3, [r3, #12]
	str	r3, [sp, #148]
.L301:
	.loc 16 501 0 is_stmt 0 discriminator 1
	ldr	r3, [sp, #148]
	cmp	r3, #0
	bne	.L307
.L286:
.LBE39:
.LBE36:
	.loc 16 441 0 is_stmt 1 discriminator 1
	ldr	r3, [sp, #156]
	cmp	r3, #0
	bgt	.L308
	.loc 16 531 0
	ldr	r3, [sp, #12]
	add	r3, r3, #102400
	add	r3, r3, #568
	ldr	r1, [sp, #12]
	ldr	r2, .L319+72
	ldrb	r0, [r1, r2]	@ zero_extendqisi2
	add	r1, sp, #52
	add	r2, sp, #20
	str	r0, [sp]
	mov	r0, r1
	mov	r1, r2
	ldr	r2, [sp, #8]
	bl	_ZN8b2Island5SolveEP9b2ProfileRK10b2TimeStepRK6b2Vec2b(PLT)
	.loc 16 532 0
	ldr	r2, [sp, #12]
	ldr	r3, .L319
	ldr	r2, [r2, r3]	@ float
	ldr	r3, [sp, #32]	@ float
	mov	r0, r2
	mov	r1, r3
	bl	__aeabi_fadd(PLT)
	mov	r3, r0
	mov	r1, r3
	ldr	r2, [sp, #12]
	ldr	r3, .L319
	str	r1, [r2, r3]	@ float
	.loc 16 533 0
	ldr	r2, [sp, #12]
	ldr	r3, .L319+4
	ldr	r2, [r2, r3]	@ float
	ldr	r3, [sp, #36]	@ float
	mov	r0, r2
	mov	r1, r3
	bl	__aeabi_fadd(PLT)
	mov	r3, r0
	mov	r1, r3
	ldr	r2, [sp, #12]
	ldr	r3, .L319+4
	str	r1, [r2, r3]	@ float
	.loc 16 534 0
	ldr	r2, [sp, #12]
	ldr	r3, .L319+8
	ldr	r2, [r2, r3]	@ float
	ldr	r3, [sp, #40]	@ float
	mov	r0, r2
	mov	r1, r3
	bl	__aeabi_fadd(PLT)
	mov	r3, r0
	mov	r1, r3
	ldr	r2, [sp, #12]
	ldr	r3, .L319+8
	str	r1, [r2, r3]	@ float
.LBB41:
	.loc 16 537 0
	mov	r3, #0
	str	r3, [sp, #144]
	b	.L309
.L311:
.LBB42:
	.loc 16 540 0
	ldr	r2, [sp, #60]
	ldr	r3, [sp, #144]
	mov	r3, r3, asl #2
	add	r3, r2, r3
	ldr	r3, [r3]
	str	r3, [sp, #108]
	.loc 16 541 0
	ldr	r0, [sp, #108]
	bl	_ZNK6b2Body7GetTypeEv(PLT)
	mov	r3, r0
	cmp	r3, #0
	movne	r3, #0
	moveq	r3, #1
	uxtb	r3, r3
	cmp	r3, #0
	beq	.L310
	.loc 16 543 0
	ldr	r3, [sp, #108]
	ldrh	r3, [r3, #4]
	bic	r3, r3, #1
	uxth	r2, r3
	ldr	r3, [sp, #108]
	strh	r2, [r3, #4]	@ movhi
.L310:
.LBE42:
	.loc 16 537 0
	ldr	r3, [sp, #144]
	add	r3, r3, #1
	str	r3, [sp, #144]
.L309:
	.loc 16 537 0 is_stmt 0 discriminator 1
	ldr	r2, [sp, #80]
	ldr	r3, [sp, #144]
	cmp	r2, r3
	bgt	.L311
.L312:
.LBE41:
.LBE35:
	.loc 16 416 0 is_stmt 1
	ldr	r3, [sp, #160]
	ldr	r3, [r3, #96]
	str	r3, [sp, #160]
.L278:
	.loc 16 416 0 is_stmt 0 discriminator 1
	ldr	r3, [sp, #160]
	cmp	r3, #0
	bne	.L313
.LBE34:
	.loc 16 548 0 is_stmt 1
	ldr	r3, [sp, #12]
	add	r3, r3, #68
	mov	r0, r3
	ldr	r1, [sp, #132]
	bl	_ZN16b2StackAllocator4FreeEPv(PLT)
.LBB43:
	.loc 16 551 0
	add	r3, sp, #104
	mov	r0, r3
	bl	_ZN7b2TimerC1Ev(PLT)
.LBB44:
	.loc 16 553 0
	ldr	r2, [sp, #12]
	ldr	r3, .L319+28
	ldr	r3, [r2, r3]
	str	r3, [sp, #140]
	b	.L314
.L318:
	.loc 16 556 0
	ldr	r3, [sp, #140]
	ldrh	r3, [r3, #4]
	and	r3, r3, #1
	cmp	r3, #0
	bne	.L315
	.loc 16 558 0
	b	.L316
.L315:
	.loc 16 561 0
	ldr	r0, [sp, #140]
	bl	_ZNK6b2Body7GetTypeEv(PLT)
	mov	r3, r0
	cmp	r3, #0
	movne	r3, #0
	moveq	r3, #1
	uxtb	r3, r3
	cmp	r3, #0
	beq	.L317
	.loc 16 563 0
	b	.L316
.L317:
	.loc 16 567 0
	ldr	r0, [sp, #140]
	bl	_ZN6b2Body19SynchronizeFixturesEv(PLT)
.L316:
	.loc 16 553 0
	ldr	r0, [sp, #140]
	bl	_ZN6b2Body7GetNextEv(PLT)
	str	r0, [sp, #140]
.L314:
	.loc 16 553 0 is_stmt 0 discriminator 1
	ldr	r3, [sp, #140]
	cmp	r3, #0
	bne	.L318
.LBE44:
	.loc 16 571 0 is_stmt 1
	ldr	r3, [sp, #12]
	add	r3, r3, #102400
	add	r3, r3, #472
	mov	r0, r3
	bl	_ZN16b2ContactManager15FindNewContactsEv(PLT)
	.loc 16 572 0
	add	r3, sp, #104
	mov	r0, r3
	bl	_ZNK7b2Timer15GetMillisecondsEv(PLT)
	mov	r1, r0
	ldr	r2, [sp, #12]
	ldr	r3, .L319+76
	str	r1, [r2, r3]	@ float
.LBE43:
	.loc 16 573 0
	add	r3, sp, #52
	mov	r0, r3
	bl	_ZN8b2IslandD1Ev(PLT)
.LBE30:
	.loc 16 574 0
	add	sp, sp, #180
	@ sp needed
	ldr	pc, [sp], #4
.L320:
	.align	2
.L319:
	.word	103008
	.word	103012
	.word	103016
	.word	102960
	.word	102936
	.word	102964
	.word	102944
	.word	102952
	.word	102932
	.word	102956
	.word	.LC8-(.LPIC24+8)
	.word	445
	.word	.LC12-(.LPIC25+8)
	.word	.LC8-(.LPIC26+8)
	.word	495
	.word	.LC13-(.LPIC27+8)
	.word	.LC8-(.LPIC28+8)
	.word	.LC13-(.LPIC29+8)
	.word	102976
	.word	103020
	.cfi_endproc
.LFE891:
	.size	_ZN7b2World5SolveERK10b2TimeStep, .-_ZN7b2World5SolveERK10b2TimeStep
	.section	.text._ZN7b2SweepC2Ev,"axG",%progbits,_ZN7b2SweepC5Ev,comdat
	.align	2
	.weak	_ZN7b2SweepC2Ev
	.hidden	_ZN7b2SweepC2Ev
	.type	_ZN7b2SweepC2Ev, %function
_ZN7b2SweepC2Ev:
.LFB895:
	.loc 1 380 0
	.cfi_startproc
	@ args = 0, pretend = 0, frame = 8
	@ frame_needed = 0, uses_anonymous_args = 0
	str	lr, [sp, #-4]!
.LCFI133:
	.cfi_def_cfa_offset 4
	.cfi_offset 14, -4
	sub	sp, sp, #12
.LCFI134:
	.cfi_def_cfa_offset 16
	str	r0, [sp, #4]
.LBB45:
	.loc 1 380 0
	ldr	r3, [sp, #4]
	mov	r0, r3
	bl	_ZN6b2Vec2C1Ev(PLT)
	ldr	r3, [sp, #4]
	add	r3, r3, #8
	mov	r0, r3
	bl	_ZN6b2Vec2C1Ev(PLT)
	ldr	r3, [sp, #4]
	add	r3, r3, #16
	mov	r0, r3
	bl	_ZN6b2Vec2C1Ev(PLT)
.LBE45:
	ldr	r3, [sp, #4]
	mov	r0, r3
	add	sp, sp, #12
	@ sp needed
	ldr	pc, [sp], #4
	.cfi_endproc
.LFE895:
	.size	_ZN7b2SweepC2Ev, .-_ZN7b2SweepC2Ev
	.weak	_ZN7b2SweepC1Ev
	.hidden	_ZN7b2SweepC1Ev
	.set	_ZN7b2SweepC1Ev,_ZN7b2SweepC2Ev
	.section	.text._ZN10b2TOIInputC2Ev,"axG",%progbits,_ZN10b2TOIInputC5Ev,comdat
	.align	2
	.weak	_ZN10b2TOIInputC2Ev
	.hidden	_ZN10b2TOIInputC2Ev
	.type	_ZN10b2TOIInputC2Ev, %function
_ZN10b2TOIInputC2Ev:
.LFB897:
	.file 17 "c:/users/ben/desktop/fyp/finalyearproject/box2d/Box2D/Collision/b2TimeOfImpact.h"
	.loc 17 26 0
	.cfi_startproc
	@ args = 0, pretend = 0, frame = 8
	@ frame_needed = 0, uses_anonymous_args = 0
	str	lr, [sp, #-4]!
.LCFI135:
	.cfi_def_cfa_offset 4
	.cfi_offset 14, -4
	sub	sp, sp, #12
.LCFI136:
	.cfi_def_cfa_offset 16
	str	r0, [sp, #4]
.LBB46:
	.loc 17 26 0
	ldr	r3, [sp, #4]
	mov	r0, r3
	bl	_ZN15b2DistanceProxyC1Ev(PLT)
	ldr	r3, [sp, #4]
	add	r3, r3, #28
	mov	r0, r3
	bl	_ZN15b2DistanceProxyC1Ev(PLT)
	ldr	r3, [sp, #4]
	add	r3, r3, #56
	mov	r0, r3
	bl	_ZN7b2SweepC1Ev(PLT)
	ldr	r3, [sp, #4]
	add	r3, r3, #92
	mov	r0, r3
	bl	_ZN7b2SweepC1Ev(PLT)
.LBE46:
	ldr	r3, [sp, #4]
	mov	r0, r3
	add	sp, sp, #12
	@ sp needed
	ldr	pc, [sp], #4
	.cfi_endproc
.LFE897:
	.size	_ZN10b2TOIInputC2Ev, .-_ZN10b2TOIInputC2Ev
	.weak	_ZN10b2TOIInputC1Ev
	.hidden	_ZN10b2TOIInputC1Ev
	.set	_ZN10b2TOIInputC1Ev,_ZN10b2TOIInputC2Ev
	.section	.rodata
	.align	2
.LC14:
	.ascii	"typeA == b2_dynamicBody || typeB == b2_dynamicBody\000"
	.section	.text._ZN7b2World8SolveTOIERK10b2TimeStep,"ax",%progbits
	.align	2
	.global	_ZN7b2World8SolveTOIERK10b2TimeStep
	.hidden	_ZN7b2World8SolveTOIERK10b2TimeStep
	.type	_ZN7b2World8SolveTOIERK10b2TimeStep, %function
_ZN7b2World8SolveTOIERK10b2TimeStep:
.LFB892:
	.loc 16 578 0
	.cfi_startproc
	@ args = 0, pretend = 0, frame = 424
	@ frame_needed = 0, uses_anonymous_args = 0
	str	lr, [sp, #-4]!
.LCFI137:
	.cfi_def_cfa_offset 4
	.cfi_offset 14, -4
	sub	sp, sp, #436
.LCFI138:
	.cfi_def_cfa_offset 440
	str	r0, [sp, #12]
	str	r1, [sp, #8]
.LBB47:
	.loc 16 579 0
	ldr	r3, [sp, #12]
	add	r1, r3, #68
	ldr	r2, [sp, #12]
	ldr	r3, .L410
	ldr	r2, [r2, r3]
	add	r3, sp, #88
	str	r1, [sp]
	str	r2, [sp, #4]
	mov	r0, r3
	mov	r1, #64
	mov	r2, #32
	mov	r3, #0
	bl	_ZN8b2IslandC1EiiiP16b2StackAllocatorP17b2ContactListener(PLT)
.LBB48:
	.loc 16 581 0
	ldr	r2, [sp, #12]
	ldr	r3, .L410+4
	ldrb	r3, [r2, r3]	@ zero_extendqisi2
	cmp	r3, #0
	beq	.L328
.LBB49:
.LBB50:
	.loc 16 583 0
	ldr	r2, [sp, #12]
	ldr	r3, .L410+8
	ldr	r3, [r2, r3]
	str	r3, [sp, #428]
	b	.L329
.L330:
	.loc 16 585 0 discriminator 2
	ldr	r3, [sp, #428]
	ldrh	r3, [r3, #4]
	bic	r3, r3, #1
	uxth	r2, r3
	ldr	r3, [sp, #428]
	strh	r2, [r3, #4]	@ movhi
	.loc 16 586 0 discriminator 2
	ldr	r3, [sp, #428]
	mov	r2, #0
	str	r2, [r3, #60]	@ float
	.loc 16 583 0 discriminator 2
	ldr	r3, [sp, #428]
	ldr	r3, [r3, #96]
	str	r3, [sp, #428]
.L329:
	.loc 16 583 0 is_stmt 0 discriminator 1
	ldr	r3, [sp, #428]
	cmp	r3, #0
	bne	.L330
.LBE50:
.LBB51:
	.loc 16 589 0 is_stmt 1
	ldr	r2, [sp, #12]
	ldr	r3, .L410+12
	ldr	r3, [r2, r3]
	str	r3, [sp, #424]
	b	.L331
.L332:
	.loc 16 592 0 discriminator 2
	ldr	r3, [sp, #424]
	ldr	r3, [r3, #4]
	bic	r2, r3, #33
	ldr	r3, [sp, #424]
	str	r2, [r3, #4]
	.loc 16 593 0 discriminator 2
	ldr	r3, [sp, #424]
	mov	r2, #0
	str	r2, [r3, #128]
	.loc 16 594 0 discriminator 2
	ldr	r3, [sp, #424]
	mov	r2, #1065353216
	str	r2, [r3, #132]	@ float
	.loc 16 589 0 discriminator 2
	ldr	r3, [sp, #424]
	ldr	r3, [r3, #12]
	str	r3, [sp, #424]
.L331:
	.loc 16 589 0 is_stmt 0 discriminator 1
	ldr	r3, [sp, #424]
	cmp	r3, #0
	bne	.L332
.L328:
.LBE51:
.LBE49:
.LBE48:
.LBB52:
.LBB53:
	.loc 16 602 0 is_stmt 1
	mov	r3, #0
	str	r3, [sp, #420]
	.loc 16 603 0
	mov	r3, #1065353216
	str	r3, [sp, #416]	@ float
.LBB54:
	.loc 16 605 0
	ldr	r2, [sp, #12]
	ldr	r3, .L410+12
	ldr	r3, [r2, r3]
	str	r3, [sp, #412]
	b	.L333
.L365:
.LBB55:
	.loc 16 608 0
	ldr	r0, [sp, #412]
	bl	_ZNK9b2Contact9IsEnabledEv(PLT)
	mov	r3, r0
	eor	r3, r3, #1
	uxtb	r3, r3
	cmp	r3, #0
	beq	.L334
	.loc 16 610 0
	b	.L335
.L334:
	.loc 16 614 0
	ldr	r3, [sp, #412]
	ldr	r3, [r3, #128]
	cmp	r3, #8
	ble	.L336
	.loc 16 616 0
	b	.L335
.L336:
	.loc 16 619 0
	mov	r3, #1065353216
	str	r3, [sp, #408]	@ float
.LBB56:
	.loc 16 620 0
	ldr	r3, [sp, #412]
	ldr	r3, [r3, #4]
	and	r3, r3, #32
	cmp	r3, #0
	beq	.L337
	.loc 16 623 0
	ldr	r3, [sp, #412]
	ldr	r3, [r3, #132]	@ float
	str	r3, [sp, #408]	@ float
	b	.L338
.L337:
.LBB57:
	.loc 16 627 0
	ldr	r0, [sp, #412]
	bl	_ZN9b2Contact11GetFixtureAEv(PLT)
	str	r0, [sp, #384]
	.loc 16 628 0
	ldr	r0, [sp, #412]
	bl	_ZN9b2Contact11GetFixtureBEv(PLT)
	str	r0, [sp, #380]
	.loc 16 631 0
	ldr	r0, [sp, #384]
	bl	_ZNK9b2Fixture8IsSensorEv(PLT)
	mov	r3, r0
	cmp	r3, #0
	bne	.L339
	.loc 16 631 0 is_stmt 0 discriminator 2
	ldr	r0, [sp, #380]
	bl	_ZNK9b2Fixture8IsSensorEv(PLT)
	mov	r3, r0
	cmp	r3, #0
	beq	.L340
.L339:
	.loc 16 631 0 discriminator 1
	mov	r3, #1
	b	.L341
.L340:
	.loc 16 631 0 discriminator 3
	mov	r3, #0
.L341:
	.loc 16 631 0 discriminator 4
	cmp	r3, #0
	beq	.L342
	.loc 16 633 0 is_stmt 1
	b	.L335
.L342:
	.loc 16 636 0
	ldr	r0, [sp, #384]
	bl	_ZN9b2Fixture7GetBodyEv(PLT)
	str	r0, [sp, #376]
	.loc 16 637 0
	ldr	r0, [sp, #380]
	bl	_ZN9b2Fixture7GetBodyEv(PLT)
	str	r0, [sp, #372]
	.loc 16 639 0
	ldr	r3, [sp, #376]
	ldr	r3, [r3]
	str	r3, [sp, #368]
	.loc 16 640 0
	ldr	r3, [sp, #372]
	ldr	r3, [r3]
	str	r3, [sp, #364]
	.loc 16 641 0
	ldr	r3, [sp, #368]
	cmp	r3, #2
	beq	.L344
	.loc 16 641 0 is_stmt 0 discriminator 1
	ldr	r3, [sp, #364]
	cmp	r3, #2
	beq	.L344
	ldr	r3, .L410+16
.LPIC30:
	add	r3, pc, r3
	mov	r0, r3
	ldr	r1, .L410+20
	ldr	r3, .L410+24
.LPIC31:
	add	r3, pc, r3
	mov	r2, r3
	bl	__assert(PLT)
.L344:
	.loc 16 643 0 is_stmt 1
	ldr	r0, [sp, #376]
	bl	_ZNK6b2Body7IsAwakeEv(PLT)
	mov	r3, r0
	cmp	r3, #0
	beq	.L345
	.loc 16 643 0 is_stmt 0 discriminator 1
	ldr	r3, [sp, #368]
	cmp	r3, #0
	beq	.L345
	.loc 16 643 0 discriminator 3
	mov	r3, #1
	b	.L346
.L345:
	.loc 16 643 0 discriminator 2
	mov	r3, #0
.L346:
	.loc 16 643 0 discriminator 4
	strb	r3, [sp, #363]
	.loc 16 644 0 is_stmt 1 discriminator 4
	ldr	r0, [sp, #372]
	bl	_ZNK6b2Body7IsAwakeEv(PLT)
	mov	r3, r0
	cmp	r3, #0
	beq	.L347
	.loc 16 644 0 is_stmt 0 discriminator 1
	ldr	r3, [sp, #364]
	cmp	r3, #0
	beq	.L347
	.loc 16 644 0 discriminator 3
	mov	r3, #1
	b	.L348
.L347:
	.loc 16 644 0 discriminator 2
	mov	r3, #0
.L348:
	.loc 16 644 0 discriminator 4
	strb	r3, [sp, #362]
	.loc 16 647 0 is_stmt 1 discriminator 4
	ldrb	r3, [sp, #363]
	eor	r3, r3, #1
	uxtb	r3, r3
	cmp	r3, #0
	beq	.L349
	.loc 16 647 0 is_stmt 0 discriminator 1
	ldrb	r3, [sp, #362]
	eor	r3, r3, #1
	uxtb	r3, r3
	cmp	r3, #0
	beq	.L349
	.loc 16 649 0 is_stmt 1
	b	.L335
.L349:
	.loc 16 652 0
	ldr	r0, [sp, #376]
	bl	_ZNK6b2Body8IsBulletEv(PLT)
	mov	r3, r0
	cmp	r3, #0
	bne	.L350
	.loc 16 652 0 is_stmt 0 discriminator 2
	ldr	r3, [sp, #368]
	cmp	r3, #2
	beq	.L351
.L350:
	.loc 16 652 0 discriminator 1
	mov	r3, #1
	b	.L352
.L351:
	.loc 16 652 0 discriminator 3
	mov	r3, #0
.L352:
	.loc 16 652 0 discriminator 4
	strb	r3, [sp, #361]
	.loc 16 653 0 is_stmt 1 discriminator 4
	ldr	r0, [sp, #372]
	bl	_ZNK6b2Body8IsBulletEv(PLT)
	mov	r3, r0
	cmp	r3, #0
	bne	.L353
	.loc 16 653 0 is_stmt 0 discriminator 2
	ldr	r3, [sp, #364]
	cmp	r3, #2
	beq	.L354
.L353:
	.loc 16 653 0 discriminator 1
	mov	r3, #1
	b	.L355
.L354:
	.loc 16 653 0 discriminator 3
	mov	r3, #0
.L355:
	.loc 16 653 0 discriminator 4
	strb	r3, [sp, #360]
	.loc 16 656 0 is_stmt 1 discriminator 4
	ldrb	r3, [sp, #361]
	eor	r3, r3, #1
	uxtb	r3, r3
	cmp	r3, #0
	beq	.L356
	.loc 16 656 0 is_stmt 0 discriminator 1
	ldrb	r3, [sp, #360]
	eor	r3, r3, #1
	uxtb	r3, r3
	cmp	r3, #0
	beq	.L356
	.loc 16 658 0 is_stmt 1
	mov	r0, r0	@ nop
	b	.L335
.L356:
	.loc 16 663 0
	ldr	r3, [sp, #376]
	ldr	r3, [r3, #60]	@ float
	str	r3, [sp, #404]	@ float
	.loc 16 665 0
	ldr	r3, [sp, #376]
	ldr	r2, [r3, #60]	@ float
	ldr	r3, [sp, #372]
	ldr	r3, [r3, #60]	@ float
	mov	r0, r2
	mov	r1, r3
	bl	__aeabi_fcmplt(PLT)
	mov	r3, r0
	cmp	r3, #0
	beq	.L407
	.loc 16 667 0
	ldr	r3, [sp, #372]
	ldr	r3, [r3, #60]	@ float
	str	r3, [sp, #404]	@ float
	.loc 16 668 0
	ldr	r3, [sp, #376]
	add	r3, r3, #28
	mov	r0, r3
	ldr	r1, [sp, #404]	@ float
	bl	_ZN7b2Sweep7AdvanceEf(PLT)
	b	.L359
.L407:
	.loc 16 670 0
	ldr	r3, [sp, #372]
	ldr	r2, [r3, #60]	@ float
	ldr	r3, [sp, #376]
	ldr	r3, [r3, #60]	@ float
	mov	r0, r2
	mov	r1, r3
	bl	__aeabi_fcmplt(PLT)
	mov	r3, r0
	cmp	r3, #0
	beq	.L359
	.loc 16 672 0
	ldr	r3, [sp, #376]
	ldr	r3, [r3, #60]	@ float
	str	r3, [sp, #404]	@ float
	.loc 16 673 0
	ldr	r3, [sp, #372]
	add	r3, r3, #28
	mov	r0, r3
	ldr	r1, [sp, #404]	@ float
	bl	_ZN7b2Sweep7AdvanceEf(PLT)
.L359:
	.loc 16 676 0
	ldr	r0, [sp, #404]	@ float
	mov	r1, #1065353216
	bl	__aeabi_fcmplt(PLT)
	mov	r3, r0
	cmp	r3, #0
	bne	.L361
	.loc 16 676 0 is_stmt 0 discriminator 1
	ldr	r3, .L410+28
.LPIC32:
	add	r3, pc, r3
	mov	r0, r3
	mov	r1, #676
	ldr	r3, .L410+32
.LPIC33:
	add	r3, pc, r3
	mov	r2, r3
	bl	__assert(PLT)
.L361:
	.loc 16 678 0 is_stmt 1
	ldr	r0, [sp, #412]
	bl	_ZNK9b2Contact14GetChildIndexAEv(PLT)
	str	r0, [sp, #356]
	.loc 16 679 0
	ldr	r0, [sp, #412]
	bl	_ZNK9b2Contact14GetChildIndexBEv(PLT)
	str	r0, [sp, #352]
	.loc 16 682 0
	add	r3, sp, #140
	mov	r0, r3
	bl	_ZN10b2TOIInputC1Ev(PLT)
	.loc 16 683 0
	ldr	r0, [sp, #384]
	bl	_ZN9b2Fixture8GetShapeEv(PLT)
	mov	r3, r0
	add	r2, sp, #140
	mov	r0, r2
	mov	r1, r3
	ldr	r2, [sp, #356]
	bl	_ZN15b2DistanceProxy3SetEPK7b2Shapei(PLT)
	.loc 16 684 0
	ldr	r0, [sp, #380]
	bl	_ZN9b2Fixture8GetShapeEv(PLT)
	mov	r3, r0
	add	r2, sp, #140
	add	r2, r2, #28
	mov	r0, r2
	mov	r1, r3
	ldr	r2, [sp, #352]
	bl	_ZN15b2DistanceProxy3SetEPK7b2Shapei(PLT)
	.loc 16 685 0
	ldr	r3, [sp, #376]
	add	ip, sp, #196
	add	lr, r3, #28
	ldmia	lr!, {r0, r1, r2, r3}
	stmia	ip!, {r0, r1, r2, r3}
	ldmia	lr!, {r0, r1, r2, r3}
	stmia	ip!, {r0, r1, r2, r3}
	ldr	r3, [lr]
	str	r3, [ip]
	.loc 16 686 0
	ldr	r3, [sp, #372]
	add	ip, sp, #232
	add	lr, r3, #28
	ldmia	lr!, {r0, r1, r2, r3}
	stmia	ip!, {r0, r1, r2, r3}
	ldmia	lr!, {r0, r1, r2, r3}
	stmia	ip!, {r0, r1, r2, r3}
	ldr	r3, [lr]
	str	r3, [ip]
	.loc 16 687 0
	mov	r3, #1065353216
	str	r3, [sp, #268]	@ float
	.loc 16 690 0
	add	r2, sp, #272
	add	r3, sp, #140
	mov	r0, r2
	mov	r1, r3
	bl	_Z14b2TimeOfImpactP11b2TOIOutputPK10b2TOIInput(PLT)
	.loc 16 693 0
	ldr	r3, [sp, #276]	@ float
	str	r3, [sp, #348]	@ float
	.loc 16 694 0
	ldr	r3, [sp, #272]
	cmp	r3, #3
	bne	.L362
	.loc 16 696 0
	mov	r0, #1065353216
	ldr	r1, [sp, #404]	@ float
	bl	__aeabi_fsub(PLT)
	mov	r3, r0
	mov	r0, r3
	ldr	r1, [sp, #348]	@ float
	bl	__aeabi_fmul(PLT)
	mov	r3, r0
	mov	r0, r3
	ldr	r1, [sp, #404]	@ float
	bl	__aeabi_fadd(PLT)
	mov	r3, r0
	mov	r0, r3
	mov	r1, #1065353216
	bl	_Z5b2MinIfET_S0_S0_(PLT)
	str	r0, [sp, #408]	@ float
	b	.L363
.L362:
	.loc 16 700 0
	mov	r3, #1065353216
	str	r3, [sp, #408]	@ float
.L363:
	.loc 16 703 0 discriminator 1
	ldr	r3, [sp, #412]
	ldr	r2, [sp, #408]	@ float
	str	r2, [r3, #132]	@ float
	.loc 16 704 0 discriminator 1
	ldr	r3, [sp, #412]
	ldr	r3, [r3, #4]
	orr	r2, r3, #32
	ldr	r3, [sp, #412]
	str	r2, [r3, #4]
.L338:
.LBE57:
.LBE56:
	.loc 16 707 0
	ldr	r0, [sp, #408]	@ float
	ldr	r1, [sp, #416]	@ float
	bl	__aeabi_fcmplt(PLT)
	mov	r3, r0
	cmp	r3, #0
	beq	.L335
	.loc 16 710 0
	ldr	r3, [sp, #412]
	str	r3, [sp, #420]
	.loc 16 711 0
	ldr	r3, [sp, #408]	@ float
	str	r3, [sp, #416]	@ float
.L335:
.LBE55:
	.loc 16 605 0
	ldr	r3, [sp, #412]
	ldr	r3, [r3, #12]
	str	r3, [sp, #412]
.L333:
	.loc 16 605 0 is_stmt 0 discriminator 1
	ldr	r3, [sp, #412]
	cmp	r3, #0
	bne	.L365
.LBE54:
	.loc 16 715 0 is_stmt 1
	ldr	r3, [sp, #420]
	cmp	r3, #0
	beq	.L366
	.loc 16 715 0 is_stmt 0 discriminator 1
	ldr	r0, [sp, #416]	@ float
	ldr	r1, .L410+36
	bl	__aeabi_fcmpgt(PLT)
	mov	r3, r0
	cmp	r3, #0
	beq	.L408
.L366:
	.loc 16 718 0 is_stmt 1
	ldr	r2, [sp, #12]
	ldr	r3, .L410+4
	mov	r1, #1
	strb	r1, [r2, r3]
	.loc 16 719 0
	b	.L369
.L408:
	.loc 16 723 0
	ldr	r0, [sp, #420]
	bl	_ZN9b2Contact11GetFixtureAEv(PLT)
	str	r0, [sp, #344]
	.loc 16 724 0
	ldr	r0, [sp, #420]
	bl	_ZN9b2Contact11GetFixtureBEv(PLT)
	str	r0, [sp, #340]
	.loc 16 725 0
	ldr	r0, [sp, #344]
	bl	_ZN9b2Fixture7GetBodyEv(PLT)
	str	r0, [sp, #336]
	.loc 16 726 0
	ldr	r0, [sp, #340]
	bl	_ZN9b2Fixture7GetBodyEv(PLT)
	str	r0, [sp, #332]
	.loc 16 728 0
	ldr	r3, [sp, #336]
	add	ip, sp, #16
	add	lr, r3, #28
	ldmia	lr!, {r0, r1, r2, r3}
	stmia	ip!, {r0, r1, r2, r3}
	ldmia	lr!, {r0, r1, r2, r3}
	stmia	ip!, {r0, r1, r2, r3}
	ldr	r3, [lr]
	str	r3, [ip]
	.loc 16 729 0
	ldr	r3, [sp, #332]
	add	ip, sp, #52
	add	lr, r3, #28
	ldmia	lr!, {r0, r1, r2, r3}
	stmia	ip!, {r0, r1, r2, r3}
	ldmia	lr!, {r0, r1, r2, r3}
	stmia	ip!, {r0, r1, r2, r3}
	ldr	r3, [lr]
	str	r3, [ip]
	.loc 16 731 0
	ldr	r0, [sp, #336]
	ldr	r1, [sp, #416]	@ float
	bl	_ZN6b2Body7AdvanceEf(PLT)
	.loc 16 732 0
	ldr	r0, [sp, #332]
	ldr	r1, [sp, #416]	@ float
	bl	_ZN6b2Body7AdvanceEf(PLT)
	.loc 16 735 0
	ldr	r2, [sp, #12]
	ldr	r3, .L410
	ldr	r3, [r2, r3]
	ldr	r0, [sp, #420]
	mov	r1, r3
	bl	_ZN9b2Contact6UpdateEP17b2ContactListener(PLT)
	.loc 16 736 0
	ldr	r3, [sp, #420]
	ldr	r3, [r3, #4]
	bic	r2, r3, #32
	ldr	r3, [sp, #420]
	str	r2, [r3, #4]
	.loc 16 737 0
	ldr	r3, [sp, #420]
	ldr	r3, [r3, #128]
	add	r2, r3, #1
	ldr	r3, [sp, #420]
	str	r2, [r3, #128]
	.loc 16 740 0
	ldr	r0, [sp, #420]
	bl	_ZNK9b2Contact9IsEnabledEv(PLT)
	mov	r3, r0
	eor	r3, r3, #1
	uxtb	r3, r3
	cmp	r3, #0
	bne	.L370
	.loc 16 740 0 is_stmt 0 discriminator 2
	ldr	r0, [sp, #420]
	bl	_ZNK9b2Contact10IsTouchingEv(PLT)
	mov	r3, r0
	eor	r3, r3, #1
	uxtb	r3, r3
	cmp	r3, #0
	beq	.L371
.L370:
	.loc 16 740 0 discriminator 1
	mov	r3, #1
	b	.L372
.L371:
	.loc 16 740 0 discriminator 3
	mov	r3, #0
.L372:
	.loc 16 740 0 discriminator 4
	cmp	r3, #0
	beq	.L373
	.loc 16 743 0 is_stmt 1
	ldr	r0, [sp, #420]
	mov	r1, #0
	bl	_ZN9b2Contact10SetEnabledEb(PLT)
	.loc 16 744 0
	ldr	r3, [sp, #336]
	add	ip, r3, #28
	add	lr, sp, #16
	ldmia	lr!, {r0, r1, r2, r3}
	stmia	ip!, {r0, r1, r2, r3}
	ldmia	lr!, {r0, r1, r2, r3}
	stmia	ip!, {r0, r1, r2, r3}
	ldr	r3, [lr]
	str	r3, [ip]
	.loc 16 745 0
	ldr	r3, [sp, #332]
	add	ip, r3, #28
	add	lr, sp, #52
	ldmia	lr!, {r0, r1, r2, r3}
	stmia	ip!, {r0, r1, r2, r3}
	ldmia	lr!, {r0, r1, r2, r3}
	stmia	ip!, {r0, r1, r2, r3}
	ldr	r3, [lr]
	str	r3, [ip]
	.loc 16 746 0
	ldr	r0, [sp, #336]
	bl	_ZN6b2Body20SynchronizeTransformEv(PLT)
	.loc 16 747 0
	ldr	r0, [sp, #332]
	bl	_ZN6b2Body20SynchronizeTransformEv(PLT)
.LBE53:
	.loc 16 894 0
	b	.L328
.L373:
.LBB67:
	.loc 16 751 0
	ldr	r0, [sp, #336]
	mov	r1, #1
	bl	_ZN6b2Body8SetAwakeEb(PLT)
	.loc 16 752 0
	ldr	r0, [sp, #332]
	mov	r1, #1
	bl	_ZN6b2Body8SetAwakeEb(PLT)
	.loc 16 755 0
	add	r3, sp, #88
	mov	r0, r3
	bl	_ZN8b2Island5ClearEv(PLT)
	.loc 16 756 0
	add	r3, sp, #88
	mov	r0, r3
	ldr	r1, [sp, #336]
	bl	_ZN8b2Island3AddEP6b2Body(PLT)
	.loc 16 757 0
	add	r3, sp, #88
	mov	r0, r3
	ldr	r1, [sp, #332]
	bl	_ZN8b2Island3AddEP6b2Body(PLT)
	.loc 16 758 0
	add	r3, sp, #88
	mov	r0, r3
	ldr	r1, [sp, #420]
	bl	_ZN8b2Island3AddEP9b2Contact(PLT)
	.loc 16 760 0
	ldr	r3, [sp, #336]
	ldrh	r3, [r3, #4]
	orr	r3, r3, #1
	uxth	r2, r3
	ldr	r3, [sp, #336]
	strh	r2, [r3, #4]	@ movhi
	.loc 16 761 0
	ldr	r3, [sp, #332]
	ldrh	r3, [r3, #4]
	orr	r3, r3, #1
	uxth	r2, r3
	ldr	r3, [sp, #332]
	strh	r2, [r3, #4]	@ movhi
	.loc 16 762 0
	ldr	r3, [sp, #420]
	ldr	r3, [r3, #4]
	orr	r2, r3, #1
	ldr	r3, [sp, #420]
	str	r2, [r3, #4]
	.loc 16 765 0
	ldr	r3, [sp, #336]
	str	r3, [sp, #304]
	ldr	r3, [sp, #332]
	str	r3, [sp, #308]
.LBB58:
	.loc 16 766 0
	mov	r3, #0
	str	r3, [sp, #400]
	b	.L375
.L396:
.LBB59:
	.loc 16 768 0
	ldr	r2, [sp, #400]
	mvn	r3, #127
	mov	r2, r2, asl #2
	add	r1, sp, #432
	add	r2, r1, r2
	add	r3, r2, r3
	ldr	r3, [r3]
	str	r3, [sp, #328]
.LBB60:
	.loc 16 769 0
	ldr	r3, [sp, #328]
	ldr	r3, [r3]
	cmp	r3, #2
	bne	.L376
.LBB61:
.LBB62:
	.loc 16 771 0
	ldr	r3, [sp, #328]
	ldr	r3, [r3, #112]
	str	r3, [sp, #396]
	b	.L377
.L395:
.LBB63:
	.loc 16 773 0
	ldr	r2, [sp, #116]
	ldr	r3, [sp, #128]
	cmp	r2, r3
	bne	.L378
	.loc 16 775 0
	b	.L394
.L378:
	.loc 16 778 0
	ldr	r2, [sp, #124]
	ldr	r3, [sp, #132]
	cmp	r2, r3
	bne	.L380
	.loc 16 780 0
	mov	r0, r0	@ nop
	b	.L376
.L380:
	.loc 16 783 0
	ldr	r3, [sp, #396]
	ldr	r3, [r3, #4]
	str	r3, [sp, #324]
	.loc 16 786 0
	ldr	r3, [sp, #324]
	ldr	r3, [r3, #4]
	and	r3, r3, #1
	cmp	r3, #0
	beq	.L381
	.loc 16 788 0
	b	.L393
.L381:
	.loc 16 792 0
	ldr	r3, [sp, #396]
	ldr	r3, [r3]
	str	r3, [sp, #320]
	.loc 16 793 0
	ldr	r3, [sp, #320]
	ldr	r3, [r3]
	.loc 16 794 0
	cmp	r3, #2
	bne	.L383
	.loc 16 794 0 is_stmt 0 discriminator 1
	ldr	r0, [sp, #328]
	bl	_ZNK6b2Body8IsBulletEv(PLT)
	mov	r3, r0
	eor	r3, r3, #1
	uxtb	r3, r3
	.loc 16 793 0 is_stmt 1 discriminator 1
	cmp	r3, #0
	beq	.L383
	.loc 16 794 0
	ldr	r0, [sp, #320]
	bl	_ZNK6b2Body8IsBulletEv(PLT)
	mov	r3, r0
	eor	r3, r3, #1
	uxtb	r3, r3
	cmp	r3, #0
	beq	.L383
	.loc 16 794 0 is_stmt 0 discriminator 3
	mov	r3, #1
	b	.L384
.L383:
	.loc 16 794 0 discriminator 2
	mov	r3, #0
.L384:
	.loc 16 793 0 is_stmt 1
	cmp	r3, #0
	beq	.L385
	.loc 16 796 0
	b	.L393
.L385:
	.loc 16 800 0
	ldr	r3, [sp, #324]
	ldr	r3, [r3, #48]
	ldrb	r3, [r3, #38]
	strb	r3, [sp, #319]
	.loc 16 801 0
	ldr	r3, [sp, #324]
	ldr	r3, [r3, #52]
	ldrb	r3, [r3, #38]
	strb	r3, [sp, #318]
	.loc 16 802 0
	ldrb	r3, [sp, #319]	@ zero_extendqisi2
	cmp	r3, #0
	bne	.L386
	.loc 16 802 0 is_stmt 0 discriminator 1
	ldrb	r3, [sp, #318]	@ zero_extendqisi2
	cmp	r3, #0
	beq	.L387
.L386:
	.loc 16 804 0 is_stmt 1
	b	.L393
.L387:
	.loc 16 808 0
	ldr	r3, [sp, #320]
	add	ip, sp, #140
	add	lr, r3, #28
	ldmia	lr!, {r0, r1, r2, r3}
	stmia	ip!, {r0, r1, r2, r3}
	ldmia	lr!, {r0, r1, r2, r3}
	stmia	ip!, {r0, r1, r2, r3}
	ldr	r3, [lr]
	str	r3, [ip]
	.loc 16 809 0
	ldr	r3, [sp, #320]
	ldrh	r3, [r3, #4]
	and	r3, r3, #1
	cmp	r3, #0
	bne	.L388
	.loc 16 811 0
	ldr	r0, [sp, #320]
	ldr	r1, [sp, #416]	@ float
	bl	_ZN6b2Body7AdvanceEf(PLT)
.L388:
	.loc 16 815 0
	ldr	r2, [sp, #12]
	ldr	r3, .L410
	ldr	r3, [r2, r3]
	ldr	r0, [sp, #324]
	mov	r1, r3
	bl	_ZN9b2Contact6UpdateEP17b2ContactListener(PLT)
	.loc 16 818 0
	ldr	r0, [sp, #324]
	bl	_ZNK9b2Contact9IsEnabledEv(PLT)
	mov	r3, r0
	eor	r3, r3, #1
	uxtb	r3, r3
	cmp	r3, #0
	beq	.L389
	.loc 16 820 0
	ldr	r3, [sp, #320]
	add	ip, r3, #28
	add	lr, sp, #140
	ldmia	lr!, {r0, r1, r2, r3}
	stmia	ip!, {r0, r1, r2, r3}
	ldmia	lr!, {r0, r1, r2, r3}
	stmia	ip!, {r0, r1, r2, r3}
	ldr	r3, [lr]
	str	r3, [ip]
	.loc 16 821 0
	ldr	r0, [sp, #320]
	bl	_ZN6b2Body20SynchronizeTransformEv(PLT)
	.loc 16 822 0
	b	.L393
.L389:
	.loc 16 826 0
	ldr	r0, [sp, #324]
	bl	_ZNK9b2Contact10IsTouchingEv(PLT)
	mov	r3, r0
	eor	r3, r3, #1
	uxtb	r3, r3
	cmp	r3, #0
	beq	.L390
	.loc 16 828 0
	ldr	r3, [sp, #320]
	add	ip, r3, #28
	add	lr, sp, #140
	ldmia	lr!, {r0, r1, r2, r3}
	stmia	ip!, {r0, r1, r2, r3}
	ldmia	lr!, {r0, r1, r2, r3}
	stmia	ip!, {r0, r1, r2, r3}
	ldr	r3, [lr]
	str	r3, [ip]
	.loc 16 829 0
	ldr	r0, [sp, #320]
	bl	_ZN6b2Body20SynchronizeTransformEv(PLT)
	.loc 16 830 0
	b	.L393
.L390:
	.loc 16 834 0
	ldr	r3, [sp, #324]
	ldr	r3, [r3, #4]
	orr	r2, r3, #1
	ldr	r3, [sp, #324]
	str	r2, [r3, #4]
	.loc 16 835 0
	add	r3, sp, #88
	mov	r0, r3
	ldr	r1, [sp, #324]
	bl	_ZN8b2Island3AddEP9b2Contact(PLT)
	.loc 16 838 0
	ldr	r3, [sp, #320]
	ldrh	r3, [r3, #4]
	and	r3, r3, #1
	cmp	r3, #0
	beq	.L391
	.loc 16 840 0
	b	.L393
.L391:
	.loc 16 844 0
	ldr	r3, [sp, #320]
	ldrh	r3, [r3, #4]
	orr	r3, r3, #1
	uxth	r2, r3
	ldr	r3, [sp, #320]
	strh	r2, [r3, #4]	@ movhi
	.loc 16 846 0
	ldr	r3, [sp, #320]
	ldr	r3, [r3]
	cmp	r3, #0
	beq	.L392
	.loc 16 848 0
	ldr	r0, [sp, #320]
	mov	r1, #1
	bl	_ZN6b2Body8SetAwakeEb(PLT)
.L392:
	.loc 16 851 0 discriminator 1
	add	r3, sp, #88
	mov	r0, r3
	ldr	r1, [sp, #320]
	bl	_ZN8b2Island3AddEP6b2Body(PLT)
.L393:
.LBE63:
	.loc 16 771 0
	ldr	r3, [sp, #396]
	ldr	r3, [r3, #12]
	str	r3, [sp, #396]
.L377:
	.loc 16 771 0 is_stmt 0 discriminator 1
	ldr	r3, [sp, #396]
	cmp	r3, #0
	bne	.L395
.L394:
.L376:
.LBE62:
.LBE61:
.LBE60:
.LBE59:
	.loc 16 766 0 is_stmt 1
	ldr	r3, [sp, #400]
	add	r3, r3, #1
	str	r3, [sp, #400]
.L375:
	.loc 16 766 0 is_stmt 0 discriminator 1
	ldr	r3, [sp, #400]
	cmp	r3, #1
	ble	.L396
.LBE58:
	.loc 16 857 0 is_stmt 1
	mov	r0, #1065353216
	ldr	r1, [sp, #416]	@ float
	bl	__aeabi_fsub(PLT)
	mov	r3, r0
	mov	r2, r3
	ldr	r3, [sp, #8]
	ldr	r3, [r3]	@ float
	mov	r0, r2
	mov	r1, r3
	bl	__aeabi_fmul(PLT)
	mov	r3, r0
	str	r3, [sp, #280]	@ float
	.loc 16 858 0
	ldr	r3, [sp, #280]	@ float
	mov	r0, #1065353216
	mov	r1, r3
	bl	__aeabi_fdiv(PLT)
	mov	r3, r0
	str	r3, [sp, #284]	@ float
	.loc 16 859 0
	mov	r3, #1065353216
	str	r3, [sp, #288]	@ float
	.loc 16 860 0
	mov	r3, #20
	str	r3, [sp, #296]
	.loc 16 861 0
	ldr	r3, [sp, #8]
	ldr	r3, [r3, #12]
	str	r3, [sp, #292]
	.loc 16 862 0
	mov	r3, #0
	strb	r3, [sp, #300]
	.loc 16 863 0
	ldr	r3, [sp, #336]
	ldr	r2, [r3, #8]
	ldr	r3, [sp, #332]
	ldr	r3, [r3, #8]
	add	r0, sp, #88
	add	r1, sp, #280
	bl	_ZN8b2Island8SolveTOIERK10b2TimeStepii(PLT)
.LBB64:
	.loc 16 866 0
	mov	r3, #0
	str	r3, [sp, #392]
	b	.L397
.L402:
.LBB65:
	.loc 16 868 0
	ldr	r2, [sp, #96]
	ldr	r3, [sp, #392]
	mov	r3, r3, asl #2
	add	r3, r2, r3
	ldr	r3, [r3]
	str	r3, [sp, #312]
	.loc 16 869 0
	ldr	r3, [sp, #312]
	ldrh	r3, [r3, #4]
	bic	r3, r3, #1
	uxth	r2, r3
	ldr	r3, [sp, #312]
	strh	r2, [r3, #4]	@ movhi
	.loc 16 871 0
	ldr	r3, [sp, #312]
	ldr	r3, [r3]
	cmp	r3, #2
	beq	.L398
	.loc 16 873 0
	b	.L399
.L398:
	.loc 16 876 0
	ldr	r0, [sp, #312]
	bl	_ZN6b2Body19SynchronizeFixturesEv(PLT)
.LBB66:
	.loc 16 879 0
	ldr	r3, [sp, #312]
	ldr	r3, [r3, #112]
	str	r3, [sp, #388]
	b	.L400
.L401:
	.loc 16 881 0 discriminator 2
	ldr	r3, [sp, #388]
	ldr	r3, [r3, #4]
	ldr	r2, [sp, #388]
	ldr	r2, [r2, #4]
	ldr	r2, [r2, #4]
	bic	r2, r2, #33
	str	r2, [r3, #4]
	.loc 16 879 0 discriminator 2
	ldr	r3, [sp, #388]
	ldr	r3, [r3, #12]
	str	r3, [sp, #388]
.L400:
	.loc 16 879 0 is_stmt 0 discriminator 1
	ldr	r3, [sp, #388]
	cmp	r3, #0
	bne	.L401
.L399:
.LBE66:
.LBE65:
	.loc 16 866 0 is_stmt 1
	ldr	r3, [sp, #392]
	add	r3, r3, #1
	str	r3, [sp, #392]
.L397:
	.loc 16 866 0 is_stmt 0 discriminator 1
	ldr	r2, [sp, #116]
	ldr	r3, [sp, #392]
	cmp	r2, r3
	bgt	.L402
.LBE64:
	.loc 16 887 0 is_stmt 1
	ldr	r3, [sp, #12]
	add	r3, r3, #102400
	add	r3, r3, #472
	mov	r0, r3
	bl	_ZN16b2ContactManager15FindNewContactsEv(PLT)
	.loc 16 889 0
	ldr	r2, [sp, #12]
	ldr	r3, .L410+40
	ldrb	r3, [r2, r3]	@ zero_extendqisi2
	cmp	r3, #0
	beq	.L374
	.loc 16 891 0
	ldr	r2, [sp, #12]
	ldr	r3, .L410+4
	mov	r1, #0
	strb	r1, [r2, r3]
	.loc 16 892 0
	mov	r0, r0	@ nop
.L369:
.LBE67:
.LBE52:
	.loc 16 894 0 discriminator 1
	add	r3, sp, #88
	mov	r0, r3
	bl	_ZN8b2IslandD1Ev(PLT)
	b	.L409
.L374:
.LBB68:
	.loc 16 894 0 is_stmt 0
	b	.L328
.L409:
.LBE68:
.LBE47:
	.loc 16 895 0 is_stmt 1
	add	sp, sp, #436
	@ sp needed
	ldr	pc, [sp], #4
.L411:
	.align	2
.L410:
	.word	102944
	.word	102995
	.word	102952
	.word	102932
	.word	.LC8-(.LPIC30+8)
	.word	641
	.word	.LC14-(.LPIC31+8)
	.word	.LC8-(.LPIC32+8)
	.word	.LC1-(.LPIC33+8)
	.word	1065353196
	.word	102994
	.cfi_endproc
.LFE892:
	.size	_ZN7b2World8SolveTOIERK10b2TimeStep, .-_ZN7b2World8SolveTOIERK10b2TimeStep
	.section	.text._ZN7b2World4StepEfii,"ax",%progbits
	.align	2
	.global	_ZN7b2World4StepEfii
	.hidden	_ZN7b2World4StepEfii
	.type	_ZN7b2World4StepEfii, %function
_ZN7b2World4StepEfii:
.LFB899:
	.loc 16 898 0
	.cfi_startproc
	@ args = 0, pretend = 0, frame = 56
	@ frame_needed = 0, uses_anonymous_args = 0
	str	lr, [sp, #-4]!
.LCFI139:
	.cfi_def_cfa_offset 4
	.cfi_offset 14, -4
	sub	sp, sp, #60
.LCFI140:
	.cfi_def_cfa_offset 64
	str	r0, [sp, #12]
	str	r1, [sp, #8]	@ float
	str	r2, [sp, #4]
	str	r3, [sp]
.LBB69:
	.loc 16 899 0
	add	r3, sp, #52
	mov	r0, r3
	bl	_ZN7b2TimerC1Ev(PLT)
	.loc 16 902 0
	ldr	r2, [sp, #12]
	ldr	r3, .L429
	ldr	r3, [r2, r3]
	and	r3, r3, #1
	cmp	r3, #0
	beq	.L413
	.loc 16 904 0
	ldr	r3, [sp, #12]
	add	r3, r3, #102400
	add	r3, r3, #472
	mov	r0, r3
	bl	_ZN16b2ContactManager15FindNewContactsEv(PLT)
	.loc 16 905 0
	ldr	r2, [sp, #12]
	ldr	r3, .L429
	ldr	r3, [r2, r3]
	bic	r1, r3, #1
	ldr	r2, [sp, #12]
	ldr	r3, .L429
	str	r1, [r2, r3]
.L413:
	.loc 16 908 0
	ldr	r2, [sp, #12]
	ldr	r3, .L429
	ldr	r3, [r2, r3]
	orr	r1, r3, #2
	ldr	r2, [sp, #12]
	ldr	r3, .L429
	str	r1, [r2, r3]
	.loc 16 911 0
	ldr	r3, [sp, #8]	@ float
	str	r3, [sp, #28]	@ float
	.loc 16 912 0
	ldr	r3, [sp, #4]
	str	r3, [sp, #40]
	.loc 16 913 0
	ldr	r3, [sp]
	str	r3, [sp, #44]
	.loc 16 914 0
	ldr	r0, [sp, #8]	@ float
	mov	r1, #0
	bl	__aeabi_fcmpgt(PLT)
	mov	r3, r0
	cmp	r3, #0
	beq	.L428
	.loc 16 916 0
	mov	r0, #1065353216
	ldr	r1, [sp, #8]	@ float
	bl	__aeabi_fdiv(PLT)
	mov	r3, r0
	str	r3, [sp, #32]	@ float
	b	.L416
.L428:
	.loc 16 920 0
	mov	r3, #0
	str	r3, [sp, #32]	@ float
.L416:
	.loc 16 923 0
	ldr	r2, [sp, #12]
	ldr	r3, .L429+4
	ldr	r3, [r2, r3]	@ float
	mov	r0, r3
	ldr	r1, [sp, #8]	@ float
	bl	__aeabi_fmul(PLT)
	mov	r3, r0
	str	r3, [sp, #36]	@ float
	.loc 16 925 0
	ldr	r2, [sp, #12]
	ldr	r3, .L429+8
	ldrb	r3, [r2, r3]	@ zero_extendqisi2
	strb	r3, [sp, #48]
.LBB70:
	.loc 16 929 0
	add	r3, sp, #24
	mov	r0, r3
	bl	_ZN7b2TimerC1Ev(PLT)
	.loc 16 930 0
	ldr	r3, [sp, #12]
	add	r3, r3, #102400
	add	r3, r3, #472
	mov	r0, r3
	bl	_ZN16b2ContactManager7CollideEv(PLT)
	.loc 16 931 0
	add	r3, sp, #24
	mov	r0, r3
	bl	_ZNK7b2Timer15GetMillisecondsEv(PLT)
	mov	r1, r0
	ldr	r2, [sp, #12]
	ldr	r3, .L429+12
	str	r1, [r2, r3]	@ float
.LBE70:
.LBB71:
	.loc 16 935 0
	ldr	r2, [sp, #12]
	ldr	r3, .L429+16
	ldrb	r3, [r2, r3]	@ zero_extendqisi2
	cmp	r3, #0
	beq	.L417
	.loc 16 935 0 is_stmt 0 discriminator 1
	ldr	r3, [sp, #28]	@ float
	mov	r0, r3
	mov	r1, #0
	bl	__aeabi_fcmpgt(PLT)
	mov	r3, r0
	cmp	r3, #0
	beq	.L417
.LBB72:
	.loc 16 937 0 is_stmt 1
	add	r3, sp, #20
	mov	r0, r3
	bl	_ZN7b2TimerC1Ev(PLT)
	.loc 16 938 0
	add	r3, sp, #28
	ldr	r0, [sp, #12]
	mov	r1, r3
	bl	_ZN7b2World5SolveERK10b2TimeStep(PLT)
	.loc 16 939 0
	add	r3, sp, #20
	mov	r0, r3
	bl	_ZNK7b2Timer15GetMillisecondsEv(PLT)
	mov	r1, r0
	ldr	r2, [sp, #12]
	ldr	r3, .L429+20
	str	r1, [r2, r3]	@ float
.L417:
.LBE72:
.LBE71:
.LBB73:
	.loc 16 943 0
	ldr	r2, [sp, #12]
	ldr	r3, .L429+24
	ldrb	r3, [r2, r3]	@ zero_extendqisi2
	cmp	r3, #0
	beq	.L419
	.loc 16 943 0 is_stmt 0 discriminator 1
	ldr	r3, [sp, #28]	@ float
	mov	r0, r3
	mov	r1, #0
	bl	__aeabi_fcmpgt(PLT)
	mov	r3, r0
	cmp	r3, #0
	beq	.L419
.LBB74:
	.loc 16 945 0 is_stmt 1
	add	r3, sp, #16
	mov	r0, r3
	bl	_ZN7b2TimerC1Ev(PLT)
	.loc 16 946 0
	add	r3, sp, #28
	ldr	r0, [sp, #12]
	mov	r1, r3
	bl	_ZN7b2World8SolveTOIERK10b2TimeStep(PLT)
	.loc 16 947 0
	add	r3, sp, #16
	mov	r0, r3
	bl	_ZNK7b2Timer15GetMillisecondsEv(PLT)
	mov	r1, r0
	ldr	r2, [sp, #12]
	ldr	r3, .L429+28
	str	r1, [r2, r3]	@ float
.L419:
.LBE74:
.LBE73:
	.loc 16 950 0
	ldr	r3, [sp, #28]	@ float
	mov	r0, r3
	mov	r1, #0
	bl	__aeabi_fcmpgt(PLT)
	mov	r3, r0
	cmp	r3, #0
	beq	.L421
	.loc 16 952 0
	ldr	r1, [sp, #32]	@ float
	ldr	r2, [sp, #12]
	ldr	r3, .L429+4
	str	r1, [r2, r3]	@ float
.L421:
	.loc 16 955 0
	ldr	r2, [sp, #12]
	ldr	r3, .L429
	ldr	r3, [r2, r3]
	and	r3, r3, #4
	cmp	r3, #0
	beq	.L423
	.loc 16 957 0
	ldr	r0, [sp, #12]
	bl	_ZN7b2World11ClearForcesEv(PLT)
.L423:
	.loc 16 960 0
	ldr	r2, [sp, #12]
	ldr	r3, .L429
	ldr	r3, [r2, r3]
	bic	r1, r3, #2
	ldr	r2, [sp, #12]
	ldr	r3, .L429
	str	r1, [r2, r3]
	.loc 16 962 0
	add	r3, sp, #52
	mov	r0, r3
	bl	_ZNK7b2Timer15GetMillisecondsEv(PLT)
	mov	r1, r0
	ldr	r2, [sp, #12]
	ldr	r3, .L429+32
	str	r1, [r2, r3]	@ float
.LBE69:
	.loc 16 963 0
	add	sp, sp, #60
	@ sp needed
	ldr	pc, [sp], #4
.L430:
	.align	2
.L429:
	.word	102868
	.word	102988
	.word	102992
	.word	103000
	.word	102995
	.word	103004
	.word	102993
	.word	103024
	.word	102996
	.cfi_endproc
.LFE899:
	.size	_ZN7b2World4StepEfii, .-_ZN7b2World4StepEfii
	.section	.text._ZN7b2World11ClearForcesEv,"ax",%progbits
	.align	2
	.global	_ZN7b2World11ClearForcesEv
	.hidden	_ZN7b2World11ClearForcesEv
	.type	_ZN7b2World11ClearForcesEv, %function
_ZN7b2World11ClearForcesEv:
.LFB900:
	.loc 16 966 0
	.cfi_startproc
	@ args = 0, pretend = 0, frame = 16
	@ frame_needed = 0, uses_anonymous_args = 0
	str	lr, [sp, #-4]!
.LCFI141:
	.cfi_def_cfa_offset 4
	.cfi_offset 14, -4
	sub	sp, sp, #20
.LCFI142:
	.cfi_def_cfa_offset 24
	str	r0, [sp, #4]
.LBB75:
.LBB76:
	.loc 16 967 0
	ldr	r2, [sp, #4]
	ldr	r3, .L434
	ldr	r3, [r2, r3]
	str	r3, [sp, #12]
	b	.L432
.L433:
	.loc 16 969 0 discriminator 2
	ldr	r3, [sp, #12]
	add	r3, r3, #76
	mov	r0, r3
	bl	_ZN6b2Vec27SetZeroEv(PLT)
	.loc 16 970 0 discriminator 2
	ldr	r3, [sp, #12]
	mov	r2, #0
	str	r2, [r3, #84]	@ float
	.loc 16 967 0 discriminator 2
	ldr	r0, [sp, #12]
	bl	_ZN6b2Body7GetNextEv(PLT)
	str	r0, [sp, #12]
.L432:
	.loc 16 967 0 is_stmt 0 discriminator 1
	ldr	r3, [sp, #12]
	cmp	r3, #0
	bne	.L433
.LBE76:
.LBE75:
	.loc 16 972 0 is_stmt 1
	add	sp, sp, #20
	@ sp needed
	ldr	pc, [sp], #4
.L435:
	.align	2
.L434:
	.word	102952
	.cfi_endproc
.LFE900:
	.size	_ZN7b2World11ClearForcesEv, .-_ZN7b2World11ClearForcesEv
	.section	.text._ZN19b2WorldQueryWrapper13QueryCallbackEi,"axG",%progbits,_ZN19b2WorldQueryWrapper13QueryCallbackEi,comdat
	.align	2
	.weak	_ZN19b2WorldQueryWrapper13QueryCallbackEi
	.hidden	_ZN19b2WorldQueryWrapper13QueryCallbackEi
	.type	_ZN19b2WorldQueryWrapper13QueryCallbackEi, %function
_ZN19b2WorldQueryWrapper13QueryCallbackEi:
.LFB901:
	.loc 16 976 0
	.cfi_startproc
	@ args = 0, pretend = 0, frame = 16
	@ frame_needed = 0, uses_anonymous_args = 0
	str	lr, [sp, #-4]!
.LCFI143:
	.cfi_def_cfa_offset 4
	.cfi_offset 14, -4
	sub	sp, sp, #20
.LCFI144:
	.cfi_def_cfa_offset 24
	str	r0, [sp, #4]
	str	r1, [sp]
.LBB77:
	.loc 16 978 0
	ldr	r3, [sp, #4]
	ldr	r3, [r3]
	mov	r0, r3
	ldr	r1, [sp]
	bl	_ZNK12b2BroadPhase11GetUserDataEi(PLT)
	str	r0, [sp, #12]
	.loc 16 979 0
	ldr	r3, [sp, #4]
	ldr	r3, [r3, #4]
	ldr	r3, [r3]
	add	r3, r3, #8
	ldr	r3, [r3]
	ldr	r2, [sp, #4]
	ldr	r1, [r2, #4]
	ldr	r2, [sp, #12]
	ldr	r2, [r2, #16]
	mov	r0, r1
	mov	r1, r2
	blx	r3
	mov	r3, r0
.LBE77:
	.loc 16 980 0
	mov	r0, r3
	add	sp, sp, #20
	@ sp needed
	ldr	pc, [sp], #4
	.cfi_endproc
.LFE901:
	.size	_ZN19b2WorldQueryWrapper13QueryCallbackEi, .-_ZN19b2WorldQueryWrapper13QueryCallbackEi
	.section	.text._ZNK7b2World9QueryAABBEP15b2QueryCallbackRK6b2AABB,"ax",%progbits
	.align	2
	.global	_ZNK7b2World9QueryAABBEP15b2QueryCallbackRK6b2AABB
	.hidden	_ZNK7b2World9QueryAABBEP15b2QueryCallbackRK6b2AABB
	.type	_ZNK7b2World9QueryAABBEP15b2QueryCallbackRK6b2AABB, %function
_ZNK7b2World9QueryAABBEP15b2QueryCallbackRK6b2AABB:
.LFB902:
	.loc 16 987 0
	.cfi_startproc
	@ args = 0, pretend = 0, frame = 24
	@ frame_needed = 0, uses_anonymous_args = 0
	str	lr, [sp, #-4]!
.LCFI145:
	.cfi_def_cfa_offset 4
	.cfi_offset 14, -4
	sub	sp, sp, #28
.LCFI146:
	.cfi_def_cfa_offset 32
	str	r0, [sp, #12]
	str	r1, [sp, #8]
	str	r2, [sp, #4]
.LBB78:
	.loc 16 989 0
	ldr	r3, [sp, #12]
	add	r3, r3, #102400
	add	r3, r3, #472
	str	r3, [sp, #16]
	.loc 16 990 0
	ldr	r3, [sp, #8]
	str	r3, [sp, #20]
	.loc 16 991 0
	ldr	r3, [sp, #12]
	add	r3, r3, #102400
	add	r3, r3, #472
	add	r2, sp, #16
	mov	r0, r3
	mov	r1, r2
	ldr	r2, [sp, #4]
	bl	_ZNK12b2BroadPhase5QueryI19b2WorldQueryWrapperEEvPT_RK6b2AABB(PLT)
.LBE78:
	.loc 16 992 0
	add	sp, sp, #28
	@ sp needed
	ldr	pc, [sp], #4
	.cfi_endproc
.LFE902:
	.size	_ZNK7b2World9QueryAABBEP15b2QueryCallbackRK6b2AABB, .-_ZNK7b2World9QueryAABBEP15b2QueryCallbackRK6b2AABB
	.section	.text._ZN15b2RayCastOutputC2Ev,"axG",%progbits,_ZN15b2RayCastOutputC5Ev,comdat
	.align	2
	.weak	_ZN15b2RayCastOutputC2Ev
	.hidden	_ZN15b2RayCastOutputC2Ev
	.type	_ZN15b2RayCastOutputC2Ev, %function
_ZN15b2RayCastOutputC2Ev:
.LFB905:
	.loc 2 155 0
	.cfi_startproc
	@ args = 0, pretend = 0, frame = 8
	@ frame_needed = 0, uses_anonymous_args = 0
	str	lr, [sp, #-4]!
.LCFI147:
	.cfi_def_cfa_offset 4
	.cfi_offset 14, -4
	sub	sp, sp, #12
.LCFI148:
	.cfi_def_cfa_offset 16
	str	r0, [sp, #4]
.LBB79:
	.loc 2 155 0
	ldr	r3, [sp, #4]
	mov	r0, r3
	bl	_ZN6b2Vec2C1Ev(PLT)
.LBE79:
	ldr	r3, [sp, #4]
	mov	r0, r3
	add	sp, sp, #12
	@ sp needed
	ldr	pc, [sp], #4
	.cfi_endproc
.LFE905:
	.size	_ZN15b2RayCastOutputC2Ev, .-_ZN15b2RayCastOutputC2Ev
	.weak	_ZN15b2RayCastOutputC1Ev
	.hidden	_ZN15b2RayCastOutputC1Ev
	.set	_ZN15b2RayCastOutputC1Ev,_ZN15b2RayCastOutputC2Ev
	.section	.text._ZN21b2WorldRayCastWrapper15RayCastCallbackERK14b2RayCastInputi,"axG",%progbits,_ZN21b2WorldRayCastWrapper15RayCastCallbackERK14b2RayCastInputi,comdat
	.align	2
	.weak	_ZN21b2WorldRayCastWrapper15RayCastCallbackERK14b2RayCastInputi
	.hidden	_ZN21b2WorldRayCastWrapper15RayCastCallbackERK14b2RayCastInputi
	.type	_ZN21b2WorldRayCastWrapper15RayCastCallbackERK14b2RayCastInputi, %function
_ZN21b2WorldRayCastWrapper15RayCastCallbackERK14b2RayCastInputi:
.LFB903:
	.loc 16 996 0
	.cfi_startproc
	@ args = 0, pretend = 0, frame = 80
	@ frame_needed = 0, uses_anonymous_args = 0
	str	lr, [sp, #-4]!
.LCFI149:
	.cfi_def_cfa_offset 4
	.cfi_offset 14, -4
	sub	sp, sp, #92
.LCFI150:
	.cfi_def_cfa_offset 96
	str	r0, [sp, #20]
	str	r1, [sp, #16]
	str	r2, [sp, #12]
.LBB80:
	.loc 16 998 0
	ldr	r3, [sp, #20]
	ldr	r3, [r3]
	mov	r0, r3
	ldr	r1, [sp, #12]
	bl	_ZNK12b2BroadPhase11GetUserDataEi(PLT)
	str	r0, [sp, #84]
	.loc 16 999 0
	ldr	r3, [sp, #84]
	str	r3, [sp, #80]
	.loc 16 1000 0
	ldr	r3, [sp, #80]
	ldr	r3, [r3, #16]
	str	r3, [sp, #76]
	.loc 16 1001 0
	ldr	r3, [sp, #80]
	ldr	r3, [r3, #20]
	str	r3, [sp, #72]
	.loc 16 1002 0
	add	r3, sp, #36
	mov	r0, r3
	bl	_ZN15b2RayCastOutputC1Ev(PLT)
	.loc 16 1003 0
	add	r3, sp, #36
	ldr	r0, [sp, #76]
	mov	r1, r3
	ldr	r2, [sp, #16]
	ldr	r3, [sp, #72]
	bl	_ZNK9b2Fixture7RayCastEP15b2RayCastOutputRK14b2RayCastInputi(PLT)
	mov	r3, r0
	strb	r3, [sp, #71]
.LBB81:
	.loc 16 1005 0
	ldrb	r3, [sp, #71]	@ zero_extendqisi2
	cmp	r3, #0
	beq	.L443
.LBB82:
	.loc 16 1007 0
	ldr	r3, [sp, #44]	@ float
	str	r3, [sp, #64]	@ float
	.loc 16 1008 0
	mov	r0, #1065353216
	ldr	r1, [sp, #64]	@ float
	bl	__aeabi_fsub(PLT)
	mov	r3, r0
	mov	r2, r3
	ldr	r3, [sp, #16]
	add	r1, sp, #48
	mov	r0, r1
	mov	r1, r2
	mov	r2, r3
	bl	_ZmlfRK6b2Vec2(PLT)
	ldr	r3, [sp, #16]
	add	r3, r3, #8
	add	r2, sp, #56
	mov	r0, r2
	ldr	r1, [sp, #64]	@ float
	mov	r2, r3
	bl	_ZmlfRK6b2Vec2(PLT)
	add	r1, sp, #28
	add	r2, sp, #48
	add	r3, sp, #56
	mov	r0, r1
	mov	r1, r2
	mov	r2, r3
	bl	_ZplRK6b2Vec2S1_(PLT)
	.loc 16 1009 0
	ldr	r3, [sp, #20]
	ldr	r3, [r3, #4]
	ldr	r3, [r3]
	add	r3, r3, #8
	ldr	ip, [r3]
	ldr	r3, [sp, #20]
	ldr	r1, [r3, #4]
	add	r2, sp, #28
	add	r3, sp, #36
	ldr	r0, [sp, #64]	@ float
	str	r0, [sp]	@ float
	mov	r0, r1
	ldr	r1, [sp, #76]
	blx	ip
	mov	r3, r0
	b	.L445
.L443:
.LBE82:
.LBE81:
	.loc 16 1012 0
	ldr	r3, [sp, #16]
	ldr	r3, [r3, #16]	@ float
.L445:
.LBE80:
	.loc 16 1013 0
	mov	r0, r3
	add	sp, sp, #92
	@ sp needed
	ldr	pc, [sp], #4
	.cfi_endproc
.LFE903:
	.size	_ZN21b2WorldRayCastWrapper15RayCastCallbackERK14b2RayCastInputi, .-_ZN21b2WorldRayCastWrapper15RayCastCallbackERK14b2RayCastInputi
	.section	.text._ZN14b2RayCastInputC2Ev,"axG",%progbits,_ZN14b2RayCastInputC5Ev,comdat
	.align	2
	.weak	_ZN14b2RayCastInputC2Ev
	.hidden	_ZN14b2RayCastInputC2Ev
	.type	_ZN14b2RayCastInputC2Ev, %function
_ZN14b2RayCastInputC2Ev:
.LFB909:
	.loc 2 147 0
	.cfi_startproc
	@ args = 0, pretend = 0, frame = 8
	@ frame_needed = 0, uses_anonymous_args = 0
	str	lr, [sp, #-4]!
.LCFI151:
	.cfi_def_cfa_offset 4
	.cfi_offset 14, -4
	sub	sp, sp, #12
.LCFI152:
	.cfi_def_cfa_offset 16
	str	r0, [sp, #4]
.LBB83:
	.loc 2 147 0
	ldr	r3, [sp, #4]
	mov	r0, r3
	bl	_ZN6b2Vec2C1Ev(PLT)
	ldr	r3, [sp, #4]
	add	r3, r3, #8
	mov	r0, r3
	bl	_ZN6b2Vec2C1Ev(PLT)
.LBE83:
	ldr	r3, [sp, #4]
	mov	r0, r3
	add	sp, sp, #12
	@ sp needed
	ldr	pc, [sp], #4
	.cfi_endproc
.LFE909:
	.size	_ZN14b2RayCastInputC2Ev, .-_ZN14b2RayCastInputC2Ev
	.weak	_ZN14b2RayCastInputC1Ev
	.hidden	_ZN14b2RayCastInputC1Ev
	.set	_ZN14b2RayCastInputC1Ev,_ZN14b2RayCastInputC2Ev
	.section	.text._ZNK7b2World7RayCastEP17b2RayCastCallbackRK6b2Vec2S4_,"ax",%progbits
	.align	2
	.global	_ZNK7b2World7RayCastEP17b2RayCastCallbackRK6b2Vec2S4_
	.hidden	_ZNK7b2World7RayCastEP17b2RayCastCallbackRK6b2Vec2S4_
	.type	_ZNK7b2World7RayCastEP17b2RayCastCallbackRK6b2Vec2S4_, %function
_ZNK7b2World7RayCastEP17b2RayCastCallbackRK6b2Vec2S4_:
.LFB907:
	.loc 16 1020 0
	.cfi_startproc
	@ args = 0, pretend = 0, frame = 48
	@ frame_needed = 0, uses_anonymous_args = 0
	str	lr, [sp, #-4]!
.LCFI153:
	.cfi_def_cfa_offset 4
	.cfi_offset 14, -4
	sub	sp, sp, #52
.LCFI154:
	.cfi_def_cfa_offset 56
	str	r0, [sp, #12]
	str	r1, [sp, #8]
	str	r2, [sp, #4]
	str	r3, [sp]
.LBB84:
	.loc 16 1022 0
	ldr	r3, [sp, #12]
	add	r3, r3, #102400
	add	r3, r3, #472
	str	r3, [sp, #40]
	.loc 16 1023 0
	ldr	r3, [sp, #8]
	str	r3, [sp, #44]
	.loc 16 1024 0
	add	r3, sp, #20
	mov	r0, r3
	bl	_ZN14b2RayCastInputC1Ev(PLT)
	.loc 16 1025 0
	mov	r3, #1065353216
	str	r3, [sp, #36]	@ float
	.loc 16 1026 0
	ldr	r2, [sp, #4]
	add	r3, sp, #20
	ldmia	r2, {r0, r1}
	stmia	r3, {r0, r1}
	.loc 16 1027 0
	ldr	r2, [sp]
	add	r3, sp, #28
	ldmia	r2, {r0, r1}
	stmia	r3, {r0, r1}
	.loc 16 1028 0
	ldr	r3, [sp, #12]
	add	r3, r3, #102400
	add	r3, r3, #472
	add	r1, sp, #40
	add	r2, sp, #20
	mov	r0, r3
	bl	_ZNK12b2BroadPhase7RayCastI21b2WorldRayCastWrapperEEvPT_RK14b2RayCastInput(PLT)
.LBE84:
	.loc 16 1029 0
	add	sp, sp, #52
	@ sp needed
	ldr	pc, [sp], #4
	.cfi_endproc
.LFE907:
	.size	_ZNK7b2World7RayCastEP17b2RayCastCallbackRK6b2Vec2S4_, .-_ZNK7b2World7RayCastEP17b2RayCastCallbackRK6b2Vec2S4_
	.section	.rodata
	.align	2
.LC15:
	.ascii	"vertexCount <= 8\000"
	.section	.text._ZN7b2World9DrawShapeEP9b2FixtureRK11b2TransformRK7b2Color,"ax",%progbits
	.align	2
	.global	_ZN7b2World9DrawShapeEP9b2FixtureRK11b2TransformRK7b2Color
	.hidden	_ZN7b2World9DrawShapeEP9b2FixtureRK11b2TransformRK7b2Color
	.type	_ZN7b2World9DrawShapeEP9b2FixtureRK11b2TransformRK7b2Color, %function
_ZN7b2World9DrawShapeEP9b2FixtureRK11b2TransformRK7b2Color:
.LFB911:
	.loc 16 1032 0
	.cfi_startproc
	@ args = 0, pretend = 0, frame = 184
	@ frame_needed = 0, uses_anonymous_args = 0
	stmfd	sp!, {r4, r5, lr}
.LCFI155:
	.cfi_def_cfa_offset 12
	.cfi_offset 4, -12
	.cfi_offset 5, -8
	.cfi_offset 14, -4
	sub	sp, sp, #196
.LCFI156:
	.cfi_def_cfa_offset 208
	str	r0, [sp, #28]
	str	r1, [sp, #24]
	str	r2, [sp, #20]
	str	r3, [sp, #16]
.LBB85:
.LBB86:
	.loc 16 1033 0
	ldr	r0, [sp, #24]
	bl	_ZNK9b2Fixture7GetTypeEv(PLT)
	mov	r3, r0
	cmp	r3, #3
	addls	pc, pc, r3, asl #2
	b	.L465
.L453:
	b	.L452
	b	.L454
	b	.L455
	b	.L456
.L452:
.LBB87:
.LBB88:
	.loc 16 1037 0
	ldr	r0, [sp, #24]
	bl	_ZN9b2Fixture8GetShapeEv(PLT)
	str	r0, [sp, #180]
	.loc 16 1039 0
	ldr	r3, [sp, #180]
	add	r3, r3, #12
	add	r2, sp, #136
	mov	r0, r2
	ldr	r1, [sp, #20]
	mov	r2, r3
	bl	_Z5b2MulRK11b2TransformRK6b2Vec2(PLT)
	.loc 16 1040 0
	ldr	r3, [sp, #180]
	ldr	r3, [r3, #8]	@ float
	str	r3, [sp, #176]	@ float
	.loc 16 1041 0
	ldr	r3, [sp, #20]
	add	r4, r3, #8
	add	r3, sp, #144
	mov	r0, r3
	mov	r1, #1065353216
	mov	r2, #0
	bl	_ZN6b2Vec2C1Eff(PLT)
	add	r2, sp, #128
	add	r3, sp, #144
	mov	r0, r2
	mov	r1, r4
	mov	r2, r3
	bl	_Z5b2MulRK5b2RotRK6b2Vec2(PLT)
	.loc 16 1043 0
	ldr	r2, [sp, #28]
	ldr	r3, .L466
	ldr	r3, [r2, r3]
	ldr	r3, [r3]
	add	r3, r3, #20
	ldr	ip, [r3]
	ldr	r2, [sp, #28]
	ldr	r3, .L466
	ldr	r1, [r2, r3]
	add	r2, sp, #136
	add	r3, sp, #128
	ldr	r0, [sp, #16]
	str	r0, [sp]
	mov	r0, r1
	mov	r1, r2
	ldr	r2, [sp, #176]	@ float
	blx	ip
.LBE88:
	.loc 16 1045 0
	b	.L450
.L454:
.LBB89:
	.loc 16 1049 0
	ldr	r0, [sp, #24]
	bl	_ZN9b2Fixture8GetShapeEv(PLT)
	str	r0, [sp, #172]
	.loc 16 1050 0
	ldr	r3, [sp, #172]
	add	r3, r3, #12
	add	r2, sp, #120
	mov	r0, r2
	ldr	r1, [sp, #20]
	mov	r2, r3
	bl	_Z5b2MulRK11b2TransformRK6b2Vec2(PLT)
	.loc 16 1051 0
	ldr	r3, [sp, #172]
	add	r3, r3, #20
	add	r2, sp, #112
	mov	r0, r2
	ldr	r1, [sp, #20]
	mov	r2, r3
	bl	_Z5b2MulRK11b2TransformRK6b2Vec2(PLT)
	.loc 16 1052 0
	ldr	r2, [sp, #28]
	ldr	r3, .L466
	ldr	r3, [r2, r3]
	ldr	r3, [r3]
	add	r3, r3, #24
	ldr	ip, [r3]
	ldr	r2, [sp, #28]
	ldr	r3, .L466
	ldr	r1, [r2, r3]
	add	r2, sp, #120
	add	r3, sp, #112
	mov	r0, r1
	mov	r1, r2
	mov	r2, r3
	ldr	r3, [sp, #16]
	blx	ip
.LBE89:
	.loc 16 1054 0
	b	.L450
.L456:
.LBB90:
	.loc 16 1058 0
	ldr	r0, [sp, #24]
	bl	_ZN9b2Fixture8GetShapeEv(PLT)
	str	r0, [sp, #168]
	.loc 16 1059 0
	ldr	r3, [sp, #168]
	ldr	r3, [r3, #16]
	str	r3, [sp, #164]
	.loc 16 1060 0
	ldr	r3, [sp, #168]
	ldr	r3, [r3, #12]
	str	r3, [sp, #160]
	.loc 16 1062 0
	add	r3, sp, #104
	mov	r0, r3
	ldr	r1, [sp, #20]
	ldr	r2, [sp, #160]
	bl	_Z5b2MulRK11b2TransformRK6b2Vec2(PLT)
.LBB91:
	.loc 16 1063 0
	mov	r3, #1
	str	r3, [sp, #188]
	b	.L458
.L459:
.LBB92:
	.loc 16 1065 0 discriminator 2
	ldr	r3, [sp, #188]
	mov	r3, r3, asl #3
	ldr	r2, [sp, #160]
	add	r3, r2, r3
	add	r2, sp, #96
	mov	r0, r2
	ldr	r1, [sp, #20]
	mov	r2, r3
	bl	_Z5b2MulRK11b2TransformRK6b2Vec2(PLT)
	.loc 16 1066 0 discriminator 2
	ldr	r2, [sp, #28]
	ldr	r3, .L466
	ldr	r3, [r2, r3]
	ldr	r3, [r3]
	add	r3, r3, #24
	ldr	ip, [r3]
	ldr	r2, [sp, #28]
	ldr	r3, .L466
	ldr	r1, [r2, r3]
	add	r2, sp, #104
	add	r3, sp, #96
	mov	r0, r1
	mov	r1, r2
	mov	r2, r3
	ldr	r3, [sp, #16]
	blx	ip
	.loc 16 1067 0 discriminator 2
	ldr	r2, [sp, #28]
	ldr	r3, .L466
	ldr	r3, [r2, r3]
	ldr	r3, [r3]
	add	r3, r3, #16
	ldr	ip, [r3]
	ldr	r2, [sp, #28]
	ldr	r3, .L466
	ldr	r2, [r2, r3]
	add	r3, sp, #104
	mov	r0, r2
	mov	r1, r3
	ldr	r2, .L466+4
	ldr	r3, [sp, #16]
	blx	ip
	.loc 16 1068 0 discriminator 2
	add	r3, sp, #104
	add	r2, sp, #96
	ldmia	r2, {r0, r1}
	stmia	r3, {r0, r1}
.LBE92:
	.loc 16 1063 0 discriminator 2
	ldr	r3, [sp, #188]
	add	r3, r3, #1
	str	r3, [sp, #188]
.L458:
	.loc 16 1063 0 is_stmt 0 discriminator 1
	ldr	r2, [sp, #188]
	ldr	r3, [sp, #164]
	cmp	r2, r3
	blt	.L459
.LBE91:
.LBE90:
	.loc 16 1071 0 is_stmt 1
	b	.L450
.L455:
.LBB93:
	.loc 16 1075 0
	ldr	r0, [sp, #24]
	bl	_ZN9b2Fixture8GetShapeEv(PLT)
	str	r0, [sp, #156]
	.loc 16 1076 0
	ldr	r3, [sp, #156]
	ldr	r3, [r3, #148]
	str	r3, [sp, #152]
	.loc 16 1077 0
	ldr	r3, [sp, #152]
	cmp	r3, #8
	ble	.L460
	.loc 16 1077 0 is_stmt 0 discriminator 1
	ldr	r3, .L466+8
.LPIC34:
	add	r3, pc, r3
	mov	r0, r3
	ldr	r1, .L466+12
	ldr	r3, .L466+16
.LPIC35:
	add	r3, pc, r3
	mov	r2, r3
	bl	__assert(PLT)
.L460:
	.loc 16 1078 0 is_stmt 1
	add	r3, sp, #32
	mov	r4, #7
	mov	r5, r3
	b	.L461
.L462:
	.loc 16 1078 0 is_stmt 0 discriminator 2
	mov	r0, r5
	bl	_ZN6b2Vec2C1Ev(PLT)
	add	r5, r5, #8
	sub	r4, r4, #1
.L461:
	.loc 16 1078 0 discriminator 1
	cmn	r4, #1
	bne	.L462
.LBB94:
	.loc 16 1080 0 is_stmt 1 discriminator 3
	mov	r3, #0
	str	r3, [sp, #184]
	b	.L463
.L464:
	.loc 16 1082 0 discriminator 2
	ldr	r3, [sp, #184]
	add	r3, r3, #2
	mov	r3, r3, asl #3
	ldr	r2, [sp, #156]
	add	r3, r2, r3
	add	r3, r3, #4
	ldr	r1, [sp, #184]
	mvn	r2, #159
	mov	r1, r1, asl #3
	add	r0, sp, #192
	add	r1, r0, r1
	add	r4, r1, r2
	add	r2, sp, #8
	mov	r0, r2
	ldr	r1, [sp, #20]
	mov	r2, r3
	bl	_Z5b2MulRK11b2TransformRK6b2Vec2(PLT)
	mov	r3, r4
	add	r2, sp, #8
	ldmia	r2, {r0, r1}
	stmia	r3, {r0, r1}
	.loc 16 1080 0 discriminator 2
	ldr	r3, [sp, #184]
	add	r3, r3, #1
	str	r3, [sp, #184]
.L463:
	.loc 16 1080 0 is_stmt 0 discriminator 1
	ldr	r2, [sp, #184]
	ldr	r3, [sp, #152]
	cmp	r2, r3
	blt	.L464
.LBE94:
	.loc 16 1085 0 is_stmt 1
	ldr	r2, [sp, #28]
	ldr	r3, .L466
	ldr	r3, [r2, r3]
	ldr	r3, [r3]
	add	r3, r3, #12
	ldr	ip, [r3]
	ldr	r2, [sp, #28]
	ldr	r3, .L466
	ldr	r2, [r2, r3]
	add	r3, sp, #32
	mov	r0, r2
	mov	r1, r3
	ldr	r2, [sp, #152]
	ldr	r3, [sp, #16]
	blx	ip
.LBE93:
	.loc 16 1087 0
	b	.L450
.L465:
	.loc 16 1090 0
	mov	r0, r0	@ nop
.L450:
.LBE87:
.LBE86:
.LBE85:
	.loc 16 1092 0
	add	sp, sp, #196
	@ sp needed
	ldmfd	sp!, {r4, r5, pc}
.L467:
	.align	2
.L466:
	.word	102984
	.word	1028443341
	.word	.LC8-(.LPIC34+8)
	.word	1077
	.word	.LC15-(.LPIC35+8)
	.cfi_endproc
.LFE911:
	.size	_ZN7b2World9DrawShapeEP9b2FixtureRK11b2TransformRK7b2Color, .-_ZN7b2World9DrawShapeEP9b2FixtureRK11b2TransformRK7b2Color
	.section	.text._ZN7b2World9DrawJointEP7b2Joint,"ax",%progbits
	.align	2
	.global	_ZN7b2World9DrawJointEP7b2Joint
	.hidden	_ZN7b2World9DrawJointEP7b2Joint
	.type	_ZN7b2World9DrawJointEP7b2Joint, %function
_ZN7b2World9DrawJointEP7b2Joint:
.LFB912:
	.loc 16 1095 0
	.cfi_startproc
	@ args = 0, pretend = 0, frame = 88
	@ frame_needed = 0, uses_anonymous_args = 0
	str	lr, [sp, #-4]!
.LCFI157:
	.cfi_def_cfa_offset 4
	.cfi_offset 14, -4
	sub	sp, sp, #92
.LCFI158:
	.cfi_def_cfa_offset 96
	str	r0, [sp, #4]
	str	r1, [sp]
.LBB95:
	.loc 16 1096 0
	ldr	r0, [sp]
	bl	_ZN7b2Joint8GetBodyAEv(PLT)
	str	r0, [sp, #84]
	.loc 16 1097 0
	ldr	r0, [sp]
	bl	_ZN7b2Joint8GetBodyBEv(PLT)
	str	r0, [sp, #80]
	.loc 16 1098 0
	ldr	r0, [sp, #84]
	bl	_ZNK6b2Body12GetTransformEv(PLT)
	str	r0, [sp, #76]
	.loc 16 1099 0
	ldr	r0, [sp, #80]
	bl	_ZNK6b2Body12GetTransformEv(PLT)
	str	r0, [sp, #72]
	.loc 16 1100 0
	ldr	r2, [sp, #76]
	add	r3, sp, #60
	ldmia	r2, {r0, r1}
	stmia	r3, {r0, r1}
	.loc 16 1101 0
	ldr	r2, [sp, #72]
	add	r3, sp, #52
	ldmia	r2, {r0, r1}
	stmia	r3, {r0, r1}
	.loc 16 1102 0
	ldr	r3, [sp]
	ldr	r3, [r3]
	ldr	r3, [r3]
	add	r2, sp, #44
	mov	r0, r2
	ldr	r1, [sp]
	blx	r3
	.loc 16 1103 0
	ldr	r3, [sp]
	ldr	r3, [r3]
	add	r3, r3, #4
	ldr	r3, [r3]
	add	r2, sp, #36
	mov	r0, r2
	ldr	r1, [sp]
	blx	r3
	.loc 16 1105 0
	add	r3, sp, #24
	mov	r0, r3
	mov	r1, #1056964608
	ldr	r2, .L476
	ldr	r3, .L476
	bl	_ZN7b2ColorC1Efff(PLT)
.LBB96:
	.loc 16 1107 0
	ldr	r0, [sp]
	bl	_ZNK7b2Joint7GetTypeEv(PLT)
	mov	r3, r0
	cmp	r3, #4
	beq	.L470
	cmp	r3, #5
	beq	.L475
	cmp	r3, #3
	bne	.L474
.LBB97:
	.loc 16 1110 0
	ldr	r2, [sp, #4]
	ldr	r3, .L476+4
	ldr	r3, [r2, r3]
	ldr	r3, [r3]
	add	r3, r3, #24
	ldr	ip, [r3]
	ldr	r2, [sp, #4]
	ldr	r3, .L476+4
	ldr	r0, [r2, r3]
	add	r1, sp, #44
	add	r2, sp, #36
	add	r3, sp, #24
	blx	ip
	.loc 16 1111 0
	b	.L468
.L470:
.LBB98:
	.loc 16 1115 0
	ldr	r3, [sp]
	str	r3, [sp, #68]
	.loc 16 1116 0
	add	r3, sp, #16
	mov	r0, r3
	ldr	r1, [sp, #68]
	bl	_ZNK13b2PulleyJoint16GetGroundAnchorAEv(PLT)
	.loc 16 1117 0
	add	r3, sp, #8
	mov	r0, r3
	ldr	r1, [sp, #68]
	bl	_ZNK13b2PulleyJoint16GetGroundAnchorBEv(PLT)
	.loc 16 1118 0
	ldr	r2, [sp, #4]
	ldr	r3, .L476+4
	ldr	r3, [r2, r3]
	ldr	r3, [r3]
	add	r3, r3, #24
	ldr	ip, [r3]
	ldr	r2, [sp, #4]
	ldr	r3, .L476+4
	ldr	r0, [r2, r3]
	add	r1, sp, #16
	add	r2, sp, #44
	add	r3, sp, #24
	blx	ip
	.loc 16 1119 0
	ldr	r2, [sp, #4]
	ldr	r3, .L476+4
	ldr	r3, [r2, r3]
	ldr	r3, [r3]
	add	r3, r3, #24
	ldr	ip, [r3]
	ldr	r2, [sp, #4]
	ldr	r3, .L476+4
	ldr	r0, [r2, r3]
	add	r1, sp, #8
	add	r2, sp, #36
	add	r3, sp, #24
	blx	ip
	.loc 16 1120 0
	ldr	r2, [sp, #4]
	ldr	r3, .L476+4
	ldr	r3, [r2, r3]
	ldr	r3, [r3]
	add	r3, r3, #24
	ldr	ip, [r3]
	ldr	r2, [sp, #4]
	ldr	r3, .L476+4
	ldr	r0, [r2, r3]
	add	r1, sp, #16
	add	r2, sp, #8
	add	r3, sp, #24
	blx	ip
.LBE98:
	.loc 16 1122 0
	b	.L468
.L474:
	.loc 16 1129 0
	ldr	r2, [sp, #4]
	ldr	r3, .L476+4
	ldr	r3, [r2, r3]
	ldr	r3, [r3]
	add	r3, r3, #24
	ldr	ip, [r3]
	ldr	r2, [sp, #4]
	ldr	r3, .L476+4
	ldr	r0, [r2, r3]
	add	r1, sp, #60
	add	r2, sp, #44
	add	r3, sp, #24
	blx	ip
	.loc 16 1130 0
	ldr	r2, [sp, #4]
	ldr	r3, .L476+4
	ldr	r3, [r2, r3]
	ldr	r3, [r3]
	add	r3, r3, #24
	ldr	ip, [r3]
	ldr	r2, [sp, #4]
	ldr	r3, .L476+4
	ldr	r0, [r2, r3]
	add	r1, sp, #44
	add	r2, sp, #36
	add	r3, sp, #24
	blx	ip
	.loc 16 1131 0
	ldr	r2, [sp, #4]
	ldr	r3, .L476+4
	ldr	r3, [r2, r3]
	ldr	r3, [r3]
	add	r3, r3, #24
	ldr	ip, [r3]
	ldr	r2, [sp, #4]
	ldr	r3, .L476+4
	ldr	r0, [r2, r3]
	add	r1, sp, #52
	add	r2, sp, #36
	add	r3, sp, #24
	blx	ip
	b	.L468
.L475:
	.loc 16 1126 0
	mov	r0, r0	@ nop
.L468:
.LBE97:
.LBE96:
.LBE95:
	.loc 16 1133 0
	add	sp, sp, #92
	@ sp needed
	ldr	pc, [sp], #4
.L477:
	.align	2
.L476:
	.word	1061997773
	.word	102984
	.cfi_endproc
.LFE912:
	.size	_ZN7b2World9DrawJointEP7b2Joint, .-_ZN7b2World9DrawJointEP7b2Joint
	.section	.text._ZN7b2World13DrawDebugDataEv,"ax",%progbits
	.align	2
	.global	_ZN7b2World13DrawDebugDataEv
	.hidden	_ZN7b2World13DrawDebugDataEv
	.type	_ZN7b2World13DrawDebugDataEv, %function
_ZN7b2World13DrawDebugDataEv:
.LFB913:
	.loc 16 1136 0
	.cfi_startproc
	@ args = 0, pretend = 0, frame = 208
	@ frame_needed = 0, uses_anonymous_args = 0
	stmfd	sp!, {r4, r5, lr}
.LCFI159:
	.cfi_def_cfa_offset 12
	.cfi_offset 4, -12
	.cfi_offset 5, -8
	.cfi_offset 14, -4
	sub	sp, sp, #212
.LCFI160:
	.cfi_def_cfa_offset 224
	str	r0, [sp, #4]
.LBB99:
	.loc 16 1137 0
	ldr	r2, [sp, #4]
	ldr	r3, .L510
	ldr	r3, [r2, r3]
	cmp	r3, #0
	bne	.L479
	.loc 16 1139 0
	b	.L478
.L479:
	.loc 16 1142 0
	ldr	r2, [sp, #4]
	ldr	r3, .L510
	ldr	r3, [r2, r3]
	mov	r0, r3
	bl	_ZNK6b2Draw8GetFlagsEv(PLT)
	str	r0, [sp, #172]
.LBB100:
	.loc 16 1144 0
	ldr	r3, [sp, #172]
	and	r3, r3, #1
	cmp	r3, #0
	beq	.L481
.LBB101:
.LBB102:
	.loc 16 1146 0
	ldr	r2, [sp, #4]
	ldr	r3, .L510+4
	ldr	r3, [r2, r3]
	str	r3, [sp, #204]
	b	.L482
.L490:
.LBB103:
	.loc 16 1148 0
	ldr	r0, [sp, #204]
	bl	_ZNK6b2Body12GetTransformEv(PLT)
	str	r0, [sp, #168]
.LBB104:
	.loc 16 1149 0
	ldr	r0, [sp, #204]
	bl	_ZN6b2Body14GetFixtureListEv(PLT)
	str	r0, [sp, #200]
	b	.L483
.L489:
	.loc 16 1151 0
	ldr	r0, [sp, #204]
	bl	_ZNK6b2Body8IsActiveEv(PLT)
	mov	r3, r0
	eor	r3, r3, #1
	uxtb	r3, r3
	cmp	r3, #0
	beq	.L484
	.loc 16 1153 0
	add	r3, sp, #100
	mov	r0, r3
	mov	r1, #1056964608
	mov	r2, #1056964608
	ldr	r3, .L510+8
	bl	_ZN7b2ColorC1Efff(PLT)
	add	r3, sp, #100
	ldr	r0, [sp, #4]
	ldr	r1, [sp, #200]
	ldr	r2, [sp, #168]
	bl	_ZN7b2World9DrawShapeEP9b2FixtureRK11b2TransformRK7b2Color(PLT)
	b	.L485
.L484:
	.loc 16 1155 0
	ldr	r0, [sp, #204]
	bl	_ZNK6b2Body7GetTypeEv(PLT)
	mov	r3, r0
	cmp	r3, #0
	movne	r3, #0
	moveq	r3, #1
	uxtb	r3, r3
	cmp	r3, #0
	beq	.L486
	.loc 16 1157 0
	add	r3, sp, #112
	mov	r0, r3
	mov	r1, #1056964608
	ldr	r2, .L510+12
	mov	r3, #1056964608
	bl	_ZN7b2ColorC1Efff(PLT)
	add	r3, sp, #112
	ldr	r0, [sp, #4]
	ldr	r1, [sp, #200]
	ldr	r2, [sp, #168]
	bl	_ZN7b2World9DrawShapeEP9b2FixtureRK11b2TransformRK7b2Color(PLT)
	b	.L485
.L486:
	.loc 16 1159 0
	ldr	r0, [sp, #204]
	bl	_ZNK6b2Body7GetTypeEv(PLT)
	mov	r3, r0
	cmp	r3, #1
	movne	r3, #0
	moveq	r3, #1
	uxtb	r3, r3
	cmp	r3, #0
	beq	.L487
	.loc 16 1161 0
	add	r3, sp, #124
	mov	r0, r3
	mov	r1, #1056964608
	mov	r2, #1056964608
	ldr	r3, .L510+12
	bl	_ZN7b2ColorC1Efff(PLT)
	add	r3, sp, #124
	ldr	r0, [sp, #4]
	ldr	r1, [sp, #200]
	ldr	r2, [sp, #168]
	bl	_ZN7b2World9DrawShapeEP9b2FixtureRK11b2TransformRK7b2Color(PLT)
	b	.L485
.L487:
	.loc 16 1163 0
	ldr	r0, [sp, #204]
	bl	_ZNK6b2Body7IsAwakeEv(PLT)
	mov	r3, r0
	eor	r3, r3, #1
	uxtb	r3, r3
	cmp	r3, #0
	beq	.L488
	.loc 16 1165 0
	add	r3, sp, #136
	mov	r0, r3
	ldr	r1, .L510+16
	ldr	r2, .L510+16
	ldr	r3, .L510+16
	bl	_ZN7b2ColorC1Efff(PLT)
	add	r3, sp, #136
	ldr	r0, [sp, #4]
	ldr	r1, [sp, #200]
	ldr	r2, [sp, #168]
	bl	_ZN7b2World9DrawShapeEP9b2FixtureRK11b2TransformRK7b2Color(PLT)
	b	.L485
.L488:
	.loc 16 1169 0
	add	r3, sp, #148
	mov	r0, r3
	ldr	r1, .L510+12
	ldr	r2, .L510+20
	ldr	r3, .L510+20
	bl	_ZN7b2ColorC1Efff(PLT)
	add	r3, sp, #148
	ldr	r0, [sp, #4]
	ldr	r1, [sp, #200]
	ldr	r2, [sp, #168]
	bl	_ZN7b2World9DrawShapeEP9b2FixtureRK11b2TransformRK7b2Color(PLT)
.L485:
	.loc 16 1149 0
	ldr	r0, [sp, #200]
	bl	_ZN9b2Fixture7GetNextEv(PLT)
	str	r0, [sp, #200]
.L483:
	.loc 16 1149 0 is_stmt 0 discriminator 1
	ldr	r3, [sp, #200]
	cmp	r3, #0
	bne	.L489
.LBE104:
.LBE103:
	.loc 16 1146 0 is_stmt 1
	ldr	r0, [sp, #204]
	bl	_ZN6b2Body7GetNextEv(PLT)
	str	r0, [sp, #204]
.L482:
	.loc 16 1146 0 is_stmt 0 discriminator 1
	ldr	r3, [sp, #204]
	cmp	r3, #0
	bne	.L490
.L481:
.LBE102:
.LBE101:
.LBE100:
.LBB105:
	.loc 16 1175 0 is_stmt 1
	ldr	r3, [sp, #172]
	and	r3, r3, #2
	cmp	r3, #0
	beq	.L491
.LBB106:
.LBB107:
	.loc 16 1177 0
	ldr	r2, [sp, #4]
	ldr	r3, .L510+24
	ldr	r3, [r2, r3]
	str	r3, [sp, #196]
	b	.L492
.L493:
	.loc 16 1179 0 discriminator 2
	ldr	r0, [sp, #4]
	ldr	r1, [sp, #196]
	bl	_ZN7b2World9DrawJointEP7b2Joint(PLT)
	.loc 16 1177 0 discriminator 2
	ldr	r0, [sp, #196]
	bl	_ZN7b2Joint7GetNextEv(PLT)
	str	r0, [sp, #196]
.L492:
	.loc 16 1177 0 is_stmt 0 discriminator 1
	ldr	r3, [sp, #196]
	cmp	r3, #0
	bne	.L493
.L491:
.LBE107:
.LBE106:
.LBE105:
.LBB108:
	.loc 16 1183 0 is_stmt 1
	ldr	r3, [sp, #172]
	and	r3, r3, #8
	cmp	r3, #0
	beq	.L494
.LBB109:
	.loc 16 1185 0
	add	r3, sp, #88
	mov	r0, r3
	ldr	r1, .L510+8
	ldr	r2, .L510+12
	ldr	r3, .L510+12
	bl	_ZN7b2ColorC1Efff(PLT)
.LBB110:
	.loc 16 1186 0
	ldr	r2, [sp, #4]
	ldr	r3, .L510+28
	ldr	r3, [r2, r3]
	str	r3, [sp, #192]
	b	.L495
.L496:
	.loc 16 1186 0 is_stmt 0 discriminator 2
	ldr	r0, [sp, #192]
	bl	_ZN9b2Contact7GetNextEv(PLT)
	str	r0, [sp, #192]
.L495:
	.loc 16 1186 0 discriminator 1
	ldr	r3, [sp, #192]
	cmp	r3, #0
	bne	.L496
.L494:
.LBE110:
.LBE109:
.LBE108:
.LBB111:
	.loc 16 1198 0 is_stmt 1
	ldr	r3, [sp, #172]
	and	r3, r3, #4
	cmp	r3, #0
	beq	.L497
.LBB112:
	.loc 16 1200 0
	add	r3, sp, #76
	mov	r0, r3
	ldr	r1, .L510+12
	ldr	r2, .L510+8
	ldr	r3, .L510+12
	bl	_ZN7b2ColorC1Efff(PLT)
	.loc 16 1201 0
	ldr	r3, [sp, #4]
	add	r3, r3, #102400
	add	r3, r3, #472
	str	r3, [sp, #164]
.LBB113:
	.loc 16 1203 0
	ldr	r2, [sp, #4]
	ldr	r3, .L510+4
	ldr	r3, [r2, r3]
	str	r3, [sp, #188]
	b	.L498
.L507:
.LBB114:
	.loc 16 1205 0
	ldr	r0, [sp, #188]
	bl	_ZNK6b2Body8IsActiveEv(PLT)
	mov	r3, r0
	eor	r3, r3, #1
	uxtb	r3, r3
	cmp	r3, #0
	beq	.L499
	.loc 16 1207 0
	b	.L500
.L499:
.LBB115:
	.loc 16 1210 0
	ldr	r0, [sp, #188]
	bl	_ZN6b2Body14GetFixtureListEv(PLT)
	str	r0, [sp, #184]
	b	.L501
.L506:
.LBB116:
.LBB117:
	.loc 16 1212 0
	mov	r3, #0
	str	r3, [sp, #180]
	b	.L502
.L505:
.LBB118:
	.loc 16 1214 0
	ldr	r3, [sp, #184]
	ldr	r1, [r3, #24]
	ldr	r2, [sp, #180]
	mov	r3, r2
	mov	r3, r3, asl #3
	rsb	r3, r2, r3
	mov	r3, r3, asl #2
	add	r3, r1, r3
	str	r3, [sp, #160]
	.loc 16 1215 0
	ldr	r3, [sp, #160]
	ldr	r3, [r3, #24]
	ldr	r0, [sp, #164]
	mov	r1, r3
	bl	_ZNK12b2BroadPhase10GetFatAABBEi(PLT)
	mov	r3, r0
	add	ip, sp, #60
	ldmia	r3, {r0, r1, r2, r3}
	stmia	ip, {r0, r1, r2, r3}
	.loc 16 1216 0
	add	r3, sp, #12
	mov	r4, #3
	mov	r5, r3
	b	.L503
.L504:
	.loc 16 1216 0 is_stmt 0 discriminator 2
	mov	r0, r5
	bl	_ZN6b2Vec2C1Ev(PLT)
	add	r5, r5, #8
	sub	r4, r4, #1
.L503:
	.loc 16 1216 0 discriminator 1
	cmn	r4, #1
	bne	.L504
	.loc 16 1217 0 is_stmt 1 discriminator 3
	ldr	r2, [sp, #60]	@ float
	ldr	r3, [sp, #64]	@ float
	add	r1, sp, #12
	mov	r0, r1
	mov	r1, r2
	mov	r2, r3
	bl	_ZN6b2Vec23SetEff(PLT)
	.loc 16 1218 0 discriminator 3
	ldr	r2, [sp, #68]	@ float
	ldr	r3, [sp, #64]	@ float
	add	r1, sp, #12
	add	r1, r1, #8
	mov	r0, r1
	mov	r1, r2
	mov	r2, r3
	bl	_ZN6b2Vec23SetEff(PLT)
	.loc 16 1219 0 discriminator 3
	ldr	r2, [sp, #68]	@ float
	ldr	r3, [sp, #72]	@ float
	add	r1, sp, #12
	add	r1, r1, #16
	mov	r0, r1
	mov	r1, r2
	mov	r2, r3
	bl	_ZN6b2Vec23SetEff(PLT)
	.loc 16 1220 0 discriminator 3
	ldr	r2, [sp, #60]	@ float
	ldr	r3, [sp, #72]	@ float
	add	r1, sp, #12
	add	r1, r1, #24
	mov	r0, r1
	mov	r1, r2
	mov	r2, r3
	bl	_ZN6b2Vec23SetEff(PLT)
	.loc 16 1222 0 discriminator 3
	ldr	r2, [sp, #4]
	ldr	r3, .L510
	ldr	r3, [r2, r3]
	ldr	r3, [r3]
	add	r3, r3, #8
	ldr	ip, [r3]
	ldr	r2, [sp, #4]
	ldr	r3, .L510
	ldr	r1, [r2, r3]
	add	r2, sp, #12
	add	r3, sp, #76
	mov	r0, r1
	mov	r1, r2
	mov	r2, #4
	blx	ip
.LBE118:
	.loc 16 1212 0 discriminator 3
	ldr	r3, [sp, #180]
	add	r3, r3, #1
	str	r3, [sp, #180]
.L502:
	.loc 16 1212 0 is_stmt 0 discriminator 1
	ldr	r3, [sp, #184]
	ldr	r2, [r3, #28]
	ldr	r3, [sp, #180]
	cmp	r2, r3
	bgt	.L505
.LBE117:
.LBE116:
	.loc 16 1210 0 is_stmt 1
	ldr	r0, [sp, #184]
	bl	_ZN9b2Fixture7GetNextEv(PLT)
	str	r0, [sp, #184]
.L501:
	.loc 16 1210 0 is_stmt 0 discriminator 1
	ldr	r3, [sp, #184]
	cmp	r3, #0
	bne	.L506
.L500:
.LBE115:
.LBE114:
	.loc 16 1203 0 is_stmt 1
	ldr	r0, [sp, #188]
	bl	_ZN6b2Body7GetNextEv(PLT)
	str	r0, [sp, #188]
.L498:
	.loc 16 1203 0 is_stmt 0 discriminator 1
	ldr	r3, [sp, #188]
	cmp	r3, #0
	bne	.L507
.L497:
.LBE113:
.LBE112:
.LBE111:
.LBB119:
	.loc 16 1228 0 is_stmt 1
	ldr	r3, [sp, #172]
	and	r3, r3, #16
	cmp	r3, #0
	beq	.L478
.LBB120:
.LBB121:
	.loc 16 1230 0
	ldr	r2, [sp, #4]
	ldr	r3, .L510+4
	ldr	r3, [r2, r3]
	str	r3, [sp, #176]
	b	.L508
.L509:
.LBB122:
	.loc 16 1232 0 discriminator 2
	ldr	r0, [sp, #176]
	bl	_ZNK6b2Body12GetTransformEv(PLT)
	mov	r3, r0
	add	ip, sp, #44
	ldmia	r3, {r0, r1, r2, r3}
	stmia	ip, {r0, r1, r2, r3}
	.loc 16 1233 0 discriminator 2
	ldr	r0, [sp, #176]
	bl	_ZNK6b2Body14GetWorldCenterEv(PLT)
	mov	r2, r0
	add	r3, sp, #44
	ldmia	r2, {r0, r1}
	stmia	r3, {r0, r1}
	.loc 16 1234 0 discriminator 2
	ldr	r2, [sp, #4]
	ldr	r3, .L510
	ldr	r3, [r2, r3]
	ldr	r3, [r3]
	add	r3, r3, #28
	ldr	r3, [r3]
	ldr	r1, [sp, #4]
	ldr	r2, .L510
	ldr	r1, [r1, r2]
	add	r2, sp, #44
	mov	r0, r1
	mov	r1, r2
	blx	r3
.LBE122:
	.loc 16 1230 0 discriminator 2
	ldr	r0, [sp, #176]
	bl	_ZN6b2Body7GetNextEv(PLT)
	str	r0, [sp, #176]
.L508:
	.loc 16 1230 0 is_stmt 0 discriminator 1
	ldr	r3, [sp, #176]
	cmp	r3, #0
	bne	.L509
.L478:
.LBE121:
.LBE120:
.LBE119:
.LBE99:
	.loc 16 1237 0 is_stmt 1
	add	sp, sp, #212
	@ sp needed
	ldmfd	sp!, {r4, r5, pc}
.L511:
	.align	2
.L510:
	.word	102984
	.word	102952
	.word	1050253722
	.word	1063675494
	.word	1058642330
	.word	1060320051
	.word	102956
	.word	102932
	.cfi_endproc
.LFE913:
	.size	_ZN7b2World13DrawDebugDataEv, .-_ZN7b2World13DrawDebugDataEv
	.section	.text._ZNK7b2World13GetProxyCountEv,"ax",%progbits
	.align	2
	.global	_ZNK7b2World13GetProxyCountEv
	.hidden	_ZNK7b2World13GetProxyCountEv
	.type	_ZNK7b2World13GetProxyCountEv, %function
_ZNK7b2World13GetProxyCountEv:
.LFB914:
	.loc 16 1240 0
	.cfi_startproc
	@ args = 0, pretend = 0, frame = 8
	@ frame_needed = 0, uses_anonymous_args = 0
	str	lr, [sp, #-4]!
.LCFI161:
	.cfi_def_cfa_offset 4
	.cfi_offset 14, -4
	sub	sp, sp, #12
.LCFI162:
	.cfi_def_cfa_offset 16
	str	r0, [sp, #4]
	.loc 16 1241 0
	ldr	r3, [sp, #4]
	add	r3, r3, #102400
	add	r3, r3, #472
	mov	r0, r3
	bl	_ZNK12b2BroadPhase13GetProxyCountEv(PLT)
	mov	r3, r0
	.loc 16 1242 0
	mov	r0, r3
	add	sp, sp, #12
	@ sp needed
	ldr	pc, [sp], #4
	.cfi_endproc
.LFE914:
	.size	_ZNK7b2World13GetProxyCountEv, .-_ZNK7b2World13GetProxyCountEv
	.section	.text._ZNK7b2World13GetTreeHeightEv,"ax",%progbits
	.align	2
	.global	_ZNK7b2World13GetTreeHeightEv
	.hidden	_ZNK7b2World13GetTreeHeightEv
	.type	_ZNK7b2World13GetTreeHeightEv, %function
_ZNK7b2World13GetTreeHeightEv:
.LFB915:
	.loc 16 1245 0
	.cfi_startproc
	@ args = 0, pretend = 0, frame = 8
	@ frame_needed = 0, uses_anonymous_args = 0
	str	lr, [sp, #-4]!
.LCFI163:
	.cfi_def_cfa_offset 4
	.cfi_offset 14, -4
	sub	sp, sp, #12
.LCFI164:
	.cfi_def_cfa_offset 16
	str	r0, [sp, #4]
	.loc 16 1246 0
	ldr	r3, [sp, #4]
	add	r3, r3, #102400
	add	r3, r3, #472
	mov	r0, r3
	bl	_ZNK12b2BroadPhase13GetTreeHeightEv(PLT)
	mov	r3, r0
	.loc 16 1247 0
	mov	r0, r3
	add	sp, sp, #12
	@ sp needed
	ldr	pc, [sp], #4
	.cfi_endproc
.LFE915:
	.size	_ZNK7b2World13GetTreeHeightEv, .-_ZNK7b2World13GetTreeHeightEv
	.section	.text._ZNK7b2World14GetTreeBalanceEv,"ax",%progbits
	.align	2
	.global	_ZNK7b2World14GetTreeBalanceEv
	.hidden	_ZNK7b2World14GetTreeBalanceEv
	.type	_ZNK7b2World14GetTreeBalanceEv, %function
_ZNK7b2World14GetTreeBalanceEv:
.LFB916:
	.loc 16 1250 0
	.cfi_startproc
	@ args = 0, pretend = 0, frame = 8
	@ frame_needed = 0, uses_anonymous_args = 0
	str	lr, [sp, #-4]!
.LCFI165:
	.cfi_def_cfa_offset 4
	.cfi_offset 14, -4
	sub	sp, sp, #12
.LCFI166:
	.cfi_def_cfa_offset 16
	str	r0, [sp, #4]
	.loc 16 1251 0
	ldr	r3, [sp, #4]
	add	r3, r3, #102400
	add	r3, r3, #472
	mov	r0, r3
	bl	_ZNK12b2BroadPhase14GetTreeBalanceEv(PLT)
	mov	r3, r0
	.loc 16 1252 0
	mov	r0, r3
	add	sp, sp, #12
	@ sp needed
	ldr	pc, [sp], #4
	.cfi_endproc
.LFE916:
	.size	_ZNK7b2World14GetTreeBalanceEv, .-_ZNK7b2World14GetTreeBalanceEv
	.section	.text._ZNK7b2World14GetTreeQualityEv,"ax",%progbits
	.align	2
	.global	_ZNK7b2World14GetTreeQualityEv
	.hidden	_ZNK7b2World14GetTreeQualityEv
	.type	_ZNK7b2World14GetTreeQualityEv, %function
_ZNK7b2World14GetTreeQualityEv:
.LFB917:
	.loc 16 1255 0
	.cfi_startproc
	@ args = 0, pretend = 0, frame = 8
	@ frame_needed = 0, uses_anonymous_args = 0
	str	lr, [sp, #-4]!
.LCFI167:
	.cfi_def_cfa_offset 4
	.cfi_offset 14, -4
	sub	sp, sp, #12
.LCFI168:
	.cfi_def_cfa_offset 16
	str	r0, [sp, #4]
	.loc 16 1256 0
	ldr	r3, [sp, #4]
	add	r3, r3, #102400
	add	r3, r3, #472
	mov	r0, r3
	bl	_ZNK12b2BroadPhase14GetTreeQualityEv(PLT)
	mov	r3, r0
	.loc 16 1257 0
	mov	r0, r3
	add	sp, sp, #12
	@ sp needed
	ldr	pc, [sp], #4
	.cfi_endproc
.LFE917:
	.size	_ZNK7b2World14GetTreeQualityEv, .-_ZNK7b2World14GetTreeQualityEv
	.section	.rodata
	.align	2
.LC16:
	.ascii	"(m_flags & e_locked) == 0\000"
	.section	.text._ZN7b2World11ShiftOriginERK6b2Vec2,"ax",%progbits
	.align	2
	.global	_ZN7b2World11ShiftOriginERK6b2Vec2
	.hidden	_ZN7b2World11ShiftOriginERK6b2Vec2
	.type	_ZN7b2World11ShiftOriginERK6b2Vec2, %function
_ZN7b2World11ShiftOriginERK6b2Vec2:
.LFB918:
	.loc 16 1260 0
	.cfi_startproc
	@ args = 0, pretend = 0, frame = 16
	@ frame_needed = 0, uses_anonymous_args = 0
	str	lr, [sp, #-4]!
.LCFI169:
	.cfi_def_cfa_offset 4
	.cfi_offset 14, -4
	sub	sp, sp, #20
.LCFI170:
	.cfi_def_cfa_offset 24
	str	r0, [sp, #4]
	str	r1, [sp]
.LBB123:
	.loc 16 1261 0
	ldr	r2, [sp, #4]
	ldr	r3, .L528
	ldr	r3, [r2, r3]
	and	r3, r3, #2
	cmp	r3, #0
	beq	.L521
	.loc 16 1261 0 is_stmt 0 discriminator 1
	ldr	r3, .L528+4
.LPIC36:
	add	r3, pc, r3
	mov	r0, r3
	ldr	r1, .L528+8
	ldr	r3, .L528+12
.LPIC37:
	add	r3, pc, r3
	mov	r2, r3
	bl	__assert(PLT)
.L521:
	.loc 16 1262 0 is_stmt 1
	ldr	r2, [sp, #4]
	ldr	r3, .L528
	ldr	r3, [r2, r3]
	and	r3, r3, #2
	cmp	r3, #0
	beq	.L522
	.loc 16 1264 0
	b	.L520
.L522:
.LBB124:
	.loc 16 1267 0
	ldr	r2, [sp, #4]
	ldr	r3, .L528+16
	ldr	r3, [r2, r3]
	str	r3, [sp, #12]
	b	.L524
.L525:
	.loc 16 1269 0 discriminator 2
	ldr	r3, [sp, #12]
	add	r3, r3, #12
	mov	r0, r3
	ldr	r1, [sp]
	bl	_ZN6b2Vec2mIERKS_(PLT)
	.loc 16 1270 0 discriminator 2
	ldr	r3, [sp, #12]
	add	r3, r3, #36
	mov	r0, r3
	ldr	r1, [sp]
	bl	_ZN6b2Vec2mIERKS_(PLT)
	.loc 16 1271 0 discriminator 2
	ldr	r3, [sp, #12]
	add	r3, r3, #44
	mov	r0, r3
	ldr	r1, [sp]
	bl	_ZN6b2Vec2mIERKS_(PLT)
	.loc 16 1267 0 discriminator 2
	ldr	r3, [sp, #12]
	ldr	r3, [r3, #96]
	str	r3, [sp, #12]
.L524:
	.loc 16 1267 0 is_stmt 0 discriminator 1
	ldr	r3, [sp, #12]
	cmp	r3, #0
	bne	.L525
.LBE124:
.LBB125:
	.loc 16 1274 0 is_stmt 1
	ldr	r2, [sp, #4]
	ldr	r3, .L528+20
	ldr	r3, [r2, r3]
	str	r3, [sp, #8]
	b	.L526
.L527:
	.loc 16 1276 0 discriminator 2
	ldr	r3, [sp, #8]
	ldr	r3, [r3]
	add	r3, r3, #20
	ldr	r3, [r3]
	ldr	r0, [sp, #8]
	ldr	r1, [sp]
	blx	r3
	.loc 16 1274 0 discriminator 2
	ldr	r3, [sp, #8]
	ldr	r3, [r3, #12]
	str	r3, [sp, #8]
.L526:
	.loc 16 1274 0 is_stmt 0 discriminator 1
	ldr	r3, [sp, #8]
	cmp	r3, #0
	bne	.L527
.LBE125:
	.loc 16 1279 0 is_stmt 1
	ldr	r3, [sp, #4]
	add	r3, r3, #102400
	add	r3, r3, #472
	mov	r0, r3
	ldr	r1, [sp]
	bl	_ZN12b2BroadPhase11ShiftOriginERK6b2Vec2(PLT)
.L520:
.LBE123:
	.loc 16 1280 0
	add	sp, sp, #20
	@ sp needed
	ldr	pc, [sp], #4
.L529:
	.align	2
.L528:
	.word	102868
	.word	.LC8-(.LPIC36+8)
	.word	1261
	.word	.LC16-(.LPIC37+8)
	.word	102952
	.word	102956
	.cfi_endproc
.LFE918:
	.size	_ZN7b2World11ShiftOriginERK6b2Vec2, .-_ZN7b2World11ShiftOriginERK6b2Vec2
	.global	__aeabi_f2d
	.section	.rodata
	.align	2
.LC17:
	.ascii	"b2Vec2 g(%.15lef, %.15lef);\012\000"
	.align	2
.LC18:
	.ascii	"m_world->SetGravity(g);\012\000"
	.align	2
.LC19:
	.ascii	"b2Body** bodies = (b2Body**)b2Alloc(%d * sizeof(b2B"
	.ascii	"ody*));\012\000"
	.align	2
.LC20:
	.ascii	"b2Joint** joints = (b2Joint**)b2Alloc(%d * sizeof(b"
	.ascii	"2Joint*));\012\000"
	.align	2
.LC21:
	.ascii	"{\012\000"
	.align	2
.LC22:
	.ascii	"}\012\000"
	.align	2
.LC23:
	.ascii	"b2Free(joints);\012\000"
	.align	2
.LC24:
	.ascii	"b2Free(bodies);\012\000"
	.align	2
.LC25:
	.ascii	"joints = NULL;\012\000"
	.align	2
.LC26:
	.ascii	"bodies = NULL;\012\000"
	.section	.text._ZN7b2World4DumpEv,"ax",%progbits
	.align	2
	.global	_ZN7b2World4DumpEv
	.hidden	_ZN7b2World4DumpEv
	.type	_ZN7b2World4DumpEv, %function
_ZN7b2World4DumpEv:
.LFB919:
	.loc 16 1283 0
	.cfi_startproc
	@ args = 0, pretend = 0, frame = 32
	@ frame_needed = 0, uses_anonymous_args = 0
	stmfd	sp!, {r4, r5, lr}
.LCFI171:
	.cfi_def_cfa_offset 12
	.cfi_offset 4, -12
	.cfi_offset 5, -8
	.cfi_offset 14, -4
	sub	sp, sp, #44
.LCFI172:
	.cfi_def_cfa_offset 56
	str	r0, [sp, #12]
.LBB126:
	.loc 16 1284 0
	ldr	r2, [sp, #12]
	ldr	r3, .L545
	ldr	r3, [r2, r3]
	and	r3, r3, #2
	cmp	r3, #0
	beq	.L531
	.loc 16 1286 0
	b	.L530
.L531:
	.loc 16 1289 0
	ldr	r2, [sp, #12]
	ldr	r3, .L545+4
	ldr	r3, [r2, r3]	@ float
	mov	r0, r3
	bl	__aeabi_f2d(PLT)
	mov	r4, r0
	mov	r5, r1
	ldr	r2, [sp, #12]
	ldr	r3, .L545+8
	ldr	r3, [r2, r3]	@ float
	mov	r0, r3
	bl	__aeabi_f2d(PLT)
	mov	r2, r0
	mov	r3, r1
	strd	r2, [sp]
	ldr	r3, .L545+12
.LPIC38:
	add	r3, pc, r3
	mov	r0, r3
	mov	r2, r4
	mov	r3, r5
	bl	_Z5b2LogPKcz(PLT)
	.loc 16 1290 0
	ldr	r3, .L545+16
.LPIC39:
	add	r3, pc, r3
	mov	r0, r3
	bl	_Z5b2LogPKcz(PLT)
	.loc 16 1292 0
	ldr	r2, [sp, #12]
	ldr	r3, .L545+20
	ldr	r3, [r2, r3]
	ldr	r2, .L545+24
.LPIC40:
	add	r2, pc, r2
	mov	r0, r2
	mov	r1, r3
	bl	_Z5b2LogPKcz(PLT)
	.loc 16 1293 0
	ldr	r2, [sp, #12]
	ldr	r3, .L545+28
	ldr	r3, [r2, r3]
	ldr	r2, .L545+32
.LPIC41:
	add	r2, pc, r2
	mov	r0, r2
	mov	r1, r3
	bl	_Z5b2LogPKcz(PLT)
	.loc 16 1294 0
	mov	r3, #0
	str	r3, [sp, #36]
.LBB127:
	.loc 16 1295 0
	ldr	r2, [sp, #12]
	ldr	r3, .L545+36
	ldr	r3, [r2, r3]
	str	r3, [sp, #32]
	b	.L533
.L534:
	.loc 16 1297 0 discriminator 2
	ldr	r3, [sp, #32]
	ldr	r2, [sp, #36]
	str	r2, [r3, #8]
	.loc 16 1298 0 discriminator 2
	ldr	r0, [sp, #32]
	bl	_ZN6b2Body4DumpEv(PLT)
	.loc 16 1299 0 discriminator 2
	ldr	r3, [sp, #36]
	add	r3, r3, #1
	str	r3, [sp, #36]
	.loc 16 1295 0 discriminator 2
	ldr	r3, [sp, #32]
	ldr	r3, [r3, #96]
	str	r3, [sp, #32]
.L533:
	.loc 16 1295 0 is_stmt 0 discriminator 1
	ldr	r3, [sp, #32]
	cmp	r3, #0
	bne	.L534
.LBE127:
	.loc 16 1302 0 is_stmt 1
	mov	r3, #0
	str	r3, [sp, #36]
.LBB128:
	.loc 16 1303 0
	ldr	r2, [sp, #12]
	ldr	r3, .L545+40
	ldr	r3, [r2, r3]
	str	r3, [sp, #28]
	b	.L535
.L536:
	.loc 16 1305 0 discriminator 2
	ldr	r3, [sp, #28]
	ldr	r2, [sp, #36]
	str	r2, [r3, #56]
	.loc 16 1306 0 discriminator 2
	ldr	r3, [sp, #36]
	add	r3, r3, #1
	str	r3, [sp, #36]
	.loc 16 1303 0 discriminator 2
	ldr	r3, [sp, #28]
	ldr	r3, [r3, #12]
	str	r3, [sp, #28]
.L535:
	.loc 16 1303 0 is_stmt 0 discriminator 1
	ldr	r3, [sp, #28]
	cmp	r3, #0
	bne	.L536
.LBE128:
.LBB129:
	.loc 16 1310 0 is_stmt 1
	ldr	r2, [sp, #12]
	ldr	r3, .L545+40
	ldr	r3, [r2, r3]
	str	r3, [sp, #24]
	b	.L537
.L540:
	.loc 16 1312 0
	ldr	r3, [sp, #24]
	ldr	r3, [r3, #4]
	cmp	r3, #6
	bne	.L538
	.loc 16 1314 0
	b	.L539
.L538:
	.loc 16 1317 0
	ldr	r3, .L545+44
.LPIC42:
	add	r3, pc, r3
	mov	r0, r3
	bl	_Z5b2LogPKcz(PLT)
	.loc 16 1318 0
	ldr	r3, [sp, #24]
	ldr	r3, [r3]
	add	r3, r3, #16
	ldr	r3, [r3]
	ldr	r0, [sp, #24]
	blx	r3
	.loc 16 1319 0
	ldr	r3, .L545+48
.LPIC43:
	add	r3, pc, r3
	mov	r0, r3
	bl	_Z5b2LogPKcz(PLT)
.L539:
	.loc 16 1310 0
	ldr	r3, [sp, #24]
	ldr	r3, [r3, #12]
	str	r3, [sp, #24]
.L537:
	.loc 16 1310 0 is_stmt 0 discriminator 1
	ldr	r3, [sp, #24]
	cmp	r3, #0
	bne	.L540
.LBE129:
.LBB130:
	.loc 16 1323 0 is_stmt 1
	ldr	r2, [sp, #12]
	ldr	r3, .L545+40
	ldr	r3, [r2, r3]
	str	r3, [sp, #20]
	b	.L541
.L544:
	.loc 16 1325 0
	ldr	r3, [sp, #20]
	ldr	r3, [r3, #4]
	cmp	r3, #6
	beq	.L542
	.loc 16 1327 0
	b	.L543
.L542:
	.loc 16 1330 0
	ldr	r3, .L545+52
.LPIC44:
	add	r3, pc, r3
	mov	r0, r3
	bl	_Z5b2LogPKcz(PLT)
	.loc 16 1331 0
	ldr	r3, [sp, #20]
	ldr	r3, [r3]
	add	r3, r3, #16
	ldr	r3, [r3]
	ldr	r0, [sp, #20]
	blx	r3
	.loc 16 1332 0
	ldr	r3, .L545+56
.LPIC45:
	add	r3, pc, r3
	mov	r0, r3
	bl	_Z5b2LogPKcz(PLT)
.L543:
	.loc 16 1323 0
	ldr	r3, [sp, #20]
	ldr	r3, [r3, #12]
	str	r3, [sp, #20]
.L541:
	.loc 16 1323 0 is_stmt 0 discriminator 1
	ldr	r3, [sp, #20]
	cmp	r3, #0
	bne	.L544
.LBE130:
	.loc 16 1335 0 is_stmt 1
	ldr	r3, .L545+60
.LPIC46:
	add	r3, pc, r3
	mov	r0, r3
	bl	_Z5b2LogPKcz(PLT)
	.loc 16 1336 0
	ldr	r3, .L545+64
.LPIC47:
	add	r3, pc, r3
	mov	r0, r3
	bl	_Z5b2LogPKcz(PLT)
	.loc 16 1337 0
	ldr	r3, .L545+68
.LPIC48:
	add	r3, pc, r3
	mov	r0, r3
	bl	_Z5b2LogPKcz(PLT)
	.loc 16 1338 0
	ldr	r3, .L545+72
.LPIC49:
	add	r3, pc, r3
	mov	r0, r3
	bl	_Z5b2LogPKcz(PLT)
.L530:
.LBE126:
	.loc 16 1339 0
	add	sp, sp, #44
	@ sp needed
	ldmfd	sp!, {r4, r5, pc}
.L546:
	.align	2
.L545:
	.word	102868
	.word	102968
	.word	102972
	.word	.LC17-(.LPIC38+8)
	.word	.LC18-(.LPIC39+8)
	.word	102960
	.word	.LC19-(.LPIC40+8)
	.word	102964
	.word	.LC20-(.LPIC41+8)
	.word	102952
	.word	102956
	.word	.LC21-(.LPIC42+8)
	.word	.LC22-(.LPIC43+8)
	.word	.LC21-(.LPIC44+8)
	.word	.LC22-(.LPIC45+8)
	.word	.LC23-(.LPIC46+8)
	.word	.LC24-(.LPIC47+8)
	.word	.LC25-(.LPIC48+8)
	.word	.LC26-(.LPIC49+8)
	.cfi_endproc
.LFE919:
	.size	_ZN7b2World4DumpEv, .-_ZN7b2World4DumpEv
	.section	.text._Z5b2AbsIfET_S0_,"axG",%progbits,_Z5b2AbsIfET_S0_,comdat
	.align	2
	.weak	_Z5b2AbsIfET_S0_
	.hidden	_Z5b2AbsIfET_S0_
	.type	_Z5b2AbsIfET_S0_, %function
_Z5b2AbsIfET_S0_:
.LFB920:
	.loc 1 616 0
	.cfi_startproc
	@ args = 0, pretend = 0, frame = 8
	@ frame_needed = 0, uses_anonymous_args = 0
	str	lr, [sp, #-4]!
.LCFI173:
	.cfi_def_cfa_offset 4
	.cfi_offset 14, -4
	sub	sp, sp, #12
.LCFI174:
	.cfi_def_cfa_offset 16
	str	r0, [sp, #4]	@ float
	.loc 1 618 0
	ldr	r0, [sp, #4]	@ float
	mov	r1, #0
	bl	__aeabi_fcmpgt(PLT)
	mov	r3, r0
	cmp	r3, #0
	beq	.L553
	.loc 1 618 0 is_stmt 0 discriminator 1
	ldr	r3, [sp, #4]	@ float
	b	.L550
.L553:
	.loc 1 618 0 discriminator 2
	ldr	r3, [sp, #4]
	eor	r3, r3, #-2147483648
.L550:
	.loc 1 619 0 is_stmt 1 discriminator 3
	mov	r0, r3
	add	sp, sp, #12
	@ sp needed
	ldr	pc, [sp], #4
	.cfi_endproc
.LFE920:
	.size	_Z5b2AbsIfET_S0_, .-_Z5b2AbsIfET_S0_
	.section	.text._Z5b2MinIfET_S0_S0_,"axG",%progbits,_Z5b2MinIfET_S0_S0_,comdat
	.align	2
	.weak	_Z5b2MinIfET_S0_S0_
	.hidden	_Z5b2MinIfET_S0_S0_
	.type	_Z5b2MinIfET_S0_S0_, %function
_Z5b2MinIfET_S0_S0_:
.LFB921:
	.loc 1 632 0
	.cfi_startproc
	@ args = 0, pretend = 0, frame = 8
	@ frame_needed = 0, uses_anonymous_args = 0
	str	lr, [sp, #-4]!
.LCFI175:
	.cfi_def_cfa_offset 4
	.cfi_offset 14, -4
	sub	sp, sp, #12
.LCFI176:
	.cfi_def_cfa_offset 16
	str	r0, [sp, #4]	@ float
	str	r1, [sp]	@ float
	.loc 1 634 0
	ldr	r0, [sp, #4]	@ float
	ldr	r1, [sp]	@ float
	bl	__aeabi_fcmplt(PLT)
	mov	r3, r0
	cmp	r3, #0
	beq	.L560
	.loc 1 634 0 is_stmt 0 discriminator 1
	ldr	r3, [sp, #4]	@ float
	b	.L557
.L560:
	.loc 1 634 0 discriminator 2
	ldr	r3, [sp]	@ float
.L557:
	.loc 1 635 0 is_stmt 1 discriminator 3
	mov	r0, r3
	add	sp, sp, #12
	@ sp needed
	ldr	pc, [sp], #4
	.cfi_endproc
.LFE921:
	.size	_Z5b2MinIfET_S0_S0_, .-_Z5b2MinIfET_S0_S0_
	.section	.text._Z5b2MaxIfET_S0_S0_,"axG",%progbits,_Z5b2MaxIfET_S0_S0_,comdat
	.align	2
	.weak	_Z5b2MaxIfET_S0_S0_
	.hidden	_Z5b2MaxIfET_S0_S0_
	.type	_Z5b2MaxIfET_S0_S0_, %function
_Z5b2MaxIfET_S0_S0_:
.LFB922:
	.loc 1 643 0
	.cfi_startproc
	@ args = 0, pretend = 0, frame = 8
	@ frame_needed = 0, uses_anonymous_args = 0
	str	lr, [sp, #-4]!
.LCFI177:
	.cfi_def_cfa_offset 4
	.cfi_offset 14, -4
	sub	sp, sp, #12
.LCFI178:
	.cfi_def_cfa_offset 16
	str	r0, [sp, #4]	@ float
	str	r1, [sp]	@ float
	.loc 1 645 0
	ldr	r0, [sp, #4]	@ float
	ldr	r1, [sp]	@ float
	bl	__aeabi_fcmpgt(PLT)
	mov	r3, r0
	cmp	r3, #0
	beq	.L567
	.loc 1 645 0 is_stmt 0 discriminator 1
	ldr	r3, [sp, #4]	@ float
	b	.L564
.L567:
	.loc 1 645 0 discriminator 2
	ldr	r3, [sp]	@ float
.L564:
	.loc 1 646 0 is_stmt 1 discriminator 3
	mov	r0, r3
	add	sp, sp, #12
	@ sp needed
	ldr	pc, [sp], #4
	.cfi_endproc
.LFE922:
	.size	_Z5b2MaxIfET_S0_S0_, .-_Z5b2MaxIfET_S0_S0_
	.section	.text._ZNK12b2BroadPhase5QueryI19b2WorldQueryWrapperEEvPT_RK6b2AABB,"axG",%progbits,_ZNK12b2BroadPhase5QueryI19b2WorldQueryWrapperEEvPT_RK6b2AABB,comdat
	.align	2
	.weak	_ZNK12b2BroadPhase5QueryI19b2WorldQueryWrapperEEvPT_RK6b2AABB
	.hidden	_ZNK12b2BroadPhase5QueryI19b2WorldQueryWrapperEEvPT_RK6b2AABB
	.type	_ZNK12b2BroadPhase5QueryI19b2WorldQueryWrapperEEvPT_RK6b2AABB, %function
_ZNK12b2BroadPhase5QueryI19b2WorldQueryWrapperEEvPT_RK6b2AABB:
.LFB925:
	.loc 5 241 0
	.cfi_startproc
	@ args = 0, pretend = 0, frame = 16
	@ frame_needed = 0, uses_anonymous_args = 0
	str	lr, [sp, #-4]!
.LCFI179:
	.cfi_def_cfa_offset 4
	.cfi_offset 14, -4
	sub	sp, sp, #20
.LCFI180:
	.cfi_def_cfa_offset 24
	str	r0, [sp, #12]
	str	r1, [sp, #8]
	str	r2, [sp, #4]
	.loc 5 243 0
	ldr	r3, [sp, #12]
	mov	r0, r3
	ldr	r1, [sp, #8]
	ldr	r2, [sp, #4]
	bl	_ZNK13b2DynamicTree5QueryI19b2WorldQueryWrapperEEvPT_RK6b2AABB(PLT)
	.loc 5 244 0
	add	sp, sp, #20
	@ sp needed
	ldr	pc, [sp], #4
	.cfi_endproc
.LFE925:
	.size	_ZNK12b2BroadPhase5QueryI19b2WorldQueryWrapperEEvPT_RK6b2AABB, .-_ZNK12b2BroadPhase5QueryI19b2WorldQueryWrapperEEvPT_RK6b2AABB
	.section	.text._ZNK12b2BroadPhase7RayCastI21b2WorldRayCastWrapperEEvPT_RK14b2RayCastInput,"axG",%progbits,_ZNK12b2BroadPhase7RayCastI21b2WorldRayCastWrapperEEvPT_RK14b2RayCastInput,comdat
	.align	2
	.weak	_ZNK12b2BroadPhase7RayCastI21b2WorldRayCastWrapperEEvPT_RK14b2RayCastInput
	.hidden	_ZNK12b2BroadPhase7RayCastI21b2WorldRayCastWrapperEEvPT_RK14b2RayCastInput
	.type	_ZNK12b2BroadPhase7RayCastI21b2WorldRayCastWrapperEEvPT_RK14b2RayCastInput, %function
_ZNK12b2BroadPhase7RayCastI21b2WorldRayCastWrapperEEvPT_RK14b2RayCastInput:
.LFB926:
	.loc 5 247 0
	.cfi_startproc
	@ args = 0, pretend = 0, frame = 16
	@ frame_needed = 0, uses_anonymous_args = 0
	str	lr, [sp, #-4]!
.LCFI181:
	.cfi_def_cfa_offset 4
	.cfi_offset 14, -4
	sub	sp, sp, #20
.LCFI182:
	.cfi_def_cfa_offset 24
	str	r0, [sp, #12]
	str	r1, [sp, #8]
	str	r2, [sp, #4]
	.loc 5 249 0
	ldr	r3, [sp, #12]
	mov	r0, r3
	ldr	r1, [sp, #8]
	ldr	r2, [sp, #4]
	bl	_ZNK13b2DynamicTree7RayCastI21b2WorldRayCastWrapperEEvPT_RK14b2RayCastInput(PLT)
	.loc 5 250 0
	add	sp, sp, #20
	@ sp needed
	ldr	pc, [sp], #4
	.cfi_endproc
.LFE926:
	.size	_ZNK12b2BroadPhase7RayCastI21b2WorldRayCastWrapperEEvPT_RK14b2RayCastInput, .-_ZNK12b2BroadPhase7RayCastI21b2WorldRayCastWrapperEEvPT_RK14b2RayCastInput
	.section	.text._ZNK13b2DynamicTree5QueryI19b2WorldQueryWrapperEEvPT_RK6b2AABB,"axG",%progbits,_ZNK13b2DynamicTree5QueryI19b2WorldQueryWrapperEEvPT_RK6b2AABB,comdat
	.align	2
	.weak	_ZNK13b2DynamicTree5QueryI19b2WorldQueryWrapperEEvPT_RK6b2AABB
	.hidden	_ZNK13b2DynamicTree5QueryI19b2WorldQueryWrapperEEvPT_RK6b2AABB
	.type	_ZNK13b2DynamicTree5QueryI19b2WorldQueryWrapperEEvPT_RK6b2AABB, %function
_ZNK13b2DynamicTree5QueryI19b2WorldQueryWrapperEEvPT_RK6b2AABB:
.LFB927:
	.loc 3 169 0
	.cfi_startproc
	@ args = 0, pretend = 0, frame = 1064
	@ frame_needed = 0, uses_anonymous_args = 0
	stmfd	sp!, {r4, lr}
.LCFI183:
	.cfi_def_cfa_offset 8
	.cfi_offset 4, -8
	.cfi_offset 14, -4
	sub	sp, sp, #1056
.LCFI184:
	.cfi_def_cfa_offset 1064
	sub	sp, sp, #8
.LCFI185:
	.cfi_def_cfa_offset 1072
	str	r0, [sp, #12]
	str	r1, [sp, #8]
	str	r2, [sp, #4]
.LBB131:
	.loc 3 171 0
	add	r3, sp, #24
	sub	r3, r3, #8
	mov	r0, r3
	bl	_ZN15b2GrowableStackIiLi256EEC1Ev(PLT)
	.loc 3 172 0
	ldr	r2, [sp, #12]
	add	r3, sp, #24
	sub	r3, r3, #8
	mov	r0, r3
	mov	r1, r2
	bl	_ZN15b2GrowableStackIiLi256EE4PushERKi(PLT)
	.loc 3 174 0
	b	.L571
.L577:
.LBB132:
	.loc 3 176 0
	add	r3, sp, #24
	sub	r3, r3, #8
	mov	r0, r3
	bl	_ZN15b2GrowableStackIiLi256EE3PopEv(PLT)
	str	r0, [sp, #1060]
	.loc 3 177 0
	ldr	r3, [sp, #1060]
	cmn	r3, #1
	bne	.L572
	.loc 3 179 0
	b	.L571
.L572:
	.loc 3 182 0
	ldr	r3, [sp, #12]
	ldr	r1, [r3, #4]
	ldr	r2, [sp, #1060]
	mov	r3, r2
	mov	r3, r3, asl #3
	add	r3, r3, r2
	mov	r3, r3, asl #2
	add	r3, r1, r3
	str	r3, [sp, #1056]
.LBB133:
	.loc 3 184 0
	ldr	r3, [sp, #1056]
	mov	r0, r3
	ldr	r1, [sp, #4]
	bl	_Z13b2TestOverlapRK6b2AABBS1_(PLT)
	mov	r3, r0
	cmp	r3, #0
	beq	.L571
.LBB134:
.LBB135:
	.loc 3 186 0
	ldr	r0, [sp, #1056]
	bl	_ZNK10b2TreeNode6IsLeafEv(PLT)
	mov	r3, r0
	cmp	r3, #0
	beq	.L573
.LBB136:
	.loc 3 188 0
	ldr	r0, [sp, #8]
	ldr	r1, [sp, #1060]
	bl	_ZN19b2WorldQueryWrapper13QueryCallbackEi(PLT)
	mov	r3, r0
	strb	r3, [sp, #1055]
	.loc 3 189 0
	ldrb	r3, [sp, #1055]
	eor	r3, r3, #1
	uxtb	r3, r3
	cmp	r3, #0
	beq	.L574
	mov	r4, #0
	.loc 3 191 0
	b	.L575
.L574:
.LBE136:
	b	.L571
.L573:
	.loc 3 196 0
	ldr	r3, [sp, #1056]
	add	r2, r3, #24
	add	r3, sp, #24
	sub	r3, r3, #8
	mov	r0, r3
	mov	r1, r2
	bl	_ZN15b2GrowableStackIiLi256EE4PushERKi(PLT)
	.loc 3 197 0
	ldr	r3, [sp, #1056]
	add	r2, r3, #28
	add	r3, sp, #24
	sub	r3, r3, #8
	mov	r0, r3
	mov	r1, r2
	bl	_ZN15b2GrowableStackIiLi256EE4PushERKi(PLT)
.L571:
.LBE135:
.LBE134:
.LBE133:
.LBE132:
	.loc 3 174 0 discriminator 1
	add	r3, sp, #24
	sub	r3, r3, #8
	mov	r0, r3
	bl	_ZN15b2GrowableStackIiLi256EE8GetCountEv(PLT)
	mov	r3, r0
	cmp	r3, #0
	movle	r3, #0
	movgt	r3, #1
	uxtb	r3, r3
	cmp	r3, #0
	bne	.L577
	mov	r4, #1
.L575:
	add	r3, sp, #24
	sub	r3, r3, #8
	mov	r0, r3
	bl	_ZN15b2GrowableStackIiLi256EED1Ev(PLT)
	cmp	r4, #1
	bne	.L570
	.loc 3 200 0
	mov	r0, r0	@ nop
.L570:
.LBE131:
	.loc 3 201 0
	add	sp, sp, #1056
	add	sp, sp, #8
	@ sp needed
	ldmfd	sp!, {r4, pc}
	.cfi_endproc
.LFE927:
	.size	_ZNK13b2DynamicTree5QueryI19b2WorldQueryWrapperEEvPT_RK6b2AABB, .-_ZNK13b2DynamicTree5QueryI19b2WorldQueryWrapperEEvPT_RK6b2AABB
	.section	.text._ZN6b2AABBC2Ev,"axG",%progbits,_ZN6b2AABBC5Ev,comdat
	.align	2
	.weak	_ZN6b2AABBC2Ev
	.hidden	_ZN6b2AABBC2Ev
	.type	_ZN6b2AABBC2Ev, %function
_ZN6b2AABBC2Ev:
.LFB930:
	.loc 2 162 0
	.cfi_startproc
	@ args = 0, pretend = 0, frame = 8
	@ frame_needed = 0, uses_anonymous_args = 0
	str	lr, [sp, #-4]!
.LCFI186:
	.cfi_def_cfa_offset 4
	.cfi_offset 14, -4
	sub	sp, sp, #12
.LCFI187:
	.cfi_def_cfa_offset 16
	str	r0, [sp, #4]
.LBB137:
	.loc 2 162 0
	ldr	r3, [sp, #4]
	mov	r0, r3
	bl	_ZN6b2Vec2C1Ev(PLT)
	ldr	r3, [sp, #4]
	add	r3, r3, #8
	mov	r0, r3
	bl	_ZN6b2Vec2C1Ev(PLT)
.LBE137:
	ldr	r3, [sp, #4]
	mov	r0, r3
	add	sp, sp, #12
	@ sp needed
	ldr	pc, [sp], #4
	.cfi_endproc
.LFE930:
	.size	_ZN6b2AABBC2Ev, .-_ZN6b2AABBC2Ev
	.weak	_ZN6b2AABBC1Ev
	.hidden	_ZN6b2AABBC1Ev
	.set	_ZN6b2AABBC1Ev,_ZN6b2AABBC2Ev
	.section	.rodata
	.align	2
.LC27:
	.ascii	"r.LengthSquared() > 0.0f\000"
	.global	__aeabi_fcmpeq
	.section	.text._ZNK13b2DynamicTree7RayCastI21b2WorldRayCastWrapperEEvPT_RK14b2RayCastInput,"axG",%progbits,_ZNK13b2DynamicTree7RayCastI21b2WorldRayCastWrapperEEvPT_RK14b2RayCastInput,comdat
	.align	2
	.weak	_ZNK13b2DynamicTree7RayCastI21b2WorldRayCastWrapperEEvPT_RK14b2RayCastInput
	.hidden	_ZNK13b2DynamicTree7RayCastI21b2WorldRayCastWrapperEEvPT_RK14b2RayCastInput
	.type	_ZNK13b2DynamicTree7RayCastI21b2WorldRayCastWrapperEEvPT_RK14b2RayCastInput, %function
_ZNK13b2DynamicTree7RayCastI21b2WorldRayCastWrapperEEvPT_RK14b2RayCastInput:
.LFB928:
	.loc 3 204 0
	.cfi_startproc
	@ args = 0, pretend = 0, frame = 1232
	@ frame_needed = 0, uses_anonymous_args = 0
	stmfd	sp!, {r4, lr}
.LCFI188:
	.cfi_def_cfa_offset 8
	.cfi_offset 4, -8
	.cfi_offset 14, -4
	sub	sp, sp, #1232
.LCFI189:
	.cfi_def_cfa_offset 1240
	str	r0, [sp, #20]
	str	r1, [sp, #16]
	str	r2, [sp, #12]
.LBB138:
	.loc 3 206 0
	ldr	r2, [sp, #12]
	add	r3, sp, #1152
	add	r3, r3, #12
	ldmia	r2, {r0, r1}
	stmia	r3, {r0, r1}
	.loc 3 207 0
	ldr	r2, [sp, #12]
	add	r3, sp, #1152
	add	r3, r3, #4
	add	r2, r2, #8
	ldmia	r2, {r0, r1}
	stmia	r3, {r0, r1}
	.loc 3 208 0
	add	r1, sp, #1136
	add	r1, r1, #12
	add	r2, sp, #1152
	add	r2, r2, #4
	add	r3, sp, #1152
	add	r3, r3, #12
	mov	r0, r1
	mov	r1, r2
	mov	r2, r3
	bl	_ZmiRK6b2Vec2S1_(PLT)
	.loc 3 209 0
	add	r3, sp, #1136
	add	r3, r3, #12
	mov	r0, r3
	bl	_ZNK6b2Vec213LengthSquaredEv(PLT)
	mov	r3, r0
	mov	r0, r3
	mov	r1, #0
	bl	__aeabi_fcmpgt(PLT)
	mov	r3, r0
	cmp	r3, #0
	bne	.L586
	.loc 3 209 0 is_stmt 0 discriminator 1
	ldr	r3, .L610
.LPIC50:
	add	r3, pc, r3
	mov	r0, r3
	mov	r1, #209
	ldr	r3, .L610+4
.LPIC51:
	add	r3, pc, r3
	mov	r2, r3
	bl	__assert(PLT)
.L586:
	.loc 3 210 0 is_stmt 1
	add	r3, sp, #1136
	add	r3, r3, #12
	mov	r0, r3
	bl	_ZN6b2Vec29NormalizeEv(PLT)
	.loc 3 213 0
	add	r2, sp, #1136
	add	r2, r2, #4
	add	r3, sp, #1136
	add	r3, r3, #12
	mov	r0, r2
	mov	r1, #1065353216
	mov	r2, r3
	bl	_Z7b2CrossfRK6b2Vec2(PLT)
	.loc 3 214 0
	add	r2, sp, #1120
	add	r2, r2, #12
	add	r3, sp, #1136
	add	r3, r3, #4
	mov	r0, r2
	mov	r1, r3
	bl	_Z5b2AbsRK6b2Vec2(PLT)
	.loc 3 219 0
	ldr	r3, [sp, #12]
	ldr	r3, [r3, #16]	@ float
	str	r3, [sp, #1228]	@ float
	.loc 3 222 0
	add	r3, sp, #1104
	add	r3, r3, #12
	mov	r0, r3
	bl	_ZN6b2AABBC1Ev(PLT)
.LBB139:
	.loc 3 224 0
	add	r1, sp, #1168
	add	r1, r1, #12
	add	r2, sp, #1152
	add	r2, r2, #4
	add	r3, sp, #1152
	add	r3, r3, #12
	mov	r0, r1
	mov	r1, r2
	mov	r2, r3
	bl	_ZmiRK6b2Vec2S1_(PLT)
	add	r2, sp, #1168
	add	r2, r2, #4
	add	r3, sp, #1168
	add	r3, r3, #12
	mov	r0, r2
	ldr	r1, [sp, #1228]	@ float
	mov	r2, r3
	bl	_ZmlfRK6b2Vec2(PLT)
	add	r1, sp, #1104
	add	r1, r1, #4
	add	r2, sp, #1152
	add	r2, r2, #12
	add	r3, sp, #1168
	add	r3, r3, #4
	mov	r0, r1
	mov	r1, r2
	mov	r2, r3
	bl	_ZplRK6b2Vec2S1_(PLT)
	.loc 3 225 0
	mov	r1, sp
	add	r2, sp, #1152
	add	r2, r2, #12
	add	r3, sp, #1104
	add	r3, r3, #4
	mov	r0, r1
	mov	r1, r2
	mov	r2, r3
	bl	_Z5b2MinRK6b2Vec2S1_(PLT)
	add	r3, sp, #1104
	add	r3, r3, #12
	mov	r2, sp
	ldmia	r2, {r0, r1}
	stmia	r3, {r0, r1}
	.loc 3 226 0
	mov	r1, sp
	add	r2, sp, #1152
	add	r2, r2, #12
	add	r3, sp, #1104
	add	r3, r3, #4
	mov	r0, r1
	mov	r1, r2
	mov	r2, r3
	bl	_Z5b2MaxRK6b2Vec2S1_(PLT)
	add	r3, sp, #1120
	add	r3, r3, #4
	mov	r2, sp
	ldmia	r2, {r0, r1}
	stmia	r3, {r0, r1}
.LBE139:
	.loc 3 229 0
	add	r3, sp, #32
	sub	r3, r3, #4
	mov	r0, r3
	bl	_ZN15b2GrowableStackIiLi256EEC1Ev(PLT)
	.loc 3 230 0
	ldr	r2, [sp, #20]
	add	r3, sp, #32
	sub	r3, r3, #4
	mov	r0, r3
	mov	r1, r2
	bl	_ZN15b2GrowableStackIiLi256EE4PushERKi(PLT)
	.loc 3 232 0
	b	.L587
.L600:
.LBB140:
	.loc 3 234 0
	add	r3, sp, #32
	sub	r3, r3, #4
	mov	r0, r3
	bl	_ZN15b2GrowableStackIiLi256EE3PopEv(PLT)
	str	r0, [sp, #1224]
	.loc 3 235 0
	ldr	r3, [sp, #1224]
	cmn	r3, #1
	bne	.L588
	.loc 3 237 0
	b	.L587
.L588:
	.loc 3 240 0
	ldr	r3, [sp, #20]
	ldr	r1, [r3, #4]
	ldr	r2, [sp, #1224]
	mov	r3, r2
	mov	r3, r3, asl #3
	add	r3, r3, r2
	mov	r3, r3, asl #2
	add	r3, r1, r3
	str	r3, [sp, #1220]
	.loc 3 242 0
	ldr	r2, [sp, #1220]
	add	r3, sp, #1104
	add	r3, r3, #12
	mov	r0, r2
	mov	r1, r3
	bl	_Z13b2TestOverlapRK6b2AABBS1_(PLT)
	mov	r3, r0
	eor	r3, r3, #1
	uxtb	r3, r3
	cmp	r3, #0
	beq	.L590
	.loc 3 244 0
	b	.L587
.L590:
	.loc 3 249 0
	ldr	r3, [sp, #1220]
	add	r2, sp, #1088
	add	r2, r2, #12
	mov	r0, r2
	mov	r1, r3
	bl	_ZNK6b2AABB9GetCenterEv(PLT)
	.loc 3 250 0
	ldr	r3, [sp, #1220]
	add	r2, sp, #1088
	add	r2, r2, #4
	mov	r0, r2
	mov	r1, r3
	bl	_ZNK6b2AABB10GetExtentsEv(PLT)
	.loc 3 251 0
	add	r1, sp, #1184
	add	r1, r1, #4
	add	r2, sp, #1152
	add	r2, r2, #12
	add	r3, sp, #1088
	add	r3, r3, #12
	mov	r0, r1
	mov	r1, r2
	mov	r2, r3
	bl	_ZmiRK6b2Vec2S1_(PLT)
	add	r2, sp, #1136
	add	r2, r2, #4
	add	r3, sp, #1184
	add	r3, r3, #4
	mov	r0, r2
	mov	r1, r3
	bl	_Z5b2DotRK6b2Vec2S1_(PLT)
	mov	r3, r0
	mov	r0, r3
	bl	_Z5b2AbsIfET_S0_(PLT)
	mov	r4, r0
	add	r2, sp, #1120
	add	r2, r2, #12
	add	r3, sp, #1088
	add	r3, r3, #4
	mov	r0, r2
	mov	r1, r3
	bl	_Z5b2DotRK6b2Vec2S1_(PLT)
	mov	r3, r0
	mov	r0, r4
	mov	r1, r3
	bl	__aeabi_fsub(PLT)
	mov	r3, r0
	str	r3, [sp, #1216]	@ float
	.loc 3 252 0
	ldr	r0, [sp, #1216]	@ float
	mov	r1, #0
	bl	__aeabi_fcmpgt(PLT)
	mov	r3, r0
	cmp	r3, #0
	beq	.L608
	.loc 3 254 0
	b	.L587
.L608:
.LBB141:
	.loc 3 257 0
	ldr	r0, [sp, #1220]
	bl	_ZNK10b2TreeNode6IsLeafEv(PLT)
	mov	r3, r0
	cmp	r3, #0
	beq	.L593
.LBB142:
	.loc 3 259 0
	add	r3, sp, #1072
	mov	r0, r3
	bl	_ZN14b2RayCastInputC1Ev(PLT)
	.loc 3 260 0
	ldr	r2, [sp, #12]
	add	r3, sp, #1072
	ldmia	r2, {r0, r1}
	stmia	r3, {r0, r1}
	.loc 3 261 0
	ldr	r2, [sp, #12]
	add	r3, sp, #1072
	add	r3, r3, #8
	add	r2, r2, #8
	ldmia	r2, {r0, r1}
	stmia	r3, {r0, r1}
	.loc 3 262 0
	ldr	r3, [sp, #1228]	@ float
	str	r3, [sp, #1088]	@ float
	.loc 3 264 0
	add	r3, sp, #1072
	ldr	r0, [sp, #16]
	mov	r1, r3
	ldr	r2, [sp, #1224]
	bl	_ZN21b2WorldRayCastWrapper15RayCastCallbackERK14b2RayCastInputi(PLT)
	str	r0, [sp, #1212]	@ float
	.loc 3 266 0
	ldr	r0, [sp, #1212]	@ float
	mov	r1, #0
	bl	__aeabi_fcmpeq(PLT)
	mov	r3, r0
	cmp	r3, #0
	beq	.L609
	mov	r4, #0
	b	.L596
.L609:
.LBB143:
	.loc 3 272 0
	ldr	r0, [sp, #1212]	@ float
	mov	r1, #0
	bl	__aeabi_fcmpgt(PLT)
	mov	r3, r0
	cmp	r3, #0
	bne	.L606
.LBE143:
.LBE142:
	b	.L599
.L606:
.LBB146:
.LBB145:
.LBB144:
	.loc 3 275 0
	ldr	r3, [sp, #1212]	@ float
	str	r3, [sp, #1228]	@ float
	.loc 3 276 0
	add	r1, sp, #1200
	add	r1, r1, #4
	add	r2, sp, #1152
	add	r2, r2, #4
	add	r3, sp, #1152
	add	r3, r3, #12
	mov	r0, r1
	mov	r1, r2
	mov	r2, r3
	bl	_ZmiRK6b2Vec2S1_(PLT)
	add	r2, sp, #1184
	add	r2, r2, #12
	add	r3, sp, #1200
	add	r3, r3, #4
	mov	r0, r2
	ldr	r1, [sp, #1228]	@ float
	mov	r2, r3
	bl	_ZmlfRK6b2Vec2(PLT)
	add	r1, sp, #1056
	add	r1, r1, #8
	add	r2, sp, #1152
	add	r2, r2, #12
	add	r3, sp, #1184
	add	r3, r3, #12
	mov	r0, r1
	mov	r1, r2
	mov	r2, r3
	bl	_ZplRK6b2Vec2S1_(PLT)
	.loc 3 277 0
	mov	r1, sp
	add	r2, sp, #1152
	add	r2, r2, #12
	add	r3, sp, #1056
	add	r3, r3, #8
	mov	r0, r1
	mov	r1, r2
	mov	r2, r3
	bl	_Z5b2MinRK6b2Vec2S1_(PLT)
	add	r3, sp, #1104
	add	r3, r3, #12
	mov	r2, sp
	ldmia	r2, {r0, r1}
	stmia	r3, {r0, r1}
	.loc 3 278 0
	mov	r1, sp
	add	r2, sp, #1152
	add	r2, r2, #12
	add	r3, sp, #1056
	add	r3, r3, #8
	mov	r0, r1
	mov	r1, r2
	mov	r2, r3
	bl	_Z5b2MaxRK6b2Vec2S1_(PLT)
	add	r3, sp, #1120
	add	r3, r3, #4
	mov	r2, sp
	ldmia	r2, {r0, r1}
	stmia	r3, {r0, r1}
.LBE144:
	b	.L599
.L593:
.LBE145:
.LBE146:
	.loc 3 283 0
	ldr	r3, [sp, #1220]
	add	r2, r3, #24
	add	r3, sp, #32
	sub	r3, r3, #4
	mov	r0, r3
	mov	r1, r2
	bl	_ZN15b2GrowableStackIiLi256EE4PushERKi(PLT)
	.loc 3 284 0
	ldr	r3, [sp, #1220]
	add	r2, r3, #28
	add	r3, sp, #32
	sub	r3, r3, #4
	mov	r0, r3
	mov	r1, r2
	bl	_ZN15b2GrowableStackIiLi256EE4PushERKi(PLT)
.LBE141:
	b	.L587
.L599:
.L587:
.LBE140:
	.loc 3 232 0 discriminator 1
	add	r3, sp, #32
	sub	r3, r3, #4
	mov	r0, r3
	bl	_ZN15b2GrowableStackIiLi256EE8GetCountEv(PLT)
	mov	r3, r0
	cmp	r3, #0
	movle	r3, #0
	movgt	r3, #1
	uxtb	r3, r3
	cmp	r3, #0
	bne	.L600
	mov	r4, #1
.L596:
	add	r3, sp, #32
	sub	r3, r3, #4
	mov	r0, r3
	bl	_ZN15b2GrowableStackIiLi256EED1Ev(PLT)
	cmp	r4, #1
	bne	.L585
	.loc 3 286 0
	mov	r0, r0	@ nop
.L585:
.LBE138:
	.loc 3 287 0
	add	sp, sp, #1232
	@ sp needed
	ldmfd	sp!, {r4, pc}
.L611:
	.align	2
.L610:
	.word	.LC2-(.LPIC50+8)
	.word	.LC27-(.LPIC51+8)
	.cfi_endproc
.LFE928:
	.size	_ZNK13b2DynamicTree7RayCastI21b2WorldRayCastWrapperEEvPT_RK14b2RayCastInput, .-_ZNK13b2DynamicTree7RayCastI21b2WorldRayCastWrapperEEvPT_RK14b2RayCastInput
	.section	.text._ZN15b2GrowableStackIiLi256EEC2Ev,"axG",%progbits,_ZN15b2GrowableStackIiLi256EEC5Ev,comdat
	.align	2
	.weak	_ZN15b2GrowableStackIiLi256EEC2Ev
	.hidden	_ZN15b2GrowableStackIiLi256EEC2Ev
	.type	_ZN15b2GrowableStackIiLi256EEC2Ev, %function
_ZN15b2GrowableStackIiLi256EEC2Ev:
.LFB933:
	.file 18 "c:/users/ben/desktop/fyp/finalyearproject/box2d/Box2D/Common/b2GrowableStack.h"
	.loc 18 31 0
	.cfi_startproc
	@ args = 0, pretend = 0, frame = 8
	@ frame_needed = 0, uses_anonymous_args = 0
	@ link register save eliminated.
	sub	sp, sp, #8
.LCFI190:
	.cfi_def_cfa_offset 8
	str	r0, [sp, #4]
.LBB147:
	.loc 18 33 0
	ldr	r3, [sp, #4]
	add	r2, r3, #4
	ldr	r3, [sp, #4]
	str	r2, [r3]
	.loc 18 34 0
	ldr	r3, [sp, #4]
	mov	r2, #0
	str	r2, [r3, #1028]
	.loc 18 35 0
	ldr	r3, [sp, #4]
	mov	r2, #256
	str	r2, [r3, #1032]
.LBE147:
	.loc 18 36 0
	ldr	r3, [sp, #4]
	mov	r0, r3
	add	sp, sp, #8
	@ sp needed
	bx	lr
	.cfi_endproc
.LFE933:
	.size	_ZN15b2GrowableStackIiLi256EEC2Ev, .-_ZN15b2GrowableStackIiLi256EEC2Ev
	.weak	_ZN15b2GrowableStackIiLi256EEC1Ev
	.hidden	_ZN15b2GrowableStackIiLi256EEC1Ev
	.set	_ZN15b2GrowableStackIiLi256EEC1Ev,_ZN15b2GrowableStackIiLi256EEC2Ev
	.section	.text._ZN15b2GrowableStackIiLi256EED2Ev,"axG",%progbits,_ZN15b2GrowableStackIiLi256EED5Ev,comdat
	.align	2
	.weak	_ZN15b2GrowableStackIiLi256EED2Ev
	.hidden	_ZN15b2GrowableStackIiLi256EED2Ev
	.type	_ZN15b2GrowableStackIiLi256EED2Ev, %function
_ZN15b2GrowableStackIiLi256EED2Ev:
.LFB936:
	.loc 18 38 0
	.cfi_startproc
	@ args = 0, pretend = 0, frame = 8
	@ frame_needed = 0, uses_anonymous_args = 0
	str	lr, [sp, #-4]!
.LCFI191:
	.cfi_def_cfa_offset 4
	.cfi_offset 14, -4
	sub	sp, sp, #12
.LCFI192:
	.cfi_def_cfa_offset 16
	str	r0, [sp, #4]
.LBB148:
	.loc 18 40 0
	ldr	r3, [sp, #4]
	ldr	r2, [r3]
	ldr	r3, [sp, #4]
	add	r3, r3, #4
	cmp	r2, r3
	beq	.L616
	.loc 18 42 0
	ldr	r3, [sp, #4]
	ldr	r3, [r3]
	mov	r0, r3
	bl	_Z6b2FreePv(PLT)
	.loc 18 43 0
	ldr	r3, [sp, #4]
	mov	r2, #0
	str	r2, [r3]
.L616:
.LBE148:
	.loc 18 45 0
	ldr	r3, [sp, #4]
	mov	r0, r3
	add	sp, sp, #12
	@ sp needed
	ldr	pc, [sp], #4
	.cfi_endproc
.LFE936:
	.size	_ZN15b2GrowableStackIiLi256EED2Ev, .-_ZN15b2GrowableStackIiLi256EED2Ev
	.weak	_ZN15b2GrowableStackIiLi256EED1Ev
	.hidden	_ZN15b2GrowableStackIiLi256EED1Ev
	.set	_ZN15b2GrowableStackIiLi256EED1Ev,_ZN15b2GrowableStackIiLi256EED2Ev
	.section	.text._ZN15b2GrowableStackIiLi256EE4PushERKi,"axG",%progbits,_ZN15b2GrowableStackIiLi256EE4PushERKi,comdat
	.align	2
	.weak	_ZN15b2GrowableStackIiLi256EE4PushERKi
	.hidden	_ZN15b2GrowableStackIiLi256EE4PushERKi
	.type	_ZN15b2GrowableStackIiLi256EE4PushERKi, %function
_ZN15b2GrowableStackIiLi256EE4PushERKi:
.LFB938:
	.loc 18 47 0
	.cfi_startproc
	@ args = 0, pretend = 0, frame = 16
	@ frame_needed = 0, uses_anonymous_args = 0
	str	lr, [sp, #-4]!
.LCFI193:
	.cfi_def_cfa_offset 4
	.cfi_offset 14, -4
	sub	sp, sp, #20
.LCFI194:
	.cfi_def_cfa_offset 24
	str	r0, [sp, #4]
	str	r1, [sp]
.LBB149:
.LBB150:
	.loc 18 49 0
	ldr	r3, [sp, #4]
	ldr	r2, [r3, #1028]
	ldr	r3, [sp, #4]
	ldr	r3, [r3, #1032]
	cmp	r2, r3
	bne	.L619
.LBB151:
	.loc 18 51 0
	ldr	r3, [sp, #4]
	ldr	r3, [r3]
	str	r3, [sp, #12]
	.loc 18 52 0
	ldr	r3, [sp, #4]
	ldr	r3, [r3, #1032]
	mov	r2, r3, asl #1
	ldr	r3, [sp, #4]
	str	r2, [r3, #1032]
	.loc 18 53 0
	ldr	r3, [sp, #4]
	ldr	r3, [r3, #1032]
	mov	r3, r3, asl #2
	mov	r0, r3
	bl	_Z7b2Alloci(PLT)
	mov	r2, r0
	ldr	r3, [sp, #4]
	str	r2, [r3]
	.loc 18 54 0
	ldr	r3, [sp, #4]
	ldr	r2, [r3]
	ldr	r3, [sp, #4]
	ldr	r3, [r3, #1028]
	mov	r3, r3, asl #2
	mov	r0, r2
	ldr	r1, [sp, #12]
	mov	r2, r3
	bl	memcpy(PLT)
	.loc 18 55 0
	ldr	r3, [sp, #4]
	add	r2, r3, #4
	ldr	r3, [sp, #12]
	cmp	r2, r3
	beq	.L620
	.loc 18 57 0
	ldr	r0, [sp, #12]
	bl	_Z6b2FreePv(PLT)
.L620:
.L619:
.LBE151:
.LBE150:
	.loc 18 61 0
	ldr	r3, [sp, #4]
	ldr	r2, [r3]
	ldr	r3, [sp, #4]
	ldr	r3, [r3, #1028]
	mov	r3, r3, asl #2
	add	r3, r2, r3
	ldr	r2, [sp]
	ldr	r2, [r2]
	str	r2, [r3]
	.loc 18 62 0
	ldr	r3, [sp, #4]
	ldr	r3, [r3, #1028]
	add	r2, r3, #1
	ldr	r3, [sp, #4]
	str	r2, [r3, #1028]
.LBE149:
	.loc 18 63 0
	add	sp, sp, #20
	@ sp needed
	ldr	pc, [sp], #4
	.cfi_endproc
.LFE938:
	.size	_ZN15b2GrowableStackIiLi256EE4PushERKi, .-_ZN15b2GrowableStackIiLi256EE4PushERKi
	.section	.text._ZN15b2GrowableStackIiLi256EE8GetCountEv,"axG",%progbits,_ZN15b2GrowableStackIiLi256EE8GetCountEv,comdat
	.align	2
	.weak	_ZN15b2GrowableStackIiLi256EE8GetCountEv
	.hidden	_ZN15b2GrowableStackIiLi256EE8GetCountEv
	.type	_ZN15b2GrowableStackIiLi256EE8GetCountEv, %function
_ZN15b2GrowableStackIiLi256EE8GetCountEv:
.LFB939:
	.loc 18 72 0
	.cfi_startproc
	@ args = 0, pretend = 0, frame = 8
	@ frame_needed = 0, uses_anonymous_args = 0
	@ link register save eliminated.
	sub	sp, sp, #8
.LCFI195:
	.cfi_def_cfa_offset 8
	str	r0, [sp, #4]
	.loc 18 74 0
	ldr	r3, [sp, #4]
	ldr	r3, [r3, #1028]
	.loc 18 75 0
	mov	r0, r3
	add	sp, sp, #8
	@ sp needed
	bx	lr
	.cfi_endproc
.LFE939:
	.size	_ZN15b2GrowableStackIiLi256EE8GetCountEv, .-_ZN15b2GrowableStackIiLi256EE8GetCountEv
	.section	.rodata
	.align	2
.LC28:
	.ascii	"c:/users/ben/desktop/fyp/finalyearproject/box2d/Box"
	.ascii	"2D/Common/b2GrowableStack.h\000"
	.align	2
.LC29:
	.ascii	"m_count > 0\000"
	.section	.text._ZN15b2GrowableStackIiLi256EE3PopEv,"axG",%progbits,_ZN15b2GrowableStackIiLi256EE3PopEv,comdat
	.align	2
	.weak	_ZN15b2GrowableStackIiLi256EE3PopEv
	.hidden	_ZN15b2GrowableStackIiLi256EE3PopEv
	.type	_ZN15b2GrowableStackIiLi256EE3PopEv, %function
_ZN15b2GrowableStackIiLi256EE3PopEv:
.LFB940:
	.loc 18 65 0
	.cfi_startproc
	@ args = 0, pretend = 0, frame = 8
	@ frame_needed = 0, uses_anonymous_args = 0
	str	lr, [sp, #-4]!
.LCFI196:
	.cfi_def_cfa_offset 4
	.cfi_offset 14, -4
	sub	sp, sp, #12
.LCFI197:
	.cfi_def_cfa_offset 16
	str	r0, [sp, #4]
	.loc 18 67 0
	ldr	r3, [sp, #4]
	ldr	r3, [r3, #1028]
	cmp	r3, #0
	bgt	.L624
	.loc 18 67 0 is_stmt 0 discriminator 1
	ldr	r3, .L626
.LPIC52:
	add	r3, pc, r3
	mov	r0, r3
	mov	r1, #67
	ldr	r3, .L626+4
.LPIC53:
	add	r3, pc, r3
	mov	r2, r3
	bl	__assert(PLT)
.L624:
	.loc 18 68 0 is_stmt 1
	ldr	r3, [sp, #4]
	ldr	r3, [r3, #1028]
	sub	r2, r3, #1
	ldr	r3, [sp, #4]
	str	r2, [r3, #1028]
	.loc 18 69 0
	ldr	r3, [sp, #4]
	ldr	r2, [r3]
	ldr	r3, [sp, #4]
	ldr	r3, [r3, #1028]
	mov	r3, r3, asl #2
	add	r3, r2, r3
	ldr	r3, [r3]
	.loc 18 70 0
	mov	r0, r3
	add	sp, sp, #12
	@ sp needed
	ldr	pc, [sp], #4
.L627:
	.align	2
.L626:
	.word	.LC28-(.LPIC52+8)
	.word	.LC29-(.LPIC53+8)
	.cfi_endproc
.LFE940:
	.size	_ZN15b2GrowableStackIiLi256EE3PopEv, .-_ZN15b2GrowableStackIiLi256EE3PopEv
	.section	.rodata
	.align	2
	.type	_ZL12b2_chunkSize, %object
	.size	_ZL12b2_chunkSize, 4
_ZL12b2_chunkSize:
	.word	16384
	.align	2
	.type	_ZL15b2_maxBlockSize, %object
	.size	_ZL15b2_maxBlockSize, 4
_ZL15b2_maxBlockSize:
	.word	640
	.align	2
	.type	_ZL13b2_blockSizes, %object
	.size	_ZL13b2_blockSizes, 4
_ZL13b2_blockSizes:
	.word	14
	.align	2
	.type	_ZL22b2_chunkArrayIncrement, %object
	.size	_ZL22b2_chunkArrayIncrement, 4
_ZL22b2_chunkArrayIncrement:
	.word	128
	.align	2
	.type	_ZL12b2_stackSize, %object
	.size	_ZL12b2_stackSize, 4
_ZL12b2_stackSize:
	.word	102400
	.align	2
	.type	_ZL18b2_maxStackEntries, %object
	.size	_ZL18b2_maxStackEntries, 4
_ZL18b2_maxStackEntries:
	.word	32
	.type	_ZL14b2_nullFeature, %object
	.size	_ZL14b2_nullFeature, 1
_ZL14b2_nullFeature:
	.byte	-1
	.align	2
	.type	_ZL18b2_minPulleyLength, %object
	.size	_ZL18b2_minPulleyLength, 4
_ZL18b2_minPulleyLength:
	.word	1073741824
	.align	2
	.type	_ZN4_STLL16__stl_chunk_sizeE, %object
	.size	_ZN4_STLL16__stl_chunk_sizeE, 4
_ZN4_STLL16__stl_chunk_sizeE:
	.word	7
	.text
.Letext0:
	.file 19 "c:/marmalade/7.4/s3e/h/std/stddef.h"
	.file 20 "c:/marmalade/7.4/s3e/h/s3eTypes.h"
	.file 21 "c:/users/ben/desktop/fyp/finalyearproject/box2d/Box2D/Common/b2Settings.h"
	.file 22 "c:/users/ben/desktop/fyp/finalyearproject/box2d/Box2D/Common/b2BlockAllocator.h"
	.file 23 "c:/users/ben/desktop/fyp/finalyearproject/box2d/Box2D/Common/b2StackAllocator.h"
	.file 24 "c:/marmalade/7.4/s3e/h/std/c++/cstddef"
	.file 25 "c:/marmalade/7.4/s3e/h/std/c++/using/cstring"
	.file 26 "c:/marmalade/7.4/s3e/h/std/c++/cstdlib"
	.file 27 "c:/marmalade/7.4/s3e/h/std/c++/exception"
	.file 28 "c:/marmalade/7.4/s3e/h/std/c++/cstdio"
	.file 29 "c:/marmalade/7.4/s3e/h/std/c++/stl/_config.h"
	.file 30 "c:/marmalade/7.4/s3e/h/std/string.h"
	.file 31 "c:/marmalade/7.4/s3e/h/ext/../std/stdlib.h"
	.file 32 "c:/users/ben/desktop/fyp/finalyearproject/box2d/Box2D/Dynamics/b2WorldCallbacks.h"
	.file 33 "c:/users/ben/desktop/fyp/finalyearproject/box2d/Box2D/Dynamics/b2TimeStep.h"
	.file 34 "c:/marmalade/7.4/s3e/h/ext/../std/stdio.h"
	.file 35 "c:/users/ben/desktop/fyp/finalyearproject/box2d/Box2D/Dynamics/Contacts/b2ContactSolver.h"
	.file 36 "c:/users/ben/desktop/fyp/finalyearproject/box2d/Box2D/Common/b2Timer.h"
	.file 37 "c:/users/ben/desktop/fyp/finalyearproject/box2d/Box2D/Dynamics/Joints/b2PulleyJoint.h"
	.file 38 "<built-in>"
	.file 39 "c:/marmalade/7.4/s3e/h/std/c++/stl/_algo.c"