	.arch armv6
	.fpu softvfp
	.eabi_attribute 20, 1
	.eabi_attribute 21, 1
	.eabi_attribute 23, 3
	.eabi_attribute 24, 1
	.eabi_attribute 25, 1
	.eabi_attribute 26, 2
	.eabi_attribute 30, 6
	.eabi_attribute 34, 1
	.eabi_attribute 18, 2
	.file	"ExamplesMain.cpp"
	.text
.Ltext0:
	.cfi_sections	.debug_frame
	.section	.text._ZL11IwDebugExitv,"ax",%progbits
	.align	2
	.type	_ZL11IwDebugExitv, %function
_ZL11IwDebugExitv:
.LFB1:
	.file 1 "c:/marmalade/7.4/modules/iwutil/h/IwDebug.h"
	.loc 1 348 0
	.cfi_startproc
	@ args = 0, pretend = 0, frame = 0
	@ frame_needed = 0, uses_anonymous_args = 0
	stmfd	sp!, {r3, lr}
.LCFI0:
	.cfi_def_cfa_offset 8
	.cfi_offset 3, -8
	.cfi_offset 14, -4
	.loc 1 349 0
	bl	abort(PLT)
	.cfi_endproc
.LFE1:
	.size	_ZL11IwDebugExitv, .-_ZL11IwDebugExitv
	.section	.text._ZN8CIwSVec2C2Ess,"axG",%progbits,_ZN8CIwSVec2C5Ess,comdat
	.align	2
	.weak	_ZN8CIwSVec2C2Ess
	.hidden	_ZN8CIwSVec2C2Ess
	.type	_ZN8CIwSVec2C2Ess, %function
_ZN8CIwSVec2C2Ess:
.LFB131:
	.file 2 "c:/marmalade/7.4/modules/iwgeom/h/IwGeomSVec2.h"
	.loc 2 72 0
	.cfi_startproc
	@ args = 0, pretend = 0, frame = 8
	@ frame_needed = 0, uses_anonymous_args = 0
	@ link register save eliminated.
	sub	sp, sp, #8
.LCFI1:
	.cfi_def_cfa_offset 8
	str	r0, [sp, #4]
	mov	r3, r2
	strh	r1, [sp, #2]	@ movhi
	strh	r3, [sp]	@ movhi
.LBB2:
	.loc 2 72 0
	ldr	r3, [sp, #4]
	ldrh	r2, [sp, #2]	@ movhi
	strh	r2, [r3]	@ movhi
	ldr	r3, [sp, #4]
	ldrh	r2, [sp]	@ movhi
	strh	r2, [r3, #2]	@ movhi
.LBE2:
	ldr	r3, [sp, #4]
	mov	r0, r3
	add	sp, sp, #8
	@ sp needed
	bx	lr
	.cfi_endproc
.LFE131:
	.size	_ZN8CIwSVec2C2Ess, .-_ZN8CIwSVec2C2Ess
	.weak	_ZN8CIwSVec2C1Ess
	.hidden	_ZN8CIwSVec2C1Ess
	.set	_ZN8CIwSVec2C1Ess,_ZN8CIwSVec2C2Ess
	.section	.text._ZnwjPv,"axG",%progbits,_ZnwjPv,comdat
	.align	2
	.weak	_ZnwjPv
	.hidden	_ZnwjPv
	.type	_ZnwjPv, %function
_ZnwjPv:
.LFB1041:
	.file 3 "c:/marmalade/7.4/s3e/h/std/c++/new.h"
	.loc 3 52 0
	.cfi_startproc
	@ args = 0, pretend = 0, frame = 8
	@ frame_needed = 0, uses_anonymous_args = 0
	@ link register save eliminated.
	sub	sp, sp, #8
.LCFI2:
	.cfi_def_cfa_offset 8
	str	r0, [sp, #4]
	str	r1, [sp]
	.loc 3 52 0
	ldr	r3, [sp]
	mov	r0, r3
	add	sp, sp, #8
	@ sp needed
	bx	lr
	.cfi_endproc
.LFE1041:
	.size	_ZnwjPv, .-_ZnwjPv
	.section	.text._ZN11_IwGxMetric9IncrementEi,"axG",%progbits,_ZN11_IwGxMetric9IncrementEi,comdat
	.align	2
	.weak	_ZN11_IwGxMetric9IncrementEi
	.hidden	_ZN11_IwGxMetric9IncrementEi
	.type	_ZN11_IwGxMetric9IncrementEi, %function
_ZN11_IwGxMetric9IncrementEi:
.LFB1234:
	.file 4 "c:/marmalade/7.4/modules/legacy/iwgx/h/IwGxMetrics.h"
	.loc 4 61 0
	.cfi_startproc
	@ args = 0, pretend = 0, frame = 8
	@ frame_needed = 0, uses_anonymous_args = 0
	@ link register save eliminated.
	sub	sp, sp, #8
.LCFI3:
	.cfi_def_cfa_offset 8
	str	r0, [sp, #4]
	str	r1, [sp]
	.loc 4 63 0
	ldr	r3, [sp, #4]
	ldr	r2, [r3]
	ldr	r3, [sp]
	add	r2, r2, r3
	ldr	r3, [sp, #4]
	str	r2, [r3]
	.loc 4 64 0
	ldr	r3, [sp, #4]
	ldr	r2, [r3, #4]
	ldr	r3, [sp, #4]
	ldr	r3, [r3]
	cmp	r2, r3
	ble	.L8
	.loc 4 64 0 is_stmt 0 discriminator 1
	ldr	r3, [sp, #4]
	ldr	r3, [r3, #4]
	b	.L9
.L8:
	.loc 4 64 0 discriminator 2
	ldr	r3, [sp, #4]
	ldr	r3, [r3]
.L9:
	.loc 4 64 0 discriminator 3
	ldr	r2, [sp, #4]
	str	r3, [r2, #4]
	.loc 4 65 0 is_stmt 1 discriminator 3
	add	sp, sp, #8
	@ sp needed
	bx	lr
	.cfi_endproc
.LFE1234:
	.size	_ZN11_IwGxMetric9IncrementEi, .-_ZN11_IwGxMetric9IncrementEi
	.section	.text._Z12IwGetGxStatev,"axG",%progbits,_Z12IwGetGxStatev,comdat
	.align	2
	.weak	_Z12IwGetGxStatev
	.hidden	_Z12IwGetGxStatev
	.type	_Z12IwGetGxStatev, %function
_Z12IwGetGxStatev:
.LFB1379:
	.file 5 "c:/marmalade/7.4/modules/legacy/iwgx/h/IwGxState.h"
	.loc 5 541 0
	.cfi_startproc
	@ args = 0, pretend = 0, frame = 0
	@ frame_needed = 0, uses_anonymous_args = 0
	@ link register save eliminated.
	ldr	r2, .L12
.LPIC0:
	add	r2, pc, r2
	.loc 5 541 0
	ldr	r3, .L12+4
	ldr	r3, [r2, r3]
	ldr	r3, [r3]
	mov	r0, r3
	bx	lr
.L13:
	.align	2
.L12:
	.word	_GLOBAL_OFFSET_TABLE_-(.LPIC0+8)
	.word	g_IwGxState(GOT)
	.cfi_endproc
.LFE1379:
	.size	_Z12IwGetGxStatev, .-_Z12IwGetGxStatev
	.section	.rodata
	.align	2
.LC0:
	.ascii	"GX\000"
	.align	2
.LC1:
	.ascii	"Data cache overflow allocating %d. Increase [GX] Da"
	.ascii	"taCacheSize (currently %d)\000"
	.align	2
.LC2:
	.ascii	"IwGetGxState()->m_DataCacheNext + n <= IwGetGxState"
	.ascii	"()->m_DataCache + IwGetGxState()->m_DataCacheSize\000"
	.align	2
.LC3:
	.ascii	"c:/marmalade/7.4/modules/legacy/iwgx/h/IwGx.h\000"
	.section	.text._ZL13IwGxDataAllocjjPKcj,"ax",%progbits
	.align	2
	.type	_ZL13IwGxDataAllocjjPKcj, %function
_ZL13IwGxDataAllocjjPKcj:
.LFB1392:
	.file 6 "c:/marmalade/7.4/modules/legacy/iwgx/h/IwGx.h"
	.loc 6 84 0
	.cfi_startproc
	@ args = 0, pretend = 0, frame = 24
	@ frame_needed = 0, uses_anonymous_args = 0
	stmfd	sp!, {r4, r5, lr}
.LCFI4:
	.cfi_def_cfa_offset 12
	.cfi_offset 4, -12
	.cfi_offset 5, -8
	.cfi_offset 14, -4
	sub	sp, sp, #28
.LCFI5:
	.cfi_def_cfa_offset 40
	str	r0, [sp, #12]
	str	r1, [sp, #8]
	str	r2, [sp, #4]
	str	r3, [sp]
.LBB3:
	.loc 6 86 0
	ldr	r3, [sp, #12]
	ldr	r2, [sp, #8]
	mul	r2, r2, r3
	ldr	r3, [sp]
	add	r3, r2, r3
	str	r3, [sp, #20]
	.loc 6 87 0
	ldr	r3, [sp, #20]
	add	r3, r3, #3
	bic	r3, r3, #3
	str	r3, [sp, #20]
.LBB4:
	.loc 6 88 0
	bl	_Z12IwGetGxStatev(PLT)
	mov	r3, r0
	ldr	r2, [r3, #908]
	ldr	r3, [sp, #20]
	add	r4, r2, r3
	bl	_Z12IwGetGxStatev(PLT)
	mov	r3, r0
	ldr	r5, [r3, #900]
	bl	_Z12IwGetGxStatev(PLT)
	mov	r3, r0
	ldr	r3, [r3, #896]
	add	r3, r5, r3
	cmp	r4, r3
	movls	r3, #0
	movhi	r3, #1
	uxtb	r3, r3
	cmp	r3, #0
	beq	.L15
	.loc 6 88 0 is_stmt 0 discriminator 1
	ldr	r3, .L25
.LPIC1:
	add	r3, pc, r3
	mov	r0, r3
	bl	IwDebugAssertIsChannelOn(PLT)
	mov	r3, r0
	cmp	r3, #0
	beq	.L16
	ldr	r3, .L25+4
.LPIC2:
	add	r3, pc, r3
	ldrb	r3, [r3]	@ zero_extendqisi2
	cmp	r3, #0
	bne	.L16
	.loc 6 88 0 discriminator 3
	mov	r3, #1
	b	.L17
.L16:
	.loc 6 88 0 discriminator 2
	mov	r3, #0
.L17:
	.loc 6 88 0 discriminator 4
	cmp	r3, #0
	beq	.L18
	.loc 6 88 0 discriminator 1
	ldr	r0, .L25+8
	bl	IwDebugAssertSetUID(PLT)
	bl	_Z12IwGetGxStatev(PLT)
	mov	r3, r0
	ldr	r3, [r3, #896]
	ldr	r2, .L25+12
.LPIC3:
	add	r2, pc, r2
	mov	r0, r2
	ldr	r1, [sp, #20]
	mov	r2, r3
	bl	IwDebugAssertSetMessage(PLT)
	ldr	r3, .L25+16
.LPIC4:
	add	r3, pc, r3
	mov	r0, r3
	ldr	r3, .L25+20
.LPIC5:
	add	r3, pc, r3
	mov	r1, r3
	mov	r2, #88
	mov	r3, #1
	bl	IwDebugAssertShow(PLT)
	mov	r3, r0
	cmp	r3, #1
	beq	.L20
	cmp	r3, #2
	beq	.L21
	.loc 6 88 0
	b	.L19
.L20:
	.loc 6 88 0 discriminator 2
	bl	s3eDebugIsDebuggerPresent(PLT)
	mov	r3, r0
	cmp	r3, #0
	moveq	r3, #0
	movne	r3, #1
	uxtb	r3, r3
	cmp	r3, #0
	beq	.L22
	.loc 6 88 0 discriminator 1
	bl	s3eDebugIsDebuggerPresent(PLT)
	mov	r3, r0
	cmp	r3, #0
	moveq	r3, #0
	movne	r3, #1
	uxtb	r3, r3
	cmp	r3, #0
	beq	.L23
	mvn	r3, #11
	mov	r2, #0
	str	r2, [r3]
	b	.L23
.L22:
	.loc 6 88 0 discriminator 2
	bl	_ZL11IwDebugExitv(PLT)
	b	.L19
.L23:
	.loc 6 88 0 discriminator 1
	b	.L19
.L21:
	.loc 6 88 0 discriminator 3
	ldr	r3, .L25+24
.LPIC6:
	add	r3, pc, r3
	mov	r2, #1
	strb	r2, [r3]
	mov	r0, r0	@ nop
.L19:
	.loc 6 88 0 discriminator 1
	mov	r0, #0
	bl	IwDebugAssertSetUID(PLT)
.L18:
	.loc 6 88 0 discriminator 2
	mov	r3, #0
	b	.L24
.L15:
.LBE4:
	.loc 6 89 0 is_stmt 1
	bl	_Z12IwGetGxStatev(PLT)
	mov	r3, r0
	ldr	r3, [r3, #908]
	str	r3, [sp, #16]
	.loc 6 90 0
	bl	_Z12IwGetGxStatev(PLT)
	mov	r3, r0
	ldr	r2, [sp, #16]
	str	r2, [r3, #904]
	.loc 6 91 0
	bl	_Z12IwGetGxStatev(PLT)
	mov	r3, r0
	ldr	r1, [r3, #908]
	ldr	r2, [sp, #20]
	add	r2, r1, r2
	str	r2, [r3, #908]
	.loc 6 94 0
	ldr	r0, [sp, #12]
	ldr	r1, [sp, #8]
	ldr	r2, [sp, #4]
	bl	_Z26_IwGxDebugAddDataCacheInfojjPKc(PLT)
	.loc 6 96 0
	bl	_Z12IwGetGxStatev(PLT)
	mov	r3, r0
	ldr	r3, [r3, #1420]
	mov	r2, r3
	ldr	r3, [sp, #20]
	mov	r0, r2
	mov	r1, r3
	bl	_ZN11_IwGxMetric9IncrementEi(PLT)
	.loc 6 97 0
	ldr	r3, [sp, #16]
.L24:
.LBE3:
	.loc 6 98 0
	mov	r0, r3
	add	sp, sp, #28
	@ sp needed
	ldmfd	sp!, {r4, r5, pc}
.L26:
	.align	2
.L25:
	.word	.LC0-(.LPIC1+8)
	.word	_ZZL13IwGxDataAllocjjPKcjE21_s_IwAssertIgnoreThis-(.LPIC2+8)
	.word	761
	.word	.LC1-(.LPIC3+8)
	.word	.LC2-(.LPIC4+8)
	.word	.LC3-(.LPIC5+8)
	.word	_ZZL13IwGxDataAllocjjPKcjE21_s_IwAssertIgnoreThis-(.LPIC6+8)
	.cfi_endproc
.LFE1392:
	.size	_ZL13IwGxDataAllocjjPKcj, .-_ZL13IwGxDataAllocjjPKcj
	.section	.text.IwGxGetScreenWidth,"ax",%progbits
	.align	2
	.type	IwGxGetScreenWidth, %function
IwGxGetScreenWidth:
.LFB1400:
	.loc 6 401 0
	.cfi_startproc
	@ args = 0, pretend = 0, frame = 0
	@ frame_needed = 0, uses_anonymous_args = 0
	stmfd	sp!, {r3, lr}
.LCFI6:
	.cfi_def_cfa_offset 8
	.cfi_offset 3, -8
	.cfi_offset 14, -4
	.loc 6 401 0
	bl	_Z12IwGetGxStatev(PLT)
	mov	r3, r0
	ldr	r3, [r3, #836]
	mov	r0, r3
	ldmfd	sp!, {r3, pc}
	.cfi_endproc
.LFE1400:
	.size	IwGxGetScreenWidth, .-IwGxGetScreenWidth
	.section	.text.IwGxGetScreenHeight,"ax",%progbits
	.align	2
	.type	IwGxGetScreenHeight, %function
IwGxGetScreenHeight:
.LFB1401:
	.loc 6 412 0
	.cfi_startproc
	@ args = 0, pretend = 0, frame = 0
	@ frame_needed = 0, uses_anonymous_args = 0
	stmfd	sp!, {r3, lr}
.LCFI7:
	.cfi_def_cfa_offset 8
	.cfi_offset 3, -8
	.cfi_offset 14, -4
	.loc 6 412 0
	bl	_Z12IwGetGxStatev(PLT)
	mov	r3, r0
	ldr	r3, [r3, #840]
	mov	r0, r3
	ldmfd	sp!, {r3, pc}
	.cfi_endproc
.LFE1401:
	.size	IwGxGetScreenHeight, .-IwGxGetScreenHeight
	.section	.rodata
	.align	2
.LC4:
	.ascii	"Function table entry is NULL. Possibly IwGxInit_Bas"
	.ascii	"e() has been called without a corresponding renderi"
	.ascii	"ng solution.\000"
	.align	2
.LC5:
	.ascii	"g_IwGxFuncTable[IWGXFNE_Clear]\000"
	.section	.text._ZL9IwGxClearj,"ax",%progbits
	.align	2
	.type	_ZL9IwGxClearj, %function
_ZL9IwGxClearj:
.LFB1405:
	.loc 6 475 0
	.cfi_startproc
	@ args = 0, pretend = 0, frame = 8
	@ frame_needed = 0, uses_anonymous_args = 0
	stmfd	sp!, {r4, lr}
.LCFI8:
	.cfi_def_cfa_offset 8
	.cfi_offset 4, -8
	.cfi_offset 14, -4
	sub	sp, sp, #8
.LCFI9:
	.cfi_def_cfa_offset 16
	str	r0, [sp, #4]
	ldr	r4, .L40
.LPIC7:
	add	r4, pc, r4
.LBB5:
.LBB6:
.LBB7:
	.loc 6 476 0
	ldr	r3, .L40+4
	ldr	r3, [r4, r3]
	ldr	r3, [r3, #32]
	cmp	r3, #0
	bne	.L32
	.loc 6 476 0 is_stmt 0 discriminator 1
	ldr	r3, .L40+8
.LPIC8:
	add	r3, pc, r3
	mov	r0, r3
	bl	IwDebugAssertIsChannelOn(PLT)
	mov	r3, r0
	cmp	r3, #0
	beq	.L32
	ldr	r3, .L40+12
.LPIC9:
	add	r3, pc, r3
	ldrb	r3, [r3]	@ zero_extendqisi2
	cmp	r3, #0
	bne	.L32
	.loc 6 476 0 discriminator 3
	mov	r3, #1
	b	.L33
.L32:
	.loc 6 476 0 discriminator 2
	mov	r3, #0
.L33:
	.loc 6 476 0 discriminator 4
	cmp	r3, #0
	beq	.L34
	.loc 6 476 0 discriminator 1
	mov	r0, #0
	bl	IwDebugAssertSetSolution(PLT)
	ldr	r0, .L40+16
	bl	IwDebugAssertSetUID(PLT)
	ldr	r3, .L40+20
.LPIC10:
	add	r3, pc, r3
	mov	r0, r3
	bl	IwDebugAssertSetMessage(PLT)
	ldr	r3, .L40+24
.LPIC11:
	add	r3, pc, r3
	mov	r0, r3
	ldr	r3, .L40+28
.LPIC12:
	add	r3, pc, r3
	mov	r1, r3
	mov	r2, #476
	mov	r3, #1
	bl	IwDebugAssertShow(PLT)
	mov	r3, r0
	cmp	r3, #1
	beq	.L36
	cmp	r3, #2
	beq	.L37
	.loc 6 476 0
	b	.L35
.L36:
	.loc 6 476 0 discriminator 2
	bl	s3eDebugIsDebuggerPresent(PLT)
	mov	r3, r0
	cmp	r3, #0
	moveq	r3, #0
	movne	r3, #1
	uxtb	r3, r3
	cmp	r3, #0
	beq	.L38
	.loc 6 476 0 discriminator 1
	bl	s3eDebugIsDebuggerPresent(PLT)
	mov	r3, r0
	cmp	r3, #0
	moveq	r3, #0
	movne	r3, #1
	uxtb	r3, r3
	cmp	r3, #0
	beq	.L39
	mvn	r3, #11
	mov	r2, #0
	str	r2, [r3]
	b	.L39
.L38:
	.loc 6 476 0 discriminator 2
	bl	_ZL11IwDebugExitv(PLT)
	b	.L35
.L39:
	.loc 6 476 0 discriminator 1
	b	.L35
.L37:
	.loc 6 476 0 discriminator 3
	ldr	r3, .L40+32
.LPIC13:
	add	r3, pc, r3
	mov	r2, #1
	strb	r2, [r3]
	mov	r0, r0	@ nop
.L35:
	.loc 6 476 0 discriminator 1
	mov	r0, #0
	bl	IwDebugAssertSetUID(PLT)
.L34:
.LBE7:
.LBE6:
	.loc 6 476 0 discriminator 2
	ldr	r3, .L40+4
	ldr	r3, [r4, r3]
	ldr	r3, [r3, #32]
	ldr	r0, [sp, #4]
	blx	r3
.LBE5:
	.loc 6 477 0 is_stmt 1 discriminator 2
	add	sp, sp, #8
	@ sp needed
	ldmfd	sp!, {r4, pc}
.L41:
	.align	2
.L40:
	.word	_GLOBAL_OFFSET_TABLE_-(.LPIC7+8)
	.word	g_IwGxFuncTable(GOT)
	.word	.LC0-(.LPIC8+8)
	.word	_ZZL9IwGxClearjE21_s_IwAssertIgnoreThis-(.LPIC9+8)
	.word	773
	.word	.LC4-(.LPIC10+8)
	.word	.LC5-(.LPIC11+8)
	.word	.LC3-(.LPIC12+8)
	.word	_ZZL9IwGxClearjE21_s_IwAssertIgnoreThis-(.LPIC13+8)
	.cfi_endproc
.LFE1405:
	.size	_ZL9IwGxClearj, .-_ZL9IwGxClearj
	.section	.rodata
	.align	2
.LC6:
	.ascii	"Screenspace front slot %d is too large; maximum per"
	.ascii	"mitted is %d\000"
	.align	2
.LC7:
	.ascii	"false\000"
	.align	2
.LC8:
	.ascii	"Screenspace back slot %d is too large; maximum perm"
	.ascii	"itted is %d\000"
	.section	.text._ZL22IwGxSetScreenSpaceSloti,"ax",%progbits
	.align	2
	.type	_ZL22IwGxSetScreenSpaceSloti, %function
_ZL22IwGxSetScreenSpaceSloti:
.LFB1451:
	.loc 6 1282 0
	.cfi_startproc
	@ args = 0, pretend = 0, frame = 8
	@ frame_needed = 0, uses_anonymous_args = 0
	stmfd	sp!, {r4, lr}
.LCFI10:
	.cfi_def_cfa_offset 8
	.cfi_offset 4, -8
	.cfi_offset 14, -4
	sub	sp, sp, #8
.LCFI11:
	.cfi_def_cfa_offset 16
	str	r0, [sp, #4]
.LBB8:
.LBB9:
	.loc 6 1284 0
	ldr	r3, [sp, #4]
	cmp	r3, #0
	blt	.L43
.LBB10:
.LBB11:
	.loc 6 1286 0
	bl	_Z12IwGetGxStatev(PLT)
	mov	r3, r0
	ldr	r2, [r3, #948]
	ldr	r3, [sp, #4]
	cmp	r2, r3
	movgt	r3, #0
	movle	r3, #1
	uxtb	r3, r3
	cmp	r3, #0
	beq	.L44
.LBB12:
.LBB13:
.LBB14:
	.loc 6 1288 0
	ldr	r3, .L62
.LPIC14:
	add	r3, pc, r3
	mov	r0, r3
	bl	IwDebugAssertIsChannelOn(PLT)
	mov	r3, r0
	cmp	r3, #0
	beq	.L45
	.loc 6 1288 0 is_stmt 0 discriminator 1
	ldr	r3, .L62+4
.LPIC15:
	add	r3, pc, r3
	ldrb	r3, [r3]	@ zero_extendqisi2
	cmp	r3, #0
	bne	.L45
	.loc 6 1288 0 discriminator 3
	mov	r3, #1
	b	.L46
.L45:
	.loc 6 1288 0 discriminator 2
	mov	r3, #0
.L46:
	.loc 6 1288 0 discriminator 4
	cmp	r3, #0
	beq	.L47
	.loc 6 1288 0 discriminator 1
	mov	r0, #0
	bl	IwDebugAssertSetSolution(PLT)
	ldr	r0, .L62+8
	bl	IwDebugAssertSetUID(PLT)
	bl	_Z12IwGetGxStatev(PLT)
	mov	r3, r0
	ldr	r3, [r3, #948]
	ldr	r2, .L62+12
.LPIC16:
	add	r2, pc, r2
	mov	r0, r2
	ldr	r1, [sp, #4]
	mov	r2, r3
	bl	IwDebugAssertSetMessage(PLT)
	ldr	r3, .L62+16
.LPIC17:
	add	r3, pc, r3
	mov	r0, r3
	ldr	r3, .L62+20
.LPIC18:
	add	r3, pc, r3
	mov	r1, r3
	ldr	r2, .L62+24
	mov	r3, #1
	bl	IwDebugAssertShow(PLT)
	mov	r3, r0
	cmp	r3, #1
	beq	.L49
	cmp	r3, #2
	beq	.L50
	.loc 6 1288 0
	b	.L48
.L49:
	.loc 6 1288 0 discriminator 2
	bl	s3eDebugIsDebuggerPresent(PLT)
	mov	r3, r0
	cmp	r3, #0
	moveq	r3, #0
	movne	r3, #1
	uxtb	r3, r3
	cmp	r3, #0
	beq	.L51
	.loc 6 1288 0 discriminator 1
	bl	s3eDebugIsDebuggerPresent(PLT)
	mov	r3, r0
	cmp	r3, #0
	moveq	r3, #0
	movne	r3, #1
	uxtb	r3, r3
	cmp	r3, #0
	beq	.L52
	mvn	r3, #11
	mov	r2, #0
	str	r2, [r3]
	b	.L52
.L51:
	.loc 6 1288 0 discriminator 2
	bl	_ZL11IwDebugExitv(PLT)
	b	.L48
.L52:
	.loc 6 1288 0 discriminator 1
	b	.L48
.L50:
	.loc 6 1288 0 discriminator 3
	ldr	r3, .L62+28
.LPIC19:
	add	r3, pc, r3
	mov	r2, #1
	strb	r2, [r3]
	mov	r0, r0	@ nop
.L48:
	.loc 6 1288 0 discriminator 1
	mov	r0, #0
	bl	IwDebugAssertSetUID(PLT)
.L47:
.LBE14:
.LBE13:
	.loc 6 1289 0 is_stmt 1 discriminator 2
	bl	_Z12IwGetGxStatev(PLT)
	mov	r3, r0
	ldr	r3, [r3, #948]
	sub	r3, r3, #1
	str	r3, [sp, #4]
.L44:
.LBE12:
.LBE11:
.LBE10:
	b	.L53
.L43:
.LBB15:
.LBB16:
	.loc 6 1294 0
	ldr	r3, [sp, #4]
	mvn	r4, r3
	bl	_Z12IwGetGxStatev(PLT)
	mov	r3, r0
	ldr	r3, [r3, #952]
	cmp	r4, r3
	movlt	r3, #0
	movge	r3, #1
	uxtb	r3, r3
	cmp	r3, #0
	beq	.L53
.LBB17:
.LBB18:
.LBB19:
	.loc 6 1296 0
	ldr	r3, .L62+32
.LPIC20:
	add	r3, pc, r3
	mov	r0, r3
	bl	IwDebugAssertIsChannelOn(PLT)
	mov	r3, r0
	cmp	r3, #0
	beq	.L54
	.loc 6 1296 0 is_stmt 0 discriminator 1
	ldr	r3, .L62+36
.LPIC21:
	add	r3, pc, r3
	ldrb	r3, [r3]	@ zero_extendqisi2
	cmp	r3, #0
	bne	.L54
	.loc 6 1296 0 discriminator 3
	mov	r3, #1
	b	.L55
.L54:
	.loc 6 1296 0 discriminator 2
	mov	r3, #0
.L55:
	.loc 6 1296 0 discriminator 4
	cmp	r3, #0
	beq	.L56
	.loc 6 1296 0 discriminator 1
	mov	r0, #0
	bl	IwDebugAssertSetSolution(PLT)
	ldr	r0, .L62+40
	bl	IwDebugAssertSetUID(PLT)
	ldr	r3, [sp, #4]
	mvn	r4, r3
	bl	_Z12IwGetGxStatev(PLT)
	mov	r3, r0
	ldr	r3, [r3, #952]
	ldr	r2, .L62+44
.LPIC22:
	add	r2, pc, r2
	mov	r0, r2
	mov	r1, r4
	mov	r2, r3
	bl	IwDebugAssertSetMessage(PLT)
	ldr	r3, .L62+48
.LPIC23:
	add	r3, pc, r3
	mov	r0, r3
	ldr	r3, .L62+52
.LPIC24:
	add	r3, pc, r3
	mov	r1, r3
	mov	r2, #1296
	mov	r3, #1
	bl	IwDebugAssertShow(PLT)
	mov	r3, r0
	cmp	r3, #1
	beq	.L58
	cmp	r3, #2
	beq	.L59
	.loc 6 1296 0
	b	.L57
.L58:
	.loc 6 1296 0 discriminator 2
	bl	s3eDebugIsDebuggerPresent(PLT)
	mov	r3, r0
	cmp	r3, #0
	moveq	r3, #0
	movne	r3, #1
	uxtb	r3, r3
	cmp	r3, #0
	beq	.L60
	.loc 6 1296 0 discriminator 1
	bl	s3eDebugIsDebuggerPresent(PLT)
	mov	r3, r0
	cmp	r3, #0
	moveq	r3, #0
	movne	r3, #1
	uxtb	r3, r3
	cmp	r3, #0
	beq	.L61
	mvn	r3, #11
	mov	r2, #0
	str	r2, [r3]
	b	.L61
.L60:
	.loc 6 1296 0 discriminator 2
	bl	_ZL11IwDebugExitv(PLT)
	b	.L57
.L61:
	.loc 6 1296 0 discriminator 1
	b	.L57
.L59:
	.loc 6 1296 0 discriminator 3
	ldr	r3, .L62+56
.LPIC25:
	add	r3, pc, r3
	mov	r2, #1
	strb	r2, [r3]
	mov	r0, r0	@ nop
.L57:
	.loc 6 1296 0 discriminator 1
	mov	r0, #0
	bl	IwDebugAssertSetUID(PLT)
.L56:
.LBE19:
.LBE18:
	.loc 6 1297 0 is_stmt 1 discriminator 2
	bl	_Z12IwGetGxStatev(PLT)
	mov	r3, r0
	ldr	r3, [r3, #952]
	rsb	r3, r3, #0
	str	r3, [sp, #4]
.L53:
.LBE17:
.LBE16:
.LBE15:
.LBE9:
	.loc 6 1301 0
	bl	_Z12IwGetGxStatev(PLT)
	mov	r3, r0
	ldr	r2, [sp, #4]
	str	r2, [r3, #824]
.LBE8:
	.loc 6 1302 0
	add	sp, sp, #8
	@ sp needed
	ldmfd	sp!, {r4, pc}
.L63:
	.align	2
.L62:
	.word	.LC0-(.LPIC14+8)
	.word	_ZZL22IwGxSetScreenSpaceSlotiE21_s_IwAssertIgnoreThis-(.LPIC15+8)
	.word	750
	.word	.LC6-(.LPIC16+8)
	.word	.LC7-(.LPIC17+8)
	.word	.LC3-(.LPIC18+8)
	.word	1288
	.word	_ZZL22IwGxSetScreenSpaceSlotiE21_s_IwAssertIgnoreThis-(.LPIC19+8)
	.word	.LC0-(.LPIC20+8)
	.word	_ZZL22IwGxSetScreenSpaceSlotiE21_s_IwAssertIgnoreThis_0-(.LPIC21+8)
	.word	751
	.word	.LC8-(.LPIC22+8)
	.word	.LC7-(.LPIC23+8)
	.word	.LC3-(.LPIC24+8)
	.word	_ZZL22IwGxSetScreenSpaceSlotiE21_s_IwAssertIgnoreThis_0-(.LPIC25+8)
	.cfi_endproc
.LFE1451:
	.size	_ZL22IwGxSetScreenSpaceSloti, .-_ZL22IwGxSetScreenSpaceSloti
	.section	.rodata
	.align	2
.LC9:
	.ascii	"Trying to modify material which is already in use.\012"
	.ascii	"This may cause unexpected behaviour.\000"
	.align	2
.LC10:
	.ascii	"!(m_Flags & IN_USE_F)\000"
	.align	2
.LC11:
	.ascii	"c:/marmalade/7.4/modules/legacy/iwgx/h/IwMaterial.h"
	.ascii	"\000"
	.align	2
.LC12:
	.ascii	"Setting invalid ALPHA_MODE: %d\000"
	.align	2
.LC13:
	.ascii	"(int32)mode << ALPHA_MODE_SHIFT <= (int32)ALPHA_MOD"
	.ascii	"E_MASK\000"
	.section	.text._ZN11CIwMaterial12SetAlphaModeENS_9AlphaModeE,"axG",%progbits,_ZN11CIwMaterial12SetAlphaModeENS_9AlphaModeE,comdat
	.align	2
	.weak	_ZN11CIwMaterial12SetAlphaModeENS_9AlphaModeE
	.hidden	_ZN11CIwMaterial12SetAlphaModeENS_9AlphaModeE
	.type	_ZN11CIwMaterial12SetAlphaModeENS_9AlphaModeE, %function
_ZN11CIwMaterial12SetAlphaModeENS_9AlphaModeE:
.LFB1791:
	.file 7 "c:/marmalade/7.4/modules/legacy/iwgx/h/IwMaterial.h"
	.loc 7 784 0
	.cfi_startproc
	@ args = 0, pretend = 0, frame = 8
	@ frame_needed = 0, uses_anonymous_args = 0
	str	lr, [sp, #-4]!
.LCFI12:
	.cfi_def_cfa_offset 4
	.cfi_offset 14, -4
	sub	sp, sp, #12
.LCFI13:
	.cfi_def_cfa_offset 16
	str	r0, [sp, #4]
	str	r1, [sp]
.LBB20:
.LBB21:
.LBB22:
	.loc 7 786 0
	ldr	r3, [sp, #4]
	ldr	r3, [r3, #16]
	and	r3, r3, #4096
	cmp	r3, #0
	beq	.L65
	.loc 7 786 0 is_stmt 0 discriminator 1
	ldr	r3, .L81
.LPIC26:
	add	r3, pc, r3
	mov	r0, r3
	bl	IwDebugAssertIsChannelOn(PLT)
	mov	r3, r0
	cmp	r3, #0
	beq	.L65
	ldr	r3, .L81+4
.LPIC27:
	add	r3, pc, r3
	ldrb	r3, [r3]	@ zero_extendqisi2
	cmp	r3, #0
	bne	.L65
	.loc 7 786 0 discriminator 3
	mov	r3, #1
	b	.L66
.L65:
	.loc 7 786 0 discriminator 2
	mov	r3, #0
.L66:
	.loc 7 786 0 discriminator 4
	cmp	r3, #0
	beq	.L67
	.loc 7 786 0 discriminator 1
	mov	r0, #0
	bl	IwDebugAssertSetSolution(PLT)
	ldr	r0, .L81+8
	bl	IwDebugAssertSetUID(PLT)
	ldr	r3, .L81+12
.LPIC28:
	add	r3, pc, r3
	mov	r0, r3
	bl	IwDebugAssertSetMessage(PLT)
	ldr	r3, .L81+16
.LPIC29:
	add	r3, pc, r3
	mov	r0, r3
	ldr	r3, .L81+20
.LPIC30:
	add	r3, pc, r3
	mov	r1, r3
	ldr	r2, .L81+24
	mov	r3, #1
	bl	IwDebugAssertShow(PLT)
	mov	r3, r0
	cmp	r3, #1
	beq	.L69
	cmp	r3, #2
	beq	.L70
	.loc 7 786 0
	b	.L68
.L69:
	.loc 7 786 0 discriminator 2
	bl	s3eDebugIsDebuggerPresent(PLT)
	mov	r3, r0
	cmp	r3, #0
	moveq	r3, #0
	movne	r3, #1
	uxtb	r3, r3
	cmp	r3, #0
	beq	.L71
	.loc 7 786 0 discriminator 1
	bl	s3eDebugIsDebuggerPresent(PLT)
	mov	r3, r0
	cmp	r3, #0
	moveq	r3, #0
	movne	r3, #1
	uxtb	r3, r3
	cmp	r3, #0
	beq	.L72
	mvn	r3, #11
	mov	r2, #0
	str	r2, [r3]
	b	.L72
.L71:
	.loc 7 786 0 discriminator 2
	bl	_ZL11IwDebugExitv(PLT)
	b	.L68
.L72:
	.loc 7 786 0 discriminator 1
	b	.L68
.L70:
	.loc 7 786 0 discriminator 3
	ldr	r3, .L81+28
.LPIC31:
	add	r3, pc, r3
	mov	r2, #1
	strb	r2, [r3]
	mov	r0, r0	@ nop
.L68:
	.loc 7 786 0 discriminator 1
	mov	r0, #0
	bl	IwDebugAssertSetUID(PLT)
.L67:
.LBE22:
.LBE21:
.LBB23:
.LBB24:
	.loc 7 787 0 is_stmt 1
	ldr	r3, [sp]
	mov	r3, r3, asl #16
	cmp	r3, #458752
	ble	.L73
	.loc 7 787 0 is_stmt 0 discriminator 1
	ldr	r3, .L81+32
.LPIC32:
	add	r3, pc, r3
	mov	r0, r3
	bl	IwDebugAssertIsChannelOn(PLT)
	mov	r3, r0
	cmp	r3, #0
	beq	.L73
	ldr	r3, .L81+36
.LPIC33:
	add	r3, pc, r3
	ldrb	r3, [r3]	@ zero_extendqisi2
	cmp	r3, #0
	bne	.L73
	.loc 7 787 0 discriminator 3
	mov	r3, #1
	b	.L74
.L73:
	.loc 7 787 0 discriminator 2
	mov	r3, #0
.L74:
	.loc 7 787 0 discriminator 4
	cmp	r3, #0
	beq	.L75
	.loc 7 787 0 discriminator 1
	mov	r0, #0
	bl	IwDebugAssertSetSolution(PLT)
	mov	r0, #0
	bl	IwDebugAssertSetUID(PLT)
	ldr	r3, [sp]
	ldr	r2, .L81+40
.LPIC34:
	add	r2, pc, r2
	mov	r0, r2
	mov	r1, r3
	bl	IwDebugAssertSetMessage(PLT)
	ldr	r3, .L81+44
.LPIC35:
	add	r3, pc, r3
	mov	r0, r3
	ldr	r3, .L81+48
.LPIC36:
	add	r3, pc, r3
	mov	r1, r3
	ldr	r2, .L81+52
	mov	r3, #1
	bl	IwDebugAssertShow(PLT)
	mov	r3, r0
	cmp	r3, #1
	beq	.L77
	cmp	r3, #2
	beq	.L78
	.loc 7 787 0
	b	.L76
.L77:
	.loc 7 787 0 discriminator 2
	bl	s3eDebugIsDebuggerPresent(PLT)
	mov	r3, r0
	cmp	r3, #0
	moveq	r3, #0
	movne	r3, #1
	uxtb	r3, r3
	cmp	r3, #0
	beq	.L79
	.loc 7 787 0 discriminator 1
	bl	s3eDebugIsDebuggerPresent(PLT)
	mov	r3, r0
	cmp	r3, #0
	moveq	r3, #0
	movne	r3, #1
	uxtb	r3, r3
	cmp	r3, #0
	beq	.L80
	mvn	r3, #11
	mov	r2, #0
	str	r2, [r3]
	b	.L80
.L79:
	.loc 7 787 0 discriminator 2
	bl	_ZL11IwDebugExitv(PLT)
	b	.L76
.L80:
	.loc 7 787 0 discriminator 1
	b	.L76
.L78:
	.loc 7 787 0 discriminator 3
	ldr	r3, .L81+56
.LPIC37:
	add	r3, pc, r3
	mov	r2, #1
	strb	r2, [r3]
	mov	r0, r0	@ nop
.L76:
	.loc 7 787 0 discriminator 1
	mov	r0, #0
	bl	IwDebugAssertSetUID(PLT)
.L75:
.LBE24:
.LBE23:
	.loc 7 789 0 is_stmt 1
	ldr	r0, [sp, #4]
	mov	r1, #458752
	bl	_ZN11CIwMaterial11_ClearFlagsEj(PLT)
	.loc 7 790 0
	ldr	r3, [sp]
	mov	r3, r3, asl #16
	ldr	r0, [sp, #4]
	mov	r1, r3
	bl	_ZN11CIwMaterial9_SetFlagsEj(PLT)
.LBE20:
	.loc 7 791 0
	add	sp, sp, #12
	@ sp needed
	ldr	pc, [sp], #4
.L82:
	.align	2
.L81:
	.word	.LC0-(.LPIC26+8)
	.word	_ZZN11CIwMaterial12SetAlphaModeENS_9AlphaModeEE21_s_IwAssertIgnoreThis-(.LPIC27+8)
	.word	790
	.word	.LC9-(.LPIC28+8)
	.word	.LC10-(.LPIC29+8)
	.word	.LC11-(.LPIC30+8)
	.word	786
	.word	_ZZN11CIwMaterial12SetAlphaModeENS_9AlphaModeEE21_s_IwAssertIgnoreThis-(.LPIC31+8)
	.word	.LC0-(.LPIC32+8)
	.word	_ZZN11CIwMaterial12SetAlphaModeENS_9AlphaModeEE21_s_IwAssertIgnoreThis_0-(.LPIC33+8)
	.word	.LC12-(.LPIC34+8)
	.word	.LC13-(.LPIC35+8)
	.word	.LC11-(.LPIC36+8)
	.word	787
	.word	_ZZN11CIwMaterial12SetAlphaModeENS_9AlphaModeEE21_s_IwAssertIgnoreThis_0-(.LPIC37+8)
	.cfi_endproc
.LFE1791:
	.size	_ZN11CIwMaterial12SetAlphaModeENS_9AlphaModeE, .-_ZN11CIwMaterial12SetAlphaModeENS_9AlphaModeE
	.section	.text._ZN11CIwMaterial13SetColAmbientEhhhh,"axG",%progbits,_ZN11CIwMaterial13SetColAmbientEhhhh,comdat
	.align	2
	.weak	_ZN11CIwMaterial13SetColAmbientEhhhh
	.hidden	_ZN11CIwMaterial13SetColAmbientEhhhh
	.type	_ZN11CIwMaterial13SetColAmbientEhhhh, %function
_ZN11CIwMaterial13SetColAmbientEhhhh:
.LFB1808:
	.loc 7 1016 0
	.cfi_startproc
	@ args = 4, pretend = 0, frame = 8
	@ frame_needed = 0, uses_anonymous_args = 0
	@ link register save eliminated.
	sub	sp, sp, #8
.LCFI14:
	.cfi_def_cfa_offset 8
	str	r0, [sp, #4]
	strb	r1, [sp, #3]
	strb	r2, [sp, #2]
	strb	r3, [sp, #1]
	.loc 7 1016 0
	ldr	r3, [sp, #4]
	ldrb	r2, [sp, #3]
	strb	r2, [r3, #32]
	ldr	r3, [sp, #4]
	ldrb	r2, [sp, #2]
	strb	r2, [r3, #33]
	ldr	r3, [sp, #4]
	ldrb	r2, [sp, #1]
	strb	r2, [r3, #34]
	ldr	r3, [sp, #4]
	ldrb	r2, [sp, #8]
	strb	r2, [r3, #35]
	add	sp, sp, #8
	@ sp needed
	bx	lr
	.cfi_endproc
.LFE1808:
	.size	_ZN11CIwMaterial13SetColAmbientEhhhh, .-_ZN11CIwMaterial13SetColAmbientEhhhh
	.section	.text._ZN11CIwMaterial9_SetFlagsEj,"axG",%progbits,_ZN11CIwMaterial9_SetFlagsEj,comdat
	.align	2
	.weak	_ZN11CIwMaterial9_SetFlagsEj
	.hidden	_ZN11CIwMaterial9_SetFlagsEj
	.type	_ZN11CIwMaterial9_SetFlagsEj, %function
_ZN11CIwMaterial9_SetFlagsEj:
.LFB1858:
	.loc 7 1571 0
	.cfi_startproc
	@ args = 0, pretend = 0, frame = 8
	@ frame_needed = 0, uses_anonymous_args = 0
	@ link register save eliminated.
	sub	sp, sp, #8
.LCFI15:
	.cfi_def_cfa_offset 8
	str	r0, [sp, #4]
	str	r1, [sp]
	.loc 7 1571 0
	ldr	r3, [sp, #4]
	ldr	r2, [r3, #16]
	ldr	r3, [sp]
	orr	r2, r2, r3
	ldr	r3, [sp, #4]
	str	r2, [r3, #16]
	add	sp, sp, #8
	@ sp needed
	bx	lr
	.cfi_endproc
.LFE1858:
	.size	_ZN11CIwMaterial9_SetFlagsEj, .-_ZN11CIwMaterial9_SetFlagsEj
	.section	.text._ZN11CIwMaterial11_ClearFlagsEj,"axG",%progbits,_ZN11CIwMaterial11_ClearFlagsEj,comdat
	.align	2
	.weak	_ZN11CIwMaterial11_ClearFlagsEj
	.hidden	_ZN11CIwMaterial11_ClearFlagsEj
	.type	_ZN11CIwMaterial11_ClearFlagsEj, %function
_ZN11CIwMaterial11_ClearFlagsEj:
.LFB1859:
	.loc 7 1572 0
	.cfi_startproc
	@ args = 0, pretend = 0, frame = 8
	@ frame_needed = 0, uses_anonymous_args = 0
	@ link register save eliminated.
	sub	sp, sp, #8
.LCFI16:
	.cfi_def_cfa_offset 8
	str	r0, [sp, #4]
	str	r1, [sp]
	.loc 7 1572 0
	ldr	r3, [sp, #4]
	ldr	r2, [r3, #16]
	ldr	r3, [sp]
	mvn	r3, r3
	and	r2, r2, r3
	ldr	r3, [sp, #4]
	str	r2, [r3, #16]
	add	sp, sp, #8
	@ sp needed
	bx	lr
	.cfi_endproc
.LFE1859:
	.size	_ZN11CIwMaterial11_ClearFlagsEj, .-_ZN11CIwMaterial11_ClearFlagsEj
	.section	.text._ZN11CIwMaterial12SetAlphaModeEh,"axG",%progbits,_ZN11CIwMaterial12SetAlphaModeEh,comdat
	.align	2
	.weak	_ZN11CIwMaterial12SetAlphaModeEh
	.hidden	_ZN11CIwMaterial12SetAlphaModeEh
	.type	_ZN11CIwMaterial12SetAlphaModeEh, %function
_ZN11CIwMaterial12SetAlphaModeEh:
.LFB1869:
	.loc 7 1617 0
	.cfi_startproc
	@ args = 0, pretend = 0, frame = 8
	@ frame_needed = 0, uses_anonymous_args = 0
	str	lr, [sp, #-4]!
.LCFI17:
	.cfi_def_cfa_offset 4
	.cfi_offset 14, -4
	sub	sp, sp, #12
.LCFI18:
	.cfi_def_cfa_offset 16
	str	r0, [sp, #4]
	mov	r3, r1
	strb	r3, [sp, #3]
	.loc 7 1617 0
	ldrb	r3, [sp, #3]	@ zero_extendqisi2
	ldr	r0, [sp, #4]
	mov	r1, r3
	bl	_ZN11CIwMaterial12SetAlphaModeENS_9AlphaModeE(PLT)
	add	sp, sp, #12
	@ sp needed
	ldr	pc, [sp], #4
	.cfi_endproc
.LFE1869:
	.size	_ZN11CIwMaterial12SetAlphaModeEh, .-_ZN11CIwMaterial12SetAlphaModeEh
	.section	.rodata
	.align	2
.LC14:
	.ascii	"CIwMaterial\000"
	.section	.text._Z20IW_GX_ALLOC_MATERIALv,"axG",%progbits,_Z20IW_GX_ALLOC_MATERIALv,comdat
	.align	2
	.weak	_Z20IW_GX_ALLOC_MATERIALv
	.hidden	_Z20IW_GX_ALLOC_MATERIALv
	.type	_Z20IW_GX_ALLOC_MATERIALv, %function
_Z20IW_GX_ALLOC_MATERIALv:
.LFB1872:
	.loc 7 1704 0
	.cfi_startproc
	@ args = 0, pretend = 0, frame = 8
	@ frame_needed = 0, uses_anonymous_args = 0
	stmfd	sp!, {r4, lr}
.LCFI19:
	.cfi_def_cfa_offset 8
	.cfi_offset 4, -8
	.cfi_offset 14, -4
	sub	sp, sp, #8
.LCFI20:
	.cfi_def_cfa_offset 16
.LBB25:
	.loc 7 1708 0
	mov	r0, #88
	mov	r1, #1
	ldr	r3, .L89
.LPIC38:
	add	r3, pc, r3
	mov	r2, r3
	mov	r3, #0
	bl	_ZL13IwGxDataAllocjjPKcj(PLT)
	mov	r3, r0
	mov	r0, #88
	mov	r1, r3
	bl	_ZnwjPv(PLT)
	mov	r4, r0
	mov	r0, r4
	bl	_ZN11CIwMaterialC1Ev(PLT)
	str	r4, [sp, #4]
	.loc 7 1709 0
	ldr	r3, [sp, #4]
.LBE25:
	.loc 7 1710 0
	mov	r0, r3
	add	sp, sp, #8
	@ sp needed
	ldmfd	sp!, {r4, pc}
.L90:
	.align	2
.L89:
	.word	.LC14-(.LPIC38+8)
	.cfi_endproc
.LFE1872:
	.size	_Z20IW_GX_ALLOC_MATERIALv, .-_Z20IW_GX_ALLOC_MATERIALv
	.section	.text._ZN9ExButtonsC2Ev,"axG",%progbits,_ZN9ExButtonsC5Ev,comdat
	.align	2
	.weak	_ZN9ExButtonsC2Ev
	.hidden	_ZN9ExButtonsC2Ev
	.type	_ZN9ExButtonsC2Ev, %function
_ZN9ExButtonsC2Ev:
.LFB1993:
	.file 8 "c:/marmalade/7.4/examples/examplescore/ExamplesMain.h"
	.loc 8 42 0
	.cfi_startproc
	@ args = 0, pretend = 0, frame = 8
	@ frame_needed = 0, uses_anonymous_args = 0
	@ link register save eliminated.
	sub	sp, sp, #8
.LCFI21:
	.cfi_def_cfa_offset 8
	str	r0, [sp, #4]
.LBB26:
	.loc 8 44 0
	ldr	r3, [sp, #4]
	mov	r2, #0
	strb	r2, [r3]
	.loc 8 45 0
	ldr	r3, [sp, #4]
	mov	r2, #0
	str	r2, [r3, #64]
	.loc 8 46 0
	ldr	r3, [sp, #4]
	mov	r2, #0
	str	r2, [r3, #68]
	.loc 8 47 0
	ldr	r3, [sp, #4]
	mov	r2, #0
	str	r2, [r3, #72]
	.loc 8 48 0
	ldr	r3, [sp, #4]
	mov	r2, #0
	str	r2, [r3, #76]
	.loc 8 49 0
	ldr	r3, [sp, #4]
	mov	r2, #0
	str	r2, [r3, #80]
	.loc 8 50 0
	ldr	r3, [sp, #4]
	mov	r2, #0
	str	r2, [r3, #84]
	.loc 8 51 0
	ldr	r3, [sp, #4]
	mov	r2, #0
	str	r2, [r3, #88]
	.loc 8 52 0
	ldr	r3, [sp, #4]
	mov	r2, #0
	str	r2, [r3, #92]
.LBE26:
	.loc 8 53 0
	ldr	r3, [sp, #4]
	mov	r0, r3
	add	sp, sp, #8
	@ sp needed
	bx	lr
	.cfi_endproc
.LFE1993:
	.size	_ZN9ExButtonsC2Ev, .-_ZN9ExButtonsC2Ev
	.weak	_ZN9ExButtonsC1Ev
	.hidden	_ZN9ExButtonsC1Ev
	.set	_ZN9ExButtonsC1Ev,_ZN9ExButtonsC2Ev
	.hidden	g_ButtonsHead
	.global	g_ButtonsHead
	.bss
	.align	2
	.type	g_ButtonsHead, %object
	.size	g_ButtonsHead, 4
g_ButtonsHead:
	.space	4
	.hidden	g_ButtonsTail
	.global	g_ButtonsTail
	.align	2
	.type	g_ButtonsTail, %object
	.size	g_ButtonsTail, 4
g_ButtonsTail:
	.space	4
	.hidden	g_Cursorkey
	.global	g_Cursorkey
	.align	2
	.type	g_Cursorkey, %object
	.size	g_Cursorkey, 4
g_Cursorkey:
	.space	4
	.align	2
_ZL16g_CursorMaterial:
	.space	4
	.data
	.type	_ZL12g_EnableExit, %object
	.size	_ZL12g_EnableExit, 1
_ZL12g_EnableExit:
	.byte	1
	.type	_ZL10g_DrawExit, %object
	.size	_ZL10g_DrawExit, 1
_ZL10g_DrawExit:
	.byte	1
	.section	.text.DisplayMessage,"ax",%progbits
	.align	2
	.global	DisplayMessage
	.hidden	DisplayMessage
	.type	DisplayMessage, %function
DisplayMessage:
.LFB1995:
	.file 9 "c:/marmalade/7.4/examples/examplescore/ExamplesMain.cpp"
	.loc 9 45 0
	.cfi_startproc
	@ args = 0, pretend = 0, frame = 32
	@ frame_needed = 0, uses_anonymous_args = 0
	str	lr, [sp, #-4]!
.LCFI22:
	.cfi_def_cfa_offset 4
	.cfi_offset 14, -4
	sub	sp, sp, #36
.LCFI23:
	.cfi_def_cfa_offset 40
	str	r0, [sp, #4]
.LBB27:
	.loc 9 46 0
	bl	s3eSurfacePtr(PLT)
	str	r0, [sp, #20]
	.loc 9 47 0
	mov	r0, #0
	bl	s3eSurfaceGetInt(PLT)
	str	r0, [sp, #16]
	.loc 9 48 0
	mov	r0, #1
	bl	s3eSurfaceGetInt(PLT)
	str	r0, [sp, #12]
	.loc 9 49 0
	mov	r0, #2
	bl	s3eSurfaceGetInt(PLT)
	str	r0, [sp, #8]
.LBB28:
	.loc 9 50 0
	mov	r3, #0
	str	r3, [sp, #28]
	b	.L95
.L98:
.LBB29:
.LBB30:
	.loc 9 51 0
	mov	r3, #0
	str	r3, [sp, #24]
	b	.L96
.L97:
	.loc 9 52 0 discriminator 2
	ldr	r3, [sp, #28]
	ldr	r2, [sp, #8]
	mul	r3, r2, r3
	mov	r2, r3, lsr #31
	add	r3, r2, r3
	mov	r3, r3, asr #1
	mov	r2, r3
	ldr	r3, [sp, #24]
	add	r3, r2, r3
	mov	r3, r3, asl #1
	ldr	r2, [sp, #20]
	add	r3, r2, r3
	mov	r2, #0
	strh	r2, [r3]	@ movhi
	.loc 9 51 0 discriminator 2
	ldr	r3, [sp, #24]
	add	r3, r3, #1
	str	r3, [sp, #24]
.L96:
	.loc 9 51 0 is_stmt 0 discriminator 1
	ldr	r2, [sp, #24]
	ldr	r3, [sp, #16]
	cmp	r2, r3
	blt	.L97
.LBE30:
.LBE29:
	.loc 9 50 0 is_stmt 1
	ldr	r3, [sp, #28]
	add	r3, r3, #1
	str	r3, [sp, #28]
.L95:
	.loc 9 50 0 is_stmt 0 discriminator 1
	ldr	r2, [sp, #28]
	ldr	r3, [sp, #12]
	cmp	r2, r3
	blt	.L98
.LBE28:
	.loc 9 53 0 is_stmt 1
	mov	r0, #0
	mov	r1, #10
	ldr	r2, [sp, #4]
	mov	r3, #1
	bl	s3eDebugPrint(PLT)
	.loc 9 54 0
	bl	s3eSurfaceShow(PLT)
	.loc 9 55 0
	b	.L99
.L102:
	.loc 9 57 0
	mov	r0, #0
	bl	s3eDeviceYield(PLT)
	.loc 9 58 0
	bl	s3eKeyboardUpdate(PLT)
.L99:
	.loc 9 55 0 discriminator 1
	bl	s3eDeviceCheckQuitRequest(PLT)
	mov	r3, r0
	cmp	r3, #0
	bne	.L100
	bl	s3eKeyboardAnyKey(PLT)
	mov	r3, r0
	cmp	r3, #0
	bne	.L100
	.loc 9 55 0 is_stmt 0 discriminator 3
	mov	r3, #1
	b	.L101
.L100:
	.loc 9 55 0 discriminator 2
	mov	r3, #0
.L101:
	.loc 9 55 0 discriminator 4
	cmp	r3, #0
	bne	.L102
.LBE27:
	.loc 9 60 0 is_stmt 1
	add	sp, sp, #36
	@ sp needed
	ldr	pc, [sp], #4
	.cfi_endproc
.LFE1995:
	.size	DisplayMessage, .-DisplayMessage
	.section	.rodata
	.align	2
.LC15:
	.ascii	"CIwSVec2\000"
	.section	.text.AllocClientScreenRectangle,"ax",%progbits
	.align	2
	.global	AllocClientScreenRectangle
	.hidden	AllocClientScreenRectangle
	.type	AllocClientScreenRectangle, %function
AllocClientScreenRectangle:
.LFB1996:
	.loc 9 63 0
	.cfi_startproc
	@ args = 0, pretend = 0, frame = 8
	@ frame_needed = 0, uses_anonymous_args = 0
	stmfd	sp!, {r4, lr}
.LCFI24:
	.cfi_def_cfa_offset 8
	.cfi_offset 4, -8
	.cfi_offset 14, -4
	sub	sp, sp, #8
.LCFI25:
	.cfi_def_cfa_offset 16
.LBB31:
	.loc 9 64 0
	mov	r0, #4
	mov	r1, #4
	ldr	r3, .L105
.LPIC39:
	add	r3, pc, r3
	mov	r2, r3
	mov	r3, #0
	bl	_ZL13IwGxDataAllocjjPKcj(PLT)
	str	r0, [sp, #4]
	.loc 9 65 0
	ldr	r3, [sp, #4]
	mov	r2, #0
	strh	r2, [r3]	@ movhi
	ldr	r3, [sp, #4]
	mov	r2, #0
	strh	r2, [r3, #2]	@ movhi
	.loc 9 66 0
	ldr	r3, [sp, #4]
	add	r3, r3, #4
	mov	r2, #0
	strh	r2, [r3]	@ movhi
	ldr	r3, [sp, #4]
	add	r4, r3, #4
	bl	IwGxGetScreenHeight(PLT)
	mov	r3, r0
	uxth	r3, r3
	strh	r3, [r4, #2]	@ movhi
	.loc 9 67 0
	ldr	r3, [sp, #4]
	add	r4, r3, #8
	bl	IwGxGetScreenWidth(PLT)
	mov	r3, r0
	uxth	r3, r3
	strh	r3, [r4]	@ movhi
	ldr	r3, [sp, #4]
	add	r3, r3, #8
	mov	r2, #0
	strh	r2, [r3, #2]	@ movhi
	.loc 9 68 0
	ldr	r3, [sp, #4]
	add	r4, r3, #12
	bl	IwGxGetScreenWidth(PLT)
	mov	r3, r0
	uxth	r3, r3
	strh	r3, [r4]	@ movhi
	ldr	r3, [sp, #4]
	add	r4, r3, #12
	bl	IwGxGetScreenHeight(PLT)
	mov	r3, r0
	uxth	r3, r3
	strh	r3, [r4, #2]	@ movhi
	.loc 9 70 0
	ldr	r3, [sp, #4]
.LBE31:
	.loc 9 71 0
	mov	r0, r3
	add	sp, sp, #8
	@ sp needed
	ldmfd	sp!, {r4, pc}
.L106:
	.align	2
.L105:
	.word	.LC15-(.LPIC39+8)
	.cfi_endproc
.LFE1996:
	.size	AllocClientScreenRectangle, .-AllocClientScreenRectangle
	.section	.rodata
	.align	2
.LC16:
	.ascii	"CIwColour\000"
	.section	.text._Z13RenderSoftkeyPKc24s3eDeviceSoftKeyPositionPFvvE,"ax",%progbits
	.align	2
	.global	_Z13RenderSoftkeyPKc24s3eDeviceSoftKeyPositionPFvvE
	.hidden	_Z13RenderSoftkeyPKc24s3eDeviceSoftKeyPositionPFvvE
	.type	_Z13RenderSoftkeyPKc24s3eDeviceSoftKeyPositionPFvvE, %function
_Z13RenderSoftkeyPKc24s3eDeviceSoftKeyPositionPFvvE:
.LFB1997:
	.loc 9 74 0
	.cfi_startproc
	@ args = 0, pretend = 0, frame = 56
	@ frame_needed = 0, uses_anonymous_args = 0
	str	lr, [sp, #-4]!
.LCFI26:
	.cfi_def_cfa_offset 4
	.cfi_offset 14, -4
	sub	sp, sp, #60
.LCFI27:
	.cfi_def_cfa_offset 64
	str	r0, [sp, #12]
	str	r1, [sp, #8]
	str	r2, [sp, #4]
.LBB32:
	.loc 9 75 0
	mov	r3, #7
	str	r3, [sp, #44]
	.loc 9 76 0
	mov	r3, #30
	str	r3, [sp, #40]
	.loc 9 77 0
	ldr	r0, [sp, #12]
	bl	strlen(PLT)
	mov	r3, r0
	ldr	r2, [sp, #44]
	mul	r3, r2, r3
	mov	r3, r3, asl #1
	str	r3, [sp, #44]
	.loc 9 78 0
	mov	r3, #0
	str	r3, [sp, #52]
	.loc 9 79 0
	mov	r3, #0
	str	r3, [sp, #48]
	.loc 9 80 0
	ldr	r3, [sp, #8]
	cmp	r3, #3
	addls	pc, pc, r3, asl #2
	b	.L108
.L110:
	b	.L109
	b	.L111
	b	.L112
	b	.L113
.L109:
	.loc 9 83 0
	bl	IwGxGetScreenHeight(PLT)
	mov	r2, r0
	ldr	r3, [sp, #40]
	rsb	r3, r3, r2
	str	r3, [sp, #48]
	.loc 9 84 0
	mov	r3, #0
	str	r3, [sp, #52]
	.loc 9 85 0
	b	.L108
.L111:
	.loc 9 87 0
	bl	IwGxGetScreenHeight(PLT)
	mov	r2, r0
	ldr	r3, [sp, #40]
	rsb	r3, r3, r2
	str	r3, [sp, #48]
	.loc 9 88 0
	bl	IwGxGetScreenWidth(PLT)
	mov	r2, r0
	ldr	r3, [sp, #44]
	rsb	r3, r3, r2
	str	r3, [sp, #52]
	.loc 9 89 0
	b	.L108
.L112:
	.loc 9 91 0
	mov	r3, #0
	str	r3, [sp, #48]
	.loc 9 92 0
	bl	IwGxGetScreenWidth(PLT)
	mov	r2, r0
	ldr	r3, [sp, #44]
	rsb	r3, r3, r2
	str	r3, [sp, #52]
	.loc 9 93 0
	b	.L108
.L113:
	.loc 9 95 0
	mov	r3, #0
	str	r3, [sp, #52]
	.loc 9 96 0
	mov	r3, #0
	str	r3, [sp, #48]
	.loc 9 97 0
	mov	r0, r0	@ nop
.L108:
	.loc 9 100 0
	bl	_Z20IW_GX_ALLOC_MATERIALv(PLT)
	str	r0, [sp, #36]
	.loc 9 101 0
	ldr	r0, [sp, #36]
	mov	r1, #3
	bl	_ZN11CIwMaterial12SetAlphaModeEh(PLT)
	.loc 9 102 0
	ldr	r0, [sp, #36]
	bl	_Z15IwGxSetMaterialP11CIwMaterial(PLT)
	.loc 9 104 0
	ldr	r3, [sp, #52]
	add	r2, r3, #10
	ldr	r3, [sp, #48]
	add	r3, r3, #10
	mov	r0, r2
	mov	r1, r3
	ldr	r2, [sp, #12]
	mov	r3, #0
	bl	_Z15IwGxPrintStringiiPKcb(PLT)
	.loc 9 106 0
	mov	r0, #4
	mov	r1, #4
	ldr	r3, .L116
.LPIC40:
	add	r3, pc, r3
	mov	r2, r3
	mov	r3, #0
	bl	_ZL13IwGxDataAllocjjPKcj(PLT)
	str	r0, [sp, #32]
	.loc 9 107 0
	mov	r3, #16
	ldr	r0, [sp, #32]
	mov	r1, #50
	mov	r2, r3
	bl	memset(PLT)
.LBB33:
	.loc 9 109 0
	mov	r0, #0
	bl	s3ePointerGetState(PLT)
	mov	r3, r0
	and	r3, r3, #2
	cmp	r3, #0
	moveq	r3, #0
	movne	r3, #1
	uxtb	r3, r3
	cmp	r3, #0
	beq	.L114
.LBB34:
	.loc 9 111 0
	bl	s3ePointerGetX(PLT)
	str	r0, [sp, #28]
	.loc 9 112 0
	bl	s3ePointerGetY(PLT)
	str	r0, [sp, #24]
	.loc 9 113 0
	ldr	r2, [sp, #28]
	ldr	r3, [sp, #52]
	cmp	r2, r3
	blt	.L115
	.loc 9 113 0 is_stmt 0 discriminator 1
	ldr	r2, [sp, #52]
	ldr	r3, [sp, #44]
	add	r2, r2, r3
	ldr	r3, [sp, #28]
	cmp	r2, r3
	blt	.L115
	ldr	r2, [sp, #24]
	ldr	r3, [sp, #48]
	cmp	r2, r3
	blt	.L115
	ldr	r2, [sp, #48]
	ldr	r3, [sp, #40]
	add	r2, r2, r3
	ldr	r3, [sp, #24]
	cmp	r2, r3
	blt	.L115
	.loc 9 115 0 is_stmt 1
	mov	r3, #16
	ldr	r0, [sp, #32]
	mov	r1, #15
	mov	r2, r3
	bl	memset(PLT)
	.loc 9 116 0
	ldr	r3, [sp, #4]
	blx	r3
.L115:
.L114:
.LBE34:
.LBE33:
	.loc 9 121 0
	ldr	r3, [sp, #52]
	uxth	r2, r3
	ldr	r3, [sp, #48]
	uxth	r3, r3
	sub	r3, r3, #2
	uxth	r3, r3
	uxth	r3, r3
	add	r1, sp, #20
	sxth	r2, r2
	sxth	r3, r3
	mov	r0, r1
	mov	r1, r2
	mov	r2, r3
	bl	_ZN8CIwSVec2C1Ess(PLT)
	ldr	r3, [sp, #44]
	uxth	r2, r3
	ldr	r3, [sp, #40]
	uxth	r3, r3
	add	r1, sp, #16
	sxth	r2, r2
	sxth	r3, r3
	mov	r0, r1
	mov	r1, r2
	mov	r2, r3
	bl	_ZN8CIwSVec2C1Ess(PLT)
	.loc 9 122 0
	add	r2, sp, #20
	add	r3, sp, #16
	mov	r0, r2
	mov	r1, r3
	ldr	r2, [sp, #32]
	bl	_Z23IwGxDrawRectScreenSpacePK8CIwSVec2S1_PK9CIwColour(PLT)
.LBE32:
	.loc 9 123 0
	add	sp, sp, #60
	@ sp needed
	ldr	pc, [sp], #4
.L117:
	.align	2
.L116:
	.word	.LC16-(.LPIC40+8)
	.cfi_endproc
.LFE1997:
	.size	_Z13RenderSoftkeyPKc24s3eDeviceSoftKeyPositionPFvvE, .-_Z13RenderSoftkeyPKc24s3eDeviceSoftKeyPositionPFvvE
	.section	.rodata
	.align	2
.LC17:
	.ascii	"Exit\000"
	.section	.text.RenderSoftkeys,"ax",%progbits
	.align	2
	.global	RenderSoftkeys
	.hidden	RenderSoftkeys
	.type	RenderSoftkeys, %function
RenderSoftkeys:
.LFB1998:
	.loc 9 126 0
	.cfi_startproc
	@ args = 0, pretend = 0, frame = 8
	@ frame_needed = 0, uses_anonymous_args = 0
	stmfd	sp!, {r4, lr}
.LCFI28:
	.cfi_def_cfa_offset 8
	.cfi_offset 4, -8
	.cfi_offset 14, -4
	sub	sp, sp, #8
.LCFI29:
	.cfi_def_cfa_offset 16
	ldr	r4, .L120
.LPIC44:
	add	r4, pc, r4
.LBB35:
.LBB36:
	.loc 9 127 0
	ldr	r3, .L120+4
.LPIC41:
	add	r3, pc, r3
	ldrb	r3, [r3]	@ zero_extendqisi2
	cmp	r3, #0
	beq	.L118
	.loc 9 127 0 is_stmt 0 discriminator 1
	ldr	r3, .L120+8
.LPIC42:
	add	r3, pc, r3
	ldrb	r3, [r3]	@ zero_extendqisi2
	cmp	r3, #0
	beq	.L118
.LBB37:
	.loc 9 129 0 is_stmt 1
	mov	r0, #17
	bl	s3eDeviceGetInt(PLT)
	str	r0, [sp, #4]
	.loc 9 130 0
	ldr	r3, [sp, #4]
	ldr	r2, .L120+12
.LPIC43:
	add	r2, pc, r2
	mov	r0, r2
	mov	r1, r3
	ldr	r3, .L120+16
	ldr	r3, [r4, r3]
	mov	r2, r3
	bl	_Z13RenderSoftkeyPKc24s3eDeviceSoftKeyPositionPFvvE(PLT)
.L118:
.LBE37:
.LBE36:
.LBE35:
	.loc 9 134 0
	add	sp, sp, #8
	@ sp needed
	ldmfd	sp!, {r4, pc}
.L121:
	.align	2
.L120:
	.word	_GLOBAL_OFFSET_TABLE_-(.LPIC44+8)
	.word	_ZL12g_EnableExit-(.LPIC41+8)
	.word	_ZL10g_DrawExit-(.LPIC42+8)
	.word	.LC17-(.LPIC43+8)
	.word	s3eDeviceRequestQuit(GOT)
	.cfi_endproc
.LFE1998:
	.size	RenderSoftkeys, .-RenderSoftkeys
	.section	.text.AddButton,"ax",%progbits
	.align	2
	.global	AddButton
	.hidden	AddButton
	.type	AddButton, %function
AddButton:
.LFB1999:
	.loc 9 138 0
	.cfi_startproc
	@ args = 12, pretend = 0, frame = 24
	@ frame_needed = 0, uses_anonymous_args = 0
	stmfd	sp!, {r4, lr}
.LCFI30:
	.cfi_def_cfa_offset 8
	.cfi_offset 4, -8
	.cfi_offset 14, -4
	sub	sp, sp, #24
.LCFI31:
	.cfi_def_cfa_offset 32
	str	r0, [sp, #12]
	str	r1, [sp, #8]
	str	r2, [sp, #4]
	str	r3, [sp]
.LBB38:
	.loc 9 139 0
	mov	r0, #96
	bl	_Znwj(PLT)
	mov	r4, r0
	mov	r0, r4
	bl	_ZN9ExButtonsC1Ev(PLT)
	str	r4, [sp, #16]
	.loc 9 141 0
	ldr	r3, [sp, #16]
	mov	r0, r3
	ldr	r1, [sp, #12]
	mov	r2, #63
	bl	strncpy(PLT)
	.loc 9 142 0
	ldr	r3, [sp, #16]
	ldr	r2, [sp, #8]
	str	r2, [r3, #64]
	.loc 9 143 0
	ldr	r3, [sp, #16]
	ldr	r2, [sp, #4]
	str	r2, [r3, #68]
	.loc 9 144 0
	ldr	r3, [sp, #16]
	ldr	r2, [sp]
	str	r2, [r3, #72]
	.loc 9 145 0
	ldr	r3, [sp, #16]
	ldr	r2, [sp, #32]
	str	r2, [r3, #76]
	.loc 9 146 0
	ldr	r3, [sp, #16]
	ldr	r2, [sp, #36]
	str	r2, [r3, #80]
	.loc 9 147 0
	ldr	r3, [sp, #16]
	mov	r2, #0
	str	r2, [r3, #84]
	.loc 9 148 0
	ldr	r3, [sp, #16]
	ldr	r2, [sp, #40]
	str	r2, [r3, #88]
	.loc 9 149 0
	ldr	r3, [sp, #16]
	mov	r2, #0
	str	r2, [r3, #92]
	.loc 9 151 0
	ldr	r3, .L128
.LPIC45:
	add	r3, pc, r3
	ldr	r3, [r3]
	str	r3, [sp, #20]
	.loc 9 153 0
	ldr	r3, .L128+4
.LPIC46:
	add	r3, pc, r3
	ldr	r3, [r3]
	cmp	r3, #0
	beq	.L123
	.loc 9 155 0
	b	.L124
.L125:
	.loc 9 157 0
	ldr	r3, [sp, #20]
	ldr	r3, [r3, #92]
	str	r3, [sp, #20]
.L124:
	.loc 9 155 0 discriminator 1
	ldr	r3, [sp, #20]
	ldr	r3, [r3, #92]
	cmp	r3, #0
	bne	.L125
	.loc 9 159 0
	ldr	r3, [sp, #20]
	ldr	r2, [sp, #16]
	str	r2, [r3, #92]
	b	.L126
.L123:
	.loc 9 163 0
	ldr	r3, .L128+8
.LPIC47:
	add	r3, pc, r3
	ldr	r2, [sp, #16]
	str	r2, [r3]
.L126:
	.loc 9 166 0
	mov	r3, #1
.LBE38:
	.loc 9 167 0
	mov	r0, r3
	add	sp, sp, #24
	@ sp needed
	ldmfd	sp!, {r4, pc}
.L129:
	.align	2
.L128:
	.word	g_ButtonsHead-(.LPIC45+8)
	.word	g_ButtonsHead-(.LPIC46+8)
	.word	g_ButtonsHead-(.LPIC47+8)
	.cfi_endproc
.LFE1999:
	.size	AddButton, .-AddButton
	.section	.text.CheckButton,"ax",%progbits
	.align	2
	.global	CheckButton
	.hidden	CheckButton
	.type	CheckButton, %function
CheckButton:
.LFB2000:
	.loc 9 170 0
	.cfi_startproc
	@ args = 0, pretend = 0, frame = 16
	@ frame_needed = 0, uses_anonymous_args = 0
	str	lr, [sp, #-4]!
.LCFI32:
	.cfi_def_cfa_offset 4
	.cfi_offset 14, -4
	sub	sp, sp, #20
.LCFI33:
	.cfi_def_cfa_offset 24
	str	r0, [sp, #4]
.LBB39:
	.loc 9 171 0
	ldr	r3, .L136
.LPIC48:
	add	r3, pc, r3
	ldr	r3, [r3]
	str	r3, [sp, #12]
	.loc 9 173 0
	ldr	r3, .L136+4
.LPIC49:
	add	r3, pc, r3
	ldr	r3, [r3]
	cmp	r3, #0
	beq	.L131
	.loc 9 175 0
	ldr	r3, .L136+8
.LPIC50:
	add	r3, pc, r3
	ldr	r3, [r3]
	str	r3, [sp, #12]
	.loc 9 176 0
	b	.L132
.L135:
	.loc 9 178 0
	ldr	r3, [sp, #12]
	ldr	r0, [sp, #4]
	mov	r1, r3
	bl	strcmp(PLT)
	mov	r3, r0
	cmp	r3, #0
	bne	.L133
	.loc 9 180 0
	ldr	r3, [sp, #12]
	ldr	r3, [r3, #84]
	b	.L134
.L133:
	.loc 9 182 0
	ldr	r3, [sp, #12]
	ldr	r3, [r3, #92]
	str	r3, [sp, #12]
.L132:
	.loc 9 176 0 discriminator 1
	ldr	r3, [sp, #12]
	cmp	r3, #0
	bne	.L135
.L131:
	.loc 9 186 0
	mov	r3, #0
.L134:
.LBE39:
	.loc 9 187 0
	mov	r0, r3
	add	sp, sp, #20
	@ sp needed
	ldr	pc, [sp], #4
.L137:
	.align	2
.L136:
	.word	g_ButtonsHead-(.LPIC48+8)
	.word	g_ButtonsHead-(.LPIC49+8)
	.word	g_ButtonsHead-(.LPIC50+8)
	.cfi_endproc
.LFE2000:
	.size	CheckButton, .-CheckButton
	.section	.text.RenderButtons,"ax",%progbits
	.align	2
	.global	RenderButtons
	.hidden	RenderButtons
	.type	RenderButtons, %function
RenderButtons:
.LFB2001:
	.loc 9 190 0
	.cfi_startproc
	@ args = 0, pretend = 0, frame = 32
	@ frame_needed = 0, uses_anonymous_args = 0
	str	lr, [sp, #-4]!
.LCFI34:
	.cfi_def_cfa_offset 4
	.cfi_offset 14, -4
	sub	sp, sp, #36
.LCFI35:
	.cfi_def_cfa_offset 40
.LBB40:
	.loc 9 191 0
	ldr	r3, .L150
.LPIC51:
	add	r3, pc, r3
	ldr	r3, [r3]
	str	r3, [sp, #28]
.LBB41:
	.loc 9 193 0
	ldr	r3, .L150+4
.LPIC52:
	add	r3, pc, r3
	ldr	r3, [r3]
	cmp	r3, #0
	beq	.L138
.LBB42:
	.loc 9 195 0
	ldr	r3, .L150+8
.LPIC53:
	add	r3, pc, r3
	ldr	r3, [r3]
	str	r3, [sp, #28]
	.loc 9 196 0
	b	.L140
.L149:
.LBB43:
	.loc 9 199 0
	ldr	r3, [sp, #28]
	ldr	r3, [r3, #80]
	mov	r0, r3
	bl	s3eKeyboardGetState(PLT)
	mov	r2, r0
	ldr	r3, [sp, #28]
	str	r2, [r3, #84]
	.loc 9 200 0
	ldr	r3, [sp, #28]
	ldr	r3, [r3, #80]
	mov	r0, r3
	bl	s3eKeyboardGetState(PLT)
	mov	r3, r0
	and	r3, r3, #1
	cmp	r3, #0
	moveq	r3, #0
	movne	r3, #1
	uxtb	r3, r3
	cmp	r3, #0
	beq	.L141
	.loc 9 202 0
	ldr	r3, [sp, #28]
	ldr	r3, [r3, #88]
	cmp	r3, #0
	beq	.L141
	.loc 9 203 0
	ldr	r3, [sp, #28]
	ldr	r3, [r3, #88]
	blx	r3
.L141:
.LBB44:
	.loc 9 206 0
	mov	r0, #0
	bl	s3ePointerGetState(PLT)
	mov	r3, #1
	cmp	r3, #0
	beq	.L142
.LBB45:
	.loc 9 208 0
	bl	s3ePointerGetX(PLT)
	str	r0, [sp, #24]
	.loc 9 209 0
	bl	s3ePointerGetY(PLT)
	str	r0, [sp, #20]
	.loc 9 210 0
	ldr	r3, [sp, #28]
	ldr	r2, [r3, #64]
	ldr	r3, [sp, #24]
	cmp	r2, r3
	bgt	.L143
	.loc 9 210 0 is_stmt 0 discriminator 1
	ldr	r3, [sp, #28]
	ldr	r2, [r3, #64]
	ldr	r3, [sp, #28]
	ldr	r3, [r3, #72]
	add	r2, r2, r3
	ldr	r3, [sp, #24]
	cmp	r2, r3
	blt	.L143
	ldr	r3, [sp, #28]
	ldr	r2, [r3, #68]
	ldr	r3, [sp, #20]
	cmp	r2, r3
	bgt	.L143
	ldr	r3, [sp, #28]
	ldr	r2, [r3, #68]
	ldr	r3, [sp, #28]
	ldr	r3, [r3, #76]
	add	r2, r2, r3
	ldr	r3, [sp, #20]
	cmp	r2, r3
	blt	.L143
	.loc 9 212 0 is_stmt 1
	mov	r0, #0
	bl	s3ePointerGetState(PLT)
	mov	r3, r0
	and	r3, r3, #1
	cmp	r3, #0
	moveq	r3, #0
	movne	r3, #1
	uxtb	r3, r3
	cmp	r3, #0
	beq	.L144
	.loc 9 214 0
	ldr	r3, [sp, #28]
	mov	r2, #1
	str	r2, [r3, #84]
.L144:
	.loc 9 216 0
	mov	r0, #0
	bl	s3ePointerGetState(PLT)
	mov	r3, r0
	and	r3, r3, #2
	cmp	r3, #0
	moveq	r3, #0
	movne	r3, #1
	uxtb	r3, r3
	cmp	r3, #0
	beq	.L145
	.loc 9 218 0
	ldr	r3, [sp, #28]
	mov	r2, #2
	str	r2, [r3, #84]
.L145:
	.loc 9 221 0
	ldr	r3, [sp, #28]
	ldr	r3, [r3, #88]
	cmp	r3, #0
	beq	.L143
	.loc 9 222 0
	ldr	r3, [sp, #28]
	ldr	r3, [r3, #88]
	blx	r3
.L143:
.L142:
.LBE45:
.LBE44:
	.loc 9 228 0
	mov	r0, #0
	bl	_ZL22IwGxSetScreenSpaceSloti(PLT)
.LBB46:
	.loc 9 230 0
	mov	r0, #0
	bl	s3ePointerGetInt(PLT)
	mov	r3, r0
	cmp	r3, #0
	moveq	r3, #0
	movne	r3, #1
	uxtb	r3, r3
	cmp	r3, #0
	beq	.L146
.LBB47:
	.loc 9 232 0
	bl	_Z20IW_GX_ALLOC_MATERIALv(PLT)
	str	r0, [sp, #16]
	.loc 9 233 0
	ldr	r0, [sp, #16]
	mov	r1, #3
	bl	_ZN11CIwMaterial12SetAlphaModeEh(PLT)
	.loc 9 234 0
	ldr	r0, [sp, #16]
	bl	_Z15IwGxSetMaterialP11CIwMaterial(PLT)
	.loc 9 236 0
	mov	r0, #4
	mov	r1, #4
	ldr	r3, .L150+12
.LPIC54:
	add	r3, pc, r3
	mov	r2, r3
	mov	r3, #0
	bl	_ZL13IwGxDataAllocjjPKcj(PLT)
	str	r0, [sp, #12]
	.loc 9 237 0
	ldr	r3, [sp, #28]
	ldr	r3, [r3, #84]
	cmp	r3, #1
	bne	.L147
	.loc 9 238 0
	mov	r3, #16
	ldr	r0, [sp, #12]
	mov	r1, #15
	mov	r2, r3
	bl	memset(PLT)
	b	.L148
.L147:
	.loc 9 240 0
	mov	r3, #16
	ldr	r0, [sp, #12]
	mov	r1, #50
	mov	r2, r3
	bl	memset(PLT)
.L148:
	.loc 9 243 0 discriminator 1
	ldr	r3, [sp, #28]
	ldr	r3, [r3, #64]
	uxth	r2, r3
	ldr	r3, [sp, #28]
	ldr	r3, [r3, #68]
	uxth	r3, r3
	sub	r3, r3, #2
	uxth	r3, r3
	uxth	r3, r3
	add	r1, sp, #8
	sxth	r2, r2
	sxth	r3, r3
	mov	r0, r1
	mov	r1, r2
	mov	r2, r3
	bl	_ZN8CIwSVec2C1Ess(PLT)
	ldr	r3, [sp, #28]
	ldr	r3, [r3, #72]
	uxth	r2, r3
	ldr	r3, [sp, #28]
	ldr	r3, [r3, #76]
	uxth	r3, r3
	add	r1, sp, #4
	sxth	r2, r2
	sxth	r3, r3
	mov	r0, r1
	mov	r1, r2
	mov	r2, r3
	bl	_ZN8CIwSVec2C1Ess(PLT)
	.loc 9 244 0 discriminator 1
	add	r2, sp, #8
	add	r3, sp, #4
	mov	r0, r2
	mov	r1, r3
	ldr	r2, [sp, #12]
	bl	_Z23IwGxDrawRectScreenSpacePK8CIwSVec2S1_PK9CIwColour(PLT)
.L146:
.LBE47:
.LBE46:
	.loc 9 247 0
	ldr	r3, [sp, #28]
	ldr	r3, [r3, #64]
	add	r1, r3, #2
	ldr	r3, [sp, #28]
	ldr	r2, [r3, #68]
	ldr	r3, [sp, #28]
	ldr	r3, [r3, #76]
	sub	r3, r3, #10
	mov	r0, r3, lsr #31
	add	r3, r0, r3
	mov	r3, r3, asr #1
	add	r2, r2, r3
	ldr	r3, [sp, #28]
	mov	r0, r1
	mov	r1, r2
	mov	r2, r3
	mov	r3, #0
	bl	_Z15IwGxPrintStringiiPKcb(PLT)
	.loc 9 248 0
	ldr	r3, [sp, #28]
	ldr	r3, [r3, #92]
	str	r3, [sp, #28]
.L140:
.LBE43:
	.loc 9 196 0 discriminator 1
	ldr	r3, [sp, #28]
	cmp	r3, #0
	bne	.L149
.L138:
.LBE42:
.LBE41:
.LBE40:
	.loc 9 251 0
	add	sp, sp, #36
	@ sp needed
	ldr	pc, [sp], #4
.L151:
	.align	2
.L150:
	.word	g_ButtonsHead-(.LPIC51+8)
	.word	g_ButtonsHead-(.LPIC52+8)
	.word	g_ButtonsHead-(.LPIC53+8)
	.word	.LC16-(.LPIC54+8)
	.cfi_endproc
.LFE2001:
	.size	RenderButtons, .-RenderButtons
	.section	.text.DeleteButtons,"ax",%progbits
	.align	2
	.global	DeleteButtons
	.hidden	DeleteButtons
	.type	DeleteButtons, %function
DeleteButtons:
.LFB2002:
	.loc 9 254 0
	.cfi_startproc
	@ args = 0, pretend = 0, frame = 8
	@ frame_needed = 0, uses_anonymous_args = 0
	str	lr, [sp, #-4]!
.LCFI36:
	.cfi_def_cfa_offset 4
	.cfi_offset 14, -4
	sub	sp, sp, #12
.LCFI37:
	.cfi_def_cfa_offset 16
.LBB48:
	.loc 9 255 0
	ldr	r3, .L155
.LPIC55:
	add	r3, pc, r3
	ldr	r3, [r3]
	str	r3, [sp, #4]
	.loc 9 256 0
	mov	r3, #0
	str	r3, [sp]
	.loc 9 258 0
	b	.L153
.L154:
	.loc 9 260 0
	ldr	r3, [sp, #4]
	ldr	r3, [r3, #92]
	str	r3, [sp]
	.loc 9 261 0
	ldr	r0, [sp, #4]
	bl	_ZdlPv(PLT)
	.loc 9 262 0
	ldr	r3, [sp]
	str	r3, [sp, #4]
	.loc 9 263 0
	mov	r3, #0
	str	r3, [sp]
.L153:
	.loc 9 258 0 discriminator 1
	ldr	r3, [sp, #4]
	cmp	r3, #0
	bne	.L154
	.loc 9 265 0
	ldr	r3, .L155+4
.LPIC56:
	add	r3, pc, r3
	mov	r2, #0
	str	r2, [r3]
.LBE48:
	.loc 9 266 0
	add	sp, sp, #12
	@ sp needed
	ldr	pc, [sp], #4
.L156:
	.align	2
.L155:
	.word	g_ButtonsHead-(.LPIC55+8)
	.word	g_ButtonsHead-(.LPIC56+8)
	.cfi_endproc
.LFE2002:
	.size	DeleteButtons, .-DeleteButtons
	.section	.text.RemoveButton,"ax",%progbits
	.align	2
	.global	RemoveButton
	.hidden	RemoveButton
	.type	RemoveButton, %function
RemoveButton:
.LFB2003:
	.loc 9 269 0
	.cfi_startproc
	@ args = 0, pretend = 0, frame = 16
	@ frame_needed = 0, uses_anonymous_args = 0
	str	lr, [sp, #-4]!
.LCFI38:
	.cfi_def_cfa_offset 4
	.cfi_offset 14, -4
	sub	sp, sp, #20
.LCFI39:
	.cfi_def_cfa_offset 24
	str	r0, [sp, #4]
.LBB49:
	.loc 9 270 0
	ldr	r3, .L164
.LPIC57:
	add	r3, pc, r3
	ldr	r3, [r3]
	str	r3, [sp, #12]
	.loc 9 271 0
	mov	r3, #0
	str	r3, [sp, #8]
	.loc 9 272 0
	b	.L158
.L163:
	.loc 9 274 0
	ldr	r3, [sp, #12]
	ldr	r0, [sp, #4]
	mov	r1, r3
	bl	strcmp(PLT)
	mov	r3, r0
	cmp	r3, #0
	bne	.L159
	.loc 9 277 0
	ldr	r3, [sp, #8]
	cmp	r3, #0
	beq	.L160
	.loc 9 278 0
	ldr	r3, [sp, #12]
	ldr	r2, [r3, #92]
	ldr	r3, [sp, #8]
	str	r2, [r3, #92]
	b	.L161
.L160:
	.loc 9 280 0
	ldr	r3, [sp, #12]
	ldr	r2, [r3, #92]
	ldr	r3, .L164+4
.LPIC58:
	add	r3, pc, r3
	str	r2, [r3]
.L161:
	.loc 9 281 0
	ldr	r0, [sp, #12]
	bl	_ZdlPv(PLT)
	.loc 9 282 0
	b	.L157
.L159:
	.loc 9 284 0
	ldr	r3, [sp, #12]
	str	r3, [sp, #8]
	.loc 9 285 0
	ldr	r3, [sp, #12]
	ldr	r3, [r3, #92]
	str	r3, [sp, #12]
.L158:
	.loc 9 272 0 discriminator 1
	ldr	r3, [sp, #12]
	cmp	r3, #0
	bne	.L163
.L157:
.LBE49:
	.loc 9 287 0
	add	sp, sp, #20
	@ sp needed
	ldr	pc, [sp], #4
.L165:
	.align	2
.L164:
	.word	g_ButtonsHead-(.LPIC57+8)
	.word	g_ButtonsHead-(.LPIC58+8)
	.cfi_endproc
.LFE2003:
	.size	RemoveButton, .-RemoveButton
	.section	.text.RenderCursor,"ax",%progbits
	.align	2
	.global	RenderCursor
	.hidden	RenderCursor
	.type	RenderCursor, %function
RenderCursor:
.LFB2004:
	.loc 9 290 0
	.cfi_startproc
	@ args = 0, pretend = 0, frame = 32
	@ frame_needed = 0, uses_anonymous_args = 0
	stmfd	sp!, {r4, lr}
.LCFI40:
	.cfi_def_cfa_offset 8
	.cfi_offset 4, -8
	.cfi_offset 14, -4
	sub	sp, sp, #40
.LCFI41:
	.cfi_def_cfa_offset 48
.LBB50:
	.loc 9 291 0
	mov	r0, #0
	bl	s3ePointerGetInt(PLT)
	mov	r3, r0
	cmp	r3, #0
	movne	r3, #0
	moveq	r3, #1
	uxtb	r3, r3
	cmp	r3, #0
	bne	.L166
	.loc 9 294 0
	ldr	r3, .L170
.LPIC59:
	add	r3, pc, r3
	ldr	r3, [r3]
	cmp	r3, #0
	bne	.L169
	.loc 9 296 0
	mov	r0, #88
	bl	_Znwj(PLT)
	mov	r4, r0
	mov	r0, r4
	bl	_ZN11CIwMaterialC1Ev(PLT)
	ldr	r3, .L170+4
.LPIC60:
	add	r3, pc, r3
	str	r4, [r3]
	.loc 9 297 0
	ldr	r3, .L170+8
.LPIC61:
	add	r3, pc, r3
	ldr	r3, [r3]
	mov	r2, #255
	str	r2, [sp]
	mov	r0, r3
	mov	r1, #0
	mov	r2, #0
	mov	r3, #255
	bl	_ZN11CIwMaterial13SetColAmbientEhhhh(PLT)
.L169:
	.loc 9 300 0 discriminator 1
	ldr	r3, .L170+12
.LPIC62:
	add	r3, pc, r3
	ldr	r3, [r3]
	mov	r0, r3
	bl	_Z15IwGxSetMaterialP11CIwMaterial(PLT)
	.loc 9 301 0 discriminator 1
	bl	s3ePointerGetX(PLT)
	str	r0, [sp, #36]
	.loc 9 302 0 discriminator 1
	bl	s3ePointerGetY(PLT)
	str	r0, [sp, #32]
	.loc 9 304 0 discriminator 1
	mov	r3, #10
	str	r3, [sp, #28]
	.loc 9 305 0 discriminator 1
	ldr	r3, [sp, #28]
	uxth	r3, r3
	mov	r3, r3, asl #1
	uxth	r3, r3
	uxth	r3, r3
	add	r2, sp, #24
	sxth	r3, r3
	mov	r0, r2
	mov	r1, r3
	mov	r2, #1
	bl	_ZN8CIwSVec2C1Ess(PLT)
	.loc 9 306 0 discriminator 1
	ldr	r3, [sp, #28]
	uxth	r3, r3
	mov	r3, r3, asl #1
	uxth	r3, r3
	uxth	r3, r3
	add	r2, sp, #20
	sxth	r3, r3
	mov	r0, r2
	mov	r1, #1
	mov	r2, r3
	bl	_ZN8CIwSVec2C1Ess(PLT)
	.loc 9 307 0 discriminator 1
	ldr	r3, [sp, #36]
	uxth	r2, r3
	ldr	r3, [sp, #28]
	uxth	r3, r3
	rsb	r3, r3, r2
	uxth	r3, r3
	uxth	r2, r3
	ldr	r3, [sp, #32]
	uxth	r3, r3
	add	r1, sp, #16
	sxth	r2, r2
	sxth	r3, r3
	mov	r0, r1
	mov	r1, r2
	mov	r2, r3
	bl	_ZN8CIwSVec2C1Ess(PLT)
	.loc 9 308 0 discriminator 1
	ldr	r3, [sp, #36]
	uxth	r2, r3
	ldr	r3, [sp, #32]
	uxth	r1, r3
	ldr	r3, [sp, #28]
	uxth	r3, r3
	rsb	r3, r3, r1
	uxth	r3, r3
	uxth	r3, r3
	add	r1, sp, #12
	sxth	r2, r2
	sxth	r3, r3
	mov	r0, r1
	mov	r1, r2
	mov	r2, r3
	bl	_ZN8CIwSVec2C1Ess(PLT)
	.loc 9 309 0 discriminator 1
	add	r2, sp, #16
	add	r3, sp, #24
	mov	r0, r2
	mov	r1, r3
	bl	_Z23IwGxDrawRectScreenSpacePK8CIwSVec2S1_(PLT)
	.loc 9 310 0 discriminator 1
	add	r2, sp, #12
	add	r3, sp, #20
	mov	r0, r2
	mov	r1, r3
	bl	_Z23IwGxDrawRectScreenSpacePK8CIwSVec2S1_(PLT)
.L166:
.LBE50:
	.loc 9 311 0
	add	sp, sp, #40
	@ sp needed
	ldmfd	sp!, {r4, pc}
.L171:
	.align	2
.L170:
	.word	_ZL16g_CursorMaterial-(.LPIC59+8)
	.word	_ZL16g_CursorMaterial-(.LPIC60+8)
	.word	_ZL16g_CursorMaterial-(.LPIC61+8)
	.word	_ZL16g_CursorMaterial-(.LPIC62+8)
	.cfi_endproc
.LFE2004:
	.size	RenderCursor, .-RenderCursor
	.section	.rodata
	.align	2
.LC18:
	.ascii	"Up\000"
	.align	2
.LC19:
	.ascii	"Down\000"
	.align	2
.LC20:
	.ascii	"Left\000"
	.align	2
.LC21:
	.ascii	"Right\000"
	.section	.text.RenderCursorskeys,"ax",%progbits
	.align	2
	.global	RenderCursorskeys
	.hidden	RenderCursorskeys
	.type	RenderCursorskeys, %function
RenderCursorskeys:
.LFB2005:
	.loc 9 314 0
	.cfi_startproc
	@ args = 0, pretend = 0, frame = 80
	@ frame_needed = 0, uses_anonymous_args = 0
	str	lr, [sp, #-4]!
.LCFI42:
	.cfi_def_cfa_offset 4
	.cfi_offset 14, -4
	sub	sp, sp, #84
.LCFI43:
	.cfi_def_cfa_offset 88
.LBB51:
	.loc 9 315 0
	mov	r3, #20
	str	r3, [sp, #76]
	.loc 9 316 0
	mov	r3, #45
	str	r3, [sp, #72]
	.loc 9 318 0
	bl	IwGxGetScreenHeight(PLT)
	mov	r1, r0
	ldr	r2, [sp, #76]
	mov	r3, r2
	mov	r3, r3, asl #31
	rsb	r3, r2, r3
	mov	r3, r3, asl #1
	add	r3, r1, r3
	str	r3, [sp, #68]
	.loc 9 319 0
	bl	IwGxGetScreenWidth(PLT)
	mov	r3, r0
	sub	r3, r3, #220
	mov	r3, r3, lsr #1
	str	r3, [sp, #64]
	.loc 9 320 0
	bl	IwGxGetScreenHeight(PLT)
	mov	r2, r0
	ldr	r3, [sp, #76]
	mov	r1, r3
	mov	r3, r3, asl #2
	rsb	r3, r3, r1
	add	r3, r2, r3
	str	r3, [sp, #60]
	.loc 9 321 0
	ldr	r2, [sp, #64]
	ldr	r3, [sp, #72]
	add	r2, r2, r3
	ldr	r3, [sp, #72]
	mov	r1, r3, lsr #31
	add	r3, r1, r3
	mov	r3, r3, asr #1
	add	r3, r2, r3
	str	r3, [sp, #56]
	.loc 9 322 0
	bl	IwGxGetScreenHeight(PLT)
	mov	r2, r0
	ldr	r3, [sp, #76]
	rsb	r3, r3, r2
	str	r3, [sp, #52]
	.loc 9 323 0
	ldr	r3, [sp, #56]
	str	r3, [sp, #48]
	.loc 9 324 0
	bl	IwGxGetScreenHeight(PLT)
	mov	r1, r0
	ldr	r2, [sp, #76]
	mov	r3, r2
	mov	r3, r3, asl #31
	rsb	r3, r2, r3
	mov	r3, r3, asl #1
	add	r3, r1, r3
	str	r3, [sp, #44]
	.loc 9 325 0
	ldr	r2, [sp, #48]
	ldr	r3, [sp, #72]
	add	r2, r2, r3
	ldr	r3, [sp, #72]
	mov	r1, r3, lsr #31
	add	r3, r1, r3
	mov	r3, r3, asr #1
	add	r3, r2, r3
	str	r3, [sp, #40]
	.loc 9 327 0
	bl	_Z20IW_GX_ALLOC_MATERIALv(PLT)
	str	r0, [sp, #36]
	.loc 9 328 0
	ldr	r0, [sp, #36]
	mov	r1, #3
	bl	_ZN11CIwMaterial12SetAlphaModeEh(PLT)
	.loc 9 329 0
	ldr	r0, [sp, #36]
	bl	_Z15IwGxSetMaterialP11CIwMaterial(PLT)
	.loc 9 331 0
	ldr	r3, .L187
.LPIC63:
	add	r3, pc, r3
	mov	r2, #0
	str	r2, [r3]
	.loc 9 333 0
	mov	r0, #9
	bl	s3eKeyboardGetState(PLT)
	mov	r3, r0
	and	r3, r3, #1
	cmp	r3, #0
	moveq	r3, #0
	movne	r3, #1
	uxtb	r3, r3
	cmp	r3, #0
	beq	.L173
	.loc 9 334 0
	ldr	r3, .L187+4
.LPIC64:
	add	r3, pc, r3
	mov	r2, #3
	str	r2, [r3]
.L173:
	.loc 9 335 0
	mov	r0, #11
	bl	s3eKeyboardGetState(PLT)
	mov	r3, r0
	and	r3, r3, #1
	cmp	r3, #0
	moveq	r3, #0
	movne	r3, #1
	uxtb	r3, r3
	cmp	r3, #0
	beq	.L174
	.loc 9 336 0
	ldr	r3, .L187+8
.LPIC65:
	add	r3, pc, r3
	mov	r2, #4
	str	r2, [r3]
.L174:
	.loc 9 337 0
	mov	r0, #10
	bl	s3eKeyboardGetState(PLT)
	mov	r3, r0
	and	r3, r3, #1
	cmp	r3, #0
	moveq	r3, #0
	movne	r3, #1
	uxtb	r3, r3
	cmp	r3, #0
	beq	.L175
	.loc 9 338 0
	ldr	r3, .L187+12
.LPIC66:
	add	r3, pc, r3
	mov	r2, #1
	str	r2, [r3]
.L175:
	.loc 9 339 0
	mov	r0, #12
	bl	s3eKeyboardGetState(PLT)
	mov	r3, r0
	and	r3, r3, #1
	cmp	r3, #0
	moveq	r3, #0
	movne	r3, #1
	uxtb	r3, r3
	cmp	r3, #0
	beq	.L176
	.loc 9 340 0
	ldr	r3, .L187+16
.LPIC67:
	add	r3, pc, r3
	mov	r2, #2
	str	r2, [r3]
.L176:
.LBB52:
	.loc 9 342 0
	mov	r0, #0
	bl	s3ePointerGetInt(PLT)
	mov	r3, r0
	cmp	r3, #0
	moveq	r3, #0
	movne	r3, #1
	uxtb	r3, r3
	cmp	r3, #0
	beq	.L172
.LBB53:
.LBB54:
	.loc 9 344 0
	mov	r0, #0
	bl	s3ePointerGetState(PLT)
	mov	r3, r0
	and	r3, r3, #1
	cmp	r3, #0
	moveq	r3, #0
	movne	r3, #1
	uxtb	r3, r3
	cmp	r3, #0
	beq	.L178
.LBB55:
	.loc 9 346 0
	bl	s3ePointerGetX(PLT)
	str	r0, [sp, #32]
	.loc 9 347 0
	bl	s3ePointerGetY(PLT)
	str	r0, [sp, #28]
	.loc 9 349 0
	ldr	r2, [sp, #32]
	ldr	r3, [sp, #64]
	cmp	r2, r3
	blt	.L179
	.loc 9 349 0 is_stmt 0 discriminator 1
	ldr	r2, [sp, #64]
	ldr	r3, [sp, #72]
	add	r2, r2, r3
	ldr	r3, [sp, #32]
	cmp	r2, r3
	blt	.L179
	ldr	r2, [sp, #28]
	ldr	r3, [sp, #68]
	cmp	r2, r3
	blt	.L179
	ldr	r2, [sp, #68]
	ldr	r3, [sp, #76]
	add	r2, r2, r3
	ldr	r3, [sp, #28]
	cmp	r2, r3
	blt	.L179
	.loc 9 350 0 is_stmt 1
	ldr	r3, .L187+20
.LPIC68:
	add	r3, pc, r3
	mov	r2, #3
	str	r2, [r3]
.L179:
	.loc 9 352 0
	ldr	r2, [sp, #32]
	ldr	r3, [sp, #40]
	cmp	r2, r3
	blt	.L180
	.loc 9 352 0 is_stmt 0 discriminator 1
	ldr	r2, [sp, #40]
	ldr	r3, [sp, #72]
	add	r2, r2, r3
	ldr	r3, [sp, #32]
	cmp	r2, r3
	blt	.L180
	ldr	r2, [sp, #28]
	ldr	r3, [sp, #44]
	cmp	r2, r3
	blt	.L180
	ldr	r2, [sp, #44]
	ldr	r3, [sp, #76]
	add	r2, r2, r3
	ldr	r3, [sp, #28]
	cmp	r2, r3
	blt	.L180
	.loc 9 353 0 is_stmt 1
	ldr	r3, .L187+24
.LPIC69:
	add	r3, pc, r3
	mov	r2, #4
	str	r2, [r3]
.L180:
	.loc 9 355 0
	ldr	r2, [sp, #32]
	ldr	r3, [sp, #56]
	cmp	r2, r3
	blt	.L181
	.loc 9 355 0 is_stmt 0 discriminator 1
	ldr	r2, [sp, #56]
	ldr	r3, [sp, #72]
	add	r2, r2, r3
	ldr	r3, [sp, #32]
	cmp	r2, r3
	blt	.L181
	ldr	r2, [sp, #28]
	ldr	r3, [sp, #60]
	cmp	r2, r3
	blt	.L181
	ldr	r2, [sp, #60]
	ldr	r3, [sp, #76]
	add	r2, r2, r3
	ldr	r3, [sp, #28]
	cmp	r2, r3
	blt	.L181
	.loc 9 356 0 is_stmt 1
	ldr	r3, .L187+28
.LPIC70:
	add	r3, pc, r3
	mov	r2, #1
	str	r2, [r3]
.L181:
	.loc 9 358 0
	ldr	r2, [sp, #32]
	ldr	r3, [sp, #48]
	cmp	r2, r3
	blt	.L182
	.loc 9 358 0 is_stmt 0 discriminator 1
	ldr	r2, [sp, #48]
	ldr	r3, [sp, #72]
	add	r2, r2, r3
	ldr	r3, [sp, #32]
	cmp	r2, r3
	blt	.L182
	ldr	r2, [sp, #28]
	ldr	r3, [sp, #52]
	cmp	r2, r3
	blt	.L182
	ldr	r2, [sp, #52]
	ldr	r3, [sp, #76]
	add	r2, r2, r3
	ldr	r3, [sp, #28]
	cmp	r2, r3
	blt	.L182
	.loc 9 359 0 is_stmt 1
	ldr	r3, .L187+32
.LPIC71:
	add	r3, pc, r3
	mov	r2, #2
	str	r2, [r3]
.L182:
.L178:
.LBE55:
.LBE54:
	.loc 9 362 0
	mov	r0, #4
	mov	r1, #4
	ldr	r3, .L187+36
.LPIC72:
	add	r3, pc, r3
	mov	r2, r3
	mov	r3, #0
	bl	_ZL13IwGxDataAllocjjPKcj(PLT)
	str	r0, [sp, #24]
	.loc 9 363 0
	mov	r0, #0
	bl	s3ePointerGetState(PLT)
	mov	r3, r0
	and	r3, r3, #1
	cmp	r3, #0
	beq	.L183
	.loc 9 363 0 is_stmt 0 discriminator 1
	ldr	r3, .L187+40
.LPIC73:
	add	r3, pc, r3
	ldr	r3, [r3]
	cmp	r3, #0
	beq	.L183
	.loc 9 363 0 discriminator 3
	mov	r3, #1
	b	.L184
.L183:
	.loc 9 363 0 discriminator 2
	mov	r3, #0
.L184:
	.loc 9 363 0 discriminator 4
	cmp	r3, #0
	beq	.L185
	.loc 9 364 0 is_stmt 1
	mov	r3, #16
	ldr	r0, [sp, #24]
	mov	r1, #10
	mov	r2, r3
	bl	memset(PLT)
	b	.L186
.L185:
	.loc 9 366 0
	mov	r3, #16
	ldr	r0, [sp, #24]
	mov	r1, #50
	mov	r2, r3
	bl	memset(PLT)
.L186:
	.loc 9 369 0 discriminator 1
	ldr	r3, [sp, #72]
	uxth	r2, r3
	ldr	r3, [sp, #76]
	uxth	r3, r3
	add	r1, sp, #20
	sxth	r2, r2
	sxth	r3, r3
	mov	r0, r1
	mov	r1, r2
	mov	r2, r3
	bl	_ZN8CIwSVec2C1Ess(PLT)
	.loc 9 371 0 discriminator 1
	ldr	r3, [sp, #56]
	uxth	r2, r3
	ldr	r3, [sp, #60]
	uxth	r3, r3
	sub	r3, r3, #2
	uxth	r3, r3
	uxth	r3, r3
	add	r1, sp, #16
	sxth	r2, r2
	sxth	r3, r3
	mov	r0, r1
	mov	r1, r2
	mov	r2, r3
	bl	_ZN8CIwSVec2C1Ess(PLT)
	.loc 9 372 0 discriminator 1
	add	r2, sp, #16
	add	r3, sp, #20
	mov	r0, r2
	mov	r1, r3
	ldr	r2, [sp, #24]
	bl	_Z23IwGxDrawRectScreenSpacePK8CIwSVec2S1_PK9CIwColour(PLT)
	.loc 9 373 0 discriminator 1
	ldr	r3, [sp, #56]
	add	r2, r3, #10
	ldr	r3, [sp, #60]
	add	r3, r3, #5
	mov	r0, r2
	mov	r1, r3
	ldr	r3, .L187+44
.LPIC74:
	add	r3, pc, r3
	mov	r2, r3
	mov	r3, #0
	bl	_Z15IwGxPrintStringiiPKcb(PLT)
	.loc 9 375 0 discriminator 1
	ldr	r3, [sp, #48]
	uxth	r2, r3
	ldr	r3, [sp, #52]
	uxth	r3, r3
	sub	r3, r3, #2
	uxth	r3, r3
	uxth	r3, r3
	add	r1, sp, #12
	sxth	r2, r2
	sxth	r3, r3
	mov	r0, r1
	mov	r1, r2
	mov	r2, r3
	bl	_ZN8CIwSVec2C1Ess(PLT)
	.loc 9 376 0 discriminator 1
	add	r2, sp, #12
	add	r3, sp, #20
	mov	r0, r2
	mov	r1, r3
	ldr	r2, [sp, #24]
	bl	_Z23IwGxDrawRectScreenSpacePK8CIwSVec2S1_PK9CIwColour(PLT)
	.loc 9 377 0 discriminator 1
	ldr	r3, [sp, #48]
	add	r2, r3, #10
	ldr	r3, [sp, #52]
	add	r3, r3, #5
	mov	r0, r2
	mov	r1, r3
	ldr	r3, .L187+48
.LPIC75:
	add	r3, pc, r3
	mov	r2, r3
	mov	r3, #0
	bl	_Z15IwGxPrintStringiiPKcb(PLT)
	.loc 9 379 0 discriminator 1
	ldr	r3, [sp, #64]
	uxth	r2, r3
	ldr	r3, [sp, #68]
	uxth	r3, r3
	sub	r3, r3, #2
	uxth	r3, r3
	uxth	r3, r3
	add	r1, sp, #8
	sxth	r2, r2
	sxth	r3, r3
	mov	r0, r1
	mov	r1, r2
	mov	r2, r3
	bl	_ZN8CIwSVec2C1Ess(PLT)
	.loc 9 380 0 discriminator 1
	add	r2, sp, #8
	add	r3, sp, #20
	mov	r0, r2
	mov	r1, r3
	ldr	r2, [sp, #24]
	bl	_Z23IwGxDrawRectScreenSpacePK8CIwSVec2S1_PK9CIwColour(PLT)
	.loc 9 381 0 discriminator 1
	ldr	r3, [sp, #64]
	add	r2, r3, #10
	ldr	r3, [sp, #68]
	add	r3, r3, #5
	mov	r0, r2
	mov	r1, r3
	ldr	r3, .L187+52
.LPIC76:
	add	r3, pc, r3
	mov	r2, r3
	mov	r3, #0
	bl	_Z15IwGxPrintStringiiPKcb(PLT)
	.loc 9 383 0 discriminator 1
	ldr	r3, [sp, #40]
	uxth	r2, r3
	ldr	r3, [sp, #44]
	uxth	r3, r3
	sub	r3, r3, #2
	uxth	r3, r3
	uxth	r3, r3
	add	r1, sp, #4
	sxth	r2, r2
	sxth	r3, r3
	mov	r0, r1
	mov	r1, r2
	mov	r2, r3
	bl	_ZN8CIwSVec2C1Ess(PLT)
	.loc 9 384 0 discriminator 1
	add	r2, sp, #4
	add	r3, sp, #20
	mov	r0, r2
	mov	r1, r3
	ldr	r2, [sp, #24]
	bl	_Z23IwGxDrawRectScreenSpacePK8CIwSVec2S1_PK9CIwColour(PLT)
	.loc 9 385 0 discriminator 1
	ldr	r3, [sp, #40]
	add	r2, r3, #10
	ldr	r3, [sp, #44]
	add	r3, r3, #5
	mov	r0, r2
	mov	r1, r3
	ldr	r3, .L187+56
.LPIC77:
	add	r3, pc, r3
	mov	r2, r3
	mov	r3, #0
	bl	_Z15IwGxPrintStringiiPKcb(PLT)
.L172:
.LBE53:
.LBE52:
.LBE51:
	.loc 9 387 0
	add	sp, sp, #84
	@ sp needed
	ldr	pc, [sp], #4
.L188:
	.align	2
.L187:
	.word	g_Cursorkey-(.LPIC63+8)
	.word	g_Cursorkey-(.LPIC64+8)
	.word	g_Cursorkey-(.LPIC65+8)
	.word	g_Cursorkey-(.LPIC66+8)
	.word	g_Cursorkey-(.LPIC67+8)
	.word	g_Cursorkey-(.LPIC68+8)
	.word	g_Cursorkey-(.LPIC69+8)
	.word	g_Cursorkey-(.LPIC70+8)
	.word	g_Cursorkey-(.LPIC71+8)
	.word	.LC16-(.LPIC72+8)
	.word	g_Cursorkey-(.LPIC73+8)
	.word	.LC18-(.LPIC74+8)
	.word	.LC19-(.LPIC75+8)
	.word	.LC20-(.LPIC76+8)
	.word	.LC21-(.LPIC77+8)
	.cfi_endproc
.LFE2005:
	.size	RenderCursorskeys, .-RenderCursorskeys
	.section	.text.CheckCursorState,"ax",%progbits
	.align	2
	.global	CheckCursorState
	.hidden	CheckCursorState
	.type	CheckCursorState, %function
CheckCursorState:
.LFB2006:
	.loc 9 390 0
	.cfi_startproc
	@ args = 0, pretend = 0, frame = 0
	@ frame_needed = 0, uses_anonymous_args = 0
	@ link register save eliminated.
	.loc 9 391 0
	ldr	r3, .L191
.LPIC78:
	add	r3, pc, r3
	ldr	r3, [r3]
	.loc 9 392 0
	mov	r0, r3
	bx	lr
.L192:
	.align	2
.L191:
	.word	g_Cursorkey-(.LPIC78+8)
	.cfi_endproc
.LFE2006:
	.size	CheckCursorState, .-CheckCursorState
	.section	.text.main,"ax",%progbits
	.align	2
	.global	main
	.hidden	main
	.type	main, %function
main:
.LFB2007:
	.loc 9 398 0
	.cfi_startproc
	@ args = 0, pretend = 0, frame = 16
	@ frame_needed = 0, uses_anonymous_args = 0
	stmfd	sp!, {r4, lr}
.LCFI44:
	.cfi_def_cfa_offset 8
	.cfi_offset 4, -8
	.cfi_offset 14, -4
	sub	sp, sp, #16
.LCFI45:
	.cfi_def_cfa_offset 24
.LBB56:
	.loc 9 412 0
	mov	r0, #0
	bl	s3eDeviceGetInt(PLT)
	mov	r3, r0
	.loc 9 416 0
	cmp	r3, #3
	bne	.L194
	.loc 9 413 0 discriminator 2
	bl	IwGetCompileShadersPlatformType(PLT)
	mov	r3, r0
	.loc 9 416 0 discriminator 2
	cmp	r3, #28
	beq	.L195
	.loc 9 414 0
	bl	IwGetCompileShadersPlatformType(PLT)
	mov	r3, r0
	.loc 9 413 0
	cmp	r3, #29
	beq	.L195
.L194:
	.loc 9 416 0 discriminator 1
	mov	r3, #1
	b	.L196
.L195:
	.loc 9 416 0 is_stmt 0 discriminator 3
	mov	r3, #0
.L196:
	.loc 9 416 0 discriminator 4
	ldr	r2, .L212
.LPIC79:
	add	r2, pc, r2
	strb	r3, [r2]
	.loc 9 418 0 is_stmt 1 discriminator 4
	mov	r0, #0
	bl	s3eDeviceGetInt(PLT)
	mov	r3, r0
	.loc 9 419 0 discriminator 4
	cmp	r3, #28
	beq	.L197
	.loc 9 419 0 is_stmt 0 discriminator 1
	mov	r0, #0
	bl	s3eDeviceGetInt(PLT)
	mov	r3, r0
	cmp	r3, #29
	beq	.L197
	.loc 9 419 0 discriminator 3
	mov	r3, #1
	b	.L198
.L197:
	.loc 9 419 0 discriminator 2
	mov	r3, #0
.L198:
	.loc 9 419 0 discriminator 4
	ldr	r2, .L212+4
.LPIC80:
	add	r2, pc, r2
	strb	r3, [r2]
	.loc 9 424 0 is_stmt 1 discriminator 4
	bl	_Z8IwGxInitv(PLT)
	.loc 9 427 0 discriminator 4
	bl	_Z11ExampleInitv(PLT)
	.loc 9 430 0 discriminator 4
	mov	r0, #255
	mov	r1, #255
	mov	r2, #255
	mov	r3, #255
	bl	_Z15IwGxSetColClearhhhh(PLT)
	.loc 9 431 0 discriminator 4
	mov	r0, #128
	mov	r1, #128
	mov	r2, #128
	bl	_Z18IwGxPrintSetColourhhh(PLT)
.L208:
.LBB57:
	.loc 9 435 0
	mov	r0, #0
	bl	s3eDeviceYield(PLT)
	.loc 9 436 0
	bl	s3eKeyboardUpdate(PLT)
	.loc 9 437 0
	bl	s3ePointerUpdate(PLT)
	.loc 9 439 0
	bl	s3eTimerGetMs(PLT)
	mov	r2, r0
	mov	r3, r1
	strd	r2, [sp, #8]
	.loc 9 441 0
	bl	_Z13ExampleUpdatev(PLT)
	mov	r3, r0
	strb	r3, [sp, #7]
	.loc 9 443 0
	ldr	r3, .L212+8
.LPIC81:
	add	r3, pc, r3
	ldrb	r3, [r3]	@ zero_extendqisi2
	cmp	r3, #0
	beq	.L199
	.loc 9 444 0 discriminator 1
	ldrb	r3, [sp, #7]
	eor	r3, r3, #1
	uxtb	r3, r3
	.loc 9 443 0 discriminator 1
	cmp	r3, #0
	bne	.L200
	.loc 9 445 0
	mov	r0, #1
	bl	s3eKeyboardGetState(PLT)
	mov	r3, r0
	and	r3, r3, #1
	.loc 9 444 0
	cmp	r3, #0
	bne	.L200
	.loc 9 446 0
	mov	r0, #210
	bl	s3eKeyboardGetState(PLT)
	mov	r3, r0
	and	r3, r3, #1
	.loc 9 445 0
	cmp	r3, #0
	bne	.L200
	.loc 9 447 0
	bl	s3eDeviceCheckQuitRequest(PLT)
	mov	r3, r0
	.loc 9 446 0
	cmp	r3, #0
	beq	.L199
.L200:
	.loc 9 443 0 discriminator 3
	mov	r3, #1
	b	.L201
.L199:
	.loc 9 443 0 is_stmt 0 discriminator 2
	mov	r3, #0
.L201:
	.loc 9 442 0 is_stmt 1
	cmp	r3, #0
	beq	.L202
	.loc 9 449 0
	mov	r0, r0	@ nop
.LBE57:
	.loc 9 468 0
	ldr	r3, .L212+12
.LPIC82:
	add	r3, pc, r3
	ldr	r3, [r3]
	cmp	r3, #0
	beq	.L209
	b	.L211
.L202:
.LBB59:
	.loc 9 452 0
	mov	r0, #3
	bl	_ZL9IwGxClearj(PLT)
	.loc 9 453 0
	bl	RenderButtons(PLT)
	.loc 9 454 0
	bl	RenderCursor(PLT)
	.loc 9 455 0
	bl	RenderSoftkeys(PLT)
	.loc 9 456 0
	bl	_Z13ExampleRenderv(PLT)
	.loc 9 459 0
	b	.L204
.L207:
.LBB58:
	.loc 9 461 0
	ldr	r4, [sp, #8]
	bl	s3eTimerGetMs(PLT)
	mov	r2, r0
	mov	r3, r1
	mov	r3, r2
	rsb	r3, r3, r4
	add	r3, r3, #40
	str	r3, [sp]
	.loc 9 462 0
	ldr	r3, [sp]
	cmp	r3, #0
	bge	.L205
	.loc 9 463 0
	b	.L206
.L205:
	.loc 9 464 0
	ldr	r0, [sp]
	bl	s3eDeviceYield(PLT)
.L204:
.LBE58:
	.loc 9 459 0 discriminator 1
	bl	s3eTimerGetMs(PLT)
	ldrd	r2, [sp, #8]
	subs	r2, r0, r2
	sbc	r3, r1, r3
	cmp	r3, #0
	it eq
	cmpeq	r2, #39
	movhi	r3, #0
	movls	r3, #1
	uxtb	r3, r3
	cmp	r3, #0
	bne	.L207
.L206:
.LBE59:
	.loc 9 472 0
	b	.L208
.L211:
	.loc 9 468 0 discriminator 1
	ldr	r3, .L212+16
.LPIC84:
	add	r3, pc, r3
	ldr	r3, [r3]
	ldr	r3, [r3]
	add	r3, r3, #4
	ldr	r3, [r3]
	ldr	r2, .L212+20
.LPIC85:
	add	r2, pc, r2
	ldr	r2, [r2]
	mov	r0, r2
	blx	r3
.L209:
	.loc 9 469 0
	bl	_Z15ExampleShutDownv(PLT)
	.loc 9 470 0
	bl	DeleteButtons(PLT)
	.loc 9 471 0
	bl	_Z13IwGxTerminatev(PLT)
	.loc 9 472 0
	mov	r3, #0
.LBE56:
	.loc 9 473 0
	mov	r0, r3
	add	sp, sp, #16
	@ sp needed
	ldmfd	sp!, {r4, pc}
.L213:
	.align	2
.L212:
	.word	_ZL10g_DrawExit-(.LPIC79+8)
	.word	_ZL12g_EnableExit-(.LPIC80+8)
	.word	_ZL12g_EnableExit-(.LPIC81+8)
	.word	_ZL16g_CursorMaterial-(.LPIC82+8)
	.word	_ZL16g_CursorMaterial-(.LPIC84+8)
	.word	_ZL16g_CursorMaterial-(.LPIC85+8)
	.cfi_endproc
.LFE2007:
	.size	main, .-main
	.bss
_ZZL13IwGxDataAllocjjPKcjE21_s_IwAssertIgnoreThis:
	.space	1
	.hidden	_ZZN11CIwMaterial12SetAlphaModeENS_9AlphaModeEE21_s_IwAssertIgnoreThis
	.weak	_ZZN11CIwMaterial12SetAlphaModeENS_9AlphaModeEE21_s_IwAssertIgnoreThis
	.section	.bss._ZZN11CIwMaterial12SetAlphaModeENS_9AlphaModeEE21_s_IwAssertIgnoreThis,"awG",%nobits,_ZZN11CIwMaterial12SetAlphaModeENS_9AlphaModeEE21_s_IwAssertIgnoreThis,comdat
	.type	_ZZN11CIwMaterial12SetAlphaModeENS_9AlphaModeEE21_s_IwAssertIgnoreThis, %object
	.size	_ZZN11CIwMaterial12SetAlphaModeENS_9AlphaModeEE21_s_IwAssertIgnoreThis, 1
_ZZN11CIwMaterial12SetAlphaModeENS_9AlphaModeEE21_s_IwAssertIgnoreThis:
	.space	1
	.hidden	_ZZN11CIwMaterial12SetAlphaModeENS_9AlphaModeEE21_s_IwAssertIgnoreThis_0
	.weak	_ZZN11CIwMaterial12SetAlphaModeENS_9AlphaModeEE21_s_IwAssertIgnoreThis_0
	.section	.bss._ZZN11CIwMaterial12SetAlphaModeENS_9AlphaModeEE21_s_IwAssertIgnoreThis_0,"awG",%nobits,_ZZN11CIwMaterial12SetAlphaModeENS_9AlphaModeEE21_s_IwAssertIgnoreThis_0,comdat
	.type	_ZZN11CIwMaterial12SetAlphaModeENS_9AlphaModeEE21_s_IwAssertIgnoreThis_0, %object
	.size	_ZZN11CIwMaterial12SetAlphaModeENS_9AlphaModeEE21_s_IwAssertIgnoreThis_0, 1
_ZZN11CIwMaterial12SetAlphaModeENS_9AlphaModeEE21_s_IwAssertIgnoreThis_0:
	.space	1
	.bss
_ZZL22IwGxSetScreenSpaceSlotiE21_s_IwAssertIgnoreThis:
	.space	1
_ZZL22IwGxSetScreenSpaceSlotiE21_s_IwAssertIgnoreThis_0:
	.space	1
_ZZL9IwGxClearjE21_s_IwAssertIgnoreThis:
	.space	1
	.text
.Letext0:
	.file 10 "c:/marmalade/7.4/s3e/h/s3eTypes.h"
	.file 11 "c:/marmalade/7.4/s3e/h/s3eFile.h"
	.file 12 "c:/marmalade/7.4/s3e/h/s3eDebug.h"
	.file 13 "c:/marmalade/7.4/s3e/h/s3eDevice.h"
	.file 14 "c:/marmalade/7.4/s3e/h/s3eKeyboard.h"
	.file 15 "c:/marmalade/7.4/s3e/h/s3ePointer.h"
	.file 16 "c:/marmalade/7.4/s3e/h/s3eSurface.h"
	.file 17 "c:/marmalade/7.4/s3e/h/std/stddef.h"
	.file 18 "c:/marmalade/7.4/s3e/h/std/c++/typeinfo.h"
	.file 19 "c:/marmalade/7.4/s3e/h/std/c++/exception"
	.file 20 "c:/marmalade/7.4/s3e/h/std/c++/typeinfo"
	.file 21 "c:/marmalade/7.4/s3e/h/std/c++/cstddef"
	.file 22 "c:/marmalade/7.4/s3e/h/std/c++/stl/_config.h"
	.file 23 "c:/marmalade/7.4/s3e/h/GLES/gl.h"
	.file 24 "c:/marmalade/7.4/modules/iwutil/h/IwSerialise.h"
	.file 25 "c:/marmalade/7.4/modules/iwgeom/h/IwGeomCore.h"
	.file 26 "c:/marmalade/7.4/modules/legacy/iwgx/h/IwColour.h"
	.file 27 "c:/marmalade/7.4/modules/iwgeom/h/IwGeomVec2.h"
	.file 28 "c:/marmalade/7.4/modules/iwgeom/h/IwGeomFVec2.h"
	.file 29 "c:/marmalade/7.4/modules/iwgeom/h/IwGeomSVec3.h"
	.file 30 "c:/marmalade/7.4/modules/iwgeom/h/IwGeomVec3.h"
	.file 31 "c:/marmalade/7.4/modules/iwgeom/h/IwGeomFVec3.h"
	.file 32 "c:/marmalade/7.4/modules/iwgeom/h/IwGeomMat.h"
	.file 33 "c:/marmalade/7.4/modules/iwgeom/h/IwGeomFMat.h"
	.file 34 "c:/marmalade/7.4/modules/legacy/iwgx/h/IwGxStream.h"
	.file 35 "c:/marmalade/7.4/modules/iwutil/h/IwString.h"
	.file 36 "c:/marmalade/7.4/modules/legacy/iwgx/h/IwGxTypes.h"
	.file 37 "c:/marmalade/7.4/modules/iwutil/h/IwList.h"
	.file 38 "c:/marmalade/7.4/modules/iwutil/h/IwAllocator.h"
	.file 39 "c:/marmalade/7.4/modules/iwutil/h/IwManaged.h"
	.file 40 "c:/marmalade/7.4/modules/iwutil/h/IwArray.h"
	.file 41 "c:/marmalade/7.4/modules/iwutil/h/IwManagedList.h"
	.file 42 "c:/marmalade/7.4/modules/iwutil/h/IwTypes.h"
	.file 43 "c:/marmalade/7.4/modules/legacy/iwgx/h/IwTexture.h"
	.file 44 "c:/marmalade/7.4/modules/legacy/iwgx/h/IwGxSurface.h"
	.file 45 "c:/marmalade/7.4/modules/legacy/iwgx/h/IwGxFuncTable.h"
	.file 46 "c:/marmalade/7.4/s3e/h/EGL/egl.h"
	.file 47 "<built-in>"
	.file 48 "c:/marmalade/7.4/modules/legacy/iwgx/h/IwTPage.h"
	.file 49 "c:/marmalade/7.4/modules/iwutil/h/IwImage.h"
	.file 50 "c:/marmalade/7.4/modules/iwutil/h/IwMemBucket.h"
	.file 51 "c:/marmalade/7.4/modules/iwutil/h/IwMemBucketHelpers.h"
	.file 52 "c:/marmalade/7.4/modules/legacy/iwresmanager/h/IwResGroup.h"
	.file 53 "c:/marmalade/7.4/modules/legacy/iwresmanager/h/IwResManagerClass.h"
	.file 54 "c:/marmalade/7.4/modules/iwgl/h/IwGL.h"
	.file 55 "c:/marmalade/7.4/modules/iwgeom/h/IwGeomSqrt.h"
	.file 56 "c:/marmalade/7.4/modules/iwutil/h/IwMenu.h"