((dp0
S'arm_dbg_args'
p1
S'-via:"c:\\Users\\Ben\\Desktop\\FYP\\FinalYearProject\\box2d\\heybox2d\\build_heybox2d_vc11\\HeyBox2D_vc11_arm_debug.via" -qemu'
p2
sS'game-icf'
p3
S''
p4
sS'dist'
p5
NsS'csproj'
p6
g4
sS'module_path_append'
p7
NsS'global_path'
p8
S'c:\\users\\ben\\desktop\\fyp\\finalyearproject\\box2d'
p9
sS'system_path'
p10
S'c:\\marmalade\\7.4\\s3e\\makefile_builder'
p11
sS'android_x86_dbg_args'
p12
S'../../tools/DeployTool/DeployTool.exe --dir "c:\\Users\\Ben\\Desktop\\FYP\\FinalYearProject\\box2d\\heybox2d\\build_heybox2d_vc11"'
p13
sS'no-emit'
p14
NsS'arm-float-abi'
p15
g4
sS'arm_rel_rtsm_args'
p16
S'-via:"c:\\Users\\Ben\\Desktop\\FYP\\FinalYearProject\\box2d\\heybox2d\\build_heybox2d_vc11\\HeyBox2D_vc11_arm_release.via" -qemu'
p17
sS'amd64'
p18
NsS'line-width'
p19
I80
sS'gcc_dbg_args'
p20
S'-via:"c:\\Users\\Ben\\Desktop\\FYP\\FinalYearProject\\box2d\\heybox2d\\build_heybox2d_vc11\\HeyBox2D_vc11_gcc_debug.via" -qemu'
p21
sS'android-x86'
p22
NsS'x86_dbg_exe'
p23
S'c:/marmalade/7.4/s3e\\win32\\s3e_simulator_debug.exe'
p24
sS'disable-runtime-checks'
p25
NsS'release'
p26
NsS'no-make'
p27
NsS'xcode-x86-build-settings'
p28
g4
sS'optimise-size'
p29
NsS'output-name-debug'
p30
g4
sS'arm-fpu'
p31
g4
sS'proj_name'
p32
S'HeyBox2D_vc11'
p33
sS'rvct-version'
p34
S'none'
p35
sS'compiler'
p36
g4
sS'execute'
p37
NsS'compile-static'
p38
NsS'msvc-project'
p39
NsS'buildenv'
p40
g4
sS'quick'
p41
NsS'module_path'
p42
NsS'mkf_default'
p43
S's3e-default.mkf'
p44
sS'use-release-std-libs'
p45
NsS'using_perforce'
p46
I00
sS'tizen-x86'
p47
NsS'mips-s3e'
p48
NsS's3e-api-lib-name'
p49
S's3e_api_iwgl'
p50
sS'ios-no-pic'
p51
NsS'shared-arm-lib'
p52
NsS'arm-cpu'
p53
g4
sS'compile-thumb'
p54
NsS'no-ide'
p55
NsS'msvc-version'
p56
S'6.0'
p57
sS'arm'
p58
NsS'builddir'
p59
g4
sS'compile-debug-as-release'
p60
I0
sS'arm-arch'
p61
g4
sS'brief'
p62
NsS'dll'
p63
NsS'buildenv-toolset'
p64
g4
sS'version'
p65
NsS'ccache'
p66
I0
sS'offline'
p67
NsS'ios-version'
p68
g4
sS'hub_data'
p69
g4
sS'fake_vc_call'
p70
NsS'jobs'
p71
I0
sS'linkflags'
p72
NsS'debug'
p73
NsS'xcode-build-order'
p74
g4
sS'gcc_rel_rtsm_args'
p75
S'-via:"c:\\Users\\Ben\\Desktop\\FYP\\FinalYearProject\\box2d\\heybox2d\\build_heybox2d_vc11\\HeyBox2D_vc11_gcc_release.via" -qemu'
p76
sS'done_defaults'
p77
I1
sS'path'
p78
NsS's3e-data-dir'
p79
S'c:/Users/Ben/Desktop/FYP/FinalYearProject/box2d/heybox2d\\data'
p80
sS'enable-exceptions'
p81
NsS'osx-dll'
p82
NsS'extension'
p83
g4
sS'no-vc6'
p84
NsS'non-interactive'
p85
NsS'win32-console'
p86
NsS'dist-format'
p87
g4
sS's3e-force-arch'
p88
NsS'dump_defines'
p89
NsS'use_prebuilt'
p90
NsS'gcc-version'
p91
g4
sS'x86_dbg_args'
p92
S'-via:"c:\\Users\\Ben\\Desktop\\FYP\\FinalYearProject\\box2d\\heybox2d\\build_heybox2d_vc11\\HeyBox2D_vc11_debug.via"'
p93
sS'tizen_x86_dbg_args'
p94
g13
sS'arm-debugger'
p95
g4
sS'use_temp_extension'
p96
NsS'verbose'
p97
I0
sS'log'
p98
NsS'no-strip'
p99
NsS'rebuild'
p100
NsS'win32-simulator-dll'
p101
NsS'strict'
p102
I1
sS'mips_dbg_args'
p103
g13
sS'enable-global-path'
p104
NsS'cflags'
p105
NsS'dist-dir'
p106
g4
sS'xcode-arm-build-settings'
p107
g4
sS'jflags'
p108
NsS'csprojSDKRefs'
p109
g4
sS'tizen_x86_rel_exe'
p110
S'c:\\marmalade\\7.4\\s3e\\makefile_builder\\tool_launcher.exe'
p111
sS'test-assets'
p112
g4
sS'distcc'
p113
NsS'external-compiler'
p114
NsS'no-distcc'
p115
NsS'preinclude'
p116
NsS'using_sdk'
p117
I01
sS'nologo'
p118
NsS'warn-level'
p119
I2
sS'mips_dbg_exe'
p120
g111
sS'mkb_in'
p121
S'c:/Users/Ben/Desktop/FYP/FinalYearProject/box2d/heybox2d/HeyBox2D.mkb'
p122
sS'tizen_x86_dbg_exe'
p123
g111
sS'arm_dbg_exe'
p124
S'c:/marmalade/7.4/s3e\\bin\\armdebug.exe'
p125
sS'csprojDLLRef'
p126
NsS'tizen_x86_rel_args'
p127
g13
sS'android_x86_dbg_exe'
p128
g111
sS'test-config'
p129
g4
sS'list-targets'
p130
NsS'arm_rel_exe'
p131
g111
sS'arm_rel_args'
p132
g13
sS'makedeps'
p133
NsS'android_x86_rel_exe'
p134
g111
sS'default-buildenv'
p135
S'VC11'
p136
sS'x86_rel_exe'
p137
g24
sS'preprocess-java'
p138
NsS'mips_rel_args'
p139
g13
sS'defines'
p140
NsS'lib'
p141
NsS'global_argv'
p142
(lp143
S'C:\\Marmalade\\7.4\\s3e\\makefile_builder\\mkb.py'
p144
aS'C:\\Users\\Ben\\Desktop\\FYP\\FinalYearProject\\box2d\\heybox2d\\HeyBox2D.mkb'
p145
asS'make'
p146
NsS'optimise-speed'
p147
NsS'internal'
p148
NsS'enable-stdinc'
p149
NsS'deploy-only'
p150
NsS'x86'
p151
NsS'deploy'
p152
g4
sS'x86_run_exe'
p153
S'c:/marmalade/7.4/s3e\\win32\\s3e_console.exe'
p154
sS'x86_rel_args'
p155
S'-via:"c:\\Users\\Ben\\Desktop\\FYP\\FinalYearProject\\box2d\\heybox2d\\build_heybox2d_vc11\\HeyBox2D_vc11_release.via"'
p156
sS'gcc_rel_args'
p157
g13
sS'mips'
p158
NsS'xcode-build-settings'
p159
g4
sS'incredibuild'
p160
NsS'strict-compile'
p161
I1
sS'use-auto-subdirs'
p162
NsS'mips_rel_exe'
p163
g111
sS'android_x86_rel_args'
p164
g13
sS'app-icf'
p165
g4
sS'deployargs'
p166
NsS'iosnativedebug'
p167
NsS'mkf_in'
p168
(lp169
S'c:\\marmalade\\7.4\\s3e\\s3e-default.mkf'
p170
aS'c:\\marmalade\\7.4\\modules\\iw2d\\iw2d.mkf'
p171
aS'c:\\marmalade\\7.4\\modules\\legacy\\iw2d\\iw2d_legacy.mkf'
p172
aS'c:\\marmalade\\7.4\\modules\\iwgx\\iwgx.mkf'
p173
aS'c:\\marmalade\\7.4\\modules\\legacy\\iwgx\\iwgx_legacy.mkf'
p174
aS'c:\\marmalade\\7.4\\modules\\iwgeom\\iwgeom.mkf'
p175
aS'c:\\marmalade\\7.4\\modules\\iwutil\\iwutil.mkf'
p176
aS'c:\\marmalade\\7.4\\modules\\third_party\\libjpeg\\libjpeg.mkf'
p177
aS'c:\\marmalade\\7.4\\modules\\third_party\\libpng\\libpng.mkf'
p178
aS'c:\\marmalade\\7.4\\modules\\third_party\\zlib\\zlib.mkf'
p179
aS'c:\\marmalade\\7.4\\modules\\iwresmanager\\iwresmanager.mkf'
p180
aS'c:\\marmalade\\7.4\\modules\\legacy\\iwresmanager\\iwresmanager_legacy.mkf'
p181
aS'c:\\marmalade\\7.4\\modules\\iwgl\\iwgl.mkf'
p182
aS'c:\\marmalade\\7.4\\modules\\iwgxfont\\iwgxfont.mkf'
p183
aS'c:\\marmalade\\7.4\\modules\\legacy\\iwgxfont\\iwgxfont_legacy.mkf'
p184
aS'c:\\marmalade\\7.4\\modules\\third_party\\tiniconv\\tiniconv.mkf'
p185
aS'c:\\marmalade\\7.4\\examples\\examplescore\\examplescore.mkf'
p186
aS'c:\\marmalade\\7.4\\examples\\marmaladeexampleresources\\marmaladeexampleresources.mkf'
p187
aS'c:\\users\\ben\\desktop\\fyp\\finalyearproject\\box2d\\box2d.mkf'
p188
asS'strict-mkb'
p189
I1
sS'executeargs'
p190
NsS'clean'
p191
NsS'no-asm'
p192
NsS'output-name'
p193
g4
sS'no-modules'
p194
NsS'find_define'
p195
g4
s(dp196
S'c:\\marmalade\\7.4\\s3e\\makefile_builder\\plugins\\Emitter.pyc'
p197
F1415334512.0
sS'c:\\marmalade\\7.4\\s3e\\makefile_builder\\templates\\ws8_ext_sln.pyc'
p198
F1415334512.0
sS'c:\\marmalade\\7.4\\s3e\\makefile_builder\\templates\\MainWindow.xib'
p199
F1415332874.0
sS'c:\\marmalade\\7.4\\s3e\\makefile_builder\\templates\\template.suo'
p200
F1415332874.0
sS'c:\\marmalade\\7.4\\s3e\\makefile_builder\\plugins\\xcode4_schememanagement.py'
p201
F1415332874.0
sS'c:\\marmalade\\7.4\\s3e\\makefile_builder\\templates\\ws81_sln.pyc'
p202
F1415334512.0
sS'c:\\marmalade\\7.4\\s3e\\makefile_builder\\templates\\win8_ext_csproj.pyc'
p203
F1415334512.0
sS'c:\\marmalade\\7.4\\s3e\\makefile_builder\\mkb_option.pyc'
p204
F1415334512.0
sS'c:\\marmalade\\7.4\\s3e\\makefile_builder\\plugins\\s3e_xcode.py'
p205
F1415332874.0
sS'c:\\marmalade\\7.4\\s3e\\makefile_builder\\plugins\\s3e_scons.pyc'
p206
F1415334512.0
sS'c:\\marmalade\\7.4\\s3e\\makefile_builder\\templates\\win8_vcxproj.pyc'
p207
F1415334512.0
sS'c:\\marmalade\\7.4\\s3e\\makefile_builder\\plugins\\null.pyc'
p208
F1415334512.0
sS'c:\\marmalade\\7.4\\s3e\\makefile_builder\\templates\\vc8_user.pyc'
p209
F1415334512.0
sS'c:\\marmalade\\7.4\\s3e\\makefile_builder\\templates\\wp81_ext_sln.pyc'
p210
F1415334512.0
sS'c:\\marmalade\\7.4\\s3e\\makefile_builder\\templates\\scons.pyc'
p211
F1415334512.0
sS'c:\\marmalade\\7.4\\s3e\\makefile_builder\\templates\\wp8_ext_csproj.pyc'
p212
F1415334512.0
sS'c:\\marmalade\\7.4\\s3e\\makefile_builder\\templates\\xcode_pbxuser.py'
p213
F1415332874.0
sS'c:\\marmalade\\7.4\\s3e\\makefile_builder\\plugins\\s3e_qmake.py'
p214
F1415332874.0
sS'c:\\marmalade\\7.4\\s3e\\makefile_builder\\plugins\\iphone.pyc'
p215
F1415334512.0
sS'c:\\marmalade\\7.4\\s3e\\makefile_builder\\templates\\ws81_ext_csproj.pyc'
p216
F1415334512.0
sS'c:\\marmalade\\7.4\\s3e\\makefile_builder\\templates\\vc6_opt.pyc'
p217
F1415334512.0
sS'c:\\marmalade\\7.4\\s3e\\makefile_builder\\plugins\\s3e_win8.pyc'
p218
F1415334512.0
sS'c:\\marmalade\\7.4\\s3e\\makefile_builder\\mkb_main.pyc'
p219
F1415334512.0
sS'c:\\marmalade\\7.4\\s3e\\makefile_builder\\templates\\wp8_csproj.pyc'
p220
F1415334512.0
sS'c:\\marmalade\\7.4\\s3e\\makefile_builder\\templates\\win32_vcproj.pyc'
p221
F1415334512.0
sS'c:\\marmalade\\7.4\\s3e\\makefile_builder\\templates\\win8_sln.pyc'
p222
F1415334512.0
sS'c:\\marmalade\\7.4\\s3e\\makefile_builder\\mkb_launcher.exe'
p223
F1415333332.0
sS'c:\\marmalade\\7.4\\s3e\\makefile_builder\\plugins\\osx_xcode.pyc'
p224
F1415334512.0
sS'c:\\marmalade\\7.4\\s3e\\makefile_builder\\plugins'
p225
F1418148458.4072645
sS'c:\\marmalade\\7.4\\s3e\\makefile_builder\\templates\\wp8_csproj_user.pyc'
p226
F1415334512.0
sS'c:\\marmalade\\7.4\\s3e\\makefile_builder\\plugins\\win32_vc6.pyc'
p227
F1415334512.0
sS'c:\\marmalade\\7.4\\s3e\\makefile_builder\\plugins\\s3e_vc6.pyc'
p228
F1415334512.0
sS'c:\\marmalade\\7.4\\s3e\\makefile_builder\\templates\\vc10_user.pyc'
p229
F1415334512.0
sS'c:\\marmalade\\7.4\\s3e\\makefile_builder\\docs\\deprecated.defines.txt'
p230
F1415332874.0
sS'c:\\marmalade\\7.4\\s3e\\makefile_builder\\templates\\wp81_csproj_user.pyc'
p231
F1415334512.0
sS'c:\\marmalade\\7.4\\s3e\\makefile_builder\\templates\\ws81_ext_sln.pyc'
p232
F1415334512.0
sS'c:\\marmalade\\7.4\\s3e\\makefile_builder\\templates\\make.py'
p233
F1415332874.0
sS'c:\\marmalade\\7.4\\s3e\\makefile_builder\\plugins\\wp81_wp81.pyc'
p234
F1415334512.0
sS'c:\\marmalade\\7.4\\s3e\\makefile_builder\\plugins\\s3e_qmake.pyc'
p235
F1418148458.0634904
sS'c:\\marmalade\\7.4\\s3e\\makefile_builder\\templates\\mips_linker_script'
p236
F1415332874.0
sS'c:\\marmalade\\7.4\\s3e\\makefile_builder\\plugins\\deploy.pyc'
p237
F1415334512.0
sS'c:\\marmalade\\7.4\\s3e\\makefile_builder\\plugins\\ws81_ws81.pyc'
p238
F1415334512.0
sS'c:\\marmalade\\7.4\\s3e\\makefile_builder\\mkb.py'
p239
F1415332874.0
sS'c:\\marmalade\\7.4\\s3e\\makefile_builder\\docs\\options.txt'
p240
F1415332874.0
sS'c:\\marmalade\\7.4\\s3e\\makefile_builder\\mkb_parser.pyc'
p241
F1415334512.0
sS'c:\\marmalade\\7.4\\s3e\\makefile_builder\\templates\\qmake_user.py'
p242
F1415332874.0
sS'c:\\marmalade\\7.4\\s3e\\makefile_builder\\docs\\mkb.defines.txt'
p243
F1415332874.0
sS'c:\\marmalade\\7.4\\s3e\\makefile_builder\\deployment.pyc'
p244
F1415334512.0
sS'c:\\marmalade\\7.4\\s3e\\makefile_builder\\plugins\\wp8_wp8.pyc'
p245
F1415334512.0
sS'c:\\marmalade\\7.4\\s3e\\makefile_builder\\plugins\\linux_scons.pyc'
p246
F1415334512.0
sS'c:\\marmalade\\7.4\\s3e\\makefile_builder\\plugins\\s3e_web.pyc'
p247
F1415334512.0
sS'c:\\marmalade\\7.4\\s3e\\makefile_builder\\plugins\\S3EEmitter.pyc'
p248
F1415334512.0
sS'c:\\marmalade\\7.4\\s3e\\makefile_builder\\plugins\\Win8Emitter.pyc'
p249
F1415334512.0
sS'c:\\marmalade\\7.4\\s3e\\makefile_builder\\templates\\xcode4_arm.xcscheme'
p250
F1415332874.0
sS'c:\\marmalade\\7.4\\s3e\\makefile_builder\\plugins\\vc6_utils.pyc'
p251
F1415334512.0
sS'c:\\marmalade\\7.4\\s3e\\makefile_builder\\templates\\wp8_vcxproj.pyc'
p252
F1415334512.0
sS'c:\\marmalade\\7.4\\s3e\\makefile_builder\\templates\\xcode4.xcscheme'
p253
F1415332874.0
sS'c:\\marmalade\\7.4\\s3e\\makefile_builder\\plugins\\MakeEmitter.pyc'
p254
F1415334512.0
sS'c:\\marmalade\\7.4\\s3e\\makefile_builder\\plugins\\java.pyc'
p255
F1415334512.0
sS'c:\\marmalade\\7.4\\s3e\\makefile_builder\\plugins\\XcodeEmitter.pyc'
p256
F1418148457.5164497
sS'c:\\marmalade\\7.4\\s3e\\makefile_builder\\plugins\\XcodeEmitter.py'
p257
F1415332874.0
sS'c:\\marmalade\\7.4\\s3e\\makefile_builder\\mkb_globals.pyc'
p258
F1415334512.0
sS'c:\\marmalade\\7.4\\s3e\\makefile_builder\\tool_launcher.exe'
p259
F1415333332.0
sS'c:\\marmalade\\7.4\\s3e\\makefile_builder\\mkb_util.pyc'
p260
F1415334512.0
sS'c:\\marmalade\\7.4\\s3e\\makefile_builder\\plugins\\xcode4_schememanagement.pyc'
p261
F1418148457.57898
sS'c:\\marmalade\\7.4\\s3e\\makefile_builder\\templates\\ws8_sln.pyc'
p262
F1415334512.0
sS'c:\\marmalade\\7.4\\s3e\\makefile_builder\\templates\\win32_sln.pyc'
p263
F1415334512.0
sS'c:\\marmalade\\7.4\\s3e\\makefile_builder\\templates\\wp81_ext_csproj.pyc'
p264
F1415334512.0
sS'c:\\marmalade\\7.4\\s3e\\makefile_builder\\plugins\\s3e_wp81.pyc'
p265
F1415334512.0
sS'c:\\marmalade\\7.4\\s3e\\makefile_builder\\plugins\\s3e_wp8.pyc'
p266
F1415334512.0
sS'c:\\marmalade\\7.4\\s3e\\makefile_builder\\templates\\qmake.py'
p267
F1415332874.0
sS'c:\\marmalade\\7.4\\s3e\\makefile_builder\\templates\\gdb_start.txt'
p268
F1415332874.0
sS'c:\\marmalade\\7.4\\s3e\\makefile_builder\\templates'
p269
F1417645594.9650323
sS'c:\\marmalade\\7.4\\s3e\\makefile_builder\\templates\\ws8_ext_csproj.pyc'
p270
F1415334512.0
sS'c:\\marmalade\\7.4\\s3e\\makefile_builder\\templates\\win8_csproj_user.pyc'
p271
F1415334512.0
sS'c:\\marmalade\\7.4\\s3e\\makefile_builder\\templates\\vc7_suo.pyc'
p272
F1415334512.0
sS'c:\\marmalade\\7.4\\s3e\\makefile_builder\\plugins\\VisualStudioEmitter.pyc'
p273
F1415334512.0
sS'c:\\marmalade\\7.4\\s3e\\makefile_builder\\templates\\linker_script'
p274
F1415332874.0
sS'c:\\marmalade\\7.4\\s3e\\makefile_builder\\docs\\deprecated.options.txt'
p275
F1415332874.0
sS'c:\\marmalade\\7.4\\s3e\\makefile_builder\\plugins\\s3e_xcode.pyc'
p276
F1418148458.4072645
sS'c:\\marmalade\\7.4\\s3e\\makefile_builder\\plugins\\s3e_ws8.pyc'
p277
F1415334512.0
sS'c:\\marmalade\\7.4\\s3e\\makefile_builder\\templates\\xcode4_DeployTool.xcscheme'
p278
F1415332874.0
sS'c:\\marmalade\\7.4\\s3e\\makefile_builder\\templates\\ws8_csproj_user.pyc'
p279
F1415334512.0
sS'c:\\marmalade\\7.4\\s3e\\makefile_builder\\plugins\\osx_scons.pyc'
p280
F1415334512.0
sS'c:\\marmalade\\7.4\\s3e\\makefile_builder\\templates\\ws81_csproj.pyc'
p281
F1415334512.0
sS'c:\\marmalade\\7.4\\s3e\\makefile_builder\\templates\\wp8_sln.pyc'
p282
F1415334512.0
sS'c:\\marmalade\\7.4\\s3e\\makefile_builder\\docs'
p283
F1417645595.0951257
sS'c:\\marmalade\\7.4\\s3e\\makefile_builder\\plugins\\ws8_ws8.pyc'
p284
F1415334512.0
sS'c:\\marmalade\\7.4\\s3e\\makefile_builder\\docs\\deployment_options.txt'
p285
F1415332874.0
sS'c:\\marmalade\\7.4\\s3e\\makefile_builder\\templates\\win32_vcxproj_filters.pyc'
p286
F1415334512.0
sS'c:\\marmalade\\7.4\\s3e\\makefile_builder\\templates\\win32_dsw.pyc'
p287
F1415334512.0
sS'c:\\marmalade\\7.4\\s3e\\makefile_builder\\plugins\\s3e_ws81.pyc'
p288
F1415334512.0
sS'c:\\marmalade\\7.4\\s3e\\makefile_builder\\plugins\\SConsEmitter.pyc'
p289
F1415334512.0
sS'c:\\marmalade\\7.4\\s3e\\makefile_builder\\templates\\wp81_vcxproj.pyc'
p290
F1415334512.0
sS'c:\\marmalade\\7.4\\s3e\\makefile_builder\\plugins\\win8_utils.pyc'
p291
F1415334512.0
sS'c:\\marmalade\\7.4\\s3e\\makefile_builder\\templates\\template.opt'
p292
F1415332874.0
sS'c:\\marmalade\\7.4\\s3e\\makefile_builder\\plugins\\vc7_utils.pyc'
p293
F1415334512.0
sS'c:\\marmalade\\7.4\\s3e\\makefile_builder\\templates\\win32_dsp.pyc'
p294
F1415334512.0
sS'c:\\marmalade\\7.4\\s3e\\makefile_builder\\plugins\\s3e_make.pyc'
p295
F1415334512.0
sS'c:\\marmalade\\7.4\\s3e\\makefile_builder\\templates\\rvct_linker_script'
p296
F1415332874.0
sS'c:\\marmalade\\7.4\\s3e\\makefile_builder\\templates\\win8_csproj.pyc'
p297
F1415334512.0
sS'c:\\marmalade\\7.4\\s3e\\makefile_builder\\templates\\xcode.py'
p298
F1415332874.0
sS'c:\\marmalade\\7.4\\s3e\\makefile_builder\\templates\\ws8_vcxproj.pyc'
p299
F1415334512.0
sS'c:\\marmalade\\7.4\\s3e\\makefile_builder\\templates\\wp81_csproj.pyc'
p300
F1415334512.0
sS'c:\\marmalade\\7.4\\s3e\\makefile_builder\\mkb_upstream.pyc'
p301
F1415334512.0
sS'c:\\marmalade\\7.4\\s3e\\makefile_builder\\templates\\win32_vcxproj.pyc'
p302
F1415334512.0
sS'c:\\marmalade\\7.4\\s3e\\makefile_builder\\templates\\ws8_csproj.pyc'
p303
F1415334512.0
sS'c:\\marmalade\\7.4\\s3e\\makefile_builder\\docs\\parse_options.pyc'
p304
F1415334514.0
sS'c:\\marmalade\\7.4\\s3e\\makefile_builder\\templates\\Info.plist'
p305
F1415332874.0
sS'c:\\marmalade\\7.4\\s3e\\makefile_builder\\templates\\wp81_sln.pyc'
p306
F1415334512.0
sS'c:\\marmalade\\7.4\\s3e\\makefile_builder\\templates\\ws81_csproj_user.pyc'
p307
F1415334512.0
sS'c:\\marmalade\\7.4\\s3e\\makefile_builder\\templates\\ws81_vcxproj.pyc'
p308
F1415334512.0
sccopy_reg
_reconstructor
p309
(cmkb_main
MkbFile
p310
c__builtin__
object
p311
Ntp312
Rp313
(dp314
g5
(lp315
sS'target_name'
p316
S'HeyBox2D'
p317
sS'current_file'
p318
g122
sS'package_path'
p319
(lp320
sS'post_build'
p321
(lp322
(lp323
S'c:/marmalade/7.4/s3e/tools'
p324
aS'C:\\Marmalade\\7.4\\s3e\\python\\python.exe .\\process_map.py "$(TargetPath)"'
p325
aa(S'c:\\marmalade\\7.4\\s3e\\bin'
p326
S'"s3e_plink" -l "$(TargetPath)" '
p327
g151
tp328
asS'librarys'
p329
(lp330
g309
(cmkb_main
Library
p331
g311
Ntp332
Rp333
(dp334
S'name'
p335
S'vc6_compat.lib'
p336
sS'expand_name'
p337
I00
sS'include_spec_rvct_objs'
p338
(lp339
sS'include_all_objs'
p340
I00
sS'share_arm'
p341
I00
sS'arch'
p342
S'x86'
p343
sS'nodebug'
p344
I00
sg36
Nsbag309
(g331
g311
Ntp345
Rp346
(dp347
g335
S'iw2d'
p348
sg337
I01
sg338
(lp349
sg340
Nsg341
Nsg342
Nsg344
I00
sg36
Nsbag309
(g331
g311
Ntp350
Rp351
(dp352
g335
S'iwgeom'
p353
sg337
I01
sg338
g349
sg340
Nsg341
Nsg342
Nsg344
I00
sg36
Nsbag309
(g331
g311
Ntp354
Rp355
(dp356
g335
S'iwutil'
p357
sg337
I01
sg338
g349
sg340
Nsg341
Nsg342
Nsg344
I00
sg36
Nsbag309
(g331
g311
Ntp358
Rp359
(dp360
g335
S'jpeg'
p361
sg337
I01
sg338
g349
sg340
Nsg341
Nsg342
Nsg344
I00
sg36
Nsbag309
(g331
g311
Ntp362
Rp363
(dp364
g335
S'z'
p365
sg337
I01
sg338
g349
sg340
Nsg341
Nsg342
Nsg344
I00
sg36
Nsbag309
(g331
g311
Ntp366
Rp367
(dp368
g335
S'png'
p369
sg337
I01
sg338
g349
sg340
Nsg341
Nsg342
Nsg344
I00
sg36
Nsbag309
(g331
g311
Ntp370
Rp371
(dp372
g335
S'iwresmanager'
p373
sg337
I01
sg338
g349
sg340
Nsg341
Nsg342
Nsg344
I00
sg36
Nsbag309
(g331
g311
Ntp374
Rp375
(dp376
g335
S'ATI_Compress_MT_VC7.lib'
p377
sg337
I00
sg338
g349
sg340
Nsg341
Nsg342
S'x86'
p378
sg344
I00
sg36
Nsbag309
(g331
g311
Ntp379
Rp380
(dp381
g335
S'iwgx'
p382
sg337
I01
sg338
g349
sg340
Nsg341
Nsg342
Nsg344
I00
sg36
Nsbag309
(g331
g311
Ntp383
Rp384
(dp385
g335
S'iwgl'
p386
sg337
I01
sg338
g349
sg340
Nsg341
Nsg342
Nsg344
I00
sg36
Nsbag309
(g331
g311
Ntp387
Rp388
(dp389
g335
S'iwgxfont'
p390
sg337
I01
sg338
g349
sg340
Nsg341
Nsg342
Nsg344
I00
sg36
Nsbag309
(g331
g311
Ntp391
Rp392
(dp393
g335
S'tiniconv'
p394
sg337
I01
sg338
g349
sg340
Nsg341
Nsg342
Nsg344
I00
sg36
Nsbag309
(g331
g311
Ntp395
Rp396
(dp397
g335
S's3e_cpp'
p398
sg337
I01
sg338
g339
sg340
I00
sg341
I00
sg342
Nsg344
I00
sg36
Nsbag309
(g331
g311
Ntp399
Rp400
(dp401
g335
S's3e'
p402
sg337
I01
sg338
(lp403
S'iwcrt.o'
p404
asg340
I00
sg341
I00
sg342
Nsg344
I00
sg36
Nsbag309
(g331
g311
Ntp405
Rp406
(dp407
g335
g50
sg337
I01
sg338
g339
sg340
I00
sg341
I00
sg342
S'x86'
p408
sg344
I01
sg36
Nsbag309
(g331
g311
Ntp409
Rp410
(dp411
g335
g50
sg337
I01
sg338
g339
sg340
I00
sg341
I00
sg342
S'!x86'
p412
sg344
I01
sg36
Nsbag309
(g331
g311
Ntp413
Rp414
(dp415
g335
S'stdc++'
p416
sg337
I00
sg338
g339
sg340
I00
sg341
I00
sg342
S'mips'
p417
sg344
I00
sg36
Nsbag309
(g331
g311
Ntp418
Rp419
(dp420
g335
S'c'
p421
sg337
I00
sg338
g339
sg340
I00
sg341
I00
sg342
S'mips'
p422
sg344
I00
sg36
Nsbag309
(g331
g311
Ntp423
Rp424
(dp425
g335
S'm'
p426
sg337
I00
sg338
g339
sg340
I00
sg341
I00
sg342
S'mips'
p427
sg344
I00
sg36
Nsbag309
(g331
g311
Ntp428
Rp429
(dp430
g335
S'gcc'
p431
sg337
I00
sg338
g339
sg340
I00
sg341
I00
sg342
S'mips'
p432
sg344
I00
sg36
Nsbag309
(g331
g311
Ntp433
Rp434
(dp435
g335
S'stdc++'
p436
sg337
I00
sg338
g339
sg340
I00
sg341
I00
sg342
S'gcc_x86_android'
p437
sg344
I00
sg36
Nsbag309
(g331
g311
Ntp438
Rp439
(dp440
g335
g421
sg337
I00
sg338
g339
sg340
I00
sg341
I00
sg342
S'gcc_x86_android'
p441
sg344
I00
sg36
Nsbag309
(g331
g311
Ntp442
Rp443
(dp444
g335
g426
sg337
I00
sg338
g339
sg340
I00
sg341
I00
sg342
S'gcc_x86_android'
p445
sg344
I00
sg36
Nsbag309
(g331
g311
Ntp446
Rp447
(dp448
g335
g431
sg337
I00
sg338
g339
sg340
I00
sg341
I00
sg342
S'gcc_x86_android'
p449
sg344
I00
sg36
NsbasS'library_paths'
p450
(lp451
g309
(cmkb_main
LibraryPath
p452
g311
Ntp453
Rp454
(dp455
S'expand_path'
p456
I01
sg335
S'c:/marmalade/7.4/modules/legacy/iw2d'
p457
sbag309
(g452
g311
Ntp458
Rp459
(dp460
g456
I01
sg335
S'c:/marmalade/7.4/modules/iwgeom'
p461
sbag309
(g452
g311
Ntp462
Rp463
(dp464
g456
I01
sg335
S'c:/marmalade/7.4/modules/iwutil'
p465
sbag309
(g452
g311
Ntp466
Rp467
(dp468
g456
I01
sg335
S'c:/marmalade/7.4/modules/third_party/libjpeg'
p469
sbag309
(g452
g311
Ntp470
Rp471
(dp472
g456
I01
sg335
S'c:/marmalade/7.4/modules/third_party/zlib'
p473
sbag309
(g452
g311
Ntp474
Rp475
(dp476
g456
I01
sg335
S'c:/marmalade/7.4/modules/third_party/libpng'
p477
sbag309
(g452
g311
Ntp478
Rp479
(dp480
g456
I01
sg335
S'c:/marmalade/7.4/modules/legacy/iwresmanager'
p481
sbag309
(g452
g311
Ntp482
Rp483
(dp484
g456
I00
sg335
S'c:/marmalade/7.4/modules/legacy/iwgx/atitools'
p485
sbag309
(g452
g311
Ntp486
Rp487
(dp488
g456
I01
sg335
S'c:/marmalade/7.4/modules/legacy/iwgx'
p489
sbag309
(g452
g311
Ntp490
Rp491
(dp492
g456
I01
sg335
S'c:/marmalade/7.4/modules/iwgl'
p493
sbag309
(g452
g311
Ntp494
Rp495
(dp496
g456
I01
sg335
S'c:/marmalade/7.4/modules/legacy/iwgxfont'
p497
sbag309
(g452
g311
Ntp498
Rp499
(dp500
g456
I01
sg335
S'c:/marmalade/7.4/modules/third_party/tiniconv'
p501
sbag309
(g452
g311
Ntp502
Rp503
(dp504
g456
I01
sg335
S'c:/marmalade/7.4/s3e'
p505
sbasS'macros'
p506
(dp507
S'IW_USE_CALLSTACK'
p508
NsS'IW_PLATFORM_S3E'
p509
NsS'I3D_PLATFORM_S3E'
p510
NsS'IW_MKF_IWGX_LEGACY'
p511
NsS'__S3E__'
p512
NsS'IW_MKF_LIBJPEG'
p513
NsS'I3D_OS_S3E'
p514
NsS'IW_MKF_TINICONV'
p515
NsS'IW_APP_VERSION'
p516
S'"1.0"'
p517
sS'IW_MKF_IWRESMANAGER'
p518
NsS'IW_MKF_IW2D_LEGACY'
p519
NsS'IW_MKF_IWUTIL'
p520
NsS'IW_MKF_IWGEOM'
p521
NsS'IW_ASSERTION_CHANNEL_2D'
p522
S'1'
p523
sS'IW_APP_NAME'
p524
S'"HeyBox2D"'
p525
sS'IW_MKF_MARMALADEEXAMPLERESOURCES'
p526
NsS'IW_MKF_IWGXFONT'
p527
NsS'IW_MKF_ZLIB'
p528
NsS'IW_MKF_S3E_DEFAULT'
p529
NsS'IW_MKF_IWGX'
p530
NsS'IW_MKF_EXAMPLESCORE'
p531
NsS'IW_USE_ASSERTIONS'
p532
NsS'_CRT_SECURE_NO_DEPRECATE'
p533
NsS'IW_MKF_IWGL'
p534
NsS'IW_MKF_IWRESMANAGER_LEGACY'
p535
NsS'IW_MKF_LIBPNG'
p536
NsS'IW_DEBUG'
p537
NsS'IW_USE_TRACING'
p538
NsS'IW_MKF_BOX2D'
p539
NsS'IW_USE_LEGACY_MODULES'
p540
NsS'IW_MKF_IWGXFONT_LEGACY'
p541
NsS'IW_SDK'
p542
NsS'IW_MKF_IW2D'
p543
NssS'done_warnings'
p544
(dp545
sS'subprojects'
p546
(dp547
g187
S'../MarmaladeExampleResources'
p548
sg179
S'zlib'
p549
sg170
S's3e-default.mkf'
p550
sg177
S'libjpeg'
p551
sg186
S'../examples/ExamplesCore/ExamplesCore'
p552
sg173
S'iwgx'
p553
sg172
S'iw2d/iw2d_legacy'
p554
sg185
S'tiniconv'
p555
sg174
S'iwgx/iwgx_legacy'
p556
sg175
S'iwgeom'
p557
sg176
S'iwutil'
p558
sg181
S'iwresmanager/iwresmanager_legacy'
p559
sg171
S'iw2d'
p560
sg183
S'iwgxfont'
p561
sg180
S'iwresmanager'
p562
sg188
S'../box2d'
p563
sg178
S'libpng'
p564
sg184
S'iwgxfont/iwgxfont_legacy'
p565
sg182
S'iwgl'
p566
ssS'deployments'
p567
(dp568
S'Default'
p569
g309
(cdeployment
Deployment
p570
g311
Ntp571
Rp572
(dp573
S'got_version'
p574
I0
sS'assets'
p575
g569
sS'mkb'
p576
g313
sS'target'
p577
Nsg342
(lp578
sS'options'
p579
(dp580
S'iphone-link-lib'
p581
(lp582
sS'game-icf'
p583
NsS'android-tm'
p584
NsS'winmobile-icon32'
p585
NsS'ws8-logo-image150x150'
p586
NsS'wp81-logo-image150x150'
p587
NsS'ws81-product-version'
p588
NsS'osx-ext-dll'
p589
(lp590
sS'iphone-provisioning-profile'
p591
NsS'win32-icon'
p592
NsS'ws8-splash-screen-image620x300'
p593
NsS'wp81-extra-pri'
p594
(lp595
sS'ws8-ext-capabilities'
p596
(lp597
sS'android-icon-hdpi'
p598
NsS'iphone-ipad-only'
p599
NsS'iphone-splash-full-orient'
p600
NsS'wp8-tile-fliptemplate-supports-large'
p601
NsS'iphone-show-status-bar'
p602
NsS'roku-requires-mkv'
p603
NsS'long-caption'
p604
NsS'android-pkgname'
p605
NsS'wp81-publisher-display-name'
p606
NsS'blackberry-permissions-read-device-identifying-information'
p607
NsS'ws81-certificate-end-date'
p608
NsS'psp-dlgcontentid'
p609
NsS'iphone-minimum-ios-version'
p610
NsS'target-folder'
p611
NsS'tizen-dist1-CA-path'
p612
NsS'symbian-icon2-format'
p613
NsS'tizen-author-key'
p614
NsS'firefoxos-icon-128X128'
p615
NsS'iphone-region'
p616
NsS'uiq3-icon3-mask'
p617
NsS'brew-encoding'
p618
NsS'android-x86'
p619
NsS'nds-initialcode'
p620
NsS'iphone-persistent-wifi'
p621
NsS'psp-snd0'
p622
NsS'roku-icon-focus-hd'
p623
NsS'osx-appid'
p624
NsS'winmobile-install-folder'
p625
NsS'android-external-res'
p626
(lp627
sS'ws8-product-version'
p628
NsS'brew-priviledges'
p629
NsS'iphone-icon-ipad-search'
p630
NsS'iphone-icon-ipad'
p631
NsS'iphone-skip-icon-generation'
p632
NsS'roku-hidden'
p633
NsS'psp-titlename'
p634
NsS'wp81-product-version'
p635
NsS'symbian-icon1-mask'
p636
NsS'psp-parentallevel'
p637
NsS'iphone-launch-storyboard'
p638
NsS'splashscreen-use-all'
p639
NsS'wp8-author'
p640
NsS'symbian-disable-ecompxl'
p641
NsS'splashscreen-auto-onblack'
p642
NsS'iphone-icon-dir'
p643
NsS'iphone-icon-extra'
p644
NsS'win32-ext-dll'
p645
(lp646
sS'iphone-development-key'
p647
NsS'winmobile-icon48'
p648
NsS'android-unsigned'
p649
NsS'osx-appstore-category'
p650
NsS'version-revision'
p651
NsS'roku-icon-focus-sd'
p652
NsS'android-keystore'
p653
NsS'winmobile-png90'
p654
NsS'iphone-icon-ipad-high-res'
p655
NsS'iphone-disable-ipad'
p656
NsS'ws81-splash-screen-background'
p657
NsS'wp8-ext-capabilities'
p658
(lp659
sS'brew-icon-large'
p660
NsS'symbian-icon1-mask-black'
p661
NsS'iphone-nosign'
p662
NsS'iphone-bundle-localisations'
p663
NsS'winmobile-png60'
p664
NsS'blackberry-permissions-access-shared'
p665
NsS'blackberry-author'
p666
NsS'android-icon-xxxhdpi'
p667
NsS'olddeploytoolstyle'
p668
NsS'android_icon_gallery'
p669
NsS'wp81-splash-screen-background'
p670
NsS'winmobile-cab-compress'
p671
NsS'iphone-info-plist'
p672
NsS'ws81-ext-managed-dll'
p673
(lp674
sS'ws8-distribution-pfx-password'
p675
NsS'symbian-key'
p676
NsS'app-icf'
p677
NsS'blackberry-storepass'
p678
NsS'wp8-tile-fliptemplate-back-title'
p679
NsS'brew-compress-loader'
p680
NsS'win32-pref-windowposy'
p681
NsS'win32-pref-windowposx'
p682
NsS'roku-requires-audiometadata'
p683
NsS'wp8-exclude-low-mem'
p684
NsS'wp8-tile-fliptemplate-title'
p685
NsS'iphone-icon-ipad-search-high-res'
p686
NsS'iphone-link-libdir'
p687
(lp688
sS'wp81-ext-capabilities'
p689
(lp690
sS'blackberry-permissions-read-geolocation'
p691
NsS'ws81-ext-device-capabilities'
p692
(lp693
sS'tizen-signed'
p694
NsS'android-extra-application-manifest'
p695
(lp696
sS'ws8-ext-native-dll'
p697
(lp698
sS'symbian-icon2-mask'
p699
NsS'iphone-launch-extra'
p700
NsS'webos-memory'
p701
NsS'android-keypass'
p702
NsS'name'
p703
NsS'uiq3-icon2-format'
p704
NsS'roku-splash-screen-sd'
p705
NsS'auto-derbh'
p706
NsS'roku-icon-side-sd'
p707
NsS'android-external-assets'
p708
(lp709
sS'nds-publicsavedatasize'
p710
NsS'splashscreen'
p711
S'c:/marmalade/7.4/examples/marmaladeexampleresources/resources/splashscreens'
p712
sS'brew-mif'
p713
NsS'iphone-icon-settings-high-res'
p714
NsS'android-manifest'
p715
NsS'ws81-splash-screen-image620x300'
p716
NsS'wp81-product-name'
p717
NsS's3e-compression'
p718
NsS'tizen-author-password'
p719
NsS'wp8-tile-fliptemplate-back-content'
p720
NsS'blackberry-extra-descriptor'
p721
(lp722
sS'symbian-icon1'
p723
NsS'symbian-icon2'
p724
NsS'android-extra-styles-file'
p725
NsS'wp81-publisher-id'
p726
NsS'nds-bannertitle-jp'
p727
NsS'wp81-logo-image44x44'
p728
NsS'osx-sign-for-store'
p729
NsS'symbian7-uid'
p730
NsS'wp8-tile-fliptemplate-large-back-content'
p731
NsS'wp81-phone-publisher-id'
p732
NsS'nds-bannertitle-cn'
p733
NsS'iphone-distribution-key'
p734
NsS'android-icon-gallery'
p735
NsS'blackberry-keystore'
p736
NsS'ws8-extra-res'
p737
(lp738
sS'caption'
p739
NsS'android-extra-manifest'
p740
(lp741
sS'wp81-ext-sdk-ref'
p742
(lp743
sS'android-icon-xxhdpi'
p744
NsS'version-minor'
p745
NsS'iphone-skip-launch-generation'
p746
NsS'iphone-link-libdirs'
p747
(lp748
sS'iphone-icon-large'
p749
NsS'symbian-keypwd'
p750
NsS'symbian8-uid'
p751
NsS'symbian-cert-key'
p752
NsS'winmobile-ampd-part-number'
p753
NsS'arch'
p754
NsS'nds-romheadertemplate'
p755
NsS'webos-icon'
p756
NsS'wp81-ext-device-capabilities'
p757
(lp758
sS'psp-dlgprotectdocument'
p759
NsS'ws8-splash-screen-background'
p760
NsS'android-icon-mdpi'
p761
NsS'nds-icon'
p762
NsS'ws8-custom-manifest-fill'
p763
NsS'iphone-development-cert'
p764
NsS'blackberry-phone-icon'
p765
NsS'iphone-enable-4inch-retina'
p766
NsS'ws8-custom-manifest'
p767
NsS'version-major'
p768
NsS'wp8-genre-isgame'
p769
NsS'uiq3-uid'
p770
NsS'iphone-splash-retina-generate'
p771
NsS'tizen-hw-acceleration'
p772
NsS'iphone_bundle_localisations'
p773
NsS'tizen-dist1-key'
p774
NsS'wp81-custom-manifest-fill'
p775
NsS'wp8-custom-manifest'
p776
NsS'nds-bannertitle-ge'
p777
NsS'iphone-sign-for-distribution'
p778
NsS'wp8-tile-fliptemplate-medium-back-image'
p779
NsS'wp8-publisher-id'
p780
NsS'icon'
p781
S'c:/marmalade/7.4/examples/marmaladeexampleresources/resources/icons'
p782
sS'wp8-exclude-wxga'
p783
NsS'wp81-identity-name'
p784
NsS'uiq3-icon2-mask'
p785
NsS'iphone-splashscreen-portrait'
p786
NsS'iphone-icon-high-res'
p787
NsS'ws81-distribution-pfx-password'
p788
NsS'playbook-author'
p789
NsS'android-icon-xhdpi'
p790
NsS'linux-ext-lib'
p791
(lp792
sS'blackberry-permissions-access-internet'
p793
NsS'wp8-exclude-720p'
p794
NsS'lgtv-use-drm'
p795
NsS'symbian-platsecflags'
p796
NsS'ws8-description'
p797
NsS'blackberry-playbook-icon'
p798
NsS'copyright'
p799
NsS'win32-gles-directory'
p800
NsS'version'
p801
NsS'iphone-uiviewcontroller-based-status-bar'
p802
NsS'ws81-logo-image150x150'
p803
NsS'osx-signing-identity-app'
p804
NsS'tizen-project-url'
p805
NsS'symbian-icon-svg'
p806
NsS'android-aliasname'
p807
NsS'psp-dlgmanual'
p808
NsS'brew-uid'
p809
NsS'symbian-locationsupport'
p810
NsS'wp81-logo-image50x50'
p811
NsS'ws8-ext-managed-dll'
p812
(lp813
sS'nds-bannertitle-it'
p814
NsS'ws81-custom-manifest-fill'
p815
NsS'ws8-ext-sdk-manifest-part'
p816
(lp817
sS'uiq3-icon1-mask'
p818
NsS'winmobile-icon16'
p819
NsS'ws8-product-name'
p820
NsS'blackberry-cskpass'
p821
NsS'winmobile-start-menu-folder'
p822
NsS'brew-clsid'
p823
NsS'roku-requires-bluetooth'
p824
NsS'ws8-ext-device-capabilities'
p825
(lp826
sS'blackberry-permissions-use-camera'
p827
NsS'ws81-extra-pri'
p828
(lp829
sS'iphone-prerendered-icon'
p830
NsS'iphone-appid'
p831
NsS'ws8-identity-name'
p832
NsS'tizen-dist2-CA-path'
p833
NsS'android-external-jars'
p834
(lp835
sS'winmobile-icon64'
p836
NsS'blackberry-permissions-post-notification'
p837
NsS'winmobile-setup-dll'
p838
NsS'firefoxos-manifest'
p839
NsS'win8-winrt-extra-res'
p840
(lp841
sS'wp81-ext-sdk-manifest-part'
p842
(lp843
sS'symbian9-uid'
p844
NsS'iphone-icon-ipad-ios7'
p845
NsS'winmobile-trace-file'
p846
NsS'roku-splash-color'
p847
NsS'psp-appversion'
p848
NsS'ws8-publisher-id'
p849
NsS'android-supports-gl-texture'
p850
(lp851
sS'winmobile-png45'
p852
NsS'wp81-extra-res'
p853
(lp854
sS'android-storepass'
p855
NsS'osx-signing-identity-inst'
p856
NsS'android-custom-activity'
p857
NsS'psp-discversion'
p858
NsS'wp81-ext-managed-dll'
p859
(lp860
sS'psp-copyright'
p861
NsS'embed-icf'
p862
NsS'tizen-manifest'
p863
NsS'osx-icon'
p864
NsS'webos-appinfo'
p865
NsS'psp-dlghealthwarning'
p866
NsS'webos-appid'
p867
NsS'roku-icon-side-hd'
p868
NsS'iphone-icon-ipad-search-high-res-ios7'
p869
NsS'ws81-ext-sdk-manifest-part'
p870
(lp871
sS'loader_name_prefix'
p872
NsS'iphone-launch-dir'
p873
NsS'nds-titlename'
p874
NsS'ws81-logo-image50x50'
p875
NsS'wp81-custom-manifest'
p876
NsS'osx-entitlements-plist'
p877
NsS'psp-dlgicon0'
p878
NsS'winmobile-nouninstall'
p879
NsS'psp-discid'
p880
NsS'tizen-dist2-password'
p881
NsS'ws8-ext-sdk-ref'
p882
(lp883
sS'iphone-extra-string'
p884
(lp885
sS'version-string'
p886
NsS'iphone-icon-high-res-ios7'
p887
NsS'blackberry-permissions-record-audio'
p888
NsS'ws8-certificate-end-date'
p889
NsS'tizen-so'
p890
(lp891
sS'wp8-tile-fliptemplate-small-image'
p892
NsS'playbook-authorid'
p893
NsS'iphone-signing-identity'
p894
NsS'roku-persist-quota'
p895
NsS'nds-bannertitle-fr'
p896
NsS'ws8-distribution-pfx'
p897
NsS'ws8-publisher-display-name'
p898
NsS'brew-icon-small'
p899
NsS'psp-dlgpic2'
p900
NsS'psp-dlgpic0'
p901
NsS'psp-pic0'
p902
NsS'psp-pic1'
p903
NsS'win32-pref-windowtitle'
p904
NsS'psp-icon0'
p905
NsS'psp-icon1'
p906
NsS'ws81-identity-name'
p907
NsS'winmobile-icon'
p908
NsS'iphone-no-splash'
p909
NsS'iphone-splash'
p910
NsS'iphone-app-fonts'
p911
NsS'wp8-ext-native-dll'
p912
(lp913
sS'wp81-splash-screen-image480x800'
p914
NsS'ws81-distribution-cer'
p915
NsS'iphone-backgroundmode-audio'
p916
NsS'uiq3-icon2'
p917
NsS'uiq3-icon3'
p918
NsS'uiq3-icon1'
p919
NsS'uiq3-icon1-format'
p920
NsS'ws8-logo-image50x50'
p921
NsS'symbian-icon2-mask-black'
p922
NsS'symbian-run-on-install'
p923
NsS'wp81-description'
p924
NsS'ws81-publisher-display-name'
p925
NsS'firefoxos-xulrunner'
p926
NsS'symbian-soundrecordsupport'
p927
NsS'nds-bannertitle-sp'
p928
NsS'psp-producer'
p929
NsS'iphone-apple-wwdr-cert'
p930
NsS'android-icon-nonstandard'
p931
NsS'win32-pref-processtitle'
p932
NsS'nds-bannertitle-hn'
p933
NsS'tizen-dist2-key'
p934
NsS'brew-depends'
p935
NsS'ws81-custom-manifest'
p936
NsS'iphone-icon-ipad-search-ios7'
p937
NsS'brew-icon-medium'
p938
NsS'iphone-bundle-url-name'
p939
NsS'wp8-tile-fliptemplate-large-front-image'
p940
NsS'tizen-dist2-CA-root-path'
p941
NsS'ws81-description'
p942
NsS'uiq3-icon3-format'
p943
NsS'ws81-logo-image30x30'
p944
NsS'win8-phone-extra-res'
p945
(lp946
sS'iphone-signing-host'
p947
NsS'tizen-icon'
p948
NsS'osx-info-plist'
p949
NsS'symbian-icon1-format'
p950
NsS'win8-store-extra-res'
p951
(lp952
sS'blackberry-authorid'
p953
NsS'ws81-publisher-id'
p954
NsS'ws81-distribution-pfx'
p955
NsS'wp8-description'
p956
NsS'iphone-link-opts'
p957
(lp958
sS'ws81-ext-sdk-ref'
p959
(lp960
sS'roku-splash-min-time'
p961
NsS'wp8-tile-fliptemplate-medium-front-image'
p962
NsS'provider'
p963
NsS'playbook-keystore'
p964
NsS'tizen-appid'
p965
NsS'wp8-extra-res'
p966
(lp967
sS'symbian-osexecsupport'
p968
NsS'android-install-location'
p969
NsS'nds-privatesavedatasize'
p970
NsS'playbook-storepass'
p971
NsS'android-icon-ldpi'
p972
NsS'manufacturer'
p973
NsS'itunes-artwork'
p974
NsS'iphone-extra-sections'
p975
NsS'ws81-product-name'
p976
NsS'ws81-ext-native-dll'
p977
(lp978
sS'ws8-extra-pri'
p979
(lp980
sS'wp8-product-id'
p981
NsS'ws8-logo-image30x30'
p982
NsS'wp8-ext-managed-dll'
p983
(lp984
sS'iphone-splashscreen-landscape'
p985
NsS'symbian-maxheapsize'
p986
NsS'nds-makercode'
p987
NsS'priv-sign-key'
p988
NsS'networking'
p989
NsS'android-icon'
p990
NsS'iphone-icon-settings'
p991
NsS'wp81-phone-product-id'
p992
NsS'firefoxos-icon-60X60'
p993
NsS'iphone-distribution-cert'
p994
NsS'android_extra_strings'
p995
NsS'nds-bannertitle-en'
p996
NsS'playbook-cskpass'
p997
NsS'android-so'
p998
(lp999
sS'wp8-higher-mem'
p1000
NsS'wp8-ext-sdk-ref'
p1001
(lp1002
sS'wp8-fast-resume-mode'
p1003
NsS'roku-splash-screen-hd'
p1004
NsS'iphone-bundle-url-schemes'
p1005
NsS'roku-screensaver-private'
p1006
NsS'osx-extra-res'
p1007
(lp1008
sS'ws81-extra-res'
p1009
(lp1010
sS'playbook-icon'
p1011
NsS'uid'
p1012
NsS'pkguid-as-uid'
p1013
NsS'wp81-ext-native-dll'
p1014
(lp1015
sS'tizen-dist1-password'
p1016
NsS'roku-screensaver-title'
p1017
NsS'osx-minimum-osx-version'
p1018
NsS'symbian-cert'
p1019
NsS'iphone-icon'
p1020
NsS'ws81-ext-capabilities'
p1021
(lp1022
sS'ws8-distribution-cer'
p1023
NsS'playbook-access-shared'
p1024
NsS'iphone-icon-ipad-high-res-ios7'
p1025
NsS'iphone-link-libs'
p1026
(lp1027
sS'wp8-exclude-wvga'
p1028
NsS'assets'
p1029
NsS'wp8-tile-fliptemplate-large-back-image'
p1030
NsS'wp8-custom-manifest-fill'
p1031
NsS'pub-sign-key'
p1032
NsS'android-extra-strings'
p1033
NsS'tizen-author-CA-path'
p1034
Nssg335
g569
sbssS'platform'
p1035
S'S3E'
p1036
sg65
S'1.0'
p1037
sS'arcade_platform'
p1038
g4
sS'extensions'
p1039
(dp1040
sS'source_groups_tree'
p1041
(dp1042
S'(ExamplesCore)'
p1043
(dp1044
S'c:/marmalade/7.4/examples/examplescore/Docs/examplescore.defines.txt'
p1045
(lp1046
I1
a(dp1047
asS'c:/marmalade/7.4/examples/examplescore/ExamplesMain.cpp'
p1048
(lp1049
I1
ag1047
asS'c:/marmalade/7.4/examples/examplescore/examplescore.mkf'
p1050
(lp1051
I1
a(dp1052
asS'c:/marmalade/7.4/examples/examplescore/ExamplesMain.h'
p1053
(lp1054
I1
ag1047
assS'(libjpeg)'
p1055
(dp1056
S'h'
p1057
(dp1058
S'c:/marmalade/7.4/modules/third_party/libjpeg/h/jerror.h'
p1059
(lp1060
I1
a(dp1061
asS'c:/marmalade/7.4/modules/third_party/libjpeg/h/jmemsys.h'
p1062
(lp1063
I1
ag1061
asS'c:/marmalade/7.4/modules/third_party/libjpeg/h/jchuff.h'
p1064
(lp1065
I1
ag1061
asS'c:/marmalade/7.4/modules/third_party/libjpeg/h/jpeglib.h'
p1066
(lp1067
I1
ag1061
asS'c:/marmalade/7.4/modules/third_party/libjpeg/h/cdjpeg.h'
p1068
(lp1069
I1
ag1061
asS'c:/marmalade/7.4/modules/third_party/libjpeg/h/jinclude.h'
p1070
(lp1071
I1
ag1061
asS'c:/marmalade/7.4/modules/third_party/libjpeg/h/jconfig.h'
p1072
(lp1073
I1
ag1061
asS'c:/marmalade/7.4/modules/third_party/libjpeg/h/cderror.h'
p1074
(lp1075
I1
ag1061
asS'c:/marmalade/7.4/modules/third_party/libjpeg/h/jdct.h'
p1076
(lp1077
I1
ag1061
asS'c:/marmalade/7.4/modules/third_party/libjpeg/h/jversion.h'
p1078
(lp1079
I1
ag1061
asS'c:/marmalade/7.4/modules/third_party/libjpeg/h/transupp.h'
p1080
(lp1081
I1
ag1061
asS'c:/marmalade/7.4/modules/third_party/libjpeg/h/jdhuff.h'
p1082
(lp1083
I1
ag1061
asS'c:/marmalade/7.4/modules/third_party/libjpeg/h/jpegint.h'
p1084
(lp1085
I1
ag1061
asS'c:/marmalade/7.4/modules/third_party/libjpeg/h/jmorecfg.h'
p1086
(lp1087
I1
ag1061
assS'c:/marmalade/7.4/modules/third_party/libjpeg/libjpeg.mkf'
p1088
(lp1089
I1
a(dp1090
assS'(tiniconv)'
p1091
(dp1092
S'c:/marmalade/7.4/modules/third_party/tiniconv/source/tiniconv_int.h'
p1093
(lp1094
I1
a(dp1095
asS'c:/marmalade/7.4/modules/third_party/tiniconv/tiniconv.mkf'
p1096
(lp1097
I1
a(dp1098
asS'c:/marmalade/7.4/modules/third_party/tiniconv/source/tiniconv.h'
p1099
(lp1100
I1
ag1095
assS'(box2d)'
p1101
(dp1102
S'c:/users/ben/desktop/fyp/finalyearproject/box2d/Box2D/Box2D.h'
p1103
(lp1104
I1
a(dp1105
asS'Rope'
p1106
(dp1107
S'c:/users/ben/desktop/fyp/finalyearproject/box2d/Box2D/Rope/b2Rope.h'
p1108
(lp1109
I1
ag1105
asS'c:/users/ben/desktop/fyp/finalyearproject/box2d/Box2D/Rope/b2Rope.cpp'
p1110
(lp1111
I1
ag1105
assS'Collision'
p1112
(dp1113
S'c:/users/ben/desktop/fyp/finalyearproject/box2d/Box2D/Collision/b2TimeOfImpact.h'
p1114
(lp1115
I1
ag1105
asS'c:/users/ben/desktop/fyp/finalyearproject/box2d/Box2D/Collision/b2Collision.cpp'
p1116
(lp1117
I1
ag1105
asS'c:/users/ben/desktop/fyp/finalyearproject/box2d/Box2D/Collision/b2CollidePolygon.cpp'
p1118
(lp1119
I1
ag1105
asS'c:/users/ben/desktop/fyp/finalyearproject/box2d/Box2D/Collision/b2Distance.cpp'
p1120
(lp1121
I1
ag1105
asS'c:/users/ben/desktop/fyp/finalyearproject/box2d/Box2D/Collision/b2DynamicTree.h'
p1122
(lp1123
I1
ag1105
asS'Shapes'
p1124
(dp1125
S'c:/users/ben/desktop/fyp/finalyearproject/box2d/Box2D/Collision/Shapes/b2PolygonShape.cpp'
p1126
(lp1127
I1
ag1105
asS'c:/users/ben/desktop/fyp/finalyearproject/box2d/Box2D/Collision/Shapes/b2Shape.h'
p1128
(lp1129
I1
ag1105
asS'c:/users/ben/desktop/fyp/finalyearproject/box2d/Box2D/Collision/Shapes/b2EdgeShape.h'
p1130
(lp1131
I1
ag1105
asS'c:/users/ben/desktop/fyp/finalyearproject/box2d/Box2D/Collision/Shapes/b2CircleShape.h'
p1132
(lp1133
I1
ag1105
asS'c:/users/ben/desktop/fyp/finalyearproject/box2d/Box2D/Collision/Shapes/b2CircleShape.cpp'
p1134
(lp1135
I1
ag1105
asS'c:/users/ben/desktop/fyp/finalyearproject/box2d/Box2D/Collision/Shapes/b2EdgeShape.cpp'
p1136
(lp1137
I1
ag1105
asS'c:/users/ben/desktop/fyp/finalyearproject/box2d/Box2D/Collision/Shapes/b2ChainShape.h'
p1138
(lp1139
I1
ag1105
asS'c:/users/ben/desktop/fyp/finalyearproject/box2d/Box2D/Collision/Shapes/b2PolygonShape.h'
p1140
(lp1141
I1
ag1105
asS'c:/users/ben/desktop/fyp/finalyearproject/box2d/Box2D/Collision/Shapes/b2ChainShape.cpp'
p1142
(lp1143
I1
ag1105
assS'c:/users/ben/desktop/fyp/finalyearproject/box2d/Box2D/Collision/b2TimeOfImpact.cpp'
p1144
(lp1145
I1
ag1105
asS'c:/users/ben/desktop/fyp/finalyearproject/box2d/Box2D/Collision/b2BroadPhase.h'
p1146
(lp1147
I1
ag1105
asS'c:/users/ben/desktop/fyp/finalyearproject/box2d/Box2D/Collision/b2Distance.h'
p1148
(lp1149
I1
ag1105
asS'c:/users/ben/desktop/fyp/finalyearproject/box2d/Box2D/Collision/b2BroadPhase.cpp'
p1150
(lp1151
I1
ag1105
asS'c:/users/ben/desktop/fyp/finalyearproject/box2d/Box2D/Collision/b2DynamicTree.cpp'
p1152
(lp1153
I1
ag1105
asS'c:/users/ben/desktop/fyp/finalyearproject/box2d/Box2D/Collision/b2CollideEdge.cpp'
p1154
(lp1155
I1
ag1105
asS'c:/users/ben/desktop/fyp/finalyearproject/box2d/Box2D/Collision/b2CollideCircle.cpp'
p1156
(lp1157
I1
ag1105
asS'c:/users/ben/desktop/fyp/finalyearproject/box2d/Box2D/Collision/b2Collision.h'
p1158
(lp1159
I1
ag1105
assS'Common'
p1160
(dp1161
S'c:/users/ben/desktop/fyp/finalyearproject/box2d/Box2D/Common/b2Draw.cpp'
p1162
(lp1163
I1
ag1105
asS'c:/users/ben/desktop/fyp/finalyearproject/box2d/Box2D/Common/b2Math.h'
p1164
(lp1165
I1
ag1105
asS'c:/users/ben/desktop/fyp/finalyearproject/box2d/Box2D/Common/b2Settings.cpp'
p1166
(lp1167
I1
ag1105
asS'c:/users/ben/desktop/fyp/finalyearproject/box2d/Box2D/Common/b2Timer.cpp'
p1168
(lp1169
I1
ag1105
asS'c:/users/ben/desktop/fyp/finalyearproject/box2d/Box2D/Common/b2StackAllocator.h'
p1170
(lp1171
I1
ag1105
asS'c:/users/ben/desktop/fyp/finalyearproject/box2d/Box2D/Common/b2Settings.h'
p1172
(lp1173
I1
ag1105
asS'c:/users/ben/desktop/fyp/finalyearproject/box2d/Box2D/Common/b2BlockAllocator.h'
p1174
(lp1175
I1
ag1105
asS'c:/users/ben/desktop/fyp/finalyearproject/box2d/Box2D/Common/b2Timer.h'
p1176
(lp1177
I1
ag1105
asS'c:/users/ben/desktop/fyp/finalyearproject/box2d/Box2D/Common/b2StackAllocator.cpp'
p1178
(lp1179
I1
ag1105
asS'c:/users/ben/desktop/fyp/finalyearproject/box2d/Box2D/Common/b2BlockAllocator.cpp'
p1180
(lp1181
I1
ag1105
asS'c:/users/ben/desktop/fyp/finalyearproject/box2d/Box2D/Common/b2Draw.h'
p1182
(lp1183
I1
ag1105
asS'c:/users/ben/desktop/fyp/finalyearproject/box2d/Box2D/Common/b2GrowableStack.h'
p1184
(lp1185
I1
ag1105
asS'c:/users/ben/desktop/fyp/finalyearproject/box2d/Box2D/Common/b2Math.cpp'
p1186
(lp1187
I1
ag1105
assS'c:/users/ben/desktop/fyp/finalyearproject/box2d/box2d.mkf'
p1188
(lp1189
I1
a(dp1190
asS'Dynamics'
p1191
(dp1192
S'c:/users/ben/desktop/fyp/finalyearproject/box2d/Box2D/Dynamics/b2WorldCallbacks.cpp'
p1193
(lp1194
I1
ag1105
asS'c:/users/ben/desktop/fyp/finalyearproject/box2d/Box2D/Dynamics/b2World.cpp'
p1195
(lp1196
I1
ag1105
asS'c:/users/ben/desktop/fyp/finalyearproject/box2d/Box2D/Dynamics/b2Island.cpp'
p1197
(lp1198
I1
ag1105
asS'Contacts'
p1199
(dp1200
S'c:/users/ben/desktop/fyp/finalyearproject/box2d/Box2D/Dynamics/Contacts/b2PolygonContact.h'
p1201
(lp1202
I1
ag1105
asS'c:/users/ben/desktop/fyp/finalyearproject/box2d/Box2D/Dynamics/Contacts/b2ContactSolver.cpp'
p1203
(lp1204
I1
ag1105
asS'c:/users/ben/desktop/fyp/finalyearproject/box2d/Box2D/Dynamics/Contacts/b2ChainAndPolygonContact.h'
p1205
(lp1206
I1
ag1105
asS'c:/users/ben/desktop/fyp/finalyearproject/box2d/Box2D/Dynamics/Contacts/b2PolygonAndCircleContact.h'
p1207
(lp1208
I1
ag1105
asS'c:/users/ben/desktop/fyp/finalyearproject/box2d/Box2D/Dynamics/Contacts/b2CircleContact.h'
p1209
(lp1210
I1
ag1105
asS'c:/users/ben/desktop/fyp/finalyearproject/box2d/Box2D/Dynamics/Contacts/b2EdgeAndCircleContact.h'
p1211
(lp1212
I1
ag1105
asS'c:/users/ben/desktop/fyp/finalyearproject/box2d/Box2D/Dynamics/Contacts/b2CircleContact.cpp'
p1213
(lp1214
I1
ag1105
asS'c:/users/ben/desktop/fyp/finalyearproject/box2d/Box2D/Dynamics/Contacts/b2ChainAndCircleContact.cpp'
p1215
(lp1216
I1
ag1105
asS'c:/users/ben/desktop/fyp/finalyearproject/box2d/Box2D/Dynamics/Contacts/b2ChainAndCircleContact.h'
p1217
(lp1218
I1
ag1105
asS'c:/users/ben/desktop/fyp/finalyearproject/box2d/Box2D/Dynamics/Contacts/b2PolygonContact.cpp'
p1219
(lp1220
I1
ag1105
asS'c:/users/ben/desktop/fyp/finalyearproject/box2d/Box2D/Dynamics/Contacts/b2ContactSolver.h'
p1221
(lp1222
I1
ag1105
asS'c:/users/ben/desktop/fyp/finalyearproject/box2d/Box2D/Dynamics/Contacts/b2PolygonAndCircleContact.cpp'
p1223
(lp1224
I1
ag1105
asS'c:/users/ben/desktop/fyp/finalyearproject/box2d/Box2D/Dynamics/Contacts/b2ChainAndPolygonContact.cpp'
p1225
(lp1226
I1
ag1105
asS'c:/users/ben/desktop/fyp/finalyearproject/box2d/Box2D/Dynamics/Contacts/b2EdgeAndPolygonContact.cpp'
p1227
(lp1228
I1
ag1105
asS'c:/users/ben/desktop/fyp/finalyearproject/box2d/Box2D/Dynamics/Contacts/b2EdgeAndPolygonContact.h'
p1229
(lp1230
I1
ag1105
asS'c:/users/ben/desktop/fyp/finalyearproject/box2d/Box2D/Dynamics/Contacts/b2Contact.cpp'
p1231
(lp1232
I1
ag1105
asS'c:/users/ben/desktop/fyp/finalyearproject/box2d/Box2D/Dynamics/Contacts/b2EdgeAndCircleContact.cpp'
p1233
(lp1234
I1
ag1105
asS'c:/users/ben/desktop/fyp/finalyearproject/box2d/Box2D/Dynamics/Contacts/b2Contact.h'
p1235
(lp1236
I1
ag1105
assS'Joints'
p1237
(dp1238
S'c:/users/ben/desktop/fyp/finalyearproject/box2d/Box2D/Dynamics/Joints/b2Joint.cpp'
p1239
(lp1240
I1
ag1105
asS'c:/users/ben/desktop/fyp/finalyearproject/box2d/Box2D/Dynamics/Joints/b2FrictionJoint.h'
p1241
(lp1242
I1
ag1105
asS'c:/users/ben/desktop/fyp/finalyearproject/box2d/Box2D/Dynamics/Joints/b2FrictionJoint.cpp'
p1243
(lp1244
I1
ag1105
asS'c:/users/ben/desktop/fyp/finalyearproject/box2d/Box2D/Dynamics/Joints/b2WheelJoint.cpp'
p1245
(lp1246
I1
ag1105
asS'c:/users/ben/desktop/fyp/finalyearproject/box2d/Box2D/Dynamics/Joints/b2MotorJoint.cpp'
p1247
(lp1248
I1
ag1105
asS'c:/users/ben/desktop/fyp/finalyearproject/box2d/Box2D/Dynamics/Joints/b2MotorJoint.h'
p1249
(lp1250
I1
ag1105
asS'c:/users/ben/desktop/fyp/finalyearproject/box2d/Box2D/Dynamics/Joints/b2RopeJoint.h'
p1251
(lp1252
I1
ag1105
asS'c:/users/ben/desktop/fyp/finalyearproject/box2d/Box2D/Dynamics/Joints/b2Joint.h'
p1253
(lp1254
I1
ag1105
asS'c:/users/ben/desktop/fyp/finalyearproject/box2d/Box2D/Dynamics/Joints/b2MouseJoint.h'
p1255
(lp1256
I1
ag1105
asS'c:/users/ben/desktop/fyp/finalyearproject/box2d/Box2D/Dynamics/Joints/b2GearJoint.h'
p1257
(lp1258
I1
ag1105
asS'c:/users/ben/desktop/fyp/finalyearproject/box2d/Box2D/Dynamics/Joints/b2RevoluteJoint.cpp'
p1259
(lp1260
I1
ag1105
asS'c:/users/ben/desktop/fyp/finalyearproject/box2d/Box2D/Dynamics/Joints/b2PulleyJoint.h'
p1261
(lp1262
I1
ag1105
asS'c:/users/ben/desktop/fyp/finalyearproject/box2d/Box2D/Dynamics/Joints/b2RevoluteJoint.h'
p1263
(lp1264
I1
ag1105
asS'c:/users/ben/desktop/fyp/finalyearproject/box2d/Box2D/Dynamics/Joints/b2DistanceJoint.h'
p1265
(lp1266
I1
ag1105
asS'c:/users/ben/desktop/fyp/finalyearproject/box2d/Box2D/Dynamics/Joints/b2PrismaticJoint.cpp'
p1267
(lp1268
I1
ag1105
asS'c:/users/ben/desktop/fyp/finalyearproject/box2d/Box2D/Dynamics/Joints/b2MouseJoint.cpp'
p1269
(lp1270
I1
ag1105
asS'c:/users/ben/desktop/fyp/finalyearproject/box2d/Box2D/Dynamics/Joints/b2PulleyJoint.cpp'
p1271
(lp1272
I1
ag1105
asS'c:/users/ben/desktop/fyp/finalyearproject/box2d/Box2D/Dynamics/Joints/b2GearJoint.cpp'
p1273
(lp1274
I1
ag1105
asS'c:/users/ben/desktop/fyp/finalyearproject/box2d/Box2D/Dynamics/Joints/b2WeldJoint.h'
p1275
(lp1276
I1
ag1105
asS'c:/users/ben/desktop/fyp/finalyearproject/box2d/Box2D/Dynamics/Joints/b2WeldJoint.cpp'
p1277
(lp1278
I1
ag1105
asS'c:/users/ben/desktop/fyp/finalyearproject/box2d/Box2D/Dynamics/Joints/b2RopeJoint.cpp'
p1279
(lp1280
I1
ag1105
asS'c:/users/ben/desktop/fyp/finalyearproject/box2d/Box2D/Dynamics/Joints/b2WheelJoint.h'
p1281
(lp1282
I1
ag1105
asS'c:/users/ben/desktop/fyp/finalyearproject/box2d/Box2D/Dynamics/Joints/b2DistanceJoint.cpp'
p1283
(lp1284
I1
ag1105
asS'c:/users/ben/desktop/fyp/finalyearproject/box2d/Box2D/Dynamics/Joints/b2PrismaticJoint.h'
p1285
(lp1286
I1
ag1105
assS'c:/users/ben/desktop/fyp/finalyearproject/box2d/Box2D/Dynamics/b2Body.cpp'
p1287
(lp1288
I1
ag1105
asS'c:/users/ben/desktop/fyp/finalyearproject/box2d/Box2D/Dynamics/b2Body.h'
p1289
(lp1290
I1
ag1105
asS'c:/users/ben/desktop/fyp/finalyearproject/box2d/Box2D/Dynamics/b2ContactManager.cpp'
p1291
(lp1292
I1
ag1105
asS'c:/users/ben/desktop/fyp/finalyearproject/box2d/Box2D/Dynamics/b2World.h'
p1293
(lp1294
I1
ag1105
asS'c:/users/ben/desktop/fyp/finalyearproject/box2d/Box2D/Dynamics/b2Fixture.h'
p1295
(lp1296
I1
ag1105
asS'c:/users/ben/desktop/fyp/finalyearproject/box2d/Box2D/Dynamics/b2ContactManager.h'
p1297
(lp1298
I1
ag1105
asS'c:/users/ben/desktop/fyp/finalyearproject/box2d/Box2D/Dynamics/b2WorldCallbacks.h'
p1299
(lp1300
I1
ag1105
asS'c:/users/ben/desktop/fyp/finalyearproject/box2d/Box2D/Dynamics/b2Fixture.cpp'
p1301
(lp1302
I1
ag1105
asS'c:/users/ben/desktop/fyp/finalyearproject/box2d/Box2D/Dynamics/b2Island.h'
p1303
(lp1304
I1
ag1105
asS'c:/users/ben/desktop/fyp/finalyearproject/box2d/Box2D/Dynamics/b2TimeStep.h'
p1305
(lp1306
I1
ag1105
asssS'(MarmaladeExampleResources)'
p1307
(dp1308
S'c:/marmalade/7.4/examples/marmaladeexampleresources/marmaladeexampleresources.mkf'
p1309
(lp1310
I1
a(dp1311
assS'(libpng)'
p1312
(dp1313
g1057
(dp1314
S'c:/marmalade/7.4/modules/third_party/libpng/h/png.h'
p1315
(lp1316
I1
a(dp1317
asS'c:/marmalade/7.4/modules/third_party/libpng/h/pngconf.h'
p1318
(lp1319
I1
ag1317
assS'c:/marmalade/7.4/modules/third_party/libpng/libpng.mkf'
p1320
(lp1321
I1
a(dp1322
assS'c:/Users/Ben/Desktop/FYP/FinalYearProject/box2d/heybox2d/HeyBox2D.cpp'
p1323
(lp1324
I1
a(dp1325
asS"'Marmalade Studio'"
p1326
(dp1327
S'iwgl'
p1328
(dp1329
S'c:/marmalade/7.4/modules/iwgl/iwgl.mkf'
p1330
(lp1331
I1
a(dp1332
asS'c:/marmalade/7.4/modules/iwgl/docs/iwgl.config.txt'
p1333
(lp1334
I1
a(dp1335
asS'c:/marmalade/7.4/modules/iwgl/h/IwGLExt.h'
p1336
(lp1337
I1
ag1335
asS'c:/marmalade/7.4/modules/iwgl/h/IwGL.h'
p1338
(lp1339
I1
ag1335
assS'iw2d'
p1340
(dp1341
S'c:/marmalade/7.4/modules/legacy/iw2d/docs/iw2d.config.txt'
p1342
(lp1343
I1
a(dp1344
asS'c:/marmalade/7.4/modules/iw2d/iw2d.mkf'
p1345
(lp1346
I1
a(dp1347
asS'c:/marmalade/7.4/modules/legacy/iw2d/docs/iw2d_public.defines.txt'
p1348
(lp1349
I1
ag1344
asS'c:/marmalade/7.4/modules/legacy/iw2d/iw2d_legacy.mkf'
p1350
(lp1351
I1
a(dp1352
asS'c:/marmalade/7.4/modules/legacy/iw2d/h/Iw2D.h'
p1353
(lp1354
I1
ag1344
assS'iwgxfont'
p1355
(dp1356
S'c:/marmalade/7.4/modules/legacy/iwgxfont/h/IwGxFontContainer.h'
p1357
(lp1358
I1
a(dp1359
asS'c:/marmalade/7.4/modules/legacy/iwgxfont/h/IwGxFontPreparedData.h'
p1360
(lp1361
I1
ag1359
asS'c:/marmalade/7.4/modules/legacy/iwgxfont/iwgxfont_legacy.mkf'
p1362
(lp1363
I1
a(dp1364
asS'c:/marmalade/7.4/modules/legacy/iwgxfont/h/IwGxFontTypes.h'
p1365
(lp1366
I1
ag1359
asS'c:/marmalade/7.4/modules/legacy/iwgxfont/docs/iwgxfont.config.txt'
p1367
(lp1368
I1
ag1359
asS'c:/marmalade/7.4/modules/iwgxfont/iwgxfont.mkf'
p1369
(lp1370
I1
a(dp1371
asS'c:/marmalade/7.4/modules/legacy/iwgxfont/h/IwGxFont.h'
p1372
(lp1373
I1
ag1359
asS'c:/marmalade/7.4/modules/legacy/iwgxfont/docs/iwgxfont_public.defines.txt'
p1374
(lp1375
I1
ag1359
asS'c:/marmalade/7.4/modules/legacy/iwgxfont/h/IwGxFontState.h'
p1376
(lp1377
I1
ag1359
asS'c:/marmalade/7.4/modules/legacy/iwgxfont/h/IwGxFontGlyph.h'
p1378
(lp1379
I1
ag1359
assS'iwgeom'
p1380
(dp1381
S'c:/marmalade/7.4/modules/iwgeom/docs/iwgeom.config.txt'
p1382
(lp1383
I1
a(dp1384
asS'c:/marmalade/7.4/modules/iwgeom/h/IwGeomFIntersect.h'
p1385
(lp1386
I1
ag1384
asS'c:/marmalade/7.4/modules/iwgeom/h/IwGeomMat2D.h.tpl'
p1387
(lp1388
I1
ag1384
asS'c:/marmalade/7.4/modules/iwgeom/iwgeom.mkf'
p1389
(lp1390
I1
a(dp1391
asS'c:/marmalade/7.4/modules/iwgeom/h/IwGeomVec.h.tpl'
p1392
(lp1393
I1
ag1384
asS'c:/marmalade/7.4/modules/iwgeom/h/IwGeomFSphere.h'
p1394
(lp1395
I1
ag1384
asS'c:/marmalade/7.4/modules/iwgeom/h/IwGeomFQuat.h'
p1396
(lp1397
I1
ag1384
asS'c:/marmalade/7.4/modules/iwgeom/h/IwGeomMenu.h'
p1398
(lp1399
I1
ag1384
asS'c:/marmalade/7.4/modules/iwgeom/h/IwGeomFMat2D.h'
p1400
(lp1401
I1
ag1384
asS'c:/marmalade/7.4/modules/iwgeom/h/IwGeomFVec4.h'
p1402
(lp1403
I1
ag1384
asS'c:/marmalade/7.4/modules/iwgeom/h/IwGeomQuat.h'
p1404
(lp1405
I1
ag1384
asS'c:/marmalade/7.4/modules/iwgeom/h/IwGeomFBBox.h'
p1406
(lp1407
I1
ag1384
asS'c:/marmalade/7.4/modules/iwgeom/h/IwGeomSVec4.h'
p1408
(lp1409
I1
ag1384
asS'c:/marmalade/7.4/modules/iwgeom/h/IwGeomFVec2.h'
p1410
(lp1411
I1
ag1384
asS'c:/marmalade/7.4/modules/iwgeom/h/IwGeomVec.h'
p1412
(lp1413
I1
ag1384
asS'c:/marmalade/7.4/modules/iwgeom/h/IwGeomPlane.h'
p1414
(lp1415
I1
ag1384
asS'c:/marmalade/7.4/modules/iwgeom/h/IwGeomQuat.h.tpl'
p1416
(lp1417
I1
ag1384
asS'c:/marmalade/7.4/modules/iwgeom/h/IwGeomSVec3.h'
p1418
(lp1419
I1
ag1384
asS'c:/marmalade/7.4/modules/iwgeom/h/IwGeomMat.h'
p1420
(lp1421
I1
ag1384
asS'c:/marmalade/7.4/modules/iwgeom/h/IwGeomVec3.h'
p1422
(lp1423
I1
ag1384
asS'c:/marmalade/7.4/modules/iwgeom/h/IwGeomSVec2.h'
p1424
(lp1425
I1
ag1384
asS'c:/marmalade/7.4/modules/iwgeom/h/IwGeomLegacy.h'
p1426
(lp1427
I1
ag1384
asS'c:/marmalade/7.4/modules/iwgeom/h/IwGeomSQuat.h'
p1428
(lp1429
I1
ag1384
asS'c:/marmalade/7.4/modules/iwgeom/h/IwGeomCore.h'
p1430
(lp1431
I1
ag1384
asS'c:/marmalade/7.4/modules/iwgeom/h/IwGeomVec4.h'
p1432
(lp1433
I1
ag1384
asS'c:/marmalade/7.4/modules/iwgeom/h/IwGeomBBox.h'
p1434
(lp1435
I1
ag1384
asS'c:/marmalade/7.4/modules/iwgeom/h/IwGeomVec2.h'
p1436
(lp1437
I1
ag1384
asS'c:/marmalade/7.4/modules/iwgeom/h/IwGeomMat2D.h'
p1438
(lp1439
I1
ag1384
asS'c:/marmalade/7.4/modules/iwgeom/h/IwGeomSphere.h'
p1440
(lp1441
I1
ag1384
asS'c:/marmalade/7.4/modules/iwgeom/h/IwGeomFVec3.h'
p1442
(lp1443
I1
ag1384
asS'c:/marmalade/7.4/modules/iwgeom/h/IwGeom.h'
p1444
(lp1445
I1
ag1384
asS'c:/marmalade/7.4/modules/iwgeom/h/IwGeomMat.h.tpl'
p1446
(lp1447
I1
ag1384
asS'c:/marmalade/7.4/modules/iwgeom/h/IwGeomIntersect.h'
p1448
(lp1449
I1
ag1384
asS'c:/marmalade/7.4/modules/iwgeom/h/IwGeomFPlane.h'
p1450
(lp1451
I1
ag1384
asS'c:/marmalade/7.4/modules/iwgeom/h/IwGeomFMat.h'
p1452
(lp1453
I1
ag1384
asS'c:/marmalade/7.4/modules/iwgeom/h/IwGeomSqrt.h'
p1454
(lp1455
I1
ag1384
assS'iwresmanager'
p1456
(dp1457
S'c:/marmalade/7.4/modules/legacy/iwresmanager/h/IwResHandlerITX.h'
p1458
(lp1459
I1
a(dp1460
asS'c:/marmalade/7.4/modules/legacy/iwresmanager/h/IwResGroup.h'
p1461
(lp1462
I1
ag1460
asS'c:/marmalade/7.4/modules/legacy/iwresmanager/h/IwResHandlerImage.h'
p1463
(lp1464
I1
ag1460
asS'c:/marmalade/7.4/modules/legacy/iwresmanager/iwresmanager_legacy.mkf'
p1465
(lp1466
I1
a(dp1467
asS'c:/marmalade/7.4/modules/iwresmanager/iwresmanager.mkf'
p1468
(lp1469
I1
a(dp1470
asS'c:/marmalade/7.4/modules/legacy/iwresmanager/h/IwResManagerClass.h'
p1471
(lp1472
I1
ag1460
asS'c:/marmalade/7.4/modules/legacy/iwresmanager/h/IwResManager.h'
p1473
(lp1474
I1
ag1460
asS'c:/marmalade/7.4/modules/legacy/iwresmanager/h/IwResHandlerGROUP.h'
p1475
(lp1476
I1
ag1460
asS'c:/marmalade/7.4/modules/legacy/iwresmanager/h/IwResHandler.h'
p1477
(lp1478
I1
ag1460
asS'c:/marmalade/7.4/modules/legacy/iwresmanager/docs/iwresmanager.config.txt'
p1479
(lp1480
I1
ag1460
asS'c:/marmalade/7.4/modules/legacy/iwresmanager/h/IwResSerialise.h'
p1481
(lp1482
I1
ag1460
assS'iwgx'
p1483
(dp1484
S'c:/marmalade/7.4/modules/legacy/iwgx/h/IwGx.h'
p1485
(lp1486
I1
a(dp1487
asS'c:/marmalade/7.4/modules/legacy/iwgx/h/IwGxTransformSW.h'
p1488
(lp1489
I1
ag1487
asS'c:/marmalade/7.4/modules/legacy/iwgx/h/IwGxDrawSW.h'
p1490
(lp1491
I1
ag1487
asS'c:/marmalade/7.4/modules/legacy/iwgx/h/IwMaterial.h'
p1492
(lp1493
I1
ag1487
asS'c:/marmalade/7.4/modules/legacy/iwgx/h/IwMatAnim.h'
p1494
(lp1495
I1
ag1487
asS'c:/marmalade/7.4/modules/legacy/iwgx/docs/iwgx.config.txt'
p1496
(lp1497
I1
ag1487
asS'c:/marmalade/7.4/modules/legacy/iwgx/h/IwGxStream.h'
p1498
(lp1499
I1
ag1487
asS'c:/marmalade/7.4/modules/legacy/iwgx/h/IwTPage.h'
p1500
(lp1501
I1
ag1487
asS'c:/marmalade/7.4/modules/legacy/iwgx/h/IwGxShaderTechnique.h'
p1502
(lp1503
I1
ag1487
asS'c:/marmalade/7.4/modules/legacy/iwgx/h/IwResHandlerMTL.h'
p1504
(lp1505
I1
ag1487
asS'c:/marmalade/7.4/modules/legacy/iwgx/h/IwGxPrint.h'
p1506
(lp1507
I1
ag1487
asS'c:/marmalade/7.4/modules/legacy/iwgx/h/IwClip.h'
p1508
(lp1509
I1
ag1487
asS'c:/marmalade/7.4/modules/legacy/iwgx/h/IwGxSurface.h'
p1510
(lp1511
I1
ag1487
asS'c:/marmalade/7.4/modules/legacy/iwgx/h/IwGxMotionBlur.h'
p1512
(lp1513
I1
ag1487
asS'c:/marmalade/7.4/modules/legacy/iwgx/h/IwGxMetrics.h'
p1514
(lp1515
I1
ag1487
asS'c:/marmalade/7.4/modules/legacy/iwgx/h/IwDebugPrim.h'
p1516
(lp1517
I1
ag1487
asS'c:/marmalade/7.4/modules/legacy/iwgx/h/IwGxError.h'
p1518
(lp1519
I1
ag1487
asS'c:/marmalade/7.4/modules/legacy/iwgx/iwgx_legacy.mkf'
p1520
(lp1521
I1
a(dp1522
asS'c:/marmalade/7.4/modules/legacy/iwgx/docs/iwgx_public.defines.txt'
p1523
(lp1524
I1
ag1487
asS'c:/marmalade/7.4/modules/legacy/iwgx/h/IwGxDebug.h'
p1525
(lp1526
I1
ag1487
asS'c:/marmalade/7.4/modules/legacy/iwgx/h/IwClip.inl'
p1527
(lp1528
I1
ag1487
asS'c:/marmalade/7.4/modules/legacy/iwgx/h/IwGxTypes.h'
p1529
(lp1530
I1
ag1487
asS'c:/marmalade/7.4/modules/legacy/iwgx/h/IwGxState.h'
p1531
(lp1532
I1
ag1487
asS'c:/marmalade/7.4/modules/legacy/iwgx/h/IwGxRenderSW.h'
p1533
(lp1534
I1
ag1487
asS'c:/marmalade/7.4/modules/legacy/iwgx/h/IwColour.h'
p1535
(lp1536
I1
ag1487
asS'c:/marmalade/7.4/modules/iwgx/iwgx.mkf'
p1537
(lp1538
I1
a(dp1539
asS'c:/marmalade/7.4/modules/legacy/iwgx/h/IwTexture.h'
p1540
(lp1541
I1
ag1487
asS'c:/marmalade/7.4/modules/legacy/iwgx/h/IwGxFuncTable.h'
p1542
(lp1543
I1
ag1487
assS'iwutil'
p1544
(dp1545
S'c:/marmalade/7.4/modules/iwutil/h/IwTextParser.h'
p1546
(lp1547
I1
a(dp1548
asS'c:/marmalade/7.4/modules/iwutil/h/IwMenu.h'
p1549
(lp1550
I1
ag1548
asS'c:/marmalade/7.4/modules/iwutil/h/IwUtilInitTerm.h'
p1551
(lp1552
I1
ag1548
asS'c:/marmalade/7.4/modules/iwutil/h/IwCopyingPtr.h'
p1553
(lp1554
I1
ag1548
asS'c:/marmalade/7.4/modules/iwutil/h/IwDebug.h'
p1555
(lp1556
I1
ag1548
asS'c:/marmalade/7.4/modules/iwutil/h/IwVariableBitField.h'
p1557
(lp1558
I1
ag1548
asS'c:/marmalade/7.4/modules/iwutil/h/IwBuffer.h'
p1559
(lp1560
I1
ag1548
asS'c:/marmalade/7.4/modules/iwutil/h/IwRandom.h'
p1561
(lp1562
I1
ag1548
asS'c:/marmalade/7.4/modules/iwutil/h/IwResource.h'
p1563
(lp1564
I1
ag1548
asS'c:/marmalade/7.4/modules/iwutil/h/IwCore.h'
p1565
(lp1566
I1
ag1548
asS'c:/marmalade/7.4/modules/iwutil/h/IwTextParserITX.h'
p1567
(lp1568
I1
ag1548
asS'c:/marmalade/7.4/modules/iwutil/h/IwManaged.h'
p1569
(lp1570
I1
ag1548
asS'c:/marmalade/7.4/modules/iwutil/h/IwHashString.h'
p1571
(lp1572
I1
ag1548
asS'c:/marmalade/7.4/modules/iwutil/h/IwProfileMenu.h'
p1573
(lp1574
I1
ag1548
asS'c:/marmalade/7.4/modules/iwutil/h/IwManagedList.h'
p1575
(lp1576
I1
ag1548
asS'c:/marmalade/7.4/modules/iwutil/h/IwList.h'
p1577
(lp1578
I1
ag1548
asS'c:/marmalade/7.4/modules/iwutil/h/IwSerialise.h'
p1579
(lp1580
I1
ag1548
asS'c:/marmalade/7.4/modules/iwutil/h/IwClassFactory.h'
p1581
(lp1582
I1
ag1548
asS'c:/marmalade/7.4/modules/iwutil/h/IwTypes.h'
p1583
(lp1584
I1
ag1548
asS'c:/marmalade/7.4/modules/iwutil/h/IwAllocator.h'
p1585
(lp1586
I1
ag1548
asS'c:/marmalade/7.4/modules/iwutil/h/IwMemory.h'
p1587
(lp1588
I1
ag1548
asS'c:/marmalade/7.4/modules/iwutil/h/IwTextParseable.h'
p1589
(lp1590
I1
ag1548
asS'c:/marmalade/7.4/modules/iwutil/h/IwFile.h'
p1591
(lp1592
I1
ag1548
asS'c:/marmalade/7.4/modules/iwutil/h/IwRuntime.h'
p1593
(lp1594
I1
ag1548
asS'c:/marmalade/7.4/modules/iwutil/h/IwMemBucketHelpers.h'
p1595
(lp1596
I1
ag1548
asS'c:/marmalade/7.4/modules/iwutil/h/IwUncopyable.h'
p1597
(lp1598
I1
ag1548
asS'c:/marmalade/7.4/modules/iwutil/h/IwChar.h'
p1599
(lp1600
I1
ag1548
asS'c:/marmalade/7.4/modules/iwutil/h/IwOptimiseARM.h'
p1601
(lp1602
I1
ag1548
asS'c:/marmalade/7.4/modules/iwutil/h/IwImage.h'
p1603
(lp1604
I1
ag1548
asS'c:/marmalade/7.4/modules/iwutil/h/IwImageHelper.h'
p1605
(lp1606
I1
ag1548
asS'c:/marmalade/7.4/modules/iwutil/h/IwMemBucket.h'
p1607
(lp1608
I1
ag1548
asS'c:/marmalade/7.4/modules/iwutil/h/IwDivide.h'
p1609
(lp1610
I1
ag1548
asS'c:/marmalade/7.4/modules/iwutil/h/IwOptimiseSpeed.h'
p1611
(lp1612
I1
ag1548
asS'c:/marmalade/7.4/modules/iwutil/h/IwArray.h'
p1613
(lp1614
I1
ag1548
asS'c:/marmalade/7.4/modules/iwutil/docs/iwutil.config.txt'
p1615
(lp1616
I1
ag1548
asS'c:/marmalade/7.4/modules/iwutil/h/IwUTF8.h'
p1617
(lp1618
I1
ag1548
asS'c:/marmalade/7.4/modules/iwutil/h/IwEvent.h'
p1619
(lp1620
I1
ag1548
asS'c:/marmalade/7.4/modules/iwutil/h/IwMath.h'
p1621
(lp1622
I1
ag1548
asS'c:/marmalade/7.4/modules/iwutil/h/IwFibre.h'
p1623
(lp1624
I1
ag1548
asS'c:/marmalade/7.4/modules/iwutil/h/IwString.h'
p1625
(lp1626
I1
ag1548
asS'c:/marmalade/7.4/modules/iwutil/h/IwKeymap.h'
p1627
(lp1628
I1
ag1548
asS'c:/marmalade/7.4/modules/iwutil/iwutil.mkf'
p1629
(lp1630
I1
a(dp1631
asS'c:/marmalade/7.4/modules/iwutil/h/IwSingleton.h'
p1632
(lp1633
I1
ag1548
asS'c:/marmalade/7.4/modules/iwutil/h/IwAutoFile.h'
p1634
(lp1635
I1
ag1548
asS'c:/marmalade/7.4/modules/iwutil/h/IwOptimiseThumb.h'
p1636
(lp1637
I1
ag1548
asS'c:/marmalade/7.4/modules/iwutil/h/IwUtil.h'
p1638
(lp1639
I1
ag1548
asS'c:/marmalade/7.4/modules/iwutil/h/IwPath.h'
p1640
(lp1641
I1
ag1548
asS'c:/marmalade/7.4/modules/iwutil/h/IwMemManagerDL.h'
p1642
(lp1643
I1
ag1548
asS'c:/marmalade/7.4/modules/iwutil/h/IwDivTable.h'
p1644
(lp1645
I1
ag1548
asS'c:/marmalade/7.4/modules/iwutil/h/IwOptimiseSize.h'
p1646
(lp1647
I1
ag1548
asssS'(zlib)'
p1648
(dp1649
g1057
(dp1650
S'c:/marmalade/7.4/modules/third_party/zlib/h/zconf.h'
p1651
(lp1652
I1
a(dp1653
asS'c:/marmalade/7.4/modules/third_party/zlib/h/zlib.h'
p1654
(lp1655
I1
ag1653
assS'c:/marmalade/7.4/modules/third_party/zlib/zlib.mkf'
p1656
(lp1657
I1
a(dp1658
assS'(s3e-default)'
p1659
(dp1660
S'c:/marmalade/7.4/s3e/s3e-default.mkf'
p1661
(lp1662
I1
a(dp1663
asssS'files'
p1664
(dp1665
S'b2World.cpp'
p1666
g309
(cmkb_main
File
p1667
g311
Ntp1668
Rp1669
(dp1670
S'flags'
p1671
g1105
sS'group'
p1672
(lp1673
g1101
ag1191
asg335
g1195
sbsS'IwGxFontPreparedData.h'
p1674
g309
(g1667
g311
Ntp1675
Rp1676
(dp1677
g1671
g1359
sg1672
(lp1678
S"'Marmalade Studio'"
p1679
ag1355
asg335
g1360
sbsS'iterator'
p1680
g309
(g1667
g311
Ntp1681
Rp1682
(dp1683
g1671
(dp1684
sg1672
(lp1685
S"'Marmalade System (S3E)'"
p1686
aS'stdc headers'
p1687
aS'c++'
p1688
asg335
S'c:/marmalade/7.4/s3e/h/std/c++/iterator'
p1689
sbsS'IwGeomPlane.h'
p1690
g309
(g1667
g311
Ntp1691
Rp1692
(dp1693
g1671
g1384
sg1672
(lp1694
S"'Marmalade Studio'"
p1695
ag1380
asg335
g1414
sbsS'b2PrismaticJoint.h'
p1696
g309
(g1667
g311
Ntp1697
Rp1698
(dp1699
g1671
g1105
sg1672
(lp1700
g1101
aS'Dynamics'
p1701
ag1237
asg335
g1285
sbsS'errno.h'
p1702
g309
(g1667
g311
Ntp1703
Rp1704
(dp1705
g1671
g1684
sg1672
(lp1706
g1686
aS'stdc headers'
p1707
asg335
S'c:/marmalade/7.4/s3e/h/std/errno.h'
p1708
sbsS'b2Joint.cpp'
p1709
g309
(g1667
g311
Ntp1710
Rp1711
(dp1712
g1671
g1105
sg1672
g1700
sg335
g1239
sbsS'IwSingleton.h'
p1713
g309
(g1667
g311
Ntp1714
Rp1715
(dp1716
g1671
g1548
sg1672
(lp1717
S"'Marmalade Studio'"
p1718
ag1544
asg335
g1632
sbsS'getopt.h'
p1719
g309
(g1667
g311
Ntp1720
Rp1721
(dp1722
g1671
g1684
sg1672
g1706
sg335
S'c:/marmalade/7.4/s3e/h/std/getopt.h'
p1723
sbsS'dlfcn.h'
p1724
g309
(g1667
g311
Ntp1725
Rp1726
(dp1727
g1671
g1684
sg1672
g1706
sg335
S'c:/marmalade/7.4/s3e/h/std/dlfcn.h'
p1728
sbsS'stdio_streambuf'
p1729
g309
(g1667
g311
Ntp1730
Rp1731
(dp1732
g1671
g1684
sg1672
g1685
sg335
S'c:/marmalade/7.4/s3e/h/std/c++/stdio_streambuf'
p1733
sbsS'sched.h'
p1734
g309
(g1667
g311
Ntp1735
Rp1736
(dp1737
g1671
g1684
sg1672
g1706
sg335
S'c:/marmalade/7.4/s3e/h/std/sched.h'
p1738
sbsS'IwGeomFMat2D.h'
p1739
g309
(g1667
g311
Ntp1740
Rp1741
(dp1742
g1671
g1384
sg1672
g1694
sg335
g1400
sbsS'cassert'
p1743
g309
(g1667
g311
Ntp1744
Rp1745
(dp1746
g1671
g1684
sg1672
g1685
sg335
S'c:/marmalade/7.4/s3e/h/std/c++/cassert'
p1747
sbsS'grp.h'
p1748
g309
(g1667
g311
Ntp1749
Rp1750
(dp1751
g1671
g1684
sg1672
g1706
sg335
S'c:/marmalade/7.4/s3e/h/std/grp.h'
p1752
sbsS'b2PulleyJoint.h'
p1753
g309
(g1667
g311
Ntp1754
Rp1755
(dp1756
g1671
g1105
sg1672
g1700
sg335
g1261
sbsS'list'
p1757
g309
(g1667
g311
Ntp1758
Rp1759
(dp1760
g1671
g1684
sg1672
g1685
sg335
S'c:/marmalade/7.4/s3e/h/std/c++/list'
p1761
sbsS'IwGeomMat.h.tpl'
p1762
g309
(g1667
g311
Ntp1763
Rp1764
(dp1765
g1671
g1384
sg1672
g1694
sg335
g1446
sbsS'b2Distance.cpp'
p1766
g309
(g1667
g311
Ntp1767
Rp1768
(dp1769
g1671
g1105
sg1672
(lp1770
g1101
ag1112
asg335
g1120
sbsS'jpeglib.h'
p1771
g309
(g1667
g311
Ntp1772
Rp1773
(dp1774
g1671
g1061
sg1672
(lp1775
g1055
ag1057
asg335
g1066
sbsS'iw2d_public.defines.txt'
p1776
g309
(g1667
g311
Ntp1777
Rp1778
(dp1779
g1671
g1344
sg1672
(lp1780
S"'Marmalade Studio'"
p1781
aS'iw2d'
p1782
asg335
g1348
sbsS'iostream.h'
p1783
g309
(g1667
g311
Ntp1784
Rp1785
(dp1786
g1671
g1684
sg1672
g1685
sg335
S'c:/marmalade/7.4/s3e/h/std/c++/iostream.h'
p1787
sbsS'examplescore.defines.txt'
p1788
g309
(g1667
g311
Ntp1789
Rp1790
(dp1791
g1671
g1047
sg1672
(lp1792
g1043
asg335
g1045
sbsS'b2ChainShape.cpp'
p1793
g309
(g1667
g311
Ntp1794
Rp1795
(dp1796
g1671
g1105
sg1672
(lp1797
g1101
aS'Collision'
p1798
ag1124
asg335
g1142
sbsS'string'
p1799
g309
(g1667
g311
Ntp1800
Rp1801
(dp1802
g1671
g1684
sg1672
g1685
sg335
S'c:/marmalade/7.4/s3e/h/std/c++/string'
p1803
sbsS'b2WheelJoint.h'
p1804
g309
(g1667
g311
Ntp1805
Rp1806
(dp1807
g1671
g1105
sg1672
g1700
sg335
g1281
sbsS'IwMemory.h'
p1808
g309
(g1667
g311
Ntp1809
Rp1810
(dp1811
g1671
g1548
sg1672
g1717
sg335
g1587
sbsS'b2DynamicTree.cpp'
p1812
g309
(g1667
g311
Ntp1813
Rp1814
(dp1815
g1671
g1105
sg1672
g1770
sg335
g1152
sbsS'b2CircleContact.cpp'
p1816
g309
(g1667
g311
Ntp1817
Rp1818
(dp1819
g1671
g1105
sg1672
(lp1820
g1101
aS'Dynamics'
p1821
ag1199
asg335
g1213
sbsS'IwGL.h'
p1822
g309
(g1667
g311
Ntp1823
Rp1824
(dp1825
g1671
g1335
sg1672
(lp1826
S"'Marmalade Studio'"
p1827
ag1328
asg335
g1338
sbsS'iw2d.config.txt'
p1828
g309
(g1667
g311
Ntp1829
Rp1830
(dp1831
g1671
g1344
sg1672
g1780
sg335
g1342
sbsS'iomanip'
p1832
g309
(g1667
g311
Ntp1833
Rp1834
(dp1835
g1671
g1684
sg1672
g1685
sg335
S'c:/marmalade/7.4/s3e/h/std/c++/iomanip'
p1836
sbsS'iwgeom.mkf'
p1837
g309
(g1667
g311
Ntp1838
Rp1839
(dp1840
g1671
g1391
sg1672
g1694
sg335
g1389
sbsS'IwGxError.h'
p1841
g309
(g1667
g311
Ntp1842
Rp1843
(dp1844
g1671
g1487
sg1672
(lp1845
S"'Marmalade Studio'"
p1846
ag1483
asg335
g1518
sbsS'IwGeom.h'
p1847
g309
(g1667
g311
Ntp1848
Rp1849
(dp1850
g1671
g1384
sg1672
g1694
sg335
g1444
sbsS's3e.h'
p1851
g309
(g1667
g311
Ntp1852
Rp1853
(dp1854
g1671
g1684
sg1672
(lp1855
g1686
asg335
S'c:/marmalade/7.4/s3e/h/s3e.h'
p1856
sbsS'IwGeomVec4.h'
p1857
g309
(g1667
g311
Ntp1858
Rp1859
(dp1860
g1671
g1384
sg1672
g1694
sg335
g1432
sbsS'dir.h'
p1861
g309
(g1667
g311
Ntp1862
Rp1863
(dp1864
g1671
g1684
sg1672
(lp1865
g1686
aS'stdc headers'
p1866
aS'sys'
p1867
asg335
S'c:/marmalade/7.4/s3e/h/std/sys/dir.h'
p1868
sbsS'b2EdgeAndPolygonContact.h'
p1869
g309
(g1667
g311
Ntp1870
Rp1871
(dp1872
g1671
g1105
sg1672
g1820
sg335
g1229
sbsS'locale.h'
p1873
g309
(g1667
g311
Ntp1874
Rp1875
(dp1876
g1671
g1684
sg1672
g1706
sg335
S'c:/marmalade/7.4/s3e/h/std/locale.h'
p1877
sbsS'vector'
p1878
g309
(g1667
g311
Ntp1879
Rp1880
(dp1881
g1671
g1684
sg1672
g1685
sg335
S'c:/marmalade/7.4/s3e/h/std/c++/vector'
p1882
sbsS'IwManaged.h'
p1883
g309
(g1667
g311
Ntp1884
Rp1885
(dp1886
g1671
g1548
sg1672
g1717
sg335
g1569
sbsS's3eCompass.h'
p1887
g309
(g1667
g311
Ntp1888
Rp1889
(dp1890
g1671
g1684
sg1672
g1855
sg335
S'c:/marmalade/7.4/s3e/h/s3eCompass.h'
p1891
sbsS'examplescore.mkf'
p1892
g309
(g1667
g311
Ntp1893
Rp1894
(dp1895
g1671
g1052
sg1672
g1792
sg335
g1050
sbsS'cderror.h'
p1896
g309
(g1667
g311
Ntp1897
Rp1898
(dp1899
g1671
g1061
sg1672
g1775
sg335
g1074
sbsS'climits'
p1900
g309
(g1667
g311
Ntp1901
Rp1902
(dp1903
g1671
g1684
sg1672
g1685
sg335
S'c:/marmalade/7.4/s3e/h/std/c++/climits'
p1904
sbsS's3eVibra.h'
p1905
g309
(g1667
g311
Ntp1906
Rp1907
(dp1908
g1671
g1684
sg1672
g1855
sg335
S'c:/marmalade/7.4/s3e/h/s3eVibra.h'
p1909
sbsS'jversion.h'
p1910
g309
(g1667
g311
Ntp1911
Rp1912
(dp1913
g1671
g1061
sg1672
g1775
sg335
g1078
sbsS'fnmatch.h'
p1914
g309
(g1667
g311
Ntp1915
Rp1916
(dp1917
g1671
g1684
sg1672
g1706
sg335
S'c:/marmalade/7.4/s3e/h/std/fnmatch.h'
p1918
sbsS'IwGxState.h'
p1919
g309
(g1667
g311
Ntp1920
Rp1921
(dp1922
g1671
g1487
sg1672
g1845
sg335
g1531
sbsS's3eAudio.h'
p1923
g309
(g1667
g311
Ntp1924
Rp1925
(dp1926
g1671
g1684
sg1672
g1855
sg335
S'c:/marmalade/7.4/s3e/h/s3eAudio.h'
p1927
sbsS'b2CollideCircle.cpp'
p1928
g309
(g1667
g311
Ntp1929
Rp1930
(dp1931
g1671
g1105
sg1672
g1770
sg335
g1156
sbsS's3eSurface.h'
p1932
g309
(g1667
g311
Ntp1933
Rp1934
(dp1935
g1671
g1684
sg1672
g1855
sg335
S'c:/marmalade/7.4/s3e/h/s3eSurface.h'
p1936
sbsS'new'
p1937
g309
(g1667
g311
Ntp1938
Rp1939
(dp1940
g1671
g1684
sg1672
g1685
sg335
S'c:/marmalade/7.4/s3e/h/std/c++/new'
p1941
sbsS's3eWindow.h'
p1942
g309
(g1667
g311
Ntp1943
Rp1944
(dp1945
g1671
g1684
sg1672
(lp1946
g1686
aS'Extensions'
p1947
asg335
S'c:/marmalade/7.4/s3e/h/ext/s3eWindow.h'
p1948
sbsS'IwBuffer.h'
p1949
g309
(g1667
g311
Ntp1950
Rp1951
(dp1952
g1671
g1548
sg1672
g1717
sg335
g1559
sbsS'IwGeomQuat.h.tpl'
p1953
g309
(g1667
g311
Ntp1954
Rp1955
(dp1956
g1671
g1384
sg1672
g1694
sg335
g1416
sbsS's3eOSExec.h'
p1957
g309
(g1667
g311
Ntp1958
Rp1959
(dp1960
g1671
g1684
sg1672
g1946
sg335
S'c:/marmalade/7.4/s3e/h/ext/s3eOSExec.h'
p1961
sbsS'b2ContactSolver.cpp'
p1962
g309
(g1667
g311
Ntp1963
Rp1964
(dp1965
g1671
g1105
sg1672
g1820
sg335
g1203
sbsS'IwGxTransformSW.h'
p1966
g309
(g1667
g311
Ntp1967
Rp1968
(dp1969
g1671
g1487
sg1672
g1845
sg335
g1488
sbsS'b2ContactSolver.h'
p1970
g309
(g1667
g311
Ntp1971
Rp1972
(dp1973
g1671
g1105
sg1672
g1820
sg335
g1221
sbsS'b2World.h'
p1974
g309
(g1667
g311
Ntp1975
Rp1976
(dp1977
g1671
g1105
sg1672
g1673
sg335
g1293
sbsS'iwgxfont.config.txt'
p1978
g309
(g1667
g311
Ntp1979
Rp1980
(dp1981
g1671
g1359
sg1672
g1678
sg335
g1367
sbsS'gl2platform.h'
p1982
g309
(g1667
g311
Ntp1983
Rp1984
(dp1985
g1671
g1684
sg1672
(lp1986
g1686
aS'GL'
p1987
aS'GLES 2.0'
p1988
asg335
S'c:/marmalade/7.4/s3e/h/GLES2/gl2platform.h'
p1989
sbsS'IwResManagerClass.h'
p1990
g309
(g1667
g311
Ntp1991
Rp1992
(dp1993
g1671
g1460
sg1672
(lp1994
g1326
ag1456
asg335
g1471
sbsS'queue'
p1995
g309
(g1667
g311
Ntp1996
Rp1997
(dp1998
g1671
g1684
sg1672
g1685
sg335
S'c:/marmalade/7.4/s3e/h/std/c++/queue'
p1999
sbsS'HeyBox2D.cpp'
p2000
g309
(g1667
g311
Ntp2001
Rp2002
(dp2003
g1671
g1325
sg1672
(lp2004
sg335
g1323
sbsS'time_1.h'
p2005
g309
(g1667
g311
Ntp2006
Rp2007
(dp2008
g1671
g1684
sg1672
g1865
sg335
S'c:/marmalade/7.4/s3e/h/std/sys/time.h'
p2009
sbsS'Iw2D.h'
p2010
g309
(g1667
g311
Ntp2011
Rp2012
(dp2013
g1671
g1344
sg1672
g1780
sg335
g1353
sbsS'IwGeomVec2.h'
p2014
g309
(g1667
g311
Ntp2015
Rp2016
(dp2017
g1671
g1384
sg1672
g1694
sg335
g1436
sbsS'ExamplesMain.h'
p2018
g309
(g1667
g311
Ntp2019
Rp2020
(dp2021
g1671
g1047
sg1672
g1792
sg335
g1053
sbsS'sendfile.h'
p2022
g309
(g1667
g311
Ntp2023
Rp2024
(dp2025
g1671
g1684
sg1672
g1865
sg335
S'c:/marmalade/7.4/s3e/h/std/sys/sendfile.h'
p2026
sbsS'malloc.h'
p2027
g309
(g1667
g311
Ntp2028
Rp2029
(dp2030
g1671
g1684
sg1672
g1706
sg335
S'c:/marmalade/7.4/s3e/h/std/malloc.h'
p2031
sbsS'stdarg.h'
p2032
g309
(g1667
g311
Ntp2033
Rp2034
(dp2035
g1671
g1684
sg1672
g1706
sg335
S'c:/marmalade/7.4/s3e/h/std/stdarg.h'
p2036
sbsS'IwGeomCore.h'
p2037
g309
(g1667
g311
Ntp2038
Rp2039
(dp2040
g1671
g1384
sg1672
g1694
sg335
g1430
sbsS'endian.h'
p2041
g309
(g1667
g311
Ntp2042
Rp2043
(dp2044
g1671
g1684
sg1672
g1706
sg335
S'c:/marmalade/7.4/s3e/h/std/endian.h'
p2045
sbsS'gl3ext.h'
p2046
g309
(g1667
g311
Ntp2047
Rp2048
(dp2049
g1671
g1684
sg1672
(lp2050
g1686
aS'GL'
p2051
aS'GLES 3.0'
p2052
asg335
S'c:/marmalade/7.4/s3e/h/GLES3/gl3ext.h'
p2053
sbsS'glob.h'
p2054
g309
(g1667
g311
Ntp2055
Rp2056
(dp2057
g1671
g1684
sg1672
g1706
sg335
S'c:/marmalade/7.4/s3e/h/std/glob.h'
p2058
sbsS'fstream'
p2059
g309
(g1667
g311
Ntp2060
Rp2061
(dp2062
g1671
g1684
sg1672
g1685
sg335
S'c:/marmalade/7.4/s3e/h/std/c++/fstream'
p2063
sbsS's3eCamera.h'
p2064
g309
(g1667
g311
Ntp2065
Rp2066
(dp2067
g1671
g1684
sg1672
g1855
sg335
S'c:/marmalade/7.4/s3e/h/s3eCamera.h'
p2068
sbsS'jconfig.h'
p2069
g309
(g1667
g311
Ntp2070
Rp2071
(dp2072
g1671
g1061
sg1672
g1775
sg335
g1072
sbsS'memory'
p2073
g309
(g1667
g311
Ntp2074
Rp2075
(dp2076
g1671
g1684
sg1672
g1685
sg335
S'c:/marmalade/7.4/s3e/h/std/c++/memory'
p2077
sbsS'egl.h'
p2078
g309
(g1667
g311
Ntp2079
Rp2080
(dp2081
g1671
g1684
sg1672
(lp2082
g1686
aS'GL'
p2083
aS'EGL'
p2084
asg335
S'c:/marmalade/7.4/s3e/h/EGL/egl.h'
p2085
sbsS'egl_1.h'
p2086
g309
(g1667
g311
Ntp2087
Rp2088
(dp2089
g1671
g1684
sg1672
(lp2090
g1686
aS'GL'
p2091
aS'GLES 1.x'
p2092
asg335
S'c:/marmalade/7.4/s3e/h/GLES/egl.h'
p2093
sbsS'IwMemManagerDL.h'
p2094
g309
(g1667
g311
Ntp2095
Rp2096
(dp2097
g1671
g1548
sg1672
g1717
sg335
g1642
sbsS'deque'
p2098
g309
(g1667
g311
Ntp2099
Rp2100
(dp2101
g1671
g1684
sg1672
g1685
sg335
S'c:/marmalade/7.4/s3e/h/std/c++/deque'
p2102
sbsS'b2WheelJoint.cpp'
p2103
g309
(g1667
g311
Ntp2104
Rp2105
(dp2106
g1671
g1105
sg1672
g1700
sg335
g1245
sbsS'IwString.h'
p2107
g309
(g1667
g311
Ntp2108
Rp2109
(dp2110
g1671
g1548
sg1672
g1717
sg335
g1625
sbsS'istream'
p2111
g309
(g1667
g311
Ntp2112
Rp2113
(dp2114
g1671
g1684
sg1672
g1685
sg335
S'c:/marmalade/7.4/s3e/h/std/c++/istream'
p2115
sbsS'cwchar'
p2116
g309
(g1667
g311
Ntp2117
Rp2118
(dp2119
g1671
g1684
sg1672
g1685
sg335
S'c:/marmalade/7.4/s3e/h/std/c++/cwchar'
p2120
sbsS'b2Math.cpp'
p2121
g309
(g1667
g311
Ntp2122
Rp2123
(dp2124
g1671
g1105
sg1672
(lp2125
g1101
ag1160
asg335
g1186
sbsS'iwutil.mkf'
p2126
g309
(g1667
g311
Ntp2127
Rp2128
(dp2129
g1671
g1631
sg1672
g1717
sg335
g1629
sbsS'csignal'
p2130
g309
(g1667
g311
Ntp2131
Rp2132
(dp2133
g1671
g1684
sg1672
g1685
sg335
S'c:/marmalade/7.4/s3e/h/std/c++/csignal'
p2134
sbsS'pthread_types.h'
p2135
g309
(g1667
g311
Ntp2136
Rp2137
(dp2138
g1671
g1684
sg1672
g1706
sg335
S'c:/marmalade/7.4/s3e/h/std/pthread_types.h'
p2139
sbsS'b2DistanceJoint.cpp'
p2140
g309
(g1667
g311
Ntp2141
Rp2142
(dp2143
g1671
g1105
sg1672
g1700
sg335
g1283
sbsS'pthread_alloc'
p2144
g309
(g1667
g311
Ntp2145
Rp2146
(dp2147
g1671
g1684
sg1672
g1685
sg335
S'c:/marmalade/7.4/s3e/h/std/c++/pthread_alloc'
p2148
sbsS'b2ChainAndPolygonContact.cpp'
p2149
g309
(g1667
g311
Ntp2150
Rp2151
(dp2152
g1671
g1105
sg1672
g1820
sg335
g1225
sbsS'IwOptimiseARM.h'
p2153
g309
(g1667
g311
Ntp2154
Rp2155
(dp2156
g1671
g1548
sg1672
g1717
sg335
g1601
sbsS'times.h'
p2157
g309
(g1667
g311
Ntp2158
Rp2159
(dp2160
g1671
g1684
sg1672
g1865
sg335
S'c:/marmalade/7.4/s3e/h/std/sys/times.h'
p2161
sbsS'IwGeomFSphere.h'
p2162
g309
(g1667
g311
Ntp2163
Rp2164
(dp2165
g1671
g1384
sg1672
g1694
sg335
g1394
sbsS'b2DistanceJoint.h'
p2166
g309
(g1667
g311
Ntp2167
Rp2168
(dp2169
g1671
g1105
sg1672
g1700
sg335
g1265
sbsS'IwTypes.h'
p2170
g309
(g1667
g311
Ntp2171
Rp2172
(dp2173
g1671
g1548
sg1672
g1717
sg335
g1583
sbsS'IwGxMetrics.h'
p2174
g309
(g1667
g311
Ntp2175
Rp2176
(dp2177
g1671
g1487
sg1672
g1845
sg335
g1514
sbsS's3eCompression.h'
p2178
g309
(g1667
g311
Ntp2179
Rp2180
(dp2181
g1671
g1684
sg1672
g1855
sg335
S'c:/marmalade/7.4/s3e/h/s3eCompression.h'
p2182
sbsS'langinfo.h'
p2183
g309
(g1667
g311
Ntp2184
Rp2185
(dp2186
g1671
g1684
sg1672
g1706
sg335
S'c:/marmalade/7.4/s3e/h/std/langinfo.h'
p2187
sbsS's3edebugHeap.h'
p2188
g309
(g1667
g311
Ntp2189
Rp2190
(dp2191
g1671
g1684
sg1672
g1946
sg335
S'c:/marmalade/7.4/s3e/h/ext/s3edebugHeap.h'
p2192
sbsS'AirplayVersion.h'
p2193
g309
(g1667
g311
Ntp2194
Rp2195
(dp2196
g1671
g1684
sg1672
g1855
sg335
S'c:/marmalade/7.4/s3e/h/AirplayVersion.h'
p2197
sbsS'b2TimeOfImpact.cpp'
p2198
g309
(g1667
g311
Ntp2199
Rp2200
(dp2201
g1671
g1105
sg1672
g1770
sg335
g1144
sbsS'gl2extimg.h'
p2202
g309
(g1667
g311
Ntp2203
Rp2204
(dp2205
g1671
g1684
sg1672
g1986
sg335
S'c:/marmalade/7.4/s3e/h/GLES2/gl2extimg.h'
p2206
sbsS'app.config.txt'
p2207
g309
(g1667
g311
Ntp2208
Rp2209
(dp2210
g1671
(dp2211
sg1672
g4
sg335
S'c:/Users/Ben/Desktop/FYP/FinalYearProject/box2d/heybox2d/data/app.config.txt'
p2212
sbsS'IwGeomSqrt.h'
p2213
g309
(g1667
g311
Ntp2214
Rp2215
(dp2216
g1671
g1384
sg1672
g1694
sg335
g1454
sbsS'tiniconv_int.h'
p2217
g309
(g1667
g311
Ntp2218
Rp2219
(dp2220
g1671
g1095
sg1672
(lp2221
g1091
asg335
g1093
sbsS'syslog.h'
p2222
g309
(g1667
g311
Ntp2223
Rp2224
(dp2225
g1671
g1684
sg1672
g1706
sg335
S'c:/marmalade/7.4/s3e/h/std/syslog.h'
p2226
sbsS'IwGxFontTypes.h'
p2227
g309
(g1667
g311
Ntp2228
Rp2229
(dp2230
g1671
g1359
sg1672
g1678
sg335
g1365
sbsS'IwGeomFIntersect.h'
p2231
g309
(g1667
g311
Ntp2232
Rp2233
(dp2234
g1671
g1384
sg1672
g1694
sg335
g1385
sbsS'hash_map'
p2235
g309
(g1667
g311
Ntp2236
Rp2237
(dp2238
g1671
g1684
sg1672
g1685
sg335
S'c:/marmalade/7.4/s3e/h/std/c++/hash_map'
p2239
sbsS's3e.mkf'
p2240
g309
(g1667
g311
Ntp2241
Rp2242
(dp2243
g1671
(dp2244
sg1672
g1855
sg335
S'c:/marmalade/7.4/s3e/s3e.mkf'
p2245
sbsS'IwGeomMat2D.h.tpl'
p2246
g309
(g1667
g311
Ntp2247
Rp2248
(dp2249
g1671
g1384
sg1672
g1694
sg335
g1387
sbsS's3eOSReadString.h'
p2250
g309
(g1667
g311
Ntp2251
Rp2252
(dp2253
g1671
g1684
sg1672
g1946
sg335
S'c:/marmalade/7.4/s3e/h/ext/s3eOSReadString.h'
p2254
sbsS'map'
p2255
g309
(g1667
g311
Ntp2256
Rp2257
(dp2258
g1671
g1684
sg1672
g1685
sg335
S'c:/marmalade/7.4/s3e/h/std/c++/map'
p2259
sbsS'b2CircleShape.cpp'
p2260
g309
(g1667
g311
Ntp2261
Rp2262
(dp2263
g1671
g1105
sg1672
g1797
sg335
g1134
sbsS'IwOptimiseSpeed.h'
p2264
g309
(g1667
g311
Ntp2265
Rp2266
(dp2267
g1671
g1548
sg1672
g1717
sg335
g1611
sbsS'b2ContactManager.h'
p2268
g309
(g1667
g311
Ntp2269
Rp2270
(dp2271
g1671
g1105
sg1672
g1673
sg335
g1297
sbsS'msl_string.h'
p2272
g309
(g1667
g311
Ntp2273
Rp2274
(dp2275
g1671
g1684
sg1672
g1685
sg335
S'c:/marmalade/7.4/s3e/h/std/c++/msl_string.h'
p2276
sbsS'b2CircleContact.h'
p2277
g309
(g1667
g311
Ntp2278
Rp2279
(dp2280
g1671
g1105
sg1672
g1820
sg335
g1209
sbsS'b2Settings.cpp'
p2281
g309
(g1667
g311
Ntp2282
Rp2283
(dp2284
g1671
g1105
sg1672
g2125
sg335
g1166
sbsS'sigcontext.h'
p2285
g309
(g1667
g311
Ntp2286
Rp2287
(dp2288
g1671
g1684
sg1672
g1706
sg335
S'c:/marmalade/7.4/s3e/h/std/sigcontext.h'
p2289
sbsS'select.h'
p2290
g309
(g1667
g311
Ntp2291
Rp2292
(dp2293
g1671
g1684
sg1672
g1865
sg335
S'c:/marmalade/7.4/s3e/h/std/sys/select.h'
p2294
sbsS'b2RevoluteJoint.cpp'
p2295
g309
(g1667
g311
Ntp2296
Rp2297
(dp2298
g1671
g1105
sg1672
g1700
sg335
g1259
sbsS'b2PolygonAndCircleContact.h'
p2299
g309
(g1667
g311
Ntp2300
Rp2301
(dp2302
g1671
g1105
sg1672
g1820
sg335
g1207
sbsS'zlib.mkf'
p2303
g309
(g1667
g311
Ntp2304
Rp2305
(dp2306
g1671
g1658
sg1672
(lp2307
g1648
asg335
g1656
sbsS'signal.h'
p2308
g309
(g1667
g311
Ntp2309
Rp2310
(dp2311
g1671
g1684
sg1672
g1706
sg335
S'c:/marmalade/7.4/s3e/h/std/signal.h'
p2312
sbsS's3eLibrary.h'
p2313
g309
(g1667
g311
Ntp2314
Rp2315
(dp2316
g1671
g1684
sg1672
g1946
sg335
S'c:/marmalade/7.4/s3e/h/ext/s3eLibrary.h'
p2317
sbsS'ExamplesMain.cpp'
p2318
g309
(g1667
g311
Ntp2319
Rp2320
(dp2321
g1671
g1047
sg1672
g1792
sg335
g1048
sbsS'libpng.mkf'
p2322
g309
(g1667
g311
Ntp2323
Rp2324
(dp2325
g1671
g1322
sg1672
(lp2326
g1312
asg335
g1320
sbsS'b2Math.h'
p2327
g309
(g1667
g311
Ntp2328
Rp2329
(dp2330
g1671
g1105
sg1672
g2125
sg335
g1164
sbsS's3eClipboard.h'
p2331
g309
(g1667
g311
Ntp2332
Rp2333
(dp2334
g1671
g1684
sg1672
g1855
sg335
S'c:/marmalade/7.4/s3e/h/s3eClipboard.h'
p2335
sbsS'IwGxFuncTable.h'
p2336
g309
(g1667
g311
Ntp2337
Rp2338
(dp2339
g1671
g1487
sg1672
g1845
sg335
g1542
sbsS'IwResHandlerGROUP.h'
p2340
g309
(g1667
g311
Ntp2341
Rp2342
(dp2343
g1671
g1460
sg1672
g1994
sg335
g1475
sbsS's3eDebug.h'
p2344
g309
(g1667
g311
Ntp2345
Rp2346
(dp2347
g1671
g1684
sg1672
g1855
sg335
S'c:/marmalade/7.4/s3e/h/s3eDebug.h'
p2348
sbsS'socket.h'
p2349
g309
(g1667
g311
Ntp2350
Rp2351
(dp2352
g1671
g1684
sg1672
g1865
sg335
S'c:/marmalade/7.4/s3e/h/std/sys/socket.h'
p2353
sbsS'glext.h'
p2354
g309
(g1667
g311
Ntp2355
Rp2356
(dp2357
g1671
g1684
sg1672
g2090
sg335
S'c:/marmalade/7.4/s3e/h/GLES/glext.h'
p2358
sbsS'netdb.h'
p2359
g309
(g1667
g311
Ntp2360
Rp2361
(dp2362
g1671
g1684
sg1672
g1706
sg335
S'c:/marmalade/7.4/s3e/h/std/netdb.h'
p2363
sbsS'unistd.h'
p2364
g309
(g1667
g311
Ntp2365
Rp2366
(dp2367
g1671
g1684
sg1672
g1706
sg335
S'c:/marmalade/7.4/s3e/h/std/unistd.h'
p2368
sbsS'typeinfo.h'
p2369
g309
(g1667
g311
Ntp2370
Rp2371
(dp2372
g1671
g1684
sg1672
g1685
sg335
S'c:/marmalade/7.4/s3e/h/std/c++/typeinfo.h'
p2373
sbsS'typeinfo'
p2374
g309
(g1667
g311
Ntp2375
Rp2376
(dp2377
g1671
g1684
sg1672
g1685
sg335
S'c:/marmalade/7.4/s3e/h/std/c++/typeinfo'
p2378
sbsS'fstream.h'
p2379
g309
(g1667
g311
Ntp2380
Rp2381
(dp2382
g1671
g1684
sg1672
g1685
sg335
S'c:/marmalade/7.4/s3e/h/std/c++/fstream.h'
p2383
sbsS'b2Rope.cpp'
p2384
g309
(g1667
g311
Ntp2385
Rp2386
(dp2387
g1671
g1105
sg1672
(lp2388
g1101
ag1106
asg335
g1110
sbsS's3ePointer.h'
p2389
g309
(g1667
g311
Ntp2390
Rp2391
(dp2392
g1671
g1684
sg1672
g1855
sg335
S'c:/marmalade/7.4/s3e/h/s3ePointer.h'
p2393
sbsS'iw2d.mkf'
p2394
g309
(g1667
g311
Ntp2395
Rp2396
(dp2397
g1671
g1347
sg1672
(lp2398
S"'Marmalade Studio'"
p2399
ag1340
asg335
g1345
sbsS'box2d.mkf'
p2400
g309
(g1667
g311
Ntp2401
Rp2402
(dp2403
g1671
g1190
sg1672
(lp2404
g1101
asg335
g1188
sbsS'b2EdgeShape.cpp'
p2405
g309
(g1667
g311
Ntp2406
Rp2407
(dp2408
g1671
g1105
sg1672
g1797
sg335
g1136
sbsS's3eGL.h'
p2409
g309
(g1667
g311
Ntp2410
Rp2411
(dp2412
g1671
g1684
sg1672
g1855
sg335
S'c:/marmalade/7.4/s3e/h/s3eGL.h'
p2413
sbsS'IwGeomFVec2.h'
p2414
g309
(g1667
g311
Ntp2415
Rp2416
(dp2417
g1671
g1384
sg1672
g1694
sg335
g1410
sbsS'IwGeomSVec4.h'
p2418
g309
(g1667
g311
Ntp2419
Rp2420
(dp2421
g1671
g1384
sg1672
g1694
sg335
g1408
sbsS'iwgx_legacy.mkf'
p2422
g309
(g1667
g311
Ntp2423
Rp2424
(dp2425
g1671
g1522
sg1672
g1845
sg335
g1520
sbsS'poll.h'
p2426
g309
(g1667
g311
Ntp2427
Rp2428
(dp2429
g1671
g1684
sg1672
g1706
sg335
S'c:/marmalade/7.4/s3e/h/std/poll.h'
p2430
sbsS'IwMatAnim.h'
p2431
g309
(g1667
g311
Ntp2432
Rp2433
(dp2434
g1671
g1487
sg1672
g1845
sg335
g1494
sbsS'b2EdgeAndPolygonContact.cpp'
p2435
g309
(g1667
g311
Ntp2436
Rp2437
(dp2438
g1671
g1105
sg1672
g1820
sg335
g1227
sbsS'IwGeomFVec4.h'
p2439
g309
(g1667
g311
Ntp2440
Rp2441
(dp2442
g1671
g1384
sg1672
g1694
sg335
g1402
sbsS'IwGx.h'
p2443
g309
(g1667
g311
Ntp2444
Rp2445
(dp2446
g1671
g1487
sg1672
g1845
sg335
g1485
sbsS'valarray'
p2447
g309
(g1667
g311
Ntp2448
Rp2449
(dp2450
g1671
g1684
sg1672
g1685
sg335
S'c:/marmalade/7.4/s3e/h/std/c++/valarray'
p2451
sbsS'iosfwd'
p2452
g309
(g1667
g311
Ntp2453
Rp2454
(dp2455
g1671
g1684
sg1672
g1685
sg335
S'c:/marmalade/7.4/s3e/h/std/c++/iosfwd'
p2456
sbsS'gl2.h'
p2457
g309
(g1667
g311
Ntp2458
Rp2459
(dp2460
g1671
g1684
sg1672
g1986
sg335
S'c:/marmalade/7.4/s3e/h/GLES2/gl2.h'
p2461
sbsS'IwGxRenderSW.h'
p2462
g309
(g1667
g311
Ntp2463
Rp2464
(dp2465
g1671
g1487
sg1672
g1845
sg335
g1533
sbsS'jpegint.h'
p2466
g309
(g1667
g311
Ntp2467
Rp2468
(dp2469
g1671
g1061
sg1672
g1775
sg335
g1084
sbsS'b2Joint.h'
p2470
g309
(g1667
g311
Ntp2471
Rp2472
(dp2473
g1671
g1105
sg1672
g1700
sg335
g1253
sbsS'stdiostream.h'
p2474
g309
(g1667
g311
Ntp2475
Rp2476
(dp2477
g1671
g1684
sg1672
g1685
sg335
S'c:/marmalade/7.4/s3e/h/std/c++/stdiostream.h'
p2478
sbsS'mem.h'
p2479
g309
(g1667
g311
Ntp2480
Rp2481
(dp2482
g1671
g1684
sg1672
g1685
sg335
S'c:/marmalade/7.4/s3e/h/std/c++/mem.h'
p2483
sbsS'jerror.h'
p2484
g309
(g1667
g311
Ntp2485
Rp2486
(dp2487
g1671
g1061
sg1672
g1775
sg335
g1059
sbsS'zconf.h'
p2488
g309
(g1667
g311
Ntp2489
Rp2490
(dp2491
g1671
g1653
sg1672
(lp2492
g1648
ag1057
asg335
g1651
sbsS's3e.config.txt'
p2493
g309
(g1667
g311
Ntp2494
Rp2495
(dp2496
g1671
g1684
sg1672
g1855
sg335
S'c:/marmalade/7.4/s3e/s3e.config.txt'
p2497
sbsS'numeric'
p2498
g309
(g1667
g311
Ntp2499
Rp2500
(dp2501
g1671
g1684
sg1672
g1685
sg335
S'c:/marmalade/7.4/s3e/h/std/c++/numeric'
p2502
sbsS'utime.h'
p2503
g309
(g1667
g311
Ntp2504
Rp2505
(dp2506
g1671
g1684
sg1672
g1706
sg335
S'c:/marmalade/7.4/s3e/h/std/utime.h'
p2507
sbsS'b2Body.cpp'
p2508
g309
(g1667
g311
Ntp2509
Rp2510
(dp2511
g1671
g1105
sg1672
g1673
sg335
g1287
sbsS'jdhuff.h'
p2512
g309
(g1667
g311
Ntp2513
Rp2514
(dp2515
g1671
g1061
sg1672
g1775
sg335
g1082
sbsS'b2Body.h'
p2516
g309
(g1667
g311
Ntp2517
Rp2518
(dp2519
g1671
g1105
sg1672
g1673
sg335
g1289
sbsS'b2PolygonContact.cpp'
p2520
g309
(g1667
g311
Ntp2521
Rp2522
(dp2523
g1671
g1105
sg1672
g1820
sg335
g1219
sbsS'stdio.h'
p2524
g309
(g1667
g311
Ntp2525
Rp2526
(dp2527
g1671
g1684
sg1672
g1706
sg335
S'c:/marmalade/7.4/s3e/h/std/stdio.h'
p2528
sbsS'b2WeldJoint.cpp'
p2529
g309
(g1667
g311
Ntp2530
Rp2531
(dp2532
g1671
g1105
sg1672
g1700
sg335
g1277
sbsS'IwImage.h'
p2533
g309
(g1667
g311
Ntp2534
Rp2535
(dp2536
g1671
g1548
sg1672
g1717
sg335
g1603
sbsS's3eImagePicker.h'
p2537
g309
(g1667
g311
Ntp2538
Rp2539
(dp2540
g1671
g1684
sg1672
g1946
sg335
S'c:/marmalade/7.4/s3e/h/ext/s3eImagePicker.h'
p2541
sbsS'stdlib.h'
p2542
g309
(g1667
g311
Ntp2543
Rp2544
(dp2545
g1671
g1684
sg1672
g1706
sg335
S'c:/marmalade/7.4/s3e/h/std/stdlib.h'
p2546
sbsS'IwCopyingPtr.h'
p2547
g309
(g1667
g311
Ntp2548
Rp2549
(dp2550
g1671
g1548
sg1672
g1717
sg335
g1553
sbsS'iostream'
p2551
g309
(g1667
g311
Ntp2552
Rp2553
(dp2554
g1671
g1684
sg1672
g1685
sg335
S'c:/marmalade/7.4/s3e/h/std/c++/iostream'
p2555
sbsS'png.h'
p2556
g309
(g1667
g311
Ntp2557
Rp2558
(dp2559
g1671
g1317
sg1672
(lp2560
g1312
ag1057
asg335
g1315
sbsS'b2Contact.h'
p2561
g309
(g1667
g311
Ntp2562
Rp2563
(dp2564
g1671
g1105
sg1672
g1820
sg335
g1235
sbsS'stddef.h'
p2565
g309
(g1667
g311
Ntp2566
Rp2567
(dp2568
g1671
g1684
sg1672
g1706
sg335
S'c:/marmalade/7.4/s3e/h/std/stddef.h'
p2569
sbsS'setjmp_win32.h'
p2570
g309
(g1667
g311
Ntp2571
Rp2572
(dp2573
g1671
g1684
sg1672
g1706
sg335
S'c:/marmalade/7.4/s3e/h/std/setjmp_win32.h'
p2574
sbsS'IwGxPrint.h'
p2575
g309
(g1667
g311
Ntp2576
Rp2577
(dp2578
g1671
g1487
sg1672
g1845
sg335
g1506
sbsS'iwgx_public.defines.txt'
p2579
g309
(g1667
g311
Ntp2580
Rp2581
(dp2582
g1671
g1487
sg1672
g1845
sg335
g1523
sbsS'streambuf.h'
p2583
g309
(g1667
g311
Ntp2584
Rp2585
(dp2586
g1671
g1684
sg1672
g1685
sg335
S'c:/marmalade/7.4/s3e/h/std/c++/streambuf.h'
p2587
sbsS'IwGeomFPlane.h'
p2588
g309
(g1667
g311
Ntp2589
Rp2590
(dp2591
g1671
g1384
sg1672
g1694
sg335
g1450
sbsS'b2PolygonAndCircleContact.cpp'
p2592
g309
(g1667
g311
Ntp2593
Rp2594
(dp2595
g1671
g1105
sg1672
g1820
sg335
g1223
sbsS'un.h'
p2596
g309
(g1667
g311
Ntp2597
Rp2598
(dp2599
g1671
g1684
sg1672
g1865
sg335
S'c:/marmalade/7.4/s3e/h/std/sys/un.h'
p2600
sbsS'wchar.h'
p2601
g309
(g1667
g311
Ntp2602
Rp2603
(dp2604
g1671
g1684
sg1672
g1706
sg335
S'c:/marmalade/7.4/s3e/h/std/wchar.h'
p2605
sbsS's3eCameraCapture.h'
p2606
g309
(g1667
g311
Ntp2607
Rp2608
(dp2609
g1671
g1684
sg1672
g1946
sg335
S'c:/marmalade/7.4/s3e/h/ext/s3eCameraCapture.h'
p2610
sbsS'eglext.h'
p2611
g309
(g1667
g311
Ntp2612
Rp2613
(dp2614
g1671
g1684
sg1672
g2082
sg335
S'c:/marmalade/7.4/s3e/h/EGL/eglext.h'
p2615
sbsS'b2GearJoint.h'
p2616
g309
(g1667
g311
Ntp2617
Rp2618
(dp2619
g1671
g1105
sg1672
g1700
sg335
g1257
sbsS'strstream.h'
p2620
g309
(g1667
g311
Ntp2621
Rp2622
(dp2623
g1671
g1684
sg1672
g1685
sg335
S'c:/marmalade/7.4/s3e/h/std/c++/strstream.h'
p2624
sbsS'tiniconv.h'
p2625
g309
(g1667
g311
Ntp2626
Rp2627
(dp2628
g1671
g1095
sg1672
g2221
sg335
g1099
sbsS'IwGLExt.h'
p2629
g309
(g1667
g311
Ntp2630
Rp2631
(dp2632
g1671
g1335
sg1672
g1826
sg335
g1336
sbsS'b2EdgeAndCircleContact.cpp'
p2633
g309
(g1667
g311
Ntp2634
Rp2635
(dp2636
g1671
g1105
sg1672
g1820
sg335
g1233
sbsS'app.icf'
p2637
g309
(g1667
g311
Ntp2638
Rp2639
(dp2640
g1671
(dp2641
sg1672
g4
sg335
S'c:/Users/Ben/Desktop/FYP/FinalYearProject/box2d/heybox2d/data/app.icf'
p2642
sbsS'IwClassFactory.h'
p2643
g309
(g1667
g311
Ntp2644
Rp2645
(dp2646
g1671
g1548
sg1672
g1717
sg335
g1581
sbsS'file.h'
p2647
g309
(g1667
g311
Ntp2648
Rp2649
(dp2650
g1671
g1684
sg1672
g1865
sg335
S'c:/marmalade/7.4/s3e/h/std/sys/file.h'
p2651
sbsS'b2Timer.h'
p2652
g309
(g1667
g311
Ntp2653
Rp2654
(dp2655
g1671
g1105
sg1672
g2125
sg335
g1176
sbsS'cstring'
p2656
g309
(g1667
g311
Ntp2657
Rp2658
(dp2659
g1671
g1684
sg1672
g1685
sg335
S'c:/marmalade/7.4/s3e/h/std/c++/cstring'
p2660
sbsS'b2Collision.h'
p2661
g309
(g1667
g311
Ntp2662
Rp2663
(dp2664
g1671
g1105
sg1672
g1770
sg335
g1158
sbsS'iwutil.config.txt'
p2665
g309
(g1667
g311
Ntp2666
Rp2667
(dp2668
g1671
g1548
sg1672
g1717
sg335
g1615
sbsS's3eSMS.h'
p2669
g309
(g1667
g311
Ntp2670
Rp2671
(dp2672
g1671
g1684
sg1672
g1946
sg335
S'c:/marmalade/7.4/s3e/h/ext/s3eSMS.h'
p2673
sbsS'limits.h'
p2674
g309
(g1667
g311
Ntp2675
Rp2676
(dp2677
g1671
g1684
sg1672
g1706
sg335
S'c:/marmalade/7.4/s3e/h/std/limits.h'
p2678
sbsS'b2ChainAndPolygonContact.h'
p2679
g309
(g1667
g311
Ntp2680
Rp2681
(dp2682
g1671
g1105
sg1672
g1820
sg335
g1205
sbsS'iwgl.config.txt'
p2683
g309
(g1667
g311
Ntp2684
Rp2685
(dp2686
g1671
g1335
sg1672
g1826
sg335
g1333
sbsS'IwMaterial.h'
p2687
g309
(g1667
g311
Ntp2688
Rp2689
(dp2690
g1671
g1487
sg1672
g1845
sg335
g1492
sbsS'b2ContactManager.cpp'
p2691
g309
(g1667
g311
Ntp2692
Rp2693
(dp2694
g1671
g1105
sg1672
g1673
sg335
g1291
sbsS'IwGxSurface.h'
p2695
g309
(g1667
g311
Ntp2696
Rp2697
(dp2698
g1671
g1487
sg1672
g1845
sg335
g1510
sbsS's3eSocket.h'
p2699
g309
(g1667
g311
Ntp2700
Rp2701
(dp2702
g1671
g1684
sg1672
g1855
sg335
S'c:/marmalade/7.4/s3e/h/s3eSocket.h'
p2703
sbsS'IwAutoFile.h'
p2704
g309
(g1667
g311
Ntp2705
Rp2706
(dp2707
g1671
g1548
sg1672
g1717
sg335
g1634
sbsS'ipc.h'
p2708
g309
(g1667
g311
Ntp2709
Rp2710
(dp2711
g1671
g1684
sg1672
g1865
sg335
S'c:/marmalade/7.4/s3e/h/std/sys/ipc.h'
p2712
sbsS'poll_1.h'
p2713
g309
(g1667
g311
Ntp2714
Rp2715
(dp2716
g1671
g1684
sg1672
g1865
sg335
S'c:/marmalade/7.4/s3e/h/std/sys/poll.h'
p2717
sbsS's3eThread.h'
p2718
g309
(g1667
g311
Ntp2719
Rp2720
(dp2721
g1671
g1684
sg1672
g1855
sg335
S'c:/marmalade/7.4/s3e/h/s3eThread.h'
p2722
sbsS'ucontext.h'
p2723
g309
(g1667
g311
Ntp2724
Rp2725
(dp2726
g1671
g1684
sg1672
g1706
sg335
S'c:/marmalade/7.4/s3e/h/std/ucontext.h'
p2727
sbsS'time.h'
p2728
g309
(g1667
g311
Ntp2729
Rp2730
(dp2731
g1671
g1684
sg1672
g1706
sg335
S'c:/marmalade/7.4/s3e/h/std/time.h'
p2732
sbsS'jchuff.h'
p2733
g309
(g1667
g311
Ntp2734
Rp2735
(dp2736
g1671
g1061
sg1672
g1775
sg335
g1064
sbsS's3eSoundRecord.h'
p2737
g309
(g1667
g311
Ntp2738
Rp2739
(dp2740
g1671
g1684
sg1672
g1855
sg335
S'c:/marmalade/7.4/s3e/h/s3eSoundRecord.h'
p2741
sbsS'IwFibre.h'
p2742
g309
(g1667
g311
Ntp2743
Rp2744
(dp2745
g1671
g1548
sg1672
g1717
sg335
g1623
sbsS's3eVersion.h'
p2746
g309
(g1667
g311
Ntp2747
Rp2748
(dp2749
g1671
g1684
sg1672
g1855
sg335
S'c:/marmalade/7.4/s3e/h/s3eVersion.h'
p2750
sbsS'b2TimeStep.h'
p2751
g309
(g1667
g311
Ntp2752
Rp2753
(dp2754
g1671
g1105
sg1672
g1673
sg335
g1305
sbsS'b2BroadPhase.h'
p2755
g309
(g1667
g311
Ntp2756
Rp2757
(dp2758
g1671
g1105
sg1672
g1770
sg335
g1146
sbsS'b2Shape.h'
p2759
g309
(g1667
g311
Ntp2760
Rp2761
(dp2762
g1671
g1105
sg1672
g1797
sg335
g1128
sbsS'IwGxFontGlyph.h'
p2763
g309
(g1667
g311
Ntp2764
Rp2765
(dp2766
g1671
g1359
sg1672
g1678
sg335
g1378
sbsS'b2ChainAndCircleContact.h'
p2767
g309
(g1667
g311
Ntp2768
Rp2769
(dp2770
g1671
g1105
sg1672
g1820
sg335
g1217
sbsS's3eTypes.h'
p2771
g309
(g1667
g311
Ntp2772
Rp2773
(dp2774
g1671
g1684
sg1672
g1855
sg335
S'c:/marmalade/7.4/s3e/h/s3eTypes.h'
p2775
sbsS'signal_2.h'
p2776
g309
(g1667
g311
Ntp2777
Rp2778
(dp2779
g1671
g1684
sg1672
g1685
sg335
S'c:/marmalade/7.4/s3e/h/std/c++/signal.h'
p2780
sbsS'termios.h'
p2781
g309
(g1667
g311
Ntp2782
Rp2783
(dp2784
g1671
g1684
sg1672
g1706
sg335
S'c:/marmalade/7.4/s3e/h/std/termios.h'
p2785
sbsS'b2BroadPhase.cpp'
p2786
g309
(g1667
g311
Ntp2787
Rp2788
(dp2789
g1671
g1105
sg1672
g1770
sg335
g1150
sbsS'b2CollideEdge.cpp'
p2790
g309
(g1667
g311
Ntp2791
Rp2792
(dp2793
g1671
g1105
sg1672
g1770
sg335
g1154
sbsS'slist'
p2794
g309
(g1667
g311
Ntp2795
Rp2796
(dp2797
g1671
g1684
sg1672
g1685
sg335
S'c:/marmalade/7.4/s3e/h/std/c++/slist'
p2798
sbsS'cstdlib'
p2799
g309
(g1667
g311
Ntp2800
Rp2801
(dp2802
g1671
g1684
sg1672
g1685
sg335
S'c:/marmalade/7.4/s3e/h/std/c++/cstdlib'
p2803
sbsS's3eLocation.h'
p2804
g309
(g1667
g311
Ntp2805
Rp2806
(dp2807
g1671
g1684
sg1672
g1855
sg335
S'c:/marmalade/7.4/s3e/h/s3eLocation.h'
p2808
sbsS'IwMemBucketHelpers.h'
p2809
g309
(g1667
g311
Ntp2810
Rp2811
(dp2812
g1671
g1548
sg1672
g1717
sg335
g1595
sbsS's3eHash.h'
p2813
g309
(g1667
g311
Ntp2814
Rp2815
(dp2816
g1671
g1684
sg1672
g1855
sg335
S'c:/marmalade/7.4/s3e/h/s3eHash.h'
p2817
sbsS'IwGeomFMat.h'
p2818
g309
(g1667
g311
Ntp2819
Rp2820
(dp2821
g1671
g1384
sg1672
g1694
sg335
g1452
sbsS'type_traits.h'
p2822
g309
(g1667
g311
Ntp2823
Rp2824
(dp2825
g1671
g1684
sg1672
g1685
sg335
S'c:/marmalade/7.4/s3e/h/std/c++/type_traits.h'
p2826
sbsS'b2BlockAllocator.cpp'
p2827
g309
(g1667
g311
Ntp2828
Rp2829
(dp2830
g1671
g1105
sg1672
g2125
sg335
g1180
sbsS'IwMenu.h'
p2831
g309
(g1667
g311
Ntp2832
Rp2833
(dp2834
g1671
g1548
sg1672
g1717
sg335
g1549
sbsS'IwResHandlerITX.h'
p2835
g309
(g1667
g311
Ntp2836
Rp2837
(dp2838
g1671
g1460
sg1672
g1994
sg335
g1458
sbsS'IwArray.h'
p2839
g309
(g1667
g311
Ntp2840
Rp2841
(dp2842
g1671
g1548
sg1672
g1717
sg335
g1613
sbsS'IwUTF8.h'
p2843
g309
(g1667
g311
Ntp2844
Rp2845
(dp2846
g1671
g1548
sg1672
g1717
sg335
g1617
sbsS'math_rvct.h'
p2847
g309
(g1667
g311
Ntp2848
Rp2849
(dp2850
g1671
g1684
sg1672
g1706
sg335
S'c:/marmalade/7.4/s3e/h/std/math_rvct.h'
p2851
sbsS'IwUtil.h'
p2852
g309
(g1667
g311
Ntp2853
Rp2854
(dp2855
g1671
g1548
sg1672
g1717
sg335
g1638
sbsS'b2MouseJoint.h'
p2856
g309
(g1667
g311
Ntp2857
Rp2858
(dp2859
g1671
g1105
sg1672
g1700
sg335
g1255
sbsS'wctype.h'
p2860
g309
(g1667
g311
Ntp2861
Rp2862
(dp2863
g1671
g1684
sg1672
g1706
sg335
S'c:/marmalade/7.4/s3e/h/std/wctype.h'
p2864
sbsS'b2RevoluteJoint.h'
p2865
g309
(g1667
g311
Ntp2866
Rp2867
(dp2868
g1671
g1105
sg1672
g1700
sg335
g1263
sbsS'b2Island.cpp'
p2869
g309
(g1667
g311
Ntp2870
Rp2871
(dp2872
g1671
g1105
sg1672
g1673
sg335
g1197
sbsS'cstddef'
p2873
g309
(g1667
g311
Ntp2874
Rp2875
(dp2876
g1671
g1684
sg1672
g1685
sg335
S'c:/marmalade/7.4/s3e/h/std/c++/cstddef'
p2877
sbsS'assert.h'
p2878
g309
(g1667
g311
Ntp2879
Rp2880
(dp2881
g1671
g1684
sg1672
g1706
sg335
S'c:/marmalade/7.4/s3e/h/std/assert.h'
p2882
sbsS'mman.h'
p2883
g309
(g1667
g311
Ntp2884
Rp2885
(dp2886
g1671
g1684
sg1672
g1865
sg335
S'c:/marmalade/7.4/s3e/h/std/sys/mman.h'
p2887
sbsS'IwRandom.h'
p2888
g309
(g1667
g311
Ntp2889
Rp2890
(dp2891
g1671
g1548
sg1672
g1717
sg335
g1561
sbsS'libgen.h'
p2892
g309
(g1667
g311
Ntp2893
Rp2894
(dp2895
g1671
g1684
sg1672
g1706
sg335
S'c:/marmalade/7.4/s3e/h/std/libgen.h'
p2896
sbsS'utsname.h'
p2897
g309
(g1667
g311
Ntp2898
Rp2899
(dp2900
g1671
g1684
sg1672
g1865
sg335
S'c:/marmalade/7.4/s3e/h/std/sys/utsname.h'
p2901
sbsS'wait.h'
p2902
g309
(g1667
g311
Ntp2903
Rp2904
(dp2905
g1671
g1684
sg1672
g1865
sg335
S'c:/marmalade/7.4/s3e/h/std/sys/wait.h'
p2906
sbsS'b2TimeOfImpact.h'
p2907
g309
(g1667
g311
Ntp2908
Rp2909
(dp2910
g1671
g1105
sg1672
g1770
sg335
g1114
sbsS'b2StackAllocator.h'
p2911
g309
(g1667
g311
Ntp2912
Rp2913
(dp2914
g1671
g1105
sg1672
g2125
sg335
g1170
sbsS'param.h'
p2915
g309
(g1667
g311
Ntp2916
Rp2917
(dp2918
g1671
g1684
sg1672
g1865
sg335
S'c:/marmalade/7.4/s3e/h/std/sys/param.h'
p2919
sbsS'b2FrictionJoint.cpp'
p2920
g309
(g1667
g311
Ntp2921
Rp2922
(dp2923
g1671
g1105
sg1672
g1700
sg335
g1243
sbsS'IwDivide.h'
p2924
g309
(g1667
g311
Ntp2925
Rp2926
(dp2927
g1671
g1548
sg1672
g1717
sg335
g1609
sbsS'b2Fixture.cpp'
p2928
g309
(g1667
g311
Ntp2929
Rp2930
(dp2931
g1671
g1105
sg1672
g1673
sg335
g1301
sbsS'b2Rope.h'
p2932
g309
(g1667
g311
Ntp2933
Rp2934
(dp2935
g1671
g1105
sg1672
g2388
sg335
g1108
sbsS'IwResManager.h'
p2936
g309
(g1667
g311
Ntp2937
Rp2938
(dp2939
g1671
g1460
sg1672
g1994
sg335
g1473
sbsS'ostream'
p2940
g309
(g1667
g311
Ntp2941
Rp2942
(dp2943
g1671
g1684
sg1672
g1685
sg335
S'c:/marmalade/7.4/s3e/h/std/c++/ostream'
p2944
sbsS'cwctype'
p2945
g309
(g1667
g311
Ntp2946
Rp2947
(dp2948
g1671
g1684
sg1672
g1685
sg335
S'c:/marmalade/7.4/s3e/h/std/c++/cwctype'
p2949
sbsS'Box2D.h'
p2950
g309
(g1667
g311
Ntp2951
Rp2952
(dp2953
g1671
g1105
sg1672
g2404
sg335
g1103
sbsS'set'
p2954
g309
(g1667
g311
Ntp2955
Rp2956
(dp2957
g1671
g1684
sg1672
g1685
sg335
S'c:/marmalade/7.4/s3e/h/std/c++/set'
p2958
sbsS'IwGeomSQuat.h'
p2959
g309
(g1667
g311
Ntp2960
Rp2961
(dp2962
g1671
g1384
sg1672
g1694
sg335
g1428
sbsS'locale'
p2963
g309
(g1667
g311
Ntp2964
Rp2965
(dp2966
g1671
g1684
sg1672
g1685
sg335
S'c:/marmalade/7.4/s3e/h/std/c++/locale'
p2967
sbsS'cstdio'
p2968
g309
(g1667
g311
Ntp2969
Rp2970
(dp2971
g1671
g1684
sg1672
g1685
sg335
S'c:/marmalade/7.4/s3e/h/std/c++/cstdio'
p2972
sbsS'cdjpeg.h'
p2973
g309
(g1667
g311
Ntp2974
Rp2975
(dp2976
g1671
g1061
sg1672
g1775
sg335
g1068
sbsS'IwList.h'
p2977
g309
(g1667
g311
Ntp2978
Rp2979
(dp2980
g1671
g1548
sg1672
g1717
sg335
g1577
sbsS'inttypes.h'
p2981
g309
(g1667
g311
Ntp2982
Rp2983
(dp2984
g1671
g1684
sg1672
g1706
sg335
S'c:/marmalade/7.4/s3e/h/std/inttypes.h'
p2985
sbsS'b2PulleyJoint.cpp'
p2986
g309
(g1667
g311
Ntp2987
Rp2988
(dp2989
g1671
g1105
sg1672
g1700
sg335
g1271
sbsS'dirent.h'
p2990
g309
(g1667
g311
Ntp2991
Rp2992
(dp2993
g1671
g1684
sg1672
g1706
sg335
S'c:/marmalade/7.4/s3e/h/std/dirent.h'
p2994
sbsS'IwGeomVec3.h'
p2995
g309
(g1667
g311
Ntp2996
Rp2997
(dp2998
g1671
g1384
sg1672
g1694
sg335
g1422
sbsS'transupp.h'
p2999
g309
(g1667
g311
Ntp3000
Rp3001
(dp3002
g1671
g1061
sg1672
g1775
sg335
g1080
sbsS'IwMath.h'
p3003
g309
(g1667
g311
Ntp3004
Rp3005
(dp3006
g1671
g1548
sg1672
g1717
sg335
g1621
sbsS'IwGeomQuat.h'
p3007
g309
(g1667
g311
Ntp3008
Rp3009
(dp3010
g1671
g1384
sg1672
g1694
sg335
g1404
sbsS'b2CircleShape.h'
p3011
g309
(g1667
g311
Ntp3012
Rp3013
(dp3014
g1671
g1105
sg1672
g1797
sg335
g1132
sbsS'glplatform.h'
p3015
g309
(g1667
g311
Ntp3016
Rp3017
(dp3018
g1671
g1684
sg1672
g2090
sg335
S'c:/marmalade/7.4/s3e/h/GLES/glplatform.h'
p3019
sbsS's3e-default.mkf'
p3020
g309
(g1667
g311
Ntp3021
Rp3022
(dp3023
g1671
g1663
sg1672
(lp3024
g1659
asg335
g1661
sbsS'bitset'
p3025
g309
(g1667
g311
Ntp3026
Rp3027
(dp3028
g1671
g1684
sg1672
g1685
sg335
S'c:/marmalade/7.4/s3e/h/std/c++/bitset'
p3029
sbsS'alloca.h'
p3030
g309
(g1667
g311
Ntp3031
Rp3032
(dp3033
g1671
g1684
sg1672
g1706
sg335
S'c:/marmalade/7.4/s3e/h/std/alloca.h'
p3034
sbsS'IwChar.h'
p3035
g309
(g1667
g311
Ntp3036
Rp3037
(dp3038
g1671
g1548
sg1672
g1717
sg335
g1599
sbsS'IwResHandlerMTL.h'
p3039
g309
(g1667
g311
Ntp3040
Rp3041
(dp3042
g1671
g1487
sg1672
g1845
sg335
g1504
sbsS'IwRuntime.h'
p3043
g309
(g1667
g311
Ntp3044
Rp3045
(dp3046
g1671
g1548
sg1672
g1717
sg335
g1593
sbsS'limits'
p3047
g309
(g1667
g311
Ntp3048
Rp3049
(dp3050
g1671
g1684
sg1672
g1685
sg335
S'c:/marmalade/7.4/s3e/h/std/c++/limits'
p3051
sbsS'IwGeomBBox.h'
p3052
g309
(g1667
g311
Ntp3053
Rp3054
(dp3055
g1671
g1384
sg1672
g1694
sg335
g1434
sbsS's3eContacts.h'
p3056
g309
(g1667
g311
Ntp3057
Rp3058
(dp3059
g1671
g1684
sg1672
g1855
sg335
S'c:/marmalade/7.4/s3e/h/s3eContacts.h'
p3060
sbsS's3eLicense.h'
p3061
g309
(g1667
g311
Ntp3062
Rp3063
(dp3064
g1671
g1684
sg1672
g1855
sg335
S'c:/marmalade/7.4/s3e/h/s3eLicense.h'
p3065
sbsS'iwgx.config.txt'
p3066
g309
(g1667
g311
Ntp3067
Rp3068
(dp3069
g1671
g1487
sg1672
g1845
sg335
g1496
sbsS'IwTextParser.h'
p3070
g309
(g1667
g311
Ntp3071
Rp3072
(dp3073
g1671
g1548
sg1672
g1717
sg335
g1546
sbsS's3eTimer.h'
p3074
g309
(g1667
g311
Ntp3075
Rp3076
(dp3077
g1671
g1684
sg1672
g1855
sg335
S'c:/marmalade/7.4/s3e/h/s3eTimer.h'
p3078
sbsS'IwGeomVec.h'
p3079
g309
(g1667
g311
Ntp3080
Rp3081
(dp3082
g1671
g1384
sg1672
g1694
sg335
g1412
sbsS'IwSerialise.h'
p3083
g309
(g1667
g311
Ntp3084
Rp3085
(dp3086
g1671
g1548
sg1672
g1717
sg335
g1579
sbsS'cstdarg'
p3087
g309
(g1667
g311
Ntp3088
Rp3089
(dp3090
g1671
g1684
sg1672
g1685
sg335
S'c:/marmalade/7.4/s3e/h/std/c++/cstdarg'
p3091
sbsS'gl2ext.h'
p3092
g309
(g1667
g311
Ntp3093
Rp3094
(dp3095
g1671
g1684
sg1672
g1986
sg335
S'c:/marmalade/7.4/s3e/h/GLES2/gl2ext.h'
p3096
sbsS'IwResHandler.h'
p3097
g309
(g1667
g311
Ntp3098
Rp3099
(dp3100
g1671
g1460
sg1672
g1994
sg335
g1477
sbsS'b2MouseJoint.cpp'
p3101
g309
(g1667
g311
Ntp3102
Rp3103
(dp3104
g1671
g1105
sg1672
g1700
sg335
g1269
sbsS's3eSound.h'
p3105
g309
(g1667
g311
Ntp3106
Rp3107
(dp3108
g1671
g1684
sg1672
g1855
sg335
S'c:/marmalade/7.4/s3e/h/s3eSound.h'
p3109
sbsS'b2PrismaticJoint.cpp'
p3110
g309
(g1667
g311
Ntp3111
Rp3112
(dp3113
g1671
g1105
sg1672
g1700
sg335
g1267
sbsS's3eIOSBackgroundAudio.h'
p3114
g309
(g1667
g311
Ntp3115
Rp3116
(dp3117
g1671
g1684
sg1672
g1946
sg335
S'c:/marmalade/7.4/s3e/h/ext/s3eIOSBackgroundAudio.h'
p3118
sbsS'b2DynamicTree.h'
p3119
g309
(g1667
g311
Ntp3120
Rp3121
(dp3122
g1671
g1105
sg1672
g1770
sg335
g1122
sbsS'iwgxfont_legacy.mkf'
p3123
g309
(g1667
g311
Ntp3124
Rp3125
(dp3126
g1671
g1364
sg1672
g1678
sg335
g1362
sbsS'iwgeom.config.txt'
p3127
g309
(g1667
g311
Ntp3128
Rp3129
(dp3130
g1671
g1384
sg1672
g1694
sg335
g1382
sbsS'iwgx.mkf'
p3131
g309
(g1667
g311
Ntp3132
Rp3133
(dp3134
g1671
g1539
sg1672
(lp3135
S"'Marmalade Studio'"
p3136
aS'iwgx'
p3137
asg335
g1537
sbsS'iw2d_legacy.mkf'
p3138
g309
(g1667
g311
Ntp3139
Rp3140
(dp3141
g1671
g1352
sg1672
g1780
sg335
g1350
sbsS'zlib.h'
p3142
g309
(g1667
g311
Ntp3143
Rp3144
(dp3145
g1671
g1653
sg1672
g2492
sg335
g1654
sbsS'temp_defines_release.h'
p3146
g309
(g1667
g311
Ntp3147
Rp3148
(dp3149
g1671
(lp3150
sg1672
(lp3151
S"'generated files'"
p3152
asg335
S'c:/Users/Ben/Desktop/FYP/FinalYearProject/box2d/heybox2d/build_heybox2d_vc11/temp_defines_release.h'
p3153
sbsS'iwgl.mkf'
p3154
g309
(g1667
g311
Ntp3155
Rp3156
(dp3157
g1671
g1332
sg1672
g1826
sg335
g1330
sbsS'IwResHandlerImage.h'
p3158
g309
(g1667
g311
Ntp3159
Rp3160
(dp3161
g1671
g1460
sg1672
g1994
sg335
g1463
sbsS'IwColour.h'
p3162
g309
(g1667
g311
Ntp3163
Rp3164
(dp3165
g1671
g1487
sg1672
g1845
sg335
g1535
sbsS'types.h'
p3166
g309
(g1667
g311
Ntp3167
Rp3168
(dp3169
g1671
g1684
sg1672
g1865
sg335
S'c:/marmalade/7.4/s3e/h/std/sys/types.h'
p3170
sbsS'ifaddrs.h'
p3171
g309
(g1667
g311
Ntp3172
Rp3173
(dp3174
g1671
g1684
sg1672
g1706
sg335
S'c:/marmalade/7.4/s3e/h/std/ifaddrs.h'
p3175
sbsS'b2CollidePolygon.cpp'
p3176
g309
(g1667
g311
Ntp3177
Rp3178
(dp3179
g1671
g1105
sg1672
g1770
sg335
g1118
sbsS'strstream'
p3180
g309
(g1667
g311
Ntp3181
Rp3182
(dp3183
g1671
g1684
sg1672
g1685
sg335
S'c:/marmalade/7.4/s3e/h/std/c++/strstream'
p3184
sbsS'b2ChainShape.h'
p3185
g309
(g1667
g311
Ntp3186
Rp3187
(dp3188
g1671
g1105
sg1672
g1797
sg335
g1138
sbsS'b2MotorJoint.cpp'
p3189
g309
(g1667
g311
Ntp3190
Rp3191
(dp3192
g1671
g1105
sg1672
g1700
sg335
g1247
sbsS'b2EdgeShape.h'
p3193
g309
(g1667
g311
Ntp3194
Rp3195
(dp3196
g1671
g1105
sg1672
g1797
sg335
g1130
sbsS'exception'
p3197
g309
(g1667
g311
Ntp3198
Rp3199
(dp3200
g1671
g1684
sg1672
g1685
sg335
S'c:/marmalade/7.4/s3e/h/std/c++/exception'
p3201
sbsS'rlocks.h'
p3202
g309
(g1667
g311
Ntp3203
Rp3204
(dp3205
g1671
g1684
sg1672
g1685
sg335
S'c:/marmalade/7.4/s3e/h/std/c++/rlocks.h'
p3206
sbsS'b2Settings.h'
p3207
g309
(g1667
g311
Ntp3208
Rp3209
(dp3210
g1671
g1105
sg1672
g2125
sg335
g1172
sbsS'ioctl.h'
p3211
g309
(g1667
g311
Ntp3212
Rp3213
(dp3214
g1671
g1684
sg1672
g1865
sg335
S'c:/marmalade/7.4/s3e/h/std/sys/ioctl.h'
p3215
sbsS'rope'
p3216
g309
(g1667
g311
Ntp3217
Rp3218
(dp3219
g1671
g1684
sg1672
g1685
sg335
S'c:/marmalade/7.4/s3e/h/std/c++/rope'
p3220
sbsS'b2GearJoint.cpp'
p3221
g309
(g1667
g311
Ntp3222
Rp3223
(dp3224
g1671
g1105
sg1672
g1700
sg335
g1273
sbsS'jinclude.h'
p3225
g309
(g1667
g311
Ntp3226
Rp3227
(dp3228
g1671
g1061
sg1672
g1775
sg335
g1070
sbsS'IwEvent.h'
p3229
g309
(g1667
g311
Ntp3230
Rp3231
(dp3232
g1671
g1548
sg1672
g1717
sg335
g1619
sbsS'IwOptimiseSize.h'
p3233
g309
(g1667
g311
Ntp3234
Rp3235
(dp3236
g1671
g1548
sg1672
g1717
sg335
g1646
sbsS'iwgxfont_public.defines.txt'
p3237
g309
(g1667
g311
Ntp3238
Rp3239
(dp3240
g1671
g1359
sg1672
g1678
sg335
g1374
sbsS'iconv.h'
p3241
g309
(g1667
g311
Ntp3242
Rp3243
(dp3244
g1671
g1684
sg1672
g1706
sg335
S'c:/marmalade/7.4/s3e/h/std/iconv.h'
p3245
sbsS'b2Distance.h'
p3246
g309
(g1667
g311
Ntp3247
Rp3248
(dp3249
g1671
g1105
sg1672
g1770
sg335
g1148
sbsS's3eDevice.h'
p3250
g309
(g1667
g311
Ntp3251
Rp3252
(dp3253
g1671
g1684
sg1672
g1855
sg335
S'c:/marmalade/7.4/s3e/h/s3eDevice.h'
p3254
sbsS'IwGeomSphere.h'
p3255
g309
(g1667
g311
Ntp3256
Rp3257
(dp3258
g1671
g1384
sg1672
g1694
sg335
g1440
sbsS'tiniconv.mkf'
p3259
g309
(g1667
g311
Ntp3260
Rp3261
(dp3262
g1671
g1098
sg1672
g2221
sg335
g1096
sbsS'b2WeldJoint.h'
p3263
g309
(g1667
g311
Ntp3264
Rp3265
(dp3266
g1671
g1105
sg1672
g1700
sg335
g1275
sbsS'jdct.h'
p3267
g309
(g1667
g311
Ntp3268
Rp3269
(dp3270
g1671
g1061
sg1672
g1775
sg335
g1076
sbsS'cctype'
p3271
g309
(g1667
g311
Ntp3272
Rp3273
(dp3274
g1671
g1684
sg1672
g1685
sg335
S'c:/marmalade/7.4/s3e/h/std/c++/cctype'
p3275
sbsS's3eConfig.h'
p3276
g309
(g1667
g311
Ntp3277
Rp3278
(dp3279
g1671
g1684
sg1672
g1855
sg335
S'c:/marmalade/7.4/s3e/h/s3eConfig.h'
p3280
sbsS'IwHashString.h'
p3281
g309
(g1667
g311
Ntp3282
Rp3283
(dp3284
g1671
g1548
sg1672
g1717
sg335
g1571
sbsS'stat.h'
p3285
g309
(g1667
g311
Ntp3286
Rp3287
(dp3288
g1671
g1684
sg1672
g1865
sg335
S'c:/marmalade/7.4/s3e/h/std/sys/stat.h'
p3289
sbsS'byteswap.h'
p3290
g309
(g1667
g311
Ntp3291
Rp3292
(dp3293
g1671
g1684
sg1672
g1706
sg335
S'c:/marmalade/7.4/s3e/h/std/byteswap.h'
p3294
sbsS'iwresmanager.mkf'
p3295
g309
(g1667
g311
Ntp3296
Rp3297
(dp3298
g1671
g1470
sg1672
(lp3299
S"'Marmalade Studio'"
p3300
aS'iwresmanager'
p3301
asg335
g1468
sbsS'b2ChainAndCircleContact.cpp'
p3302
g309
(g1667
g311
Ntp3303
Rp3304
(dp3305
g1671
g1105
sg1672
g1820
sg335
g1215
sbsS'IwUtilInitTerm.h'
p3306
g309
(g1667
g311
Ntp3307
Rp3308
(dp3309
g1671
g1548
sg1672
g1717
sg335
g1551
sbsS'pthread_1.h'
p3310
g309
(g1667
g311
Ntp3311
Rp3312
(dp3313
g1671
g1684
sg1672
g1685
sg335
S'c:/marmalade/7.4/s3e/h/std/c++/pthread.h'
p3314
sbsS'IwMemBucket.h'
p3315
g309
(g1667
g311
Ntp3316
Rp3317
(dp3318
g1671
g1548
sg1672
g1717
sg335
g1607
sbsS'complex'
p3319
g309
(g1667
g311
Ntp3320
Rp3321
(dp3322
g1671
g1684
sg1672
g1685
sg335
S'c:/marmalade/7.4/s3e/h/std/c++/complex'
p3323
sbsS'IwGxMotionBlur.h'
p3324
g309
(g1667
g311
Ntp3325
Rp3326
(dp3327
g1671
g1487
sg1672
g1845
sg335
g1512
sbsS'algorithm'
p3328
g309
(g1667
g311
Ntp3329
Rp3330
(dp3331
g1671
g1684
sg1672
g1685
sg335
S'c:/marmalade/7.4/s3e/h/std/c++/algorithm'
p3332
sbsS'b2RopeJoint.cpp'
p3333
g309
(g1667
g311
Ntp3334
Rp3335
(dp3336
g1671
g1105
sg1672
g1700
sg335
g1279
sbsS's3e.icf'
p3337
g309
(g1667
g311
Ntp3338
Rp3339
(dp3340
g1671
g1684
sg1672
g1855
sg335
S'c:/marmalade/7.4/s3e/s3e.icf'
p3341
sbsS'sem.h'
p3342
g309
(g1667
g311
Ntp3343
Rp3344
(dp3345
g1671
g1684
sg1672
g1865
sg335
S'c:/marmalade/7.4/s3e/h/std/sys/sem.h'
p3346
sbsS'IwGxFontState.h'
p3347
g309
(g1667
g311
Ntp3348
Rp3349
(dp3350
g1671
g1359
sg1672
g1678
sg335
g1376
sbsS'marmaladeexampleresources.mkf'
p3351
g309
(g1667
g311
Ntp3352
Rp3353
(dp3354
g1671
g1311
sg1672
(lp3355
g1307
asg335
g1309
sbsS'b2PolygonContact.h'
p3356
g309
(g1667
g311
Ntp3357
Rp3358
(dp3359
g1671
g1105
sg1672
g1820
sg335
g1201
sbsS'jmemsys.h'
p3360
g309
(g1667
g311
Ntp3361
Rp3362
(dp3363
g1671
g1061
sg1672
g1775
sg335
g1062
sbsS'ios'
p3364
g309
(g1667
g311
Ntp3365
Rp3366
(dp3367
g1671
g1684
sg1672
g1685
sg335
S'c:/marmalade/7.4/s3e/h/std/c++/ios'
p3368
sbsS'b2Island.h'
p3369
g309
(g1667
g311
Ntp3370
Rp3371
(dp3372
g1671
g1105
sg1672
g1673
sg335
g1303
sbsS'b2StackAllocator.cpp'
p3373
g309
(g1667
g311
Ntp3374
Rp3375
(dp3376
g1671
g1105
sg1672
g2125
sg335
g1178
sbsS'IwGxDrawSW.h'
p3377
g309
(g1667
g311
Ntp3378
Rp3379
(dp3380
g1671
g1487
sg1672
g1845
sg335
g1490
sbsS'stack'
p3381
g309
(g1667
g311
Ntp3382
Rp3383
(dp3384
g1671
g1684
sg1672
g1685
sg335
S'c:/marmalade/7.4/s3e/h/std/c++/stack'
p3385
sbsS'new.h'
p3386
g309
(g1667
g311
Ntp3387
Rp3388
(dp3389
g1671
g1684
sg1672
g1685
sg335
S'c:/marmalade/7.4/s3e/h/std/c++/new.h'
p3390
sbsS's3eEMail.h'
p3391
g309
(g1667
g311
Ntp3392
Rp3393
(dp3394
g1671
g1684
sg1672
g1946
sg335
S'c:/marmalade/7.4/s3e/h/ext/s3eEMail.h'
p3395
sbsS's3eVideo.h'
p3396
g309
(g1667
g311
Ntp3397
Rp3398
(dp3399
g1671
g1684
sg1672
g1855
sg335
S'c:/marmalade/7.4/s3e/h/s3eVideo.h'
p3400
sbsS'pngconf.h'
p3401
g309
(g1667
g311
Ntp3402
Rp3403
(dp3404
g1671
g1317
sg1672
g2560
sg335
g1318
sbsS'pwd.h'
p3405
g309
(g1667
g311
Ntp3406
Rp3407
(dp3408
g1671
g1684
sg1672
g1706
sg335
S'c:/marmalade/7.4/s3e/h/std/pwd.h'
p3409
sbsS'IwOptimiseThumb.h'
p3410
g309
(g1667
g311
Ntp3411
Rp3412
(dp3413
g1671
g1548
sg1672
g1717
sg335
g1636
sbsS'gl3.h'
p3414
g309
(g1667
g311
Ntp3415
Rp3416
(dp3417
g1671
g1684
sg1672
g2050
sg335
S'c:/marmalade/7.4/s3e/h/GLES3/gl3.h'
p3418
sbsS'b2GrowableStack.h'
p3419
g309
(g1667
g311
Ntp3420
Rp3421
(dp3422
g1671
g1105
sg1672
g2125
sg335
g1184
sbsS'IwClip.h'
p3423
g309
(g1667
g311
Ntp3424
Rp3425
(dp3426
g1671
g1487
sg1672
g1845
sg335
g1508
sbsS'iwresmanager.config.txt'
p3427
g309
(g1667
g311
Ntp3428
Rp3429
(dp3430
g1671
g1460
sg1672
g1994
sg335
g1479
sbsS'IwGxShaderTechnique.h'
p3431
g309
(g1667
g311
Ntp3432
Rp3433
(dp3434
g1671
g1487
sg1672
g1845
sg335
g1502
sbsS'IwCore.h'
p3435
g309
(g1667
g311
Ntp3436
Rp3437
(dp3438
g1671
g1548
sg1672
g1717
sg335
g1565
sbsS'cfloat'
p3439
g309
(g1667
g311
Ntp3440
Rp3441
(dp3442
g1671
g1684
sg1672
g1685
sg335
S'c:/marmalade/7.4/s3e/h/std/c++/cfloat'
p3443
sbsS'IwGeomMat2D.h'
p3444
g309
(g1667
g311
Ntp3445
Rp3446
(dp3447
g1671
g1384
sg1672
g1694
sg335
g1438
sbsS'IwAllocator.h'
p3448
g309
(g1667
g311
Ntp3449
Rp3450
(dp3451
g1671
g1548
sg1672
g1717
sg335
g1585
sbsS'IwPath.h'
p3452
g309
(g1667
g311
Ntp3453
Rp3454
(dp3455
g1671
g1548
sg1672
g1717
sg335
g1640
sbsS'iwgxfont.mkf'
p3456
g309
(g1667
g311
Ntp3457
Rp3458
(dp3459
g1671
g1371
sg1672
(lp3460
S"'Marmalade Studio'"
p3461
aS'iwgxfont'
p3462
asg335
g1369
sbsS'IwTexture.h'
p3463
g309
(g1667
g311
Ntp3464
Rp3465
(dp3466
g1671
g1487
sg1672
g1845
sg335
g1540
sbsS'IwGeomVec.h.tpl'
p3467
g309
(g1667
g311
Ntp3468
Rp3469
(dp3470
g1671
g1384
sg1672
g1694
sg335
g1392
sbsS's3eAccelerometer.h'
p3471
g309
(g1667
g311
Ntp3472
Rp3473
(dp3474
g1671
g1684
sg1672
g1855
sg335
S'c:/marmalade/7.4/s3e/h/s3eAccelerometer.h'
p3475
sbsS'setjmp.h'
p3476
g309
(g1667
g311
Ntp3477
Rp3478
(dp3479
g1671
g1684
sg1672
g1706
sg335
S'c:/marmalade/7.4/s3e/h/std/setjmp.h'
p3480
sbsS'b2WorldCallbacks.h'
p3481
g309
(g1667
g311
Ntp3482
Rp3483
(dp3484
g1671
g1105
sg1672
g1673
sg335
g1299
sbsS'b2Timer.cpp'
p3485
g309
(g1667
g311
Ntp3486
Rp3487
(dp3488
g1671
g1105
sg1672
g2125
sg335
g1168
sbsS'IwFile.h'
p3489
g309
(g1667
g311
Ntp3490
Rp3491
(dp3492
g1671
g1548
sg1672
g1717
sg335
g1591
sbsS'IwTextParseable.h'
p3493
g309
(g1667
g311
Ntp3494
Rp3495
(dp3496
g1671
g1548
sg1672
g1717
sg335
g1589
sbsS'istream.h'
p3497
g309
(g1667
g311
Ntp3498
Rp3499
(dp3500
g1671
g1684
sg1672
g1685
sg335
S'c:/marmalade/7.4/s3e/h/std/c++/istream.h'
p3501
sbsS'stdint.h'
p3502
g309
(g1667
g311
Ntp3503
Rp3504
(dp3505
g1671
g1684
sg1672
g1706
sg335
S'c:/marmalade/7.4/s3e/h/std/stdint.h'
p3506
sbsS'semaphore.h'
p3507
g309
(g1667
g311
Ntp3508
Rp3509
(dp3510
g1671
g1684
sg1672
g1706
sg335
S'c:/marmalade/7.4/s3e/h/std/semaphore.h'
p3511
sbsS'ctime'
p3512
g309
(g1667
g311
Ntp3513
Rp3514
(dp3515
g1671
g1684
sg1672
g1685
sg335
S'c:/marmalade/7.4/s3e/h/std/c++/ctime'
p3516
sbsS'sstream'
p3517
g309
(g1667
g311
Ntp3518
Rp3519
(dp3520
g1671
g1684
sg1672
g1685
sg335
S'c:/marmalade/7.4/s3e/h/std/c++/sstream'
p3521
sbsS'b2Draw.cpp'
p3522
g309
(g1667
g311
Ntp3523
Rp3524
(dp3525
g1671
g1105
sg1672
g2125
sg335
g1162
sbsS'IwGeomFBBox.h'
p3526
g309
(g1667
g311
Ntp3527
Rp3528
(dp3529
g1671
g1384
sg1672
g1694
sg335
g1406
sbsS'IwDebugPrim.h'
p3530
g309
(g1667
g311
Ntp3531
Rp3532
(dp3533
g1671
g1487
sg1672
g1845
sg335
g1516
sbsS'b2PolygonShape.h'
p3534
g309
(g1667
g311
Ntp3535
Rp3536
(dp3537
g1671
g1105
sg1672
g1797
sg335
g1140
sbsS'IwGxFontContainer.h'
p3538
g309
(g1667
g311
Ntp3539
Rp3540
(dp3541
g1671
g1359
sg1672
g1678
sg335
g1357
sbsS'IwGeomSVec3.h'
p3542
g309
(g1667
g311
Ntp3543
Rp3544
(dp3545
g1671
g1384
sg1672
g1694
sg335
g1418
sbsS's3eExt.h'
p3546
g309
(g1667
g311
Ntp3547
Rp3548
(dp3549
g1671
g1684
sg1672
g1855
sg335
S'c:/marmalade/7.4/s3e/h/s3eExt.h'
p3550
sbsS'IwGeomFVec3.h'
p3551
g309
(g1667
g311
Ntp3552
Rp3553
(dp3554
g1671
g1384
sg1672
g1694
sg335
g1442
sbsS'streambuf'
p3555
g309
(g1667
g311
Ntp3556
Rp3557
(dp3558
g1671
g1684
sg1672
g1685
sg335
S'c:/marmalade/7.4/s3e/h/std/c++/streambuf'
p3559
sbsS's3eMetrics.h'
p3560
g309
(g1667
g311
Ntp3561
Rp3562
(dp3563
g1671
g1684
sg1672
g1946
sg335
S'c:/marmalade/7.4/s3e/h/ext/s3eMetrics.h'
p3564
sbsS'IwGxFont.h'
p3565
g309
(g1667
g311
Ntp3566
Rp3567
(dp3568
g1671
g1359
sg1672
g1678
sg335
g1372
sbsS's3eSecureStorage.h'
p3569
g309
(g1667
g311
Ntp3570
Rp3571
(dp3572
g1671
g1684
sg1672
g1855
sg335
S'c:/marmalade/7.4/s3e/h/s3eSecureStorage.h'
p3573
sbsS'string.h'
p3574
g309
(g1667
g311
Ntp3575
Rp3576
(dp3577
g1671
g1684
sg1672
g1706
sg335
S'c:/marmalade/7.4/s3e/h/std/string.h'
p3578
sbsS'IwResource.h'
p3579
g309
(g1667
g311
Ntp3580
Rp3581
(dp3582
g1671
g1548
sg1672
g1717
sg335
g1563
sbsS'IwGeomSVec2.h'
p3583
g309
(g1667
g311
Ntp3584
Rp3585
(dp3586
g1671
g1384
sg1672
g1694
sg335
g1424
sbsS'libjpeg.mkf'
p3587
g309
(g1667
g311
Ntp3588
Rp3589
(dp3590
g1671
g1090
sg1672
(lp3591
g1055
asg335
g1088
sbsS'IwGxDebug.h'
p3592
g309
(g1667
g311
Ntp3593
Rp3594
(dp3595
g1671
g1487
sg1672
g1845
sg335
g1525
sbsS'float.h'
p3596
g309
(g1667
g311
Ntp3597
Rp3598
(dp3599
g1671
g1684
sg1672
g1706
sg335
S'c:/marmalade/7.4/s3e/h/std/float.h'
p3600
sbsS'iomanip.h'
p3601
g309
(g1667
g311
Ntp3602
Rp3603
(dp3604
g1671
g1684
sg1672
g1685
sg335
S'c:/marmalade/7.4/s3e/h/std/c++/iomanip.h'
p3605
sbsS'IwKeymap.h'
p3606
g309
(g1667
g311
Ntp3607
Rp3608
(dp3609
g1671
g1548
sg1672
g1717
sg335
g1627
sbsS'IwDebug.h'
p3610
g309
(g1667
g311
Ntp3611
Rp3612
(dp3613
g1671
g1548
sg1672
g1717
sg335
g1555
sbsS'IwVariableBitField.h'
p3614
g309
(g1667
g311
Ntp3615
Rp3616
(dp3617
g1671
g1548
sg1672
g1717
sg335
g1557
sbsS'IwGeomMenu.h'
p3618
g309
(g1667
g311
Ntp3619
Rp3620
(dp3621
g1671
g1384
sg1672
g1694
sg335
g1398
sbsS'b2MotorJoint.h'
p3622
g309
(g1667
g311
Ntp3623
Rp3624
(dp3625
g1671
g1105
sg1672
g1700
sg335
g1249
sbsS'IwDivTable.h'
p3626
g309
(g1667
g311
Ntp3627
Rp3628
(dp3629
g1671
g1548
sg1672
g1717
sg335
g1644
sbsS'ctype.h'
p3630
g309
(g1667
g311
Ntp3631
Rp3632
(dp3633
g1671
g1684
sg1672
g1706
sg335
S'c:/marmalade/7.4/s3e/h/std/ctype.h'
p3634
sbsS'IwGeomMat.h'
p3635
g309
(g1667
g311
Ntp3636
Rp3637
(dp3638
g1671
g1384
sg1672
g1694
sg335
g1420
sbsS'IwResGroup.h'
p3639
g309
(g1667
g311
Ntp3640
Rp3641
(dp3642
g1671
g1460
sg1672
g1994
sg335
g1461
sbsS'signal_1.h'
p3643
g309
(g1667
g311
Ntp3644
Rp3645
(dp3646
g1671
g1684
sg1672
g1865
sg335
S'c:/marmalade/7.4/s3e/h/std/sys/signal.h'
p3647
sbsS'functional'
p3648
g309
(g1667
g311
Ntp3649
Rp3650
(dp3651
g1671
g1684
sg1672
g1685
sg335
S'c:/marmalade/7.4/s3e/h/std/c++/functional'
p3652
sbsS'b2BlockAllocator.h'
p3653
g309
(g1667
g311
Ntp3654
Rp3655
(dp3656
g1671
g1105
sg1672
g2125
sg335
g1174
sbsS'shm.h'
p3657
g309
(g1667
g311
Ntp3658
Rp3659
(dp3660
g1671
g1684
sg1672
g1865
sg335
S'c:/marmalade/7.4/s3e/h/std/sys/shm.h'
p3661
sbsS'IwManagedList.h'
p3662
g309
(g1667
g311
Ntp3663
Rp3664
(dp3665
g1671
g1548
sg1672
g1717
sg335
g1575
sbsS'exception.h'
p3666
g309
(g1667
g311
Ntp3667
Rp3668
(dp3669
g1671
g1684
sg1672
g1685
sg335
S'c:/marmalade/7.4/s3e/h/std/c++/exception.h'
p3670
sbsS'prctl.h'
p3671
g309
(g1667
g311
Ntp3672
Rp3673
(dp3674
g1671
g1684
sg1672
g1865
sg335
S'c:/marmalade/7.4/s3e/h/std/sys/prctl.h'
p3675
sbsS'IwGxStream.h'
p3676
g309
(g1667
g311
Ntp3677
Rp3678
(dp3679
g1671
g1487
sg1672
g1845
sg335
g1498
sbsS'temp_defines_debug.h'
p3680
g309
(g1667
g311
Ntp3681
Rp3682
(dp3683
g1671
(lp3684
sg1672
(lp3685
g3152
asg335
S'c:/Users/Ben/Desktop/FYP/FinalYearProject/box2d/heybox2d/build_heybox2d_vc11/temp_defines_debug.h'
p3686
sbsS'utility'
p3687
g309
(g1667
g311
Ntp3688
Rp3689
(dp3690
g1671
g1684
sg1672
g1685
sg335
S'c:/marmalade/7.4/s3e/h/std/c++/utility'
p3691
sbsS'b2PolygonShape.cpp'
p3692
g309
(g1667
g311
Ntp3693
Rp3694
(dp3695
g1671
g1105
sg1672
g1797
sg335
g1126
sbsS'b2Collision.cpp'
p3696
g309
(g1667
g311
Ntp3697
Rp3698
(dp3699
g1671
g1105
sg1672
g1770
sg335
g1116
sbsS'IwGeomLegacy.h'
p3700
g309
(g1667
g311
Ntp3701
Rp3702
(dp3703
g1671
g1384
sg1672
g1694
sg335
g1426
sbsS'IwTPage.h'
p3704
g309
(g1667
g311
Ntp3705
Rp3706
(dp3707
g1671
g1487
sg1672
g1845
sg335
g1500
sbsS'IwResSerialise.h'
p3708
g309
(g1667
g311
Ntp3709
Rp3710
(dp3711
g1671
g1460
sg1672
g1994
sg335
g1481
sbsS's3eCrypto.h'
p3712
g309
(g1667
g311
Ntp3713
Rp3714
(dp3715
g1671
g1684
sg1672
g1855
sg335
S'c:/marmalade/7.4/s3e/h/s3eCrypto.h'
p3716
sbsS's3eKeyboard.h'
p3717
g309
(g1667
g311
Ntp3718
Rp3719
(dp3720
g1671
g1684
sg1672
g1855
sg335
S'c:/marmalade/7.4/s3e/h/s3eKeyboard.h'
p3721
sbsS'b2RopeJoint.h'
p3722
g309
(g1667
g311
Ntp3723
Rp3724
(dp3725
g1671
g1105
sg1672
g1700
sg335
g1251
sbsS'fcntl.h'
p3726
g309
(g1667
g311
Ntp3727
Rp3728
(dp3729
g1671
g1684
sg1672
g1706
sg335
S'c:/marmalade/7.4/s3e/h/std/fcntl.h'
p3730
sbsS'memory.h'
p3731
g309
(g1667
g311
Ntp3732
Rp3733
(dp3734
g1671
g1684
sg1672
g1706
sg335
S'c:/marmalade/7.4/s3e/h/std/memory.h'
p3735
sbsS'iwresmanager_legacy.mkf'
p3736
g309
(g1667
g311
Ntp3737
Rp3738
(dp3739
g1671
g1467
sg1672
g1994
sg335
g1465
sbsS'b2Draw.h'
p3740
g309
(g1667
g311
Ntp3741
Rp3742
(dp3743
g1671
g1105
sg1672
g2125
sg335
g1182
sbsS'pthread.h'
p3744
g309
(g1667
g311
Ntp3745
Rp3746
(dp3747
g1671
g1684
sg1672
g1706
sg335
S'c:/marmalade/7.4/s3e/h/std/pthread.h'
p3748
sbsS'IwGeomIntersect.h'
p3749
g309
(g1667
g311
Ntp3750
Rp3751
(dp3752
g1671
g1384
sg1672
g1694
sg335
g1448
sbsS'b2WorldCallbacks.cpp'
p3753
g309
(g1667
g311
Ntp3754
Rp3755
(dp3756
g1671
g1105
sg1672
g1673
sg335
g1193
sbsS'IwClip.inl'
p3757
g309
(g1667
g311
Ntp3758
Rp3759
(dp3760
g1671
g1487
sg1672
g1845
sg335
g1527
sbsS'ostream.h'
p3761
g309
(g1667
g311
Ntp3762
Rp3763
(dp3764
g1671
g1684
sg1672
g1685
sg335
S'c:/marmalade/7.4/s3e/h/std/c++/ostream.h'
p3765
sbsS'stl_user_config.h'
p3766
g309
(g1667
g311
Ntp3767
Rp3768
(dp3769
g1671
g1684
sg1672
g1685
sg335
S'c:/marmalade/7.4/s3e/h/std/c++/stl_user_config.h'
p3770
sbsS'b2FrictionJoint.h'
p3771
g309
(g1667
g311
Ntp3772
Rp3773
(dp3774
g1671
g1105
sg1672
g1700
sg335
g1241
sbsS'IwProfileMenu.h'
p3775
g309
(g1667
g311
Ntp3776
Rp3777
(dp3778
g1671
g1548
sg1672
g1717
sg335
g1573
sbsS'gl.h'
p3779
g309
(g1667
g311
Ntp3780
Rp3781
(dp3782
g1671
g1684
sg1672
g2090
sg335
S'c:/marmalade/7.4/s3e/h/GLES/gl.h'
p3783
sbsS'MarmaladeVersion.h'
p3784
g309
(g1667
g311
Ntp3785
Rp3786
(dp3787
g1671
g1684
sg1672
g1855
sg335
S'c:/marmalade/7.4/s3e/h/MarmaladeVersion.h'
p3788
sbsS'gl3platform.h'
p3789
g309
(g1667
g311
Ntp3790
Rp3791
(dp3792
g1671
g1684
sg1672
g2050
sg335
S'c:/marmalade/7.4/s3e/h/GLES3/gl3platform.h'
p3793
sbsS'ios.h'
p3794
g309
(g1667
g311
Ntp3795
Rp3796
(dp3797
g1671
g1684
sg1672
g1685
sg335
S'c:/marmalade/7.4/s3e/h/std/c++/ios.h'
p3798
sbsS'IwImageHelper.h'
p3799
g309
(g1667
g311
Ntp3800
Rp3801
(dp3802
g1671
g1548
sg1672
g1717
sg335
g1605
sbsS'hash_set'
p3803
g309
(g1667
g311
Ntp3804
Rp3805
(dp3806
g1671
g1684
sg1672
g1685
sg335
S'c:/marmalade/7.4/s3e/h/std/c++/hash_set'
p3807
sbsS'IwGeomFQuat.h'
p3808
g309
(g1667
g311
Ntp3809
Rp3810
(dp3811
g1671
g1384
sg1672
g1694
sg335
g1396
sbsS'jmorecfg.h'
p3812
g309
(g1667
g311
Ntp3813
Rp3814
(dp3815
g1671
g1061
sg1672
g1775
sg335
g1086
sbsS'eglplatform.h'
p3816
g309
(g1667
g311
Ntp3817
Rp3818
(dp3819
g1671
g1684
sg1672
g2082
sg335
S'c:/marmalade/7.4/s3e/h/EGL/eglplatform.h'
p3820
sbsS'cmath'
p3821
g309
(g1667
g311
Ntp3822
Rp3823
(dp3824
g1671
g1684
sg1672
g1685
sg335
S'c:/marmalade/7.4/s3e/h/std/c++/cmath'
p3825
sbsS'b2EdgeAndCircleContact.h'
p3826
g309
(g1667
g311
Ntp3827
Rp3828
(dp3829
g1671
g1105
sg1672
g1820
sg335
g1211
sbsS'math_gcc.h'
p3830
g309
(g1667
g311
Ntp3831
Rp3832
(dp3833
g1671
g1684
sg1672
g1706
sg335
S'c:/marmalade/7.4/s3e/h/std/math_gcc.h'
p3834
sbsS's3eMemory.h'
p3835
g309
(g1667
g311
Ntp3836
Rp3837
(dp3838
g1671
g1684
sg1672
g1855
sg335
S'c:/marmalade/7.4/s3e/h/s3eMemory.h'
p3839
sbsS'strings.h'
p3840
g309
(g1667
g311
Ntp3841
Rp3842
(dp3843
g1671
g1684
sg1672
g1706
sg335
S'c:/marmalade/7.4/s3e/h/std/strings.h'
p3844
sbsS's3eFile.h'
p3845
g309
(g1667
g311
Ntp3846
Rp3847
(dp3848
g1671
g1684
sg1672
g1855
sg335
S'c:/marmalade/7.4/s3e/h/s3eFile.h'
p3849
sbsS'IwGxTypes.h'
p3850
g309
(g1667
g311
Ntp3851
Rp3852
(dp3853
g1671
g1487
sg1672
g1845
sg335
g1529
sbsS'b2Fixture.h'
p3854
g309
(g1667
g311
Ntp3855
Rp3856
(dp3857
g1671
g1105
sg1672
g1673
sg335
g1295
sbsS'cerrno'
p3858
g309
(g1667
g311
Ntp3859
Rp3860
(dp3861
g1671
g1684
sg1672
g1685
sg335
S'c:/marmalade/7.4/s3e/h/std/c++/cerrno'
p3862
sbsS'resource.h'
p3863
g309
(g1667
g311
Ntp3864
Rp3865
(dp3866
g1671
g1684
sg1672
g1865
sg335
S'c:/marmalade/7.4/s3e/h/std/sys/resource.h'
p3867
sbsS'clocale'
p3868
g309
(g1667
g311
Ntp3869
Rp3870
(dp3871
g1671
g1684
sg1672
g1685
sg335
S'c:/marmalade/7.4/s3e/h/std/c++/clocale'
p3872
sbsS'csetjmp'
p3873
g309
(g1667
g311
Ntp3874
Rp3875
(dp3876
g1671
g1684
sg1672
g1685
sg335
S'c:/marmalade/7.4/s3e/h/std/c++/csetjmp'
p3877
sbsS'IwTextParserITX.h'
p3878
g309
(g1667
g311
Ntp3879
Rp3880
(dp3881
g1671
g1548
sg1672
g1717
sg335
g1567
sbsS's3eAndroidJNI.h'
p3882
g309
(g1667
g311
Ntp3883
Rp3884
(dp3885
g1671
g1684
sg1672
g1946
sg335
S'c:/marmalade/7.4/s3e/h/ext/s3eAndroidJNI.h'
p3886
sbsS'stdexcept'
p3887
g309
(g1667
g311
Ntp3888
Rp3889
(dp3890
g1671
g1684
sg1672
g1685
sg335
S'c:/marmalade/7.4/s3e/h/std/c++/stdexcept'
p3891
sbsS'math.h'
p3892
g309
(g1667
g311
Ntp3893
Rp3894
(dp3895
g1671
g1684
sg1672
g1706
sg335
S'c:/marmalade/7.4/s3e/h/std/math.h'
p3896
sbsS'stdbool.h'
p3897
g309
(g1667
g311
Ntp3898
Rp3899
(dp3900
g1671
g1684
sg1672
g1706
sg335
S'c:/marmalade/7.4/s3e/h/std/stdbool.h'
p3901
sbsS'uio.h'
p3902
g309
(g1667
g311
Ntp3903
Rp3904
(dp3905
g1671
g1684
sg1672
g1865
sg335
S'c:/marmalade/7.4/s3e/h/std/sys/uio.h'
p3906
sbsS'IwUncopyable.h'
p3907
g309
(g1667
g311
Ntp3908
Rp3909
(dp3910
g1671
g1548
sg1672
g1717
sg335
g1597
sbsS'b2Contact.cpp'
p3911
g309
(g1667
g311
Ntp3912
Rp3913
(dp3914
g1671
g1105
sg1672
g1820
sg335
g1231
sbssS'juice_build_type'
p3915
g4
sS'tests'
p3916
(lp3917
sS'project_name'
p3918
g317
sS'root_file'
p3919
g122
sS'current_root'
p3920
S'c:/Users/Ben/Desktop/FYP/FinalYearProject/box2d/heybox2d'
p3921
sS'dependencies'
p3922
(lp3923
sS'include_paths'
p3924
(lp3925
S'c:/marmalade/7.4/modules/legacy/iw2d/h'
p3926
aS'c:/marmalade/7.4/modules/iwgeom/h'
p3927
aS'c:/marmalade/7.4/modules/iwutil/h'
p3928
aS'c:/marmalade/7.4/modules/third_party/libjpeg/h'
p3929
aS'c:/marmalade/7.4/modules/third_party/zlib/h'
p3930
aS'c:/marmalade/7.4/modules/third_party/libpng/h'
p3931
aS'c:/marmalade/7.4/modules/legacy/iwresmanager/h'
p3932
aS'c:/marmalade/7.4/modules/legacy/iwgx/h'
p3933
aS'c:/marmalade/7.4/modules/iwgl/h'
p3934
aS'c:/marmalade/7.4/modules/legacy/iwgxfont/h'
p3935
aS'c:/marmalade/7.4/modules/third_party/tiniconv/source'
p3936
aS'c:/marmalade/7.4/examples/examplescore'
p3937
aS'c:/users/ben/desktop/fyp/finalyearproject/box2d'
p3938
aS'c:/marmalade/7.4/s3e/h'
p3939
aS'c:/marmalade/7.4/s3e/h/ext'
p3940
aS'c:/marmalade/7.4/s3e/h/std'
p3941
aS'c:/marmalade/7.4/s3e/h/std/c++'
p3942
asS'weak_frameworks'
p3943
(lp3944
sS'extprojects'
p3945
(dp3946
sg575
(dp3947
g569
(lp3948
(S'c:/Users/Ben/Desktop/FYP/FinalYearProject/box2d/heybox2d/data/Image.png'
p3949
S'Image.png'
p3950
I0
tp3951
assS'macro_types'
p3952
(dp3953
g508
I1
sg509
I0
sg510
I0
sg511
I0
sg512
I0
sg513
I0
sg514
I0
sg515
I0
sg516
I0
sg518
I0
sg519
I0
sg520
I0
sg521
I0
sg522
I0
sg524
I0
sg526
I0
sg527
I0
sg528
I0
sg529
I0
sg530
I0
sg531
I0
sg532
I1
sg533
I0
sg534
I0
sg535
I0
sg536
I0
sg537
I01
sg538
I1
sg539
I0
sg540
I0
sg541
I0
sg542
I0
sg543
I0
ssS'commands'
p3954
(lp3955
sg577
(g1036
S'VC11'
p3956
S'X86ARM'
p3957
tp3958
sS'build_libs'
p3959
(dp3960
sg579
g0
sS'frameworks'
p3961
(lp3962
sS'environ'
p3963
(dp3964
sS'target_name_debug'
p3965
g317
sS'builders'
p3966
(dp3967
g569
(dp3968
S'.S'
p3969
(dp3970
S'rvct'
p3971
(lp3972
S'.obj'
p3973
aS'echo ARM Assembling(RVCT) ${SOURCE}...'
p3974
aS'c:/marmalade/7.4/s3e\\rvct\\bin\\armasm -o ${TARGET} ${SOURCE}'
p3975
asg431
(lp3976
g3973
aS'echo ARM Assembling(GCC) ${SOURCE}...'
p3977
aS'c:/marmalade/7.4/s3e\\gcc\\bin\\arm-none-eabi-gcc -c -o ${TARGET} ${SOURCE}'
p3978
asS'ppu'
p3979
(lp3980
S'.a'
p3981
aS'echo PPU Assembling(SNC) ${SOURCE}...'
p3982
aS'c:/marmalade/7.4/s3e\\rvct\\bin\\armasm -o ${TARGET} ${SOURCE}'
p3983
assS'.s'
p3984
g3970
sS'.vp'
p3985
(lp3986
NaS'"C:/Marmalade/7.4/s3e/python/python.exe" "c:/marmalade/7.4/modules/legacy/iwgx/tools/compile_shaders.py" ${SOURCE}'
p3987
asssS'extproject_names'
p3988
(lp3989
sbtp3990
.