	.arch armv6
	.fpu softvfp
	.eabi_attribute 20, 1
	.eabi_attribute 21, 1
	.eabi_attribute 23, 3
	.eabi_attribute 24, 1
	.eabi_attribute 25, 1
	.eabi_attribute 26, 2
	.eabi_attribute 30, 6
	.eabi_attribute 34, 1
	.eabi_attribute 18, 2
	.file	"BulletManager.cpp"
	.text
.Ltext0:
	.cfi_sections	.debug_frame
	.section	.text._ZN4_STL14__copy_trivialEPKvS1_Pv,"axG",%progbits,_ZN4_STL14__copy_trivialEPKvS1_Pv,comdat
	.align	2
	.weak	_ZN4_STL14__copy_trivialEPKvS1_Pv
	.hidden	_ZN4_STL14__copy_trivialEPKvS1_Pv
	.type	_ZN4_STL14__copy_trivialEPKvS1_Pv, %function
_ZN4_STL14__copy_trivialEPKvS1_Pv:
.LFB69:
	.file 1 "c:/marmalade/7.4/s3e/h/std/c++/stl/_algobase.h"
	.loc 1 147 0
	.cfi_startproc
	@ args = 0, pretend = 0, frame = 16
	@ frame_needed = 0, uses_anonymous_args = 0
	str	lr, [sp, #-4]!
.LCFI0:
	.cfi_def_cfa_offset 4
	.cfi_offset 14, -4
	sub	sp, sp, #20
.LCFI1:
	.cfi_def_cfa_offset 24
	str	r0, [sp, #12]
	str	r1, [sp, #8]
	str	r2, [sp, #4]
	.loc 1 150 0
	ldr	r2, [sp, #8]
	ldr	r3, [sp, #12]
	cmp	r2, r3
	beq	.L2
	.loc 1 149 0
	ldr	r2, [sp, #8]
	ldr	r3, [sp, #12]
	rsb	r3, r3, r2
	ldr	r0, [sp, #4]
	ldr	r1, [sp, #12]
	mov	r2, r3
	bl	memmove(PLT)
	mov	r2, r0
	.loc 1 150 0
	ldr	r1, [sp, #8]
	ldr	r3, [sp, #12]
	rsb	r3, r3, r1
	add	r3, r2, r3
	b	.L3
.L2:
	.loc 1 150 0 is_stmt 0 discriminator 1
	ldr	r3, [sp, #4]
.L3:
	.loc 1 151 0 is_stmt 1 discriminator 2
	mov	r0, r3
	add	sp, sp, #20
	@ sp needed
	ldr	pc, [sp], #4
	.cfi_endproc
.LFE69:
	.size	_ZN4_STL14__copy_trivialEPKvS1_Pv, .-_ZN4_STL14__copy_trivialEPKvS1_Pv
	.section	.text._ZnwjPv,"axG",%progbits,_ZnwjPv,comdat
	.align	2
	.weak	_ZnwjPv
	.hidden	_ZnwjPv
	.type	_ZnwjPv, %function
_ZnwjPv:
.LFB177:
	.file 2 "c:/marmalade/7.4/s3e/h/std/c++/new.h"
	.loc 2 52 0
	.cfi_startproc
	@ args = 0, pretend = 0, frame = 8
	@ frame_needed = 0, uses_anonymous_args = 0
	@ link register save eliminated.
	sub	sp, sp, #8
.LCFI2:
	.cfi_def_cfa_offset 8
	str	r0, [sp, #4]
	str	r1, [sp]
	.loc 2 52 0
	ldr	r3, [sp]
	mov	r0, r3
	add	sp, sp, #8
	@ sp needed
	bx	lr
	.cfi_endproc
.LFE177:
	.size	_ZnwjPv, .-_ZnwjPv
	.section	.text._ZN8CIwFVec2C2Eff,"axG",%progbits,_ZN8CIwFVec2C5Eff,comdat
	.align	2
	.weak	_ZN8CIwFVec2C2Eff
	.hidden	_ZN8CIwFVec2C2Eff
	.type	_ZN8CIwFVec2C2Eff, %function
_ZN8CIwFVec2C2Eff:
.LFB610:
	.file 3 "c:/marmalade/7.4/modules/iwgeom/h/IwGeomFVec2.h"
	.loc 3 72 0
	.cfi_startproc
	@ args = 0, pretend = 0, frame = 16
	@ frame_needed = 0, uses_anonymous_args = 0
	@ link register save eliminated.
	sub	sp, sp, #16
.LCFI3:
	.cfi_def_cfa_offset 16
	str	r0, [sp, #12]
	str	r1, [sp, #8]	@ float
	str	r2, [sp, #4]	@ float
.LBB2:
	.loc 3 72 0
	ldr	r3, [sp, #12]
	ldr	r2, [sp, #8]	@ float
	str	r2, [r3]	@ float
	ldr	r3, [sp, #12]
	ldr	r2, [sp, #4]	@ float
	str	r2, [r3, #4]	@ float
.LBE2:
	ldr	r3, [sp, #12]
	mov	r0, r3
	add	sp, sp, #16
	@ sp needed
	bx	lr
	.cfi_endproc
.LFE610:
	.size	_ZN8CIwFVec2C2Eff, .-_ZN8CIwFVec2C2Eff
	.weak	_ZN8CIwFVec2C1Eff
	.hidden	_ZN8CIwFVec2C1Eff
	.set	_ZN8CIwFVec2C1Eff,_ZN8CIwFVec2C2Eff
	.section	.text._ZN6Bullet9getSpriteEv,"axG",%progbits,_ZN6Bullet9getSpriteEv,comdat
	.align	2
	.weak	_ZN6Bullet9getSpriteEv
	.hidden	_ZN6Bullet9getSpriteEv
	.type	_ZN6Bullet9getSpriteEv, %function
_ZN6Bullet9getSpriteEv:
.LFB3030:
	.file 4 "c:/Users/Ben/Desktop/FYP/FinalYearProject/source/Bullet.h"
	.loc 4 26 0
	.cfi_startproc
	@ args = 0, pretend = 0, frame = 8
	@ frame_needed = 0, uses_anonymous_args = 0
	@ link register save eliminated.
	sub	sp, sp, #8
.LCFI4:
	.cfi_def_cfa_offset 8
	str	r0, [sp, #4]
	.loc 4 26 0
	ldr	r3, [sp, #4]
	ldr	r3, [r3, #16]
	mov	r0, r3
	add	sp, sp, #8
	@ sp needed
	bx	lr
	.cfi_endproc
.LFE3030:
	.size	_ZN6Bullet9getSpriteEv, .-_ZN6Bullet9getSpriteEv
	.section	.text._ZN6Target9getSpriteEv,"axG",%progbits,_ZN6Target9getSpriteEv,comdat
	.align	2
	.weak	_ZN6Target9getSpriteEv
	.hidden	_ZN6Target9getSpriteEv
	.type	_ZN6Target9getSpriteEv, %function
_ZN6Target9getSpriteEv:
.LFB3031:
	.file 5 "c:/Users/Ben/Desktop/FYP/FinalYearProject/source/Target.h"
	.loc 5 22 0
	.cfi_startproc
	@ args = 0, pretend = 0, frame = 8
	@ frame_needed = 0, uses_anonymous_args = 0
	@ link register save eliminated.
	sub	sp, sp, #8
.LCFI5:
	.cfi_def_cfa_offset 8
	str	r0, [sp, #4]
	.loc 5 22 0
	ldr	r3, [sp, #4]
	ldr	r3, [r3]
	mov	r0, r3
	add	sp, sp, #8
	@ sp needed
	bx	lr
	.cfi_endproc
.LFE3031:
	.size	_ZN6Target9getSpriteEv, .-_ZN6Target9getSpriteEv
	.section	.text._ZN13BulletManagerC2Ev,"ax",%progbits
	.align	2
	.global	_ZN13BulletManagerC2Ev
	.hidden	_ZN13BulletManagerC2Ev
	.type	_ZN13BulletManagerC2Ev, %function
_ZN13BulletManagerC2Ev:
.LFB3033:
	.file 6 "c:/Users/Ben/Desktop/FYP/FinalYearProject/source/BulletManager.cpp"
	.loc 6 3 0
	.cfi_startproc
	@ args = 0, pretend = 0, frame = 16
	@ frame_needed = 0, uses_anonymous_args = 0
	stmfd	sp!, {r4, lr}
.LCFI6:
	.cfi_def_cfa_offset 8
	.cfi_offset 4, -8
	.cfi_offset 14, -4
	sub	sp, sp, #16
.LCFI7:
	.cfi_def_cfa_offset 24
	str	r0, [sp, #4]
.LBB3:
	.loc 6 3 0
	ldr	r4, [sp, #4]
	add	r3, sp, #12
	mov	r0, r3
	bl	_ZN4_STL9allocatorIP6BulletEC1Ev(PLT)
	add	r3, sp, #12
	mov	r0, r4
	mov	r1, r3
	bl	_ZN4_STL6vectorIP6BulletNS_9allocatorIS2_EEEC1ERKS4_(PLT)
	add	r3, sp, #12
	mov	r0, r3
	bl	_ZN4_STL9allocatorIP6BulletED1Ev(PLT)
.LBE3:
	.loc 6 5 0
	ldr	r3, [sp, #4]
	mov	r0, r3
	add	sp, sp, #16
	@ sp needed
	ldmfd	sp!, {r4, pc}
	.cfi_endproc
.LFE3033:
	.size	_ZN13BulletManagerC2Ev, .-_ZN13BulletManagerC2Ev
	.global	_ZN13BulletManagerC1Ev
	.hidden	_ZN13BulletManagerC1Ev
	.set	_ZN13BulletManagerC1Ev,_ZN13BulletManagerC2Ev
	.section	.text._ZN13BulletManagerD2Ev,"ax",%progbits
	.align	2
	.global	_ZN13BulletManagerD2Ev
	.hidden	_ZN13BulletManagerD2Ev
	.type	_ZN13BulletManagerD2Ev, %function
_ZN13BulletManagerD2Ev:
.LFB3036:
	.loc 6 7 0
	.cfi_startproc
	@ args = 0, pretend = 0, frame = 8
	@ frame_needed = 0, uses_anonymous_args = 0
	str	lr, [sp, #-4]!
.LCFI8:
	.cfi_def_cfa_offset 4
	.cfi_offset 14, -4
	sub	sp, sp, #12
.LCFI9:
	.cfi_def_cfa_offset 16
	str	r0, [sp, #4]
.LBB4:
	.loc 6 7 0
	ldr	r3, [sp, #4]
	.loc 6 9 0
	mov	r0, r3
	bl	_ZN4_STL6vectorIP6BulletNS_9allocatorIS2_EEED1Ev(PLT)
.LBE4:
	ldr	r3, [sp, #4]
	mov	r0, r3
	add	sp, sp, #12
	@ sp needed
	ldr	pc, [sp], #4
	.cfi_endproc
.LFE3036:
	.size	_ZN13BulletManagerD2Ev, .-_ZN13BulletManagerD2Ev
	.global	_ZN13BulletManagerD1Ev
	.hidden	_ZN13BulletManagerD1Ev
	.set	_ZN13BulletManagerD1Ev,_ZN13BulletManagerD2Ev
	.global	__aeabi_i2f
	.section	.text._ZN13BulletManager5ShootEPN18Iw2DSceneGraphCore5CNodeE8CIwFVec2S3_,"ax",%progbits
	.align	2
	.global	_ZN13BulletManager5ShootEPN18Iw2DSceneGraphCore5CNodeE8CIwFVec2S3_
	.hidden	_ZN13BulletManager5ShootEPN18Iw2DSceneGraphCore5CNodeE8CIwFVec2S3_
	.type	_ZN13BulletManager5ShootEPN18Iw2DSceneGraphCore5CNodeE8CIwFVec2S3_, %function
_ZN13BulletManager5ShootEPN18Iw2DSceneGraphCore5CNodeE8CIwFVec2S3_:
.LFB3038:
	.loc 6 11 0
	.cfi_startproc
	@ args = 8, pretend = 0, frame = 48
	@ frame_needed = 0, uses_anonymous_args = 0
	stmfd	sp!, {r4, r5, lr}
.LCFI10:
	.cfi_def_cfa_offset 12
	.cfi_offset 4, -12
	.cfi_offset 5, -8
	.cfi_offset 14, -4
	sub	sp, sp, #68
.LCFI11:
	.cfi_def_cfa_offset 80
	str	r0, [sp, #28]
	str	r1, [sp, #24]
	add	r1, sp, #16
	stmia	r1, {r2, r3}
	.loc 6 12 0
	ldr	r5, [sp, #28]
	add	r3, sp, #40
	add	r2, sp, #16
	ldmia	r2, {r0, r1}
	stmia	r3, {r0, r1}
	bl	s3ePointerGetX(PLT)
	mov	r3, r0
	mov	r0, r3
	bl	__aeabi_i2f(PLT)
	mov	r4, r0
	bl	s3ePointerGetY(PLT)
	mov	r3, r0
	mov	r0, r3
	bl	__aeabi_i2f(PLT)
	mov	r3, r0
	add	r2, sp, #48
	mov	r0, r2
	mov	r1, r4
	mov	r2, r3
	bl	_ZN8CIwFVec2C1Eff(PLT)
	add	r3, sp, #56
	add	r2, sp, #80
	ldmia	r2, {r0, r1}
	stmia	r3, {r0, r1}
	mov	r0, #28
	bl	_Znwj(PLT)
	mov	r4, r0
	ldr	r3, [sp, #24]
	str	r3, [sp, #4]
	add	r2, sp, #8
	add	r3, sp, #56
	ldmia	r3, {r0, r1}
	stmia	r2, {r0, r1}
	ldr	r3, [sp, #52]
	str	r3, [sp]
	ldr	r3, [sp, #48]
	mov	r0, r4
	add	r2, sp, #40
	ldmia	r2, {r1, r2}
	bl	_ZN6BulletC1E8CIwFVec2S0_PN18Iw2DSceneGraphCore5CNodeES0_(PLT)
	str	r4, [sp, #36]
	add	r3, sp, #36
	mov	r0, r5
	mov	r1, r3
	bl	_ZN4_STL6vectorIP6BulletNS_9allocatorIS2_EEE9push_backERKS2_(PLT)
	.loc 6 13 0
	add	sp, sp, #68
	@ sp needed
	ldmfd	sp!, {r4, r5, pc}
	.cfi_endproc
.LFE3038:
	.size	_ZN13BulletManager5ShootEPN18Iw2DSceneGraphCore5CNodeE8CIwFVec2S3_, .-_ZN13BulletManager5ShootEPN18Iw2DSceneGraphCore5CNodeE8CIwFVec2S3_
	.section	.text._ZN13BulletManager6UpdateEPN18Iw2DSceneGraphCore5CNodeE8CIwFVec2N4_STL6vectorIP6TargetNS4_9allocatorIS7_EEEE,"ax",%progbits
	.align	2
	.global	_ZN13BulletManager6UpdateEPN18Iw2DSceneGraphCore5CNodeE8CIwFVec2N4_STL6vectorIP6TargetNS4_9allocatorIS7_EEEE
	.hidden	_ZN13BulletManager6UpdateEPN18Iw2DSceneGraphCore5CNodeE8CIwFVec2N4_STL6vectorIP6TargetNS4_9allocatorIS7_EEEE
	.type	_ZN13BulletManager6UpdateEPN18Iw2DSceneGraphCore5CNodeE8CIwFVec2N4_STL6vectorIP6TargetNS4_9allocatorIS7_EEEE, %function
_ZN13BulletManager6UpdateEPN18Iw2DSceneGraphCore5CNodeE8CIwFVec2N4_STL6vectorIP6TargetNS4_9allocatorIS7_EEEE:
.LFB3039:
	.loc 6 15 0
	.cfi_startproc
	@ args = 4, pretend = 0, frame = 24
	@ frame_needed = 0, uses_anonymous_args = 0
	stmfd	sp!, {r4, r5, r6, lr}
.LCFI12:
	.cfi_def_cfa_offset 16
	.cfi_offset 4, -16
	.cfi_offset 5, -12
	.cfi_offset 6, -8
	.cfi_offset 14, -4
	sub	sp, sp, #24
.LCFI13:
	.cfi_def_cfa_offset 40
	str	r0, [sp, #12]
	str	r1, [sp, #8]
	mov	r1, sp
	stmia	r1, {r2, r3}
	ldr	r5, .L31
.LPIC0:
	add	r5, pc, r5
.LBB5:
	.loc 6 16 0
	mov	r3, #0
	strb	r3, [sp, #23]
.LBB6:
	.loc 6 17 0
	ldr	r3, [sp, #12]
	mov	r0, r3
	bl	_ZN4_STL6vectorIP6BulletNS_9allocatorIS2_EEE5beginEv(PLT)
	mov	r2, r0
	ldr	r3, [sp, #12]
	str	r2, [r3, #12]
	b	.L22
.L30:
.LBB7:
	.loc 6 18 0
	ldrb	r3, [sp, #23]	@ zero_extendqisi2
	cmp	r3, #0
	beq	.L23
	.loc 6 19 0
	mov	r3, #0
	strb	r3, [sp, #23]
	.loc 6 20 0
	b	.L21
.L23:
	.loc 6 22 0
	ldr	r3, [sp, #12]
	ldr	r3, [r3, #12]
	ldr	r3, [r3]
	mov	r0, r3
	mov	r3, sp
	ldmia	r3, {r1, r2}
	bl	_ZN6Bullet6UpdateE8CIwFVec2(PLT)
	.loc 6 24 0
	ldr	r3, [sp, #12]
	ldr	r3, [r3, #12]
	ldr	r3, [r3]
	mov	r0, r3
	mov	r3, sp
	ldmia	r3, {r1, r2}
	bl	_ZN6Bullet6BoundsE8CIwFVec2(PLT)
	mov	r3, r0
	cmp	r3, #0
	beq	.L25
	.loc 6 25 0
	ldr	r3, [sp, #12]
	ldr	r3, [r3, #12]
	ldr	r3, [r3]
	mov	r0, r3
	ldr	r1, [sp, #8]
	bl	_ZN6Bullet15RemoveFromSceneEPN18Iw2DSceneGraphCore5CNodeE(PLT)
	.loc 6 26 0
	ldr	r3, [sp, #12]
	ldr	r3, [r3, #12]
	ldr	r3, [r3]
	mov	r0, r3
	bl	_ZN6BulletD1Ev(PLT)
	.loc 6 27 0
	ldr	r2, [sp, #12]
	ldr	r3, [sp, #12]
	ldr	r3, [r3, #12]
	mov	r0, r2
	mov	r1, r3
	bl	_ZN4_STL6vectorIP6BulletNS_9allocatorIS2_EEE5eraseEPS2_(PLT)
	.loc 6 28 0
	b	.L21
.L25:
	.loc 6 31 0
	ldr	r0, [sp, #40]
	bl	_ZN4_STL6vectorIP6TargetNS_9allocatorIS2_EEE5beginEv(PLT)
	str	r0, [sp, #16]
	b	.L26
.L29:
	.loc 6 32 0
	ldr	r3, .L31+4
	ldr	r3, [r5, r3]
	ldr	r6, [r3]
	ldr	r3, [sp, #12]
	ldr	r3, [r3, #12]
	ldr	r3, [r3]
	mov	r0, r3
	bl	_ZN6Bullet9getSpriteEv(PLT)
	mov	r4, r0
	ldr	r3, [sp, #16]
	ldr	r3, [r3]
	mov	r0, r3
	bl	_ZN6Target9getSpriteEv(PLT)
	mov	r3, r0
	mov	r0, r6
	mov	r1, r4
	mov	r2, r3
	bl	_ZN10Collisions18RectangleCollisionEPN14Iw2DSceneGraph7CSpriteES2_(PLT)
	mov	r3, r0
	cmp	r3, #0
	beq	.L27
	.loc 6 33 0
	ldr	r3, [sp, #12]
	ldr	r3, [r3, #12]
	ldr	r3, [r3]
	mov	r0, r3
	ldr	r1, [sp, #8]
	bl	_ZN6Bullet15RemoveFromSceneEPN18Iw2DSceneGraphCore5CNodeE(PLT)
	.loc 6 34 0
	ldr	r3, [sp, #12]
	ldr	r3, [r3, #12]
	ldr	r3, [r3]
	mov	r0, r3
	bl	_ZN6BulletD1Ev(PLT)
	.loc 6 35 0
	ldr	r2, [sp, #12]
	ldr	r3, [sp, #12]
	ldr	r3, [r3, #12]
	mov	r0, r2
	mov	r1, r3
	bl	_ZN4_STL6vectorIP6BulletNS_9allocatorIS2_EEE5eraseEPS2_(PLT)
	.loc 6 36 0
	mov	r3, #1
	strb	r3, [sp, #23]
	.loc 6 37 0
	b	.L28
.L27:
	.loc 6 31 0
	ldr	r3, [sp, #16]
	add	r3, r3, #4
	str	r3, [sp, #16]
.L26:
	.loc 6 31 0 is_stmt 0 discriminator 1
	ldr	r0, [sp, #40]
	bl	_ZN4_STL6vectorIP6TargetNS_9allocatorIS2_EEE3endEv(PLT)
	mov	r2, r0
	ldr	r3, [sp, #16]
	cmp	r2, r3
	moveq	r3, #0
	movne	r3, #1
	uxtb	r3, r3
	cmp	r3, #0
	bne	.L29
.L28:
.LBE7:
	.loc 6 17 0 is_stmt 1
	ldr	r3, [sp, #12]
	ldr	r3, [r3, #12]
	add	r2, r3, #4
	ldr	r3, [sp, #12]
	str	r2, [r3, #12]
.L22:
	.loc 6 17 0 is_stmt 0 discriminator 1
	ldr	r3, [sp, #12]
	ldr	r4, [r3, #12]
	ldr	r3, [sp, #12]
	mov	r0, r3
	bl	_ZN4_STL6vectorIP6BulletNS_9allocatorIS2_EEE3endEv(PLT)
	mov	r3, r0
	cmp	r4, r3
	moveq	r3, #0
	movne	r3, #1
	uxtb	r3, r3
	cmp	r3, #0
	bne	.L30
.L21:
.LBE6:
.LBE5:
	.loc 6 42 0 is_stmt 1
	add	sp, sp, #24
	@ sp needed
	ldmfd	sp!, {r4, r5, r6, pc}
.L32:
	.align	2
.L31:
	.word	_GLOBAL_OFFSET_TABLE_-(.LPIC0+8)
	.word	g_pCollisions(GOT)
	.cfi_endproc
.LFE3039:
	.size	_ZN13BulletManager6UpdateEPN18Iw2DSceneGraphCore5CNodeE8CIwFVec2N4_STL6vectorIP6TargetNS4_9allocatorIS7_EEEE, .-_ZN13BulletManager6UpdateEPN18Iw2DSceneGraphCore5CNodeE8CIwFVec2N4_STL6vectorIP6TargetNS4_9allocatorIS7_EEEE
	.section	.text._ZN4_STL9allocatorIP6BulletEC2Ev,"axG",%progbits,_ZN4_STL9allocatorIP6BulletEC5Ev,comdat
	.align	2
	.weak	_ZN4_STL9allocatorIP6BulletEC2Ev
	.hidden	_ZN4_STL9allocatorIP6BulletEC2Ev
	.type	_ZN4_STL9allocatorIP6BulletEC2Ev, %function
_ZN4_STL9allocatorIP6BulletEC2Ev:
.LFB3124:
	.file 7 "c:/marmalade/7.4/s3e/h/std/c++/stl/_alloc.h"
	.loc 7 345 0
	.cfi_startproc
	@ args = 0, pretend = 0, frame = 8
	@ frame_needed = 0, uses_anonymous_args = 0
	@ link register save eliminated.
	sub	sp, sp, #8
.LCFI14:
	.cfi_def_cfa_offset 8
	str	r0, [sp, #4]
	.loc 7 345 0
	ldr	r3, [sp, #4]
	mov	r0, r3
	add	sp, sp, #8
	@ sp needed
	bx	lr
	.cfi_endproc
.LFE3124:
	.size	_ZN4_STL9allocatorIP6BulletEC2Ev, .-_ZN4_STL9allocatorIP6BulletEC2Ev
	.weak	_ZN4_STL9allocatorIP6BulletEC1Ev
	.hidden	_ZN4_STL9allocatorIP6BulletEC1Ev
	.set	_ZN4_STL9allocatorIP6BulletEC1Ev,_ZN4_STL9allocatorIP6BulletEC2Ev
	.section	.text._ZN4_STL9allocatorIP6BulletED2Ev,"axG",%progbits,_ZN4_STL9allocatorIP6BulletED5Ev,comdat
	.align	2
	.weak	_ZN4_STL9allocatorIP6BulletED2Ev
	.hidden	_ZN4_STL9allocatorIP6BulletED2Ev
	.type	_ZN4_STL9allocatorIP6BulletED2Ev, %function
_ZN4_STL9allocatorIP6BulletED2Ev:
.LFB3127:
	.loc 7 350 0
	.cfi_startproc
	@ args = 0, pretend = 0, frame = 8
	@ frame_needed = 0, uses_anonymous_args = 0
	@ link register save eliminated.
	sub	sp, sp, #8
.LCFI15:
	.cfi_def_cfa_offset 8
	str	r0, [sp, #4]
	.loc 7 350 0
	ldr	r3, [sp, #4]
	mov	r0, r3
	add	sp, sp, #8
	@ sp needed
	bx	lr
	.cfi_endproc
.LFE3127:
	.size	_ZN4_STL9allocatorIP6BulletED2Ev, .-_ZN4_STL9allocatorIP6BulletED2Ev
	.weak	_ZN4_STL9allocatorIP6BulletED1Ev
	.hidden	_ZN4_STL9allocatorIP6BulletED1Ev
	.set	_ZN4_STL9allocatorIP6BulletED1Ev,_ZN4_STL9allocatorIP6BulletED2Ev
	.section	.text._ZN4_STL6vectorIP6BulletNS_9allocatorIS2_EEEC2ERKS4_,"axG",%progbits,_ZN4_STL6vectorIP6BulletNS_9allocatorIS2_EEEC5ERKS4_,comdat
	.align	2
	.weak	_ZN4_STL6vectorIP6BulletNS_9allocatorIS2_EEEC2ERKS4_
	.hidden	_ZN4_STL6vectorIP6BulletNS_9allocatorIS2_EEEC2ERKS4_
	.type	_ZN4_STL6vectorIP6BulletNS_9allocatorIS2_EEEC2ERKS4_, %function
_ZN4_STL6vectorIP6BulletNS_9allocatorIS2_EEEC2ERKS4_:
.LFB3130:
	.file 8 "c:/marmalade/7.4/s3e/h/std/c++/stl/_vector.h"
	.loc 8 198 0
	.cfi_startproc
	@ args = 0, pretend = 0, frame = 8
	@ frame_needed = 0, uses_anonymous_args = 0
	str	lr, [sp, #-4]!
.LCFI16:
	.cfi_def_cfa_offset 4
	.cfi_offset 14, -4
	sub	sp, sp, #12
.LCFI17:
	.cfi_def_cfa_offset 16
	str	r0, [sp, #4]
	str	r1, [sp]
.LBB8:
	.loc 8 199 0
	ldr	r3, [sp, #4]
	mov	r0, r3
	ldr	r1, [sp]
	bl	_ZN4_STL12_Vector_baseIP6BulletNS_9allocatorIS2_EEEC2ERKS4_(PLT)
.LBE8:
	ldr	r3, [sp, #4]
	mov	r0, r3
	add	sp, sp, #12
	@ sp needed
	ldr	pc, [sp], #4
	.cfi_endproc
.LFE3130:
	.size	_ZN4_STL6vectorIP6BulletNS_9allocatorIS2_EEEC2ERKS4_, .-_ZN4_STL6vectorIP6BulletNS_9allocatorIS2_EEEC2ERKS4_
	.weak	_ZN4_STL6vectorIP6BulletNS_9allocatorIS2_EEEC1ERKS4_
	.hidden	_ZN4_STL6vectorIP6BulletNS_9allocatorIS2_EEEC1ERKS4_
	.set	_ZN4_STL6vectorIP6BulletNS_9allocatorIS2_EEEC1ERKS4_,_ZN4_STL6vectorIP6BulletNS_9allocatorIS2_EEEC2ERKS4_
	.section	.text._ZN4_STL6vectorIP6BulletNS_9allocatorIS2_EEED2Ev,"axG",%progbits,_ZN4_STL6vectorIP6BulletNS_9allocatorIS2_EEED5Ev,comdat
	.align	2
	.weak	_ZN4_STL6vectorIP6BulletNS_9allocatorIS2_EEED2Ev
	.hidden	_ZN4_STL6vectorIP6BulletNS_9allocatorIS2_EEED2Ev
	.type	_ZN4_STL6vectorIP6BulletNS_9allocatorIS2_EEED2Ev, %function
_ZN4_STL6vectorIP6BulletNS_9allocatorIS2_EEED2Ev:
.LFB3133:
	.loc 8 258 0
	.cfi_startproc
	@ args = 0, pretend = 0, frame = 8
	@ frame_needed = 0, uses_anonymous_args = 0
	str	lr, [sp, #-4]!
.LCFI18:
	.cfi_def_cfa_offset 4
	.cfi_offset 14, -4
	sub	sp, sp, #12
.LCFI19:
	.cfi_def_cfa_offset 16
	str	r0, [sp, #4]
.LBB9:
	.loc 8 258 0
	ldr	r3, [sp, #4]
	ldr	r2, [r3]
	ldr	r3, [sp, #4]
	ldr	r3, [r3, #4]
	mov	r0, r2
	mov	r1, r3
	bl	_ZN4_STL8_DestroyIPP6BulletEEvT_S4_(PLT)
	ldr	r3, [sp, #4]
	mov	r0, r3
	bl	_ZN4_STL12_Vector_baseIP6BulletNS_9allocatorIS2_EEED2Ev(PLT)
.LBE9:
	ldr	r3, [sp, #4]
	mov	r0, r3
	add	sp, sp, #12
	@ sp needed
	ldr	pc, [sp], #4
	.cfi_endproc
.LFE3133:
	.size	_ZN4_STL6vectorIP6BulletNS_9allocatorIS2_EEED2Ev, .-_ZN4_STL6vectorIP6BulletNS_9allocatorIS2_EEED2Ev
	.weak	_ZN4_STL6vectorIP6BulletNS_9allocatorIS2_EEED1Ev
	.hidden	_ZN4_STL6vectorIP6BulletNS_9allocatorIS2_EEED1Ev
	.set	_ZN4_STL6vectorIP6BulletNS_9allocatorIS2_EEED1Ev,_ZN4_STL6vectorIP6BulletNS_9allocatorIS2_EEED2Ev
	.section	.text._ZN4_STL6vectorIP6BulletNS_9allocatorIS2_EEE9push_backERKS2_,"axG",%progbits,_ZN4_STL6vectorIP6BulletNS_9allocatorIS2_EEE9push_backERKS2_,comdat
	.align	2
	.weak	_ZN4_STL6vectorIP6BulletNS_9allocatorIS2_EEE9push_backERKS2_
	.hidden	_ZN4_STL6vectorIP6BulletNS_9allocatorIS2_EEE9push_backERKS2_
	.type	_ZN4_STL6vectorIP6BulletNS_9allocatorIS2_EEE9push_backERKS2_, %function
_ZN4_STL6vectorIP6BulletNS_9allocatorIS2_EEE9push_backERKS2_:
.LFB3135:
	.loc 8 331 0
	.cfi_startproc
	@ args = 0, pretend = 0, frame = 16
	@ frame_needed = 0, uses_anonymous_args = 0
	str	lr, [sp, #-4]!
.LCFI20:
	.cfi_def_cfa_offset 4
	.cfi_offset 14, -4
	sub	sp, sp, #28
.LCFI21:
	.cfi_def_cfa_offset 32
	str	r0, [sp, #12]
	str	r1, [sp, #8]
	.loc 8 332 0
	ldr	r3, [sp, #12]
	ldr	r2, [r3, #4]
	ldr	r3, [sp, #12]
	ldr	r3, [r3, #8]
	cmp	r2, r3
	beq	.L46
	.loc 8 333 0
	ldr	r3, [sp, #12]
	ldr	r3, [r3, #4]
	mov	r0, r3
	ldr	r1, [sp, #8]
	bl	_ZN4_STL10_ConstructIP6BulletS2_EEvPT_RKT0_(PLT)
	.loc 8 334 0
	ldr	r3, [sp, #12]
	ldr	r3, [r3, #4]
	add	r2, r3, #4
	ldr	r3, [sp, #12]
	str	r2, [r3, #4]
	b	.L45
.L46:
	.loc 8 337 0
	ldr	r3, [sp, #12]
	ldr	r2, [r3, #4]
	add	r3, sp, #20
	mov	r1, #1
	str	r1, [sp]
	mov	r1, #1
	str	r1, [sp, #4]
	ldr	r0, [sp, #12]
	mov	r1, r2
	ldr	r2, [sp, #8]
	bl	_ZN4_STL6vectorIP6BulletNS_9allocatorIS2_EEE18_M_insert_overflowEPS2_RKS2_RKNS_11__true_typeEjb(PLT)
.L45:
	.loc 8 338 0
	add	sp, sp, #28
	@ sp needed
	ldr	pc, [sp], #4
	.cfi_endproc
.LFE3135:
	.size	_ZN4_STL6vectorIP6BulletNS_9allocatorIS2_EEE9push_backERKS2_, .-_ZN4_STL6vectorIP6BulletNS_9allocatorIS2_EEE9push_backERKS2_
	.section	.text._ZN4_STL6vectorIP6BulletNS_9allocatorIS2_EEE5beginEv,"axG",%progbits,_ZN4_STL6vectorIP6BulletNS_9allocatorIS2_EEE5beginEv,comdat
	.align	2
	.weak	_ZN4_STL6vectorIP6BulletNS_9allocatorIS2_EEE5beginEv
	.hidden	_ZN4_STL6vectorIP6BulletNS_9allocatorIS2_EEE5beginEv
	.type	_ZN4_STL6vectorIP6BulletNS_9allocatorIS2_EEE5beginEv, %function
_ZN4_STL6vectorIP6BulletNS_9allocatorIS2_EEE5beginEv:
.LFB3136:
	.loc 8 172 0
	.cfi_startproc
	@ args = 0, pretend = 0, frame = 8
	@ frame_needed = 0, uses_anonymous_args = 0
	@ link register save eliminated.
	sub	sp, sp, #8
.LCFI22:
	.cfi_def_cfa_offset 8
	str	r0, [sp, #4]
	.loc 8 172 0
	ldr	r3, [sp, #4]
	ldr	r3, [r3]
	mov	r0, r3
	add	sp, sp, #8
	@ sp needed
	bx	lr
	.cfi_endproc
.LFE3136:
	.size	_ZN4_STL6vectorIP6BulletNS_9allocatorIS2_EEE5beginEv, .-_ZN4_STL6vectorIP6BulletNS_9allocatorIS2_EEE5beginEv
	.section	.text._ZN4_STL6vectorIP6BulletNS_9allocatorIS2_EEE3endEv,"axG",%progbits,_ZN4_STL6vectorIP6BulletNS_9allocatorIS2_EEE3endEv,comdat
	.align	2
	.weak	_ZN4_STL6vectorIP6BulletNS_9allocatorIS2_EEE3endEv
	.hidden	_ZN4_STL6vectorIP6BulletNS_9allocatorIS2_EEE3endEv
	.type	_ZN4_STL6vectorIP6BulletNS_9allocatorIS2_EEE3endEv, %function
_ZN4_STL6vectorIP6BulletNS_9allocatorIS2_EEE3endEv:
.LFB3137:
	.loc 8 174 0
	.cfi_startproc
	@ args = 0, pretend = 0, frame = 8
	@ frame_needed = 0, uses_anonymous_args = 0
	@ link register save eliminated.
	sub	sp, sp, #8
.LCFI23:
	.cfi_def_cfa_offset 8
	str	r0, [sp, #4]
	.loc 8 174 0
	ldr	r3, [sp, #4]
	ldr	r3, [r3, #4]
	mov	r0, r3
	add	sp, sp, #8
	@ sp needed
	bx	lr
	.cfi_endproc
.LFE3137:
	.size	_ZN4_STL6vectorIP6BulletNS_9allocatorIS2_EEE3endEv, .-_ZN4_STL6vectorIP6BulletNS_9allocatorIS2_EEE3endEv
	.section	.text._ZN4_STL6vectorIP6BulletNS_9allocatorIS2_EEE5eraseEPS2_,"axG",%progbits,_ZN4_STL6vectorIP6BulletNS_9allocatorIS2_EEE5eraseEPS2_,comdat
	.align	2
	.weak	_ZN4_STL6vectorIP6BulletNS_9allocatorIS2_EEE5eraseEPS2_
	.hidden	_ZN4_STL6vectorIP6BulletNS_9allocatorIS2_EEE5eraseEPS2_
	.type	_ZN4_STL6vectorIP6BulletNS_9allocatorIS2_EEE5eraseEPS2_, %function
_ZN4_STL6vectorIP6BulletNS_9allocatorIS2_EEE5eraseEPS2_:
.LFB3138:
	.loc 8 466 0
	.cfi_startproc
	@ args = 0, pretend = 0, frame = 16
	@ frame_needed = 0, uses_anonymous_args = 0
	stmfd	sp!, {r4, lr}
.LCFI24:
	.cfi_def_cfa_offset 8
	.cfi_offset 4, -8
	.cfi_offset 14, -4
	sub	sp, sp, #16
.LCFI25:
	.cfi_def_cfa_offset 24
	str	r0, [sp, #4]
	str	r1, [sp]
	.loc 8 467 0
	ldr	r3, [sp]
	add	r4, r3, #4
	ldr	r0, [sp, #4]
	bl	_ZN4_STL6vectorIP6BulletNS_9allocatorIS2_EEE3endEv(PLT)
	mov	r3, r0
	cmp	r4, r3
	moveq	r3, #0
	movne	r3, #1
	uxtb	r3, r3
	cmp	r3, #0
	beq	.L53
	.loc 8 468 0
	ldr	r3, [sp]
	add	r1, r3, #4
	ldr	r3, [sp, #4]
	ldr	r2, [r3, #4]
	add	r3, sp, #12
	mov	r0, r1
	mov	r1, r2
	ldr	r2, [sp]
	bl	_ZN4_STL11__copy_ptrsIPP6BulletS3_EET0_T_S5_S4_RKNS_11__true_typeE(PLT)
.L53:
	.loc 8 469 0
	ldr	r3, [sp, #4]
	ldr	r3, [r3, #4]
	sub	r2, r3, #4
	ldr	r3, [sp, #4]
	str	r2, [r3, #4]
	.loc 8 470 0
	ldr	r3, [sp, #4]
	ldr	r3, [r3, #4]
	mov	r0, r3
	bl	_ZN4_STL8_DestroyIP6BulletEEvPT_(PLT)
	.loc 8 471 0
	ldr	r3, [sp]
	.loc 8 472 0
	mov	r0, r3
	add	sp, sp, #16
	@ sp needed
	ldmfd	sp!, {r4, pc}
	.cfi_endproc
.LFE3138:
	.size	_ZN4_STL6vectorIP6BulletNS_9allocatorIS2_EEE5eraseEPS2_, .-_ZN4_STL6vectorIP6BulletNS_9allocatorIS2_EEE5eraseEPS2_
	.section	.text._ZN4_STL6vectorIP6TargetNS_9allocatorIS2_EEE5beginEv,"axG",%progbits,_ZN4_STL6vectorIP6TargetNS_9allocatorIS2_EEE5beginEv,comdat
	.align	2
	.weak	_ZN4_STL6vectorIP6TargetNS_9allocatorIS2_EEE5beginEv
	.hidden	_ZN4_STL6vectorIP6TargetNS_9allocatorIS2_EEE5beginEv
	.type	_ZN4_STL6vectorIP6TargetNS_9allocatorIS2_EEE5beginEv, %function
_ZN4_STL6vectorIP6TargetNS_9allocatorIS2_EEE5beginEv:
.LFB3139:
	.loc 8 172 0
	.cfi_startproc
	@ args = 0, pretend = 0, frame = 8
	@ frame_needed = 0, uses_anonymous_args = 0
	@ link register save eliminated.
	sub	sp, sp, #8
.LCFI26:
	.cfi_def_cfa_offset 8
	str	r0, [sp, #4]
	.loc 8 172 0
	ldr	r3, [sp, #4]
	ldr	r3, [r3]
	mov	r0, r3
	add	sp, sp, #8
	@ sp needed
	bx	lr
	.cfi_endproc
.LFE3139:
	.size	_ZN4_STL6vectorIP6TargetNS_9allocatorIS2_EEE5beginEv, .-_ZN4_STL6vectorIP6TargetNS_9allocatorIS2_EEE5beginEv
	.section	.text._ZN4_STL6vectorIP6TargetNS_9allocatorIS2_EEE3endEv,"axG",%progbits,_ZN4_STL6vectorIP6TargetNS_9allocatorIS2_EEE3endEv,comdat
	.align	2
	.weak	_ZN4_STL6vectorIP6TargetNS_9allocatorIS2_EEE3endEv
	.hidden	_ZN4_STL6vectorIP6TargetNS_9allocatorIS2_EEE3endEv
	.type	_ZN4_STL6vectorIP6TargetNS_9allocatorIS2_EEE3endEv, %function
_ZN4_STL6vectorIP6TargetNS_9allocatorIS2_EEE3endEv:
.LFB3140:
	.loc 8 174 0
	.cfi_startproc
	@ args = 0, pretend = 0, frame = 8
	@ frame_needed = 0, uses_anonymous_args = 0
	@ link register save eliminated.
	sub	sp, sp, #8
.LCFI27:
	.cfi_def_cfa_offset 8
	str	r0, [sp, #4]
	.loc 8 174 0
	ldr	r3, [sp, #4]
	ldr	r3, [r3, #4]
	mov	r0, r3
	add	sp, sp, #8
	@ sp needed
	bx	lr
	.cfi_endproc
.LFE3140:
	.size	_ZN4_STL6vectorIP6TargetNS_9allocatorIS2_EEE3endEv, .-_ZN4_STL6vectorIP6TargetNS_9allocatorIS2_EEE3endEv
	.section	.text._ZN4_STL17_STLP_alloc_proxyIPP6BulletS2_NS_9allocatorIS2_EEED2Ev,"axG",%progbits,_ZN4_STL17_STLP_alloc_proxyIPP6BulletS2_NS_9allocatorIS2_EEED5Ev,comdat
	.align	2
	.weak	_ZN4_STL17_STLP_alloc_proxyIPP6BulletS2_NS_9allocatorIS2_EEED2Ev
	.hidden	_ZN4_STL17_STLP_alloc_proxyIPP6BulletS2_NS_9allocatorIS2_EEED2Ev
	.type	_ZN4_STL17_STLP_alloc_proxyIPP6BulletS2_NS_9allocatorIS2_EEED2Ev, %function
_ZN4_STL17_STLP_alloc_proxyIPP6BulletS2_NS_9allocatorIS2_EEED2Ev:
.LFB3181:
	.loc 7 481 0
	.cfi_startproc
	@ args = 0, pretend = 0, frame = 8
	@ frame_needed = 0, uses_anonymous_args = 0
	str	lr, [sp, #-4]!
.LCFI28:
	.cfi_def_cfa_offset 4
	.cfi_offset 14, -4
	sub	sp, sp, #12
.LCFI29:
	.cfi_def_cfa_offset 16
	str	r0, [sp, #4]
.LBB10:
	.loc 7 481 0
	ldr	r0, [sp, #4]
	bl	_ZN4_STL9allocatorIP6BulletED2Ev(PLT)
.LBE10:
	ldr	r3, [sp, #4]
	mov	r0, r3
	add	sp, sp, #12
	@ sp needed
	ldr	pc, [sp], #4
	.cfi_endproc
.LFE3181:
	.size	_ZN4_STL17_STLP_alloc_proxyIPP6BulletS2_NS_9allocatorIS2_EEED2Ev, .-_ZN4_STL17_STLP_alloc_proxyIPP6BulletS2_NS_9allocatorIS2_EEED2Ev
	.weak	_ZN4_STL17_STLP_alloc_proxyIPP6BulletS2_NS_9allocatorIS2_EEED1Ev
	.hidden	_ZN4_STL17_STLP_alloc_proxyIPP6BulletS2_NS_9allocatorIS2_EEED1Ev
	.set	_ZN4_STL17_STLP_alloc_proxyIPP6BulletS2_NS_9allocatorIS2_EEED1Ev,_ZN4_STL17_STLP_alloc_proxyIPP6BulletS2_NS_9allocatorIS2_EEED2Ev
	.section	.text._ZN4_STL12_Vector_baseIP6BulletNS_9allocatorIS2_EEEC2ERKS4_,"axG",%progbits,_ZN4_STL12_Vector_baseIP6BulletNS_9allocatorIS2_EEEC5ERKS4_,comdat
	.align	2
	.weak	_ZN4_STL12_Vector_baseIP6BulletNS_9allocatorIS2_EEEC2ERKS4_
	.hidden	_ZN4_STL12_Vector_baseIP6BulletNS_9allocatorIS2_EEEC2ERKS4_
	.type	_ZN4_STL12_Vector_baseIP6BulletNS_9allocatorIS2_EEEC2ERKS4_, %function
_ZN4_STL12_Vector_baseIP6BulletNS_9allocatorIS2_EEEC2ERKS4_:
.LFB3183:
	.loc 8 71 0
	.cfi_startproc
	@ args = 0, pretend = 0, frame = 8
	@ frame_needed = 0, uses_anonymous_args = 0
	str	lr, [sp, #-4]!
.LCFI30:
	.cfi_def_cfa_offset 4
	.cfi_offset 14, -4
	sub	sp, sp, #12
.LCFI31:
	.cfi_def_cfa_offset 16
	str	r0, [sp, #4]
	str	r1, [sp]
.LBB11:
	.loc 8 72 0
	ldr	r3, [sp, #4]
	mov	r2, #0
	str	r2, [r3]
	ldr	r3, [sp, #4]
	mov	r2, #0
	str	r2, [r3, #4]
	ldr	r3, [sp, #4]
	add	r3, r3, #8
	mov	r0, r3
	ldr	r1, [sp]
	mov	r2, #0
	bl	_ZN4_STL17_STLP_alloc_proxyIPP6BulletS2_NS_9allocatorIS2_EEEC1ERKS5_S3_(PLT)
.LBE11:
	.loc 8 73 0
	ldr	r3, [sp, #4]
	mov	r0, r3
	add	sp, sp, #12
	@ sp needed
	ldr	pc, [sp], #4
	.cfi_endproc
.LFE3183:
	.size	_ZN4_STL12_Vector_baseIP6BulletNS_9allocatorIS2_EEEC2ERKS4_, .-_ZN4_STL12_Vector_baseIP6BulletNS_9allocatorIS2_EEEC2ERKS4_
	.weak	_ZN4_STL12_Vector_baseIP6BulletNS_9allocatorIS2_EEEC1ERKS4_
	.hidden	_ZN4_STL12_Vector_baseIP6BulletNS_9allocatorIS2_EEEC1ERKS4_
	.set	_ZN4_STL12_Vector_baseIP6BulletNS_9allocatorIS2_EEEC1ERKS4_,_ZN4_STL12_Vector_baseIP6BulletNS_9allocatorIS2_EEEC2ERKS4_
	.section	.text._ZN4_STL12_Vector_baseIP6BulletNS_9allocatorIS2_EEED2Ev,"axG",%progbits,_ZN4_STL12_Vector_baseIP6BulletNS_9allocatorIS2_EEED5Ev,comdat
	.align	2
	.weak	_ZN4_STL12_Vector_baseIP6BulletNS_9allocatorIS2_EEED2Ev
	.hidden	_ZN4_STL12_Vector_baseIP6BulletNS_9allocatorIS2_EEED2Ev
	.type	_ZN4_STL12_Vector_baseIP6BulletNS_9allocatorIS2_EEED2Ev, %function
_ZN4_STL12_Vector_baseIP6BulletNS_9allocatorIS2_EEED2Ev:
.LFB3186:
	.loc 8 83 0
	.cfi_startproc
	@ args = 0, pretend = 0, frame = 8
	@ frame_needed = 0, uses_anonymous_args = 0
	str	lr, [sp, #-4]!
.LCFI32:
	.cfi_def_cfa_offset 4
	.cfi_offset 14, -4
	sub	sp, sp, #12
.LCFI33:
	.cfi_def_cfa_offset 16
	str	r0, [sp, #4]
.LBB12:
	.loc 8 84 0
	ldr	r3, [sp, #4]
	ldr	r3, [r3]
	cmp	r3, #0
	beq	.L66
	.loc 8 85 0
	ldr	r3, [sp, #4]
	add	r1, r3, #8
	ldr	r3, [sp, #4]
	ldr	r2, [r3]
	ldr	r3, [sp, #4]
	ldr	r3, [r3, #8]
	mov	r0, r3
	ldr	r3, [sp, #4]
	ldr	r3, [r3]
	rsb	r3, r3, r0
	mov	r3, r3, asr #2
	mov	r0, r1
	mov	r1, r2
	mov	r2, r3
	bl	_ZN4_STL9allocatorIP6BulletE10deallocateEPS2_j(PLT)
.L66:
	.loc 8 86 0
	ldr	r3, [sp, #4]
	add	r3, r3, #8
	mov	r0, r3
	bl	_ZN4_STL17_STLP_alloc_proxyIPP6BulletS2_NS_9allocatorIS2_EEED1Ev(PLT)
.LBE12:
	ldr	r3, [sp, #4]
	mov	r0, r3
	add	sp, sp, #12
	@ sp needed
	ldr	pc, [sp], #4
	.cfi_endproc
.LFE3186:
	.size	_ZN4_STL12_Vector_baseIP6BulletNS_9allocatorIS2_EEED2Ev, .-_ZN4_STL12_Vector_baseIP6BulletNS_9allocatorIS2_EEED2Ev
	.weak	_ZN4_STL12_Vector_baseIP6BulletNS_9allocatorIS2_EEED1Ev
	.hidden	_ZN4_STL12_Vector_baseIP6BulletNS_9allocatorIS2_EEED1Ev
	.set	_ZN4_STL12_Vector_baseIP6BulletNS_9allocatorIS2_EEED1Ev,_ZN4_STL12_Vector_baseIP6BulletNS_9allocatorIS2_EEED2Ev
	.section	.text._ZN4_STL8_DestroyIPP6BulletEEvT_S4_,"axG",%progbits,_ZN4_STL8_DestroyIPP6BulletEEvT_S4_,comdat
	.align	2
	.weak	_ZN4_STL8_DestroyIPP6BulletEEvT_S4_
	.hidden	_ZN4_STL8_DestroyIPP6BulletEEvT_S4_
	.type	_ZN4_STL8_DestroyIPP6BulletEEvT_S4_, %function
_ZN4_STL8_DestroyIPP6BulletEEvT_S4_:
.LFB3188:
	.file 9 "c:/marmalade/7.4/s3e/h/std/c++/stl/_construct.h"
	.loc 9 138 0
	.cfi_startproc
	@ args = 0, pretend = 0, frame = 8
	@ frame_needed = 0, uses_anonymous_args = 0
	str	lr, [sp, #-4]!
.LCFI34:
	.cfi_def_cfa_offset 4
	.cfi_offset 14, -4
	sub	sp, sp, #12
.LCFI35:
	.cfi_def_cfa_offset 16
	str	r0, [sp, #4]
	str	r1, [sp]
	.loc 9 139 0
	ldr	r0, [sp, #4]
	ldr	r1, [sp]
	mov	r2, #0
	bl	_ZN4_STL9__destroyIPP6BulletS2_EEvT_S4_PT0_(PLT)
	.loc 9 140 0
	add	sp, sp, #12
	@ sp needed
	ldr	pc, [sp], #4
	.cfi_endproc
.LFE3188:
	.size	_ZN4_STL8_DestroyIPP6BulletEEvT_S4_, .-_ZN4_STL8_DestroyIPP6BulletEEvT_S4_
	.section	.text._ZN4_STL10_ConstructIP6BulletS2_EEvPT_RKT0_,"axG",%progbits,_ZN4_STL10_ConstructIP6BulletS2_EEvPT_RKT0_,comdat
	.align	2
	.weak	_ZN4_STL10_ConstructIP6BulletS2_EEvPT_RKT0_
	.hidden	_ZN4_STL10_ConstructIP6BulletS2_EEvPT_RKT0_
	.type	_ZN4_STL10_ConstructIP6BulletS2_EEvPT_RKT0_, %function
_ZN4_STL10_ConstructIP6BulletS2_EEvPT_RKT0_:
.LFB3189:
	.loc 9 93 0
	.cfi_startproc
	@ args = 0, pretend = 0, frame = 8
	@ frame_needed = 0, uses_anonymous_args = 0
	str	lr, [sp, #-4]!
.LCFI36:
	.cfi_def_cfa_offset 4
	.cfi_offset 14, -4
	sub	sp, sp, #12
.LCFI37:
	.cfi_def_cfa_offset 16
	str	r0, [sp, #4]
	str	r1, [sp]
	.loc 9 97 0
	ldr	r3, [sp, #4]
	mov	r0, #4
	mov	r1, r3
	bl	_ZnwjPv(PLT)
	mov	r3, r0
	ldr	r2, [sp]
	ldr	r2, [r2]
	str	r2, [r3]
	.loc 9 98 0
	add	sp, sp, #12
	@ sp needed
	ldr	pc, [sp], #4
	.cfi_endproc
.LFE3189:
	.size	_ZN4_STL10_ConstructIP6BulletS2_EEvPT_RKT0_, .-_ZN4_STL10_ConstructIP6BulletS2_EEvPT_RKT0_
	.section	.text._ZN4_STL6vectorIP6BulletNS_9allocatorIS2_EEE18_M_insert_overflowEPS2_RKS2_RKNS_11__true_typeEjb,"axG",%progbits,_ZN4_STL6vectorIP6BulletNS_9allocatorIS2_EEE18_M_insert_overflowEPS2_RKS2_RKNS_11__true_typeEjb,comdat
	.align	2
	.weak	_ZN4_STL6vectorIP6BulletNS_9allocatorIS2_EEE18_M_insert_overflowEPS2_RKS2_RKNS_11__true_typeEjb
	.hidden	_ZN4_STL6vectorIP6BulletNS_9allocatorIS2_EEE18_M_insert_overflowEPS2_RKS2_RKNS_11__true_typeEjb
	.type	_ZN4_STL6vectorIP6BulletNS_9allocatorIS2_EEE18_M_insert_overflowEPS2_RKS2_RKNS_11__true_typeEjb, %function
_ZN4_STL6vectorIP6BulletNS_9allocatorIS2_EEE18_M_insert_overflowEPS2_RKS2_RKNS_11__true_typeEjb:
.LFB3190:
	.loc 8 150 0
	.cfi_startproc
	@ args = 8, pretend = 0, frame = 32
	@ frame_needed = 0, uses_anonymous_args = 0
	str	lr, [sp, #-4]!
.LCFI38:
	.cfi_def_cfa_offset 4
	.cfi_offset 14, -4
	sub	sp, sp, #36
.LCFI39:
	.cfi_def_cfa_offset 40
	str	r0, [sp, #12]
	str	r1, [sp, #8]
	str	r2, [sp, #4]
	str	r3, [sp]
.LBB13:
	.loc 8 152 0
	ldr	r0, [sp, #12]
	bl	_ZNK4_STL6vectorIP6BulletNS_9allocatorIS2_EEE4sizeEv(PLT)
	mov	r3, r0
	str	r3, [sp, #16]
	.loc 8 153 0
	add	r3, sp, #16
	mov	r0, r3
	add	r3, sp, #40
	mov	r1, r3
	bl	_ZN4_STL3maxIjEERKT_S3_S3_(PLT)
	mov	r3, r0
	ldr	r2, [r3]
	ldr	r3, [sp, #16]
	add	r3, r2, r3
	str	r3, [sp, #24]
	.loc 8 155 0
	ldr	r3, [sp, #12]
	add	r3, r3, #8
	mov	r0, r3
	ldr	r1, [sp, #24]
	mov	r2, #0
	bl	_ZN4_STL9allocatorIP6BulletE8allocateEjPKv(PLT)
	str	r0, [sp, #20]
	.loc 8 156 0
	ldr	r3, [sp, #12]
	ldr	r3, [r3]
	mov	r0, r3
	ldr	r1, [sp, #8]
	ldr	r2, [sp, #20]
	bl	_ZN4_STL14__copy_trivialEPKvS1_Pv(PLT)
	str	r0, [sp, #28]
	.loc 8 158 0
	ldr	r3, [sp, #40]
	ldr	r0, [sp, #28]
	mov	r1, r3
	ldr	r2, [sp, #4]
	bl	_ZN4_STL6fill_nIPP6BulletjS2_EET_S4_T0_RKT1_(PLT)
	str	r0, [sp, #28]
	.loc 8 159 0
	ldrb	r3, [sp, #44]
	eor	r3, r3, #1
	uxtb	r3, r3
	cmp	r3, #0
	beq	.L72
	.loc 8 161 0
	ldr	r3, [sp, #12]
	ldr	r3, [r3, #4]
	ldr	r0, [sp, #8]
	mov	r1, r3
	ldr	r2, [sp, #28]
	bl	_ZN4_STL14__copy_trivialEPKvS1_Pv(PLT)
	str	r0, [sp, #28]
.L72:
	.loc 8 162 0
	ldr	r0, [sp, #12]
	bl	_ZN4_STL6vectorIP6BulletNS_9allocatorIS2_EEE8_M_clearEv(PLT)
	.loc 8 163 0
	ldr	r3, [sp, #24]
	mov	r3, r3, asl #2
	ldr	r2, [sp, #20]
	add	r3, r2, r3
	ldr	r0, [sp, #12]
	ldr	r1, [sp, #20]
	ldr	r2, [sp, #28]
	bl	_ZN4_STL6vectorIP6BulletNS_9allocatorIS2_EEE6_M_setEPS2_S6_S6_(PLT)
.LBE13:
	.loc 8 164 0
	add	sp, sp, #36
	@ sp needed
	ldr	pc, [sp], #4
	.cfi_endproc
.LFE3190:
	.size	_ZN4_STL6vectorIP6BulletNS_9allocatorIS2_EEE18_M_insert_overflowEPS2_RKS2_RKNS_11__true_typeEjb, .-_ZN4_STL6vectorIP6BulletNS_9allocatorIS2_EEE18_M_insert_overflowEPS2_RKS2_RKNS_11__true_typeEjb
	.section	.text._ZN4_STL11__copy_ptrsIPP6BulletS3_EET0_T_S5_S4_RKNS_11__true_typeE,"axG",%progbits,_ZN4_STL11__copy_ptrsIPP6BulletS3_EET0_T_S5_S4_RKNS_11__true_typeE,comdat
	.align	2
	.weak	_ZN4_STL11__copy_ptrsIPP6BulletS3_EET0_T_S5_S4_RKNS_11__true_typeE
	.hidden	_ZN4_STL11__copy_ptrsIPP6BulletS3_EET0_T_S5_S4_RKNS_11__true_typeE
	.type	_ZN4_STL11__copy_ptrsIPP6BulletS3_EET0_T_S5_S4_RKNS_11__true_typeE, %function
_ZN4_STL11__copy_ptrsIPP6BulletS3_EET0_T_S5_S4_RKNS_11__true_typeE:
.LFB3191:
	.loc 1 194 0
	.cfi_startproc
	@ args = 0, pretend = 0, frame = 16
	@ frame_needed = 0, uses_anonymous_args = 0
	str	lr, [sp, #-4]!
.LCFI40:
	.cfi_def_cfa_offset 4
	.cfi_offset 14, -4
	sub	sp, sp, #20
.LCFI41:
	.cfi_def_cfa_offset 24
	str	r0, [sp, #12]
	str	r1, [sp, #8]
	str	r2, [sp, #4]
	str	r3, [sp]
	.loc 1 197 0
	ldr	r0, [sp, #12]
	ldr	r1, [sp, #8]
	ldr	r2, [sp, #4]
	bl	_ZN4_STL14__copy_trivialEPKvS1_Pv(PLT)
	mov	r3, r0
	.loc 1 198 0
	mov	r0, r3
	add	sp, sp, #20
	@ sp needed
	ldr	pc, [sp], #4
	.cfi_endproc
.LFE3191:
	.size	_ZN4_STL11__copy_ptrsIPP6BulletS3_EET0_T_S5_S4_RKNS_11__true_typeE, .-_ZN4_STL11__copy_ptrsIPP6BulletS3_EET0_T_S5_S4_RKNS_11__true_typeE
	.section	.text._ZN4_STL8_DestroyIP6BulletEEvPT_,"axG",%progbits,_ZN4_STL8_DestroyIP6BulletEEvPT_,comdat
	.align	2
	.weak	_ZN4_STL8_DestroyIP6BulletEEvPT_
	.hidden	_ZN4_STL8_DestroyIP6BulletEEvPT_
	.type	_ZN4_STL8_DestroyIP6BulletEEvPT_, %function
_ZN4_STL8_DestroyIP6BulletEEvPT_:
.LFB3192:
	.loc 9 56 0
	.cfi_startproc
	@ args = 0, pretend = 0, frame = 8
	@ frame_needed = 0, uses_anonymous_args = 0
	@ link register save eliminated.
	sub	sp, sp, #8
.LCFI42:
	.cfi_def_cfa_offset 8
	str	r0, [sp, #4]
	.loc 9 73 0
	add	sp, sp, #8
	@ sp needed
	bx	lr
	.cfi_endproc
.LFE3192:
	.size	_ZN4_STL8_DestroyIP6BulletEEvPT_, .-_ZN4_STL8_DestroyIP6BulletEEvPT_
	.section	.text._ZN4_STL17_STLP_alloc_proxyIPP6BulletS2_NS_9allocatorIS2_EEEC2ERKS5_S3_,"axG",%progbits,_ZN4_STL17_STLP_alloc_proxyIPP6BulletS2_NS_9allocatorIS2_EEEC5ERKS5_S3_,comdat
	.align	2
	.weak	_ZN4_STL17_STLP_alloc_proxyIPP6BulletS2_NS_9allocatorIS2_EEEC2ERKS5_S3_
	.hidden	_ZN4_STL17_STLP_alloc_proxyIPP6BulletS2_NS_9allocatorIS2_EEEC2ERKS5_S3_
	.type	_ZN4_STL17_STLP_alloc_proxyIPP6BulletS2_NS_9allocatorIS2_EEEC2ERKS5_S3_, %function
_ZN4_STL17_STLP_alloc_proxyIPP6BulletS2_NS_9allocatorIS2_EEEC2ERKS5_S3_:
.LFB3219:
	.loc 7 487 0
	.cfi_startproc
	@ args = 0, pretend = 0, frame = 16
	@ frame_needed = 0, uses_anonymous_args = 0
	str	lr, [sp, #-4]!
.LCFI43:
	.cfi_def_cfa_offset 4
	.cfi_offset 14, -4
	sub	sp, sp, #20
.LCFI44:
	.cfi_def_cfa_offset 24
	str	r0, [sp, #12]
	str	r1, [sp, #8]
	str	r2, [sp, #4]
.LBB14:
	.loc 7 487 0
	ldr	r0, [sp, #12]
	ldr	r1, [sp, #8]
	bl	_ZN4_STL9allocatorIP6BulletEC2ERKS3_(PLT)
	ldr	r3, [sp, #12]
	ldr	r2, [sp, #4]
	str	r2, [r3]
.LBE14:
	ldr	r3, [sp, #12]
	mov	r0, r3
	add	sp, sp, #20
	@ sp needed
	ldr	pc, [sp], #4
	.cfi_endproc
.LFE3219:
	.size	_ZN4_STL17_STLP_alloc_proxyIPP6BulletS2_NS_9allocatorIS2_EEEC2ERKS5_S3_, .-_ZN4_STL17_STLP_alloc_proxyIPP6BulletS2_NS_9allocatorIS2_EEEC2ERKS5_S3_
	.weak	_ZN4_STL17_STLP_alloc_proxyIPP6BulletS2_NS_9allocatorIS2_EEEC1ERKS5_S3_
	.hidden	_ZN4_STL17_STLP_alloc_proxyIPP6BulletS2_NS_9allocatorIS2_EEEC1ERKS5_S3_
	.set	_ZN4_STL17_STLP_alloc_proxyIPP6BulletS2_NS_9allocatorIS2_EEEC1ERKS5_S3_,_ZN4_STL17_STLP_alloc_proxyIPP6BulletS2_NS_9allocatorIS2_EEEC2ERKS5_S3_
	.section	.text._ZN4_STL9allocatorIP6BulletE10deallocateEPS2_j,"axG",%progbits,_ZN4_STL9allocatorIP6BulletE10deallocateEPS2_j,comdat
	.align	2
	.weak	_ZN4_STL9allocatorIP6BulletE10deallocateEPS2_j
	.hidden	_ZN4_STL9allocatorIP6BulletE10deallocateEPS2_j
	.type	_ZN4_STL9allocatorIP6BulletE10deallocateEPS2_j, %function
_ZN4_STL9allocatorIP6BulletE10deallocateEPS2_j:
.LFB3221:
	.loc 7 358 0
	.cfi_startproc
	@ args = 0, pretend = 0, frame = 16
	@ frame_needed = 0, uses_anonymous_args = 0
	str	lr, [sp, #-4]!
.LCFI45:
	.cfi_def_cfa_offset 4
	.cfi_offset 14, -4
	sub	sp, sp, #20
.LCFI46:
	.cfi_def_cfa_offset 24
	str	r0, [sp, #12]
	str	r1, [sp, #8]
	str	r2, [sp, #4]
	.loc 7 360 0
	ldr	r3, [sp, #8]
	cmp	r3, #0
	beq	.L79
	.loc 7 360 0 is_stmt 0 discriminator 1
	ldr	r3, [sp, #4]
	mov	r3, r3, asl #2
	ldr	r0, [sp, #8]
	mov	r1, r3
	bl	_ZN4_STL14__malloc_allocILi0EE10deallocateEPvj(PLT)
.L79:
	.loc 7 361 0 is_stmt 1
	add	sp, sp, #20
	@ sp needed
	ldr	pc, [sp], #4
	.cfi_endproc
.LFE3221:
	.size	_ZN4_STL9allocatorIP6BulletE10deallocateEPS2_j, .-_ZN4_STL9allocatorIP6BulletE10deallocateEPS2_j
	.section	.text._ZN4_STL9__destroyIPP6BulletS2_EEvT_S4_PT0_,"axG",%progbits,_ZN4_STL9__destroyIPP6BulletS2_EEvT_S4_PT0_,comdat
	.align	2
	.weak	_ZN4_STL9__destroyIPP6BulletS2_EEvT_S4_PT0_
	.hidden	_ZN4_STL9__destroyIPP6BulletS2_EEvT_S4_PT0_
	.type	_ZN4_STL9__destroyIPP6BulletS2_EEvT_S4_PT0_, %function
_ZN4_STL9__destroyIPP6BulletS2_EEvT_S4_PT0_:
.LFB3222:
	.loc 9 132 0
	.cfi_startproc
	@ args = 0, pretend = 0, frame = 24
	@ frame_needed = 0, uses_anonymous_args = 0
	str	lr, [sp, #-4]!
.LCFI47:
	.cfi_def_cfa_offset 4
	.cfi_offset 14, -4
	sub	sp, sp, #28
.LCFI48:
	.cfi_def_cfa_offset 32
	str	r0, [sp, #12]
	str	r1, [sp, #8]
	str	r2, [sp, #4]
.LBB15:
	.loc 9 134 0
	add	r3, sp, #20
	ldr	r0, [sp, #12]
	ldr	r1, [sp, #8]
	mov	r2, r3
	bl	_ZN4_STL13__destroy_auxIPP6BulletEEvT_S4_RKNS_11__true_typeE(PLT)
.LBE15:
	.loc 9 135 0
	add	sp, sp, #28
	@ sp needed
	ldr	pc, [sp], #4
	.cfi_endproc
.LFE3222:
	.size	_ZN4_STL9__destroyIPP6BulletS2_EEvT_S4_PT0_, .-_ZN4_STL9__destroyIPP6BulletS2_EEvT_S4_PT0_
	.section	.text._ZNK4_STL6vectorIP6BulletNS_9allocatorIS2_EEE4sizeEv,"axG",%progbits,_ZNK4_STL6vectorIP6BulletNS_9allocatorIS2_EEE4sizeEv,comdat
	.align	2
	.weak	_ZNK4_STL6vectorIP6BulletNS_9allocatorIS2_EEE4sizeEv
	.hidden	_ZNK4_STL6vectorIP6BulletNS_9allocatorIS2_EEE4sizeEv
	.type	_ZNK4_STL6vectorIP6BulletNS_9allocatorIS2_EEE4sizeEv, %function
_ZNK4_STL6vectorIP6BulletNS_9allocatorIS2_EEE4sizeEv:
.LFB3223:
	.loc 8 182 0
	.cfi_startproc
	@ args = 0, pretend = 0, frame = 8
	@ frame_needed = 0, uses_anonymous_args = 0
	@ link register save eliminated.
	sub	sp, sp, #8
.LCFI49:
	.cfi_def_cfa_offset 8
	str	r0, [sp, #4]
	.loc 8 182 0
	ldr	r3, [sp, #4]
	ldr	r3, [r3, #4]
	mov	r2, r3
	ldr	r3, [sp, #4]
	ldr	r3, [r3]
	rsb	r3, r3, r2
	mov	r3, r3, asr #2
	mov	r0, r3
	add	sp, sp, #8
	@ sp needed
	bx	lr
	.cfi_endproc
.LFE3223:
	.size	_ZNK4_STL6vectorIP6BulletNS_9allocatorIS2_EEE4sizeEv, .-_ZNK4_STL6vectorIP6BulletNS_9allocatorIS2_EEE4sizeEv
	.section	.text._ZN4_STL3maxIjEERKT_S3_S3_,"axG",%progbits,_ZN4_STL3maxIjEERKT_S3_S3_,comdat
	.align	2
	.weak	_ZN4_STL3maxIjEERKT_S3_S3_
	.hidden	_ZN4_STL3maxIjEERKT_S3_S3_
	.type	_ZN4_STL3maxIjEERKT_S3_S3_, %function
_ZN4_STL3maxIjEERKT_S3_S3_:
.LFB3224:
	.loc 1 79 0
	.cfi_startproc
	@ args = 0, pretend = 0, frame = 8
	@ frame_needed = 0, uses_anonymous_args = 0
	@ link register save eliminated.
	sub	sp, sp, #8
.LCFI50:
	.cfi_def_cfa_offset 8
	str	r0, [sp, #4]
	str	r1, [sp]
	.loc 1 79 0
	ldr	r3, [sp, #4]
	ldr	r2, [r3]
	ldr	r3, [sp]
	ldr	r3, [r3]
	cmp	r2, r3
	bcs	.L85
	.loc 1 79 0 is_stmt 0 discriminator 1
	ldr	r3, [sp]
	b	.L86
.L85:
	.loc 1 79 0 discriminator 2
	ldr	r3, [sp, #4]
.L86:
	.loc 1 79 0 discriminator 3
	mov	r0, r3
	add	sp, sp, #8
	@ sp needed
	bx	lr
	.cfi_endproc
.LFE3224:
	.size	_ZN4_STL3maxIjEERKT_S3_S3_, .-_ZN4_STL3maxIjEERKT_S3_S3_
	.section	.text._ZN4_STL9allocatorIP6BulletE8allocateEjPKv,"axG",%progbits,_ZN4_STL9allocatorIP6BulletE8allocateEjPKv,comdat
	.align	2
	.weak	_ZN4_STL9allocatorIP6BulletE8allocateEjPKv
	.hidden	_ZN4_STL9allocatorIP6BulletE8allocateEjPKv
	.type	_ZN4_STL9allocatorIP6BulletE8allocateEjPKv, %function
_ZN4_STL9allocatorIP6BulletE8allocateEjPKv:
.LFB3225:
	.loc 7 354 0 is_stmt 1
	.cfi_startproc
	@ args = 0, pretend = 0, frame = 16
	@ frame_needed = 0, uses_anonymous_args = 0
	str	lr, [sp, #-4]!
.LCFI51:
	.cfi_def_cfa_offset 4
	.cfi_offset 14, -4
	sub	sp, sp, #20
.LCFI52:
	.cfi_def_cfa_offset 24
	str	r0, [sp, #12]
	str	r1, [sp, #8]
	str	r2, [sp, #4]
	.loc 7 355 0
	ldr	r3, [sp, #8]
	cmp	r3, #0
	beq	.L89
	.loc 7 355 0 is_stmt 0 discriminator 1
	ldr	r3, [sp, #8]
	mov	r3, r3, asl #2
	mov	r0, r3
	bl	_ZN4_STL14__malloc_allocILi0EE8allocateEj(PLT)
	mov	r3, r0
	b	.L90
.L89:
	.loc 7 355 0 discriminator 2
	mov	r3, #0
.L90:
	.loc 7 356 0 is_stmt 1 discriminator 3
	mov	r0, r3
	add	sp, sp, #20
	@ sp needed
	ldr	pc, [sp], #4
	.cfi_endproc
.LFE3225:
	.size	_ZN4_STL9allocatorIP6BulletE8allocateEjPKv, .-_ZN4_STL9allocatorIP6BulletE8allocateEjPKv
	.section	.text._ZN4_STL6fill_nIPP6BulletjS2_EET_S4_T0_RKT1_,"axG",%progbits,_ZN4_STL6fill_nIPP6BulletjS2_EET_S4_T0_RKT1_,comdat
	.align	2
	.weak	_ZN4_STL6fill_nIPP6BulletjS2_EET_S4_T0_RKT1_
	.hidden	_ZN4_STL6fill_nIPP6BulletjS2_EET_S4_T0_RKT1_
	.type	_ZN4_STL6fill_nIPP6BulletjS2_EET_S4_T0_RKT1_, %function
_ZN4_STL6fill_nIPP6BulletjS2_EET_S4_T0_RKT1_:
.LFB3226:
	.loc 1 332 0
	.cfi_startproc
	@ args = 0, pretend = 0, frame = 16
	@ frame_needed = 0, uses_anonymous_args = 0
	@ link register save eliminated.
	sub	sp, sp, #16
.LCFI53:
	.cfi_def_cfa_offset 16
	str	r0, [sp, #12]
	str	r1, [sp, #8]
	str	r2, [sp, #4]
	.loc 1 334 0
	b	.L93
.L94:
	.loc 1 335 0 discriminator 2
	ldr	r3, [sp, #4]
	ldr	r2, [r3]
	ldr	r3, [sp, #12]
	str	r2, [r3]
	.loc 1 334 0 discriminator 2
	ldr	r3, [sp, #8]
	sub	r3, r3, #1
	str	r3, [sp, #8]
	ldr	r3, [sp, #12]
	add	r3, r3, #4
	str	r3, [sp, #12]
.L93:
	.loc 1 334 0 is_stmt 0 discriminator 1
	ldr	r3, [sp, #8]
	cmp	r3, #0
	bne	.L94
	.loc 1 336 0 is_stmt 1
	ldr	r3, [sp, #12]
	.loc 1 337 0
	mov	r0, r3
	add	sp, sp, #16
	@ sp needed
	bx	lr
	.cfi_endproc
.LFE3226:
	.size	_ZN4_STL6fill_nIPP6BulletjS2_EET_S4_T0_RKT1_, .-_ZN4_STL6fill_nIPP6BulletjS2_EET_S4_T0_RKT1_
	.section	.text._ZN4_STL6vectorIP6BulletNS_9allocatorIS2_EEE8_M_clearEv,"axG",%progbits,_ZN4_STL6vectorIP6BulletNS_9allocatorIS2_EEE8_M_clearEv,comdat
	.align	2
	.weak	_ZN4_STL6vectorIP6BulletNS_9allocatorIS2_EEE8_M_clearEv
	.hidden	_ZN4_STL6vectorIP6BulletNS_9allocatorIS2_EEE8_M_clearEv
	.type	_ZN4_STL6vectorIP6BulletNS_9allocatorIS2_EEE8_M_clearEv, %function
_ZN4_STL6vectorIP6BulletNS_9allocatorIS2_EEE8_M_clearEv:
.LFB3227:
	.loc 8 493 0
	.cfi_startproc
	@ args = 0, pretend = 0, frame = 8
	@ frame_needed = 0, uses_anonymous_args = 0
	str	lr, [sp, #-4]!
.LCFI54:
	.cfi_def_cfa_offset 4
	.cfi_offset 14, -4
	sub	sp, sp, #12
.LCFI55:
	.cfi_def_cfa_offset 16
	str	r0, [sp, #4]
	.loc 8 495 0
	ldr	r3, [sp, #4]
	ldr	r2, [r3]
	ldr	r3, [sp, #4]
	ldr	r3, [r3, #4]
	mov	r0, r2
	mov	r1, r3
	bl	_ZN4_STL8_DestroyIPP6BulletEEvT_S4_(PLT)
	.loc 8 496 0
	ldr	r3, [sp, #4]
	add	r1, r3, #8
	ldr	r3, [sp, #4]
	ldr	r2, [r3]
	ldr	r3, [sp, #4]
	ldr	r3, [r3, #8]
	mov	r0, r3
	ldr	r3, [sp, #4]
	ldr	r3, [r3]
	rsb	r3, r3, r0
	mov	r3, r3, asr #2
	mov	r0, r1
	mov	r1, r2
	mov	r2, r3
	bl	_ZN4_STL9allocatorIP6BulletE10deallocateEPS2_j(PLT)
	.loc 8 498 0
	add	sp, sp, #12
	@ sp needed
	ldr	pc, [sp], #4
	.cfi_endproc
.LFE3227:
	.size	_ZN4_STL6vectorIP6BulletNS_9allocatorIS2_EEE8_M_clearEv, .-_ZN4_STL6vectorIP6BulletNS_9allocatorIS2_EEE8_M_clearEv
	.section	.text._ZN4_STL6vectorIP6BulletNS_9allocatorIS2_EEE6_M_setEPS2_S6_S6_,"axG",%progbits,_ZN4_STL6vectorIP6BulletNS_9allocatorIS2_EEE6_M_setEPS2_S6_S6_,comdat
	.align	2
	.weak	_ZN4_STL6vectorIP6BulletNS_9allocatorIS2_EEE6_M_setEPS2_S6_S6_
	.hidden	_ZN4_STL6vectorIP6BulletNS_9allocatorIS2_EEE6_M_setEPS2_S6_S6_
	.type	_ZN4_STL6vectorIP6BulletNS_9allocatorIS2_EEE6_M_setEPS2_S6_S6_, %function
_ZN4_STL6vectorIP6BulletNS_9allocatorIS2_EEE6_M_setEPS2_S6_S6_:
.LFB3228:
	.loc 8 500 0
	.cfi_startproc
	@ args = 0, pretend = 0, frame = 16
	@ frame_needed = 0, uses_anonymous_args = 0
	@ link register save eliminated.
	sub	sp, sp, #16
.LCFI56:
	.cfi_def_cfa_offset 16
	str	r0, [sp, #12]
	str	r1, [sp, #8]
	str	r2, [sp, #4]
	str	r3, [sp]
	.loc 8 501 0
	ldr	r3, [sp, #12]
	ldr	r2, [sp, #8]
	str	r2, [r3]
	.loc 8 502 0
	ldr	r3, [sp, #12]
	ldr	r2, [sp, #4]
	str	r2, [r3, #4]
	.loc 8 503 0
	ldr	r3, [sp, #12]
	ldr	r2, [sp]
	str	r2, [r3, #8]
	.loc 8 504 0
	add	sp, sp, #16
	@ sp needed
	bx	lr
	.cfi_endproc
.LFE3228:
	.size	_ZN4_STL6vectorIP6BulletNS_9allocatorIS2_EEE6_M_setEPS2_S6_S6_, .-_ZN4_STL6vectorIP6BulletNS_9allocatorIS2_EEE6_M_setEPS2_S6_S6_
	.section	.text._ZN4_STL9allocatorIP6BulletEC2ERKS3_,"axG",%progbits,_ZN4_STL9allocatorIP6BulletEC5ERKS3_,comdat
	.align	2
	.weak	_ZN4_STL9allocatorIP6BulletEC2ERKS3_
	.hidden	_ZN4_STL9allocatorIP6BulletEC2ERKS3_
	.type	_ZN4_STL9allocatorIP6BulletEC2ERKS3_, %function
_ZN4_STL9allocatorIP6BulletEC2ERKS3_:
.LFB3240:
	.loc 7 349 0
	.cfi_startproc
	@ args = 0, pretend = 0, frame = 8
	@ frame_needed = 0, uses_anonymous_args = 0
	@ link register save eliminated.
	sub	sp, sp, #8
.LCFI57:
	.cfi_def_cfa_offset 8
	str	r0, [sp, #4]
	str	r1, [sp]
	.loc 7 349 0
	ldr	r3, [sp, #4]
	mov	r0, r3
	add	sp, sp, #8
	@ sp needed
	bx	lr
	.cfi_endproc
.LFE3240:
	.size	_ZN4_STL9allocatorIP6BulletEC2ERKS3_, .-_ZN4_STL9allocatorIP6BulletEC2ERKS3_
	.weak	_ZN4_STL9allocatorIP6BulletEC1ERKS3_
	.hidden	_ZN4_STL9allocatorIP6BulletEC1ERKS3_
	.set	_ZN4_STL9allocatorIP6BulletEC1ERKS3_,_ZN4_STL9allocatorIP6BulletEC2ERKS3_
	.section	.text._ZN4_STL14__malloc_allocILi0EE10deallocateEPvj,"axG",%progbits,_ZN4_STL14__malloc_allocILi0EE10deallocateEPvj,comdat
	.align	2
	.weak	_ZN4_STL14__malloc_allocILi0EE10deallocateEPvj
	.hidden	_ZN4_STL14__malloc_allocILi0EE10deallocateEPvj
	.type	_ZN4_STL14__malloc_allocILi0EE10deallocateEPvj, %function
_ZN4_STL14__malloc_allocILi0EE10deallocateEPvj:
.LFB3242:
	.loc 7 114 0
	.cfi_startproc
	@ args = 0, pretend = 0, frame = 8
	@ frame_needed = 0, uses_anonymous_args = 0
	str	lr, [sp, #-4]!
.LCFI58:
	.cfi_def_cfa_offset 4
	.cfi_offset 14, -4
	sub	sp, sp, #12
.LCFI59:
	.cfi_def_cfa_offset 16
	str	r0, [sp, #4]
	str	r1, [sp]
	.loc 7 114 0
	ldr	r0, [sp, #4]
	bl	free(PLT)
	add	sp, sp, #12
	@ sp needed
	ldr	pc, [sp], #4
	.cfi_endproc
.LFE3242:
	.size	_ZN4_STL14__malloc_allocILi0EE10deallocateEPvj, .-_ZN4_STL14__malloc_allocILi0EE10deallocateEPvj
	.section	.text._ZN4_STL13__destroy_auxIPP6BulletEEvT_S4_RKNS_11__true_typeE,"axG",%progbits,_ZN4_STL13__destroy_auxIPP6BulletEEvT_S4_RKNS_11__true_typeE,comdat
	.align	2
	.weak	_ZN4_STL13__destroy_auxIPP6BulletEEvT_S4_RKNS_11__true_typeE
	.hidden	_ZN4_STL13__destroy_auxIPP6BulletEEvT_S4_RKNS_11__true_typeE
	.type	_ZN4_STL13__destroy_auxIPP6BulletEEvT_S4_RKNS_11__true_typeE, %function
_ZN4_STL13__destroy_auxIPP6BulletEEvT_S4_RKNS_11__true_typeE:
.LFB3243:
	.loc 9 128 0
	.cfi_startproc
	@ args = 0, pretend = 0, frame = 16
	@ frame_needed = 0, uses_anonymous_args = 0
	@ link register save eliminated.
	sub	sp, sp, #16
.LCFI60:
	.cfi_def_cfa_offset 16
	str	r0, [sp, #12]
	str	r1, [sp, #8]
	str	r2, [sp, #4]
	.loc 9 128 0
	add	sp, sp, #16
	@ sp needed
	bx	lr
	.cfi_endproc
.LFE3243:
	.size	_ZN4_STL13__destroy_auxIPP6BulletEEvT_S4_RKNS_11__true_typeE, .-_ZN4_STL13__destroy_auxIPP6BulletEEvT_S4_RKNS_11__true_typeE
	.section	.text._ZN4_STL14__malloc_allocILi0EE8allocateEj,"axG",%progbits,_ZN4_STL14__malloc_allocILi0EE8allocateEj,comdat
	.align	2
	.weak	_ZN4_STL14__malloc_allocILi0EE8allocateEj
	.hidden	_ZN4_STL14__malloc_allocILi0EE8allocateEj
	.type	_ZN4_STL14__malloc_allocILi0EE8allocateEj, %function
_ZN4_STL14__malloc_allocILi0EE8allocateEj:
.LFB3244:
	.loc 7 109 0
	.cfi_startproc
	@ args = 0, pretend = 0, frame = 16
	@ frame_needed = 0, uses_anonymous_args = 0
	str	lr, [sp, #-4]!
.LCFI61:
	.cfi_def_cfa_offset 4
	.cfi_offset 14, -4
	sub	sp, sp, #20
.LCFI62:
	.cfi_def_cfa_offset 24
	str	r0, [sp, #4]
.LBB16:
	.loc 7 110 0
	ldr	r0, [sp, #4]
	bl	malloc(PLT)
	mov	r3, r0
	str	r3, [sp, #12]
	.loc 7 111 0
	ldr	r3, [sp, #12]
	cmp	r3, #0
	bne	.L104
	.loc 7 111 0 is_stmt 0 discriminator 1
	ldr	r0, [sp, #4]
	bl	_ZN4_STL14__malloc_allocILi0EE13_S_oom_mallocEj(PLT)
	str	r0, [sp, #12]
.L104:
	.loc 7 112 0 is_stmt 1
	ldr	r3, [sp, #12]
.LBE16:
	.loc 7 113 0
	mov	r0, r3
	add	sp, sp, #20
	@ sp needed
	ldr	pc, [sp], #4
	.cfi_endproc
.LFE3244:
	.size	_ZN4_STL14__malloc_allocILi0EE8allocateEj, .-_ZN4_STL14__malloc_allocILi0EE8allocateEj
	.text
.Letext0:
	.file 10 "c:/marmalade/7.4/s3e/h/s3eTypes.h"
	.file 11 "c:/marmalade/7.4/s3e/h/s3eFile.h"
	.file 12 "c:/marmalade/7.4/s3e/h/s3eDebug.h"
	.file 13 "c:/marmalade/7.4/s3e/h/s3eSurface.h"
	.file 14 "c:/marmalade/7.4/s3e/h/std/stddef.h"
	.file 15 "c:/marmalade/7.4/s3e/h/std/stdarg.h"
	.file 16 "<built-in>"
	.file 17 "c:/marmalade/7.4/s3e/h/std/stdio.h"
	.file 18 "c:/marmalade/7.4/s3e/h/std/stdlib.h"
	.file 19 "c:/marmalade/7.4/s3e/h/std/c++/typeinfo.h"
	.file 20 "c:/marmalade/7.4/s3e/h/std/c++/exception"
	.file 21 "c:/marmalade/7.4/s3e/h/std/c++/typeinfo"
	.file 22 "c:/marmalade/7.4/s3e/h/std/c++/cstddef"
	.file 23 "c:/marmalade/7.4/s3e/h/std/c++/using/cstring"
	.file 24 "c:/marmalade/7.4/s3e/h/std/c++/cstdlib"
	.file 25 "c:/marmalade/7.4/s3e/h/std/c++/stl/type_traits.h"
	.file 26 "c:/marmalade/7.4/s3e/h/std/c++/cstdio"
	.file 27 "c:/marmalade/7.4/s3e/h/std/c++/cwchar"
	.file 28 "c:/marmalade/7.4/s3e/h/std/c++/stl/_vector.c"
	.file 29 "c:/marmalade/7.4/s3e/h/std/c++/stl/_config.h"
	.file 30 "c:/marmalade/7.4/s3e/h/ext/../std/string.h"
	.file 31 "c:/marmalade/7.4/modules/iwgeom/h/IwGeomCore.h"
	.file 32 "c:/marmalade/7.4/modules/iwutil/h/IwSerialise.h"
	.file 33 "c:/marmalade/7.4/modules/iwgeom/h/IwGeomSVec2.h"
	.file 34 "c:/marmalade/7.4/modules/iwgeom/h/IwGeomVec2.h"
	.file 35 "c:/marmalade/7.4/modules/iwgeom/h/IwGeomSVec3.h"
	.file 36 "c:/marmalade/7.4/modules/iwgeom/h/IwGeomVec3.h"
	.file 37 "c:/marmalade/7.4/modules/iwgeom/h/IwGeomFVec3.h"
	.file 38 "c:/marmalade/7.4/modules/iwgeom/h/IwGeomMat.h"
	.file 39 "c:/marmalade/7.4/modules/iwgeom/h/IwGeomFMat.h"
	.file 40 "c:/marmalade/7.4/modules/iw2dscenegraphcore/h/Iw2DSceneGraphCore.h"
	.file 41 "c:/marmalade/7.4/modules/iwgx/h/IwColour.h"
	.file 42 "c:/marmalade/7.4/modules/iwutil/h/IwString.h"
	.file 43 "c:/marmalade/7.4/modules/iwutil/h/IwAllocator.h"
	.file 44 "c:/marmalade/7.4/modules/iwutil/h/IwManaged.h"
	.file 45 "c:/marmalade/7.4/modules/iwutil/h/IwArray.h"
	.file 46 "c:/marmalade/7.4/modules/iwutil/h/IwManagedList.h"
	.file 47 "c:/marmalade/7.4/modules/iwutil/h/IwEvent.h"
	.file 48 "c:/marmalade/7.4/modules/iwutil/h/IwImage.h"
	.file 49 "c:/marmalade/7.4/modules/iwutil/h/IwMemBucket.h"
	.file 50 "c:/marmalade/7.4/modules/iwutil/h/IwMemBucketHelpers.h"
	.file 51 "c:/marmalade/7.4/modules/iwutil/h/IwList.h"
	.file 52 "c:/marmalade/7.4/modules/iwgx/h/IwGxTypes.h"
	.file 53 "c:/marmalade/7.4/s3e/h/std/time.h"
	.file 54 "c:/marmalade/7.4/s3e/h/ext/../std/wchar.h"
	.file 55 "c:/marmalade/7.4/modules/iw2dscenegraph/h/Iw2DSceneGraph.h"
	.file 56 "c:/marmalade/7.4/s3e/h/GLES/gl.h"
	.file 57 "c:/marmalade/7.4/modules/iwgx/h/IwGxStream.h"
	.file 58 "c:/marmalade/7.4/modules/iwgx/h/IwGxMetrics.h"
	.file 59 "c:/marmalade/7.4/modules/iwgx/h/IwGxState.h"
	.file 60 "c:/marmalade/7.4/modules/iwgx/h/IwMaterial.h"
	.file 61 "c:/marmalade/7.4/modules/iwgx/h/IwTexture.h"
	.file 62 "c:/marmalade/7.4/modules/iwgx/h/IwGxSurface.h"
	.file 63 "c:/marmalade/7.4/s3e/h/EGL/egl.h"
	.file 64 "c:/marmalade/7.4/modules/iwgx/h/IwTPage.h"
	.file 65 "c:/marmalade/7.4/modules/iwresmanager/h/IwResGroup.h"
	.file 66 "c:/marmalade/7.4/modules/iwresmanager/h/IwResManagerClass.h"
	.file 67 "c:/Users/Ben/Desktop/FYP/FinalYearProject/source/scene.h"
	.file 68 "c:/Users/Ben/Desktop/FYP/FinalYearProject/source/resources.h"
	.file 69 "c:/Users/Ben/Desktop/FYP/FinalYearProject/source/Collisions.h"
	.file 70 "c:/Users/Ben/Desktop/FYP/FinalYearProject/source/BulletManager.h"
	.file 71 "c:/marmalade/7.4/modules/iwgeom/h/IwGeomSqrt.h"
	.file 72 "c:/marmalade/7.4/modules/iwutil/h/IwMenu.h"
	.file 73 "c:/marmalade/7.4/modules/iwutil/h/IwTextParserITX.h"
	.file 74 "c:/marmalade/7.4/modules/iwgx/h/IwGxFuncTable.h"
	.file 75 "c:/marmalade/7.4/modules/iwutil/h/IwTypes.h"