	.arch armv6
	.fpu softvfp
	.eabi_attribute 20, 1
	.eabi_attribute 21, 1
	.eabi_attribute 23, 3
	.eabi_attribute 24, 1
	.eabi_attribute 25, 1
	.eabi_attribute 26, 2
	.eabi_attribute 30, 6
	.eabi_attribute 34, 1
	.eabi_attribute 18, 2
	.file	"Map.cpp"
	.text
.Ltext0:
	.cfi_sections	.debug_frame
	.section	.text._ZN4_STL14__copy_trivialEPKvS1_Pv,"axG",%progbits,_ZN4_STL14__copy_trivialEPKvS1_Pv,comdat
	.align	2
	.weak	_ZN4_STL14__copy_trivialEPKvS1_Pv
	.hidden	_ZN4_STL14__copy_trivialEPKvS1_Pv
	.type	_ZN4_STL14__copy_trivialEPKvS1_Pv, %function
_ZN4_STL14__copy_trivialEPKvS1_Pv:
.LFB69:
	.file 1 "c:/marmalade/7.4/s3e/h/std/c++/stl/_algobase.h"
	.loc 1 147 0
	.cfi_startproc
	@ args = 0, pretend = 0, frame = 16
	@ frame_needed = 0, uses_anonymous_args = 0
	str	lr, [sp, #-4]!
.LCFI0:
	.cfi_def_cfa_offset 4
	.cfi_offset 14, -4
	sub	sp, sp, #20
.LCFI1:
	.cfi_def_cfa_offset 24
	str	r0, [sp, #12]
	str	r1, [sp, #8]
	str	r2, [sp, #4]
	.loc 1 150 0
	ldr	r2, [sp, #8]
	ldr	r3, [sp, #12]
	cmp	r2, r3
	beq	.L2
	.loc 1 149 0
	ldr	r2, [sp, #8]
	ldr	r3, [sp, #12]
	rsb	r3, r3, r2
	ldr	r0, [sp, #4]
	ldr	r1, [sp, #12]
	mov	r2, r3
	bl	memmove(PLT)
	mov	r2, r0
	.loc 1 150 0
	ldr	r1, [sp, #8]
	ldr	r3, [sp, #12]
	rsb	r3, r3, r1
	add	r3, r2, r3
	b	.L3
.L2:
	.loc 1 150 0 is_stmt 0 discriminator 1
	ldr	r3, [sp, #4]
.L3:
	.loc 1 151 0 is_stmt 1 discriminator 2
	mov	r0, r3
	add	sp, sp, #20
	@ sp needed
	ldr	pc, [sp], #4
	.cfi_endproc
.LFE69:
	.size	_ZN4_STL14__copy_trivialEPKvS1_Pv, .-_ZN4_STL14__copy_trivialEPKvS1_Pv
	.section	.text._ZnwjPv,"axG",%progbits,_ZnwjPv,comdat
	.align	2
	.weak	_ZnwjPv
	.hidden	_ZnwjPv
	.type	_ZnwjPv, %function
_ZnwjPv:
.LFB177:
	.file 2 "c:/marmalade/7.4/s3e/h/std/c++/new.h"
	.loc 2 52 0
	.cfi_startproc
	@ args = 0, pretend = 0, frame = 8
	@ frame_needed = 0, uses_anonymous_args = 0
	@ link register save eliminated.
	sub	sp, sp, #8
.LCFI2:
	.cfi_def_cfa_offset 8
	str	r0, [sp, #4]
	str	r1, [sp]
	.loc 2 52 0
	ldr	r3, [sp]
	mov	r0, r3
	add	sp, sp, #8
	@ sp needed
	bx	lr
	.cfi_endproc
.LFE177:
	.size	_ZnwjPv, .-_ZnwjPv
	.section	.text._ZN4_STL8_DestroyEPcS0_,"axG",%progbits,_ZN4_STL8_DestroyEPcS0_,comdat
	.align	2
	.weak	_ZN4_STL8_DestroyEPcS0_
	.hidden	_ZN4_STL8_DestroyEPcS0_
	.type	_ZN4_STL8_DestroyEPcS0_, %function
_ZN4_STL8_DestroyEPcS0_:
.LFB215:
	.file 3 "c:/marmalade/7.4/s3e/h/std/c++/stl/_construct.h"
	.loc 3 142 0
	.cfi_startproc
	@ args = 0, pretend = 0, frame = 8
	@ frame_needed = 0, uses_anonymous_args = 0
	@ link register save eliminated.
	sub	sp, sp, #8
.LCFI3:
	.cfi_def_cfa_offset 8
	str	r0, [sp, #4]
	str	r1, [sp]
	.loc 3 142 0
	add	sp, sp, #8
	@ sp needed
	bx	lr
	.cfi_endproc
.LFE215:
	.size	_ZN4_STL8_DestroyEPcS0_, .-_ZN4_STL8_DestroyEPcS0_
	.section	.text._ZN4_STL18uninitialized_copyEPKcS1_Pc,"axG",%progbits,_ZN4_STL18uninitialized_copyEPKcS1_Pc,comdat
	.align	2
	.weak	_ZN4_STL18uninitialized_copyEPKcS1_Pc
	.hidden	_ZN4_STL18uninitialized_copyEPKcS1_Pc
	.type	_ZN4_STL18uninitialized_copyEPKcS1_Pc, %function
_ZN4_STL18uninitialized_copyEPKcS1_Pc:
.LFB254:
	.file 4 "c:/marmalade/7.4/s3e/h/std/c++/stl/_uninitialized.h"
	.loc 4 83 0
	.cfi_startproc
	@ args = 0, pretend = 0, frame = 16
	@ frame_needed = 0, uses_anonymous_args = 0
	str	lr, [sp, #-4]!
.LCFI4:
	.cfi_def_cfa_offset 4
	.cfi_offset 14, -4
	sub	sp, sp, #20
.LCFI5:
	.cfi_def_cfa_offset 24
	str	r0, [sp, #12]
	str	r1, [sp, #8]
	str	r2, [sp, #4]
	.loc 4 84 0
	ldr	r0, [sp, #12]
	ldr	r1, [sp, #8]
	ldr	r2, [sp, #4]
	bl	_ZN4_STL14__copy_trivialEPKvS1_Pv(PLT)
	mov	r3, r0
	.loc 4 85 0
	mov	r0, r3
	add	sp, sp, #20
	@ sp needed
	ldr	pc, [sp], #4
	.cfi_endproc
.LFE254:
	.size	_ZN4_STL18uninitialized_copyEPKcS1_Pc, .-_ZN4_STL18uninitialized_copyEPKcS1_Pc
	.section	.text._ZN8CIwFVec2C2Eff,"axG",%progbits,_ZN8CIwFVec2C5Eff,comdat
	.align	2
	.weak	_ZN8CIwFVec2C2Eff
	.hidden	_ZN8CIwFVec2C2Eff
	.type	_ZN8CIwFVec2C2Eff, %function
_ZN8CIwFVec2C2Eff:
.LFB610:
	.file 5 "c:/marmalade/7.4/modules/iwgeom/h/IwGeomFVec2.h"
	.loc 5 72 0
	.cfi_startproc
	@ args = 0, pretend = 0, frame = 16
	@ frame_needed = 0, uses_anonymous_args = 0
	@ link register save eliminated.
	sub	sp, sp, #16
.LCFI6:
	.cfi_def_cfa_offset 16
	str	r0, [sp, #12]
	str	r1, [sp, #8]	@ float
	str	r2, [sp, #4]	@ float
.LBB2:
	.loc 5 72 0
	ldr	r3, [sp, #12]
	ldr	r2, [sp, #8]	@ float
	str	r2, [r3]	@ float
	ldr	r3, [sp, #12]
	ldr	r2, [sp, #4]	@ float
	str	r2, [r3, #4]	@ float
.LBE2:
	ldr	r3, [sp, #12]
	mov	r0, r3
	add	sp, sp, #16
	@ sp needed
	bx	lr
	.cfi_endproc
.LFE610:
	.size	_ZN8CIwFVec2C2Eff, .-_ZN8CIwFVec2C2Eff
	.weak	_ZN8CIwFVec2C1Eff
	.hidden	_ZN8CIwFVec2C1Eff
	.set	_ZN8CIwFVec2C1Eff,_ZN8CIwFVec2C2Eff
	.section	.text._ZN4_STL11char_traitsIcE6lengthEPKc,"axG",%progbits,_ZN4_STL11char_traitsIcE6lengthEPKc,comdat
	.align	2
	.weak	_ZN4_STL11char_traitsIcE6lengthEPKc
	.hidden	_ZN4_STL11char_traitsIcE6lengthEPKc
	.type	_ZN4_STL11char_traitsIcE6lengthEPKc, %function
_ZN4_STL11char_traitsIcE6lengthEPKc:
.LFB2071:
	.file 6 "c:/marmalade/7.4/s3e/h/std/c++/stl/char_traits.h"
	.loc 6 238 0
	.cfi_startproc
	@ args = 0, pretend = 0, frame = 8
	@ frame_needed = 0, uses_anonymous_args = 0
	str	lr, [sp, #-4]!
.LCFI7:
	.cfi_def_cfa_offset 4
	.cfi_offset 14, -4
	sub	sp, sp, #12
.LCFI8:
	.cfi_def_cfa_offset 16
	str	r0, [sp, #4]
	.loc 6 238 0
	ldr	r0, [sp, #4]
	bl	strlen(PLT)
	mov	r3, r0
	mov	r0, r3
	add	sp, sp, #12
	@ sp needed
	ldr	pc, [sp], #4
	.cfi_endproc
.LFE2071:
	.size	_ZN4_STL11char_traitsIcE6lengthEPKc, .-_ZN4_STL11char_traitsIcE6lengthEPKc
	.section	.text._Z12IwGetGxStatev,"axG",%progbits,_Z12IwGetGxStatev,comdat
	.align	2
	.weak	_Z12IwGetGxStatev
	.hidden	_Z12IwGetGxStatev
	.type	_Z12IwGetGxStatev, %function
_Z12IwGetGxStatev:
.LFB2522:
	.file 7 "c:/marmalade/7.4/modules/iwgx/h/IwGxState.h"
	.loc 7 497 0
	.cfi_startproc
	@ args = 0, pretend = 0, frame = 0
	@ frame_needed = 0, uses_anonymous_args = 0
	@ link register save eliminated.
	ldr	r2, .L17
.LPIC0:
	add	r2, pc, r2
	.loc 7 497 0
	ldr	r3, .L17+4
	ldr	r3, [r2, r3]
	ldr	r3, [r3]
	mov	r0, r3
	bx	lr
.L18:
	.align	2
.L17:
	.word	_GLOBAL_OFFSET_TABLE_-(.LPIC0+8)
	.word	g_IwGxState(GOT)
	.cfi_endproc
.LFE2522:
	.size	_Z12IwGetGxStatev, .-_Z12IwGetGxStatev
	.section	.text.IwGxGetScreenWidth,"ax",%progbits
	.align	2
	.type	IwGxGetScreenWidth, %function
IwGxGetScreenWidth:
.LFB2541:
	.file 8 "c:/marmalade/7.4/modules/iwgx/h/IwGx.h"
	.loc 8 408 0
	.cfi_startproc
	@ args = 0, pretend = 0, frame = 0
	@ frame_needed = 0, uses_anonymous_args = 0
	stmfd	sp!, {r3, lr}
.LCFI9:
	.cfi_def_cfa_offset 8
	.cfi_offset 3, -8
	.cfi_offset 14, -4
	.loc 8 408 0
	bl	_Z12IwGetGxStatev(PLT)
	mov	r3, r0
	ldr	r3, [r3, #536]
	mov	r0, r3
	ldmfd	sp!, {r3, pc}
	.cfi_endproc
.LFE2541:
	.size	IwGxGetScreenWidth, .-IwGxGetScreenWidth
	.section	.text.IwGxGetScreenHeight,"ax",%progbits
	.align	2
	.type	IwGxGetScreenHeight, %function
IwGxGetScreenHeight:
.LFB2542:
	.loc 8 419 0
	.cfi_startproc
	@ args = 0, pretend = 0, frame = 0
	@ frame_needed = 0, uses_anonymous_args = 0
	stmfd	sp!, {r3, lr}
.LCFI10:
	.cfi_def_cfa_offset 8
	.cfi_offset 3, -8
	.cfi_offset 14, -4
	.loc 8 419 0
	bl	_Z12IwGetGxStatev(PLT)
	mov	r3, r0
	ldr	r3, [r3, #540]
	mov	r0, r3
	ldmfd	sp!, {r3, pc}
	.cfi_endproc
.LFE2542:
	.size	IwGxGetScreenHeight, .-IwGxGetScreenHeight
	.section	.text._ZN8Platform9getSpriteEv,"axG",%progbits,_ZN8Platform9getSpriteEv,comdat
	.align	2
	.weak	_ZN8Platform9getSpriteEv
	.hidden	_ZN8Platform9getSpriteEv
	.type	_ZN8Platform9getSpriteEv, %function
_ZN8Platform9getSpriteEv:
.LFB3030:
	.file 9 "c:/Users/Ben/Desktop/FYP/FinalYearProject/source/Platform.h"
	.loc 9 18 0
	.cfi_startproc
	@ args = 0, pretend = 0, frame = 8
	@ frame_needed = 0, uses_anonymous_args = 0
	@ link register save eliminated.
	sub	sp, sp, #8
.LCFI11:
	.cfi_def_cfa_offset 8
	str	r0, [sp, #4]
	.loc 9 18 0
	ldr	r3, [sp, #4]
	ldr	r3, [r3]
	mov	r0, r3
	add	sp, sp, #8
	@ sp needed
	bx	lr
	.cfi_endproc
.LFE3030:
	.size	_ZN8Platform9getSpriteEv, .-_ZN8Platform9getSpriteEv
	.section	.text._ZN3MapC2Ev,"ax",%progbits
	.align	2
	.global	_ZN3MapC2Ev
	.hidden	_ZN3MapC2Ev
	.type	_ZN3MapC2Ev, %function
_ZN3MapC2Ev:
.LFB3035:
	.file 10 "c:/Users/Ben/Desktop/FYP/FinalYearProject/source/Map.cpp"
	.loc 10 3 0
	.cfi_startproc
	@ args = 0, pretend = 0, frame = 16
	@ frame_needed = 0, uses_anonymous_args = 0
	stmfd	sp!, {r4, lr}
.LCFI12:
	.cfi_def_cfa_offset 8
	.cfi_offset 4, -8
	.cfi_offset 14, -4
	sub	sp, sp, #16
.LCFI13:
	.cfi_def_cfa_offset 24
	str	r0, [sp, #4]
.LBB3:
	.loc 10 3 0
	ldr	r4, [sp, #4]
	add	r3, sp, #8
	mov	r0, r3
	bl	_ZN4_STL9allocatorIP8PlatformEC1Ev(PLT)
	add	r3, sp, #8
	mov	r0, r4
	mov	r1, r3
	bl	_ZN4_STL6vectorIP8PlatformNS_9allocatorIS2_EEEC1ERKS4_(PLT)
	add	r3, sp, #8
	mov	r0, r3
	bl	_ZN4_STL9allocatorIP8PlatformED1Ev(PLT)
	ldr	r3, [sp, #4]
	add	r4, r3, #16
	add	r3, sp, #12
	mov	r0, r3
	bl	_ZN4_STL9allocatorIP6TargetEC1Ev(PLT)
	add	r3, sp, #12
	mov	r0, r4
	mov	r1, r3
	bl	_ZN4_STL6vectorIP6TargetNS_9allocatorIS2_EEEC1ERKS4_(PLT)
	add	r3, sp, #12
	mov	r0, r3
	bl	_ZN4_STL9allocatorIP6TargetED1Ev(PLT)
.LBE3:
	.loc 10 5 0
	ldr	r3, [sp, #4]
	mov	r0, r3
	add	sp, sp, #16
	@ sp needed
	ldmfd	sp!, {r4, pc}
	.cfi_endproc
.LFE3035:
	.size	_ZN3MapC2Ev, .-_ZN3MapC2Ev
	.global	_ZN3MapC1Ev
	.hidden	_ZN3MapC1Ev
	.set	_ZN3MapC1Ev,_ZN3MapC2Ev
	.section	.text._ZN3MapD2Ev,"ax",%progbits
	.align	2
	.global	_ZN3MapD2Ev
	.hidden	_ZN3MapD2Ev
	.type	_ZN3MapD2Ev, %function
_ZN3MapD2Ev:
.LFB3038:
	.loc 10 7 0
	.cfi_startproc
	@ args = 0, pretend = 0, frame = 8
	@ frame_needed = 0, uses_anonymous_args = 0
	str	lr, [sp, #-4]!
.LCFI14:
	.cfi_def_cfa_offset 4
	.cfi_offset 14, -4
	sub	sp, sp, #12
.LCFI15:
	.cfi_def_cfa_offset 16
	str	r0, [sp, #4]
.LBB4:
	.loc 10 7 0
	ldr	r3, [sp, #4]
	add	r3, r3, #16
	mov	r0, r3
	bl	_ZN4_STL6vectorIP6TargetNS_9allocatorIS2_EEED1Ev(PLT)
	ldr	r3, [sp, #4]
	.loc 10 9 0
	mov	r0, r3
	bl	_ZN4_STL6vectorIP8PlatformNS_9allocatorIS2_EEED1Ev(PLT)
.LBE4:
	ldr	r3, [sp, #4]
	mov	r0, r3
	add	sp, sp, #12
	@ sp needed
	ldr	pc, [sp], #4
	.cfi_endproc
.LFE3038:
	.size	_ZN3MapD2Ev, .-_ZN3MapD2Ev
	.global	_ZN3MapD1Ev
	.hidden	_ZN3MapD1Ev
	.set	_ZN3MapD1Ev,_ZN3MapD2Ev
	.section	.rodata
	.align	2
.LC0:
	.ascii	"PPPPPPPPPPPPPPPPPPPP\000"
	.align	2
.LC1:
	.ascii	"P__________________P\000"
	.align	2
.LC2:
	.ascii	"P____T_______T_____P\000"
	.align	2
.LC3:
	.ascii	"P____PP__PP__PP____P\000"
	.align	2
.LC4:
	.ascii	"P_T______________T_P\000"
	.align	2
.LC5:
	.ascii	"PPPP___PPPPPP___PPPP\000"
	.align	2
.LC6:
	.ascii	"P_____W____T_______P\000"
	.align	2
.LC7:
	.ascii	"P____PPPPPPPPPP____P\000"
	.align	2
.LC8:
	.ascii	"P________________T_P\000"
	.global	__aeabi_i2f
	.section	.text._ZN3Map4LoadEv,"ax",%progbits
	.align	2
	.global	_ZN3Map4LoadEv
	.hidden	_ZN3Map4LoadEv
	.type	_ZN3Map4LoadEv, %function
_ZN3Map4LoadEv:
.LFB3040:
	.loc 10 11 0
	.cfi_startproc
	@ args = 0, pretend = 0, frame = 376
	@ frame_needed = 0, uses_anonymous_args = 0
	stmfd	sp!, {r4, r5, lr}
.LCFI16:
	.cfi_def_cfa_offset 12
	.cfi_offset 4, -12
	.cfi_offset 5, -8
	.cfi_offset 14, -4
	sub	sp, sp, #388
.LCFI17:
	.cfi_def_cfa_offset 400
	str	r0, [sp, #12]
.LBB5:
	.loc 10 36 0
	add	r4, sp, #16
	add	r3, sp, #256
	mov	r0, r3
	bl	_ZN4_STL9allocatorIcEC1Ev(PLT)
	add	r3, sp, #256
	mov	r0, r4
	ldr	r2, .L41
.LPIC1:
	add	r2, pc, r2
	mov	r1, r2
	mov	r2, r3
	bl	_ZN4_STL12basic_stringIcNS_11char_traitsIcEENS_9allocatorIcEEEC1EPKcRKS4_(PLT)
	add	r3, sp, #256
	mov	r0, r3
	bl	_ZN4_STL9allocatorIcED1Ev(PLT)
	add	r4, r4, #12
	add	r3, sp, #260
	mov	r0, r3
	bl	_ZN4_STL9allocatorIcEC1Ev(PLT)
	add	r3, sp, #260
	mov	r0, r4
	ldr	r2, .L41+4
.LPIC2:
	add	r2, pc, r2
	mov	r1, r2
	mov	r2, r3
	bl	_ZN4_STL12basic_stringIcNS_11char_traitsIcEENS_9allocatorIcEEEC1EPKcRKS4_(PLT)
	add	r3, sp, #260
	mov	r0, r3
	bl	_ZN4_STL9allocatorIcED1Ev(PLT)
	add	r4, r4, #12
	add	r3, sp, #264
	mov	r0, r3
	bl	_ZN4_STL9allocatorIcEC1Ev(PLT)
	add	r3, sp, #264
	mov	r0, r4
	ldr	r2, .L41+8
.LPIC3:
	add	r2, pc, r2
	mov	r1, r2
	mov	r2, r3
	bl	_ZN4_STL12basic_stringIcNS_11char_traitsIcEENS_9allocatorIcEEEC1EPKcRKS4_(PLT)
	add	r3, sp, #264
	mov	r0, r3
	bl	_ZN4_STL9allocatorIcED1Ev(PLT)
	add	r4, r4, #12
	add	r3, sp, #268
	mov	r0, r3
	bl	_ZN4_STL9allocatorIcEC1Ev(PLT)
	add	r3, sp, #268
	mov	r0, r4
	ldr	r2, .L41+12
.LPIC4:
	add	r2, pc, r2
	mov	r1, r2
	mov	r2, r3
	bl	_ZN4_STL12basic_stringIcNS_11char_traitsIcEENS_9allocatorIcEEEC1EPKcRKS4_(PLT)
	add	r3, sp, #268
	mov	r0, r3
	bl	_ZN4_STL9allocatorIcED1Ev(PLT)
	add	r4, r4, #12
	add	r3, sp, #272
	mov	r0, r3
	bl	_ZN4_STL9allocatorIcEC1Ev(PLT)
	add	r3, sp, #272
	mov	r0, r4
	ldr	r2, .L41+16
.LPIC5:
	add	r2, pc, r2
	mov	r1, r2
	mov	r2, r3
	bl	_ZN4_STL12basic_stringIcNS_11char_traitsIcEENS_9allocatorIcEEEC1EPKcRKS4_(PLT)
	add	r3, sp, #272
	mov	r0, r3
	bl	_ZN4_STL9allocatorIcED1Ev(PLT)
	add	r4, r4, #12
	add	r3, sp, #276
	mov	r0, r3
	bl	_ZN4_STL9allocatorIcEC1Ev(PLT)
	add	r3, sp, #276
	mov	r0, r4
	ldr	r2, .L41+20
.LPIC6:
	add	r2, pc, r2
	mov	r1, r2
	mov	r2, r3
	bl	_ZN4_STL12basic_stringIcNS_11char_traitsIcEENS_9allocatorIcEEEC1EPKcRKS4_(PLT)
	add	r3, sp, #276
	mov	r0, r3
	bl	_ZN4_STL9allocatorIcED1Ev(PLT)
	add	r4, r4, #12
	add	r3, sp, #280
	mov	r0, r3
	bl	_ZN4_STL9allocatorIcEC1Ev(PLT)
	add	r3, sp, #280
	mov	r0, r4
	ldr	r2, .L41+24
.LPIC7:
	add	r2, pc, r2
	mov	r1, r2
	mov	r2, r3
	bl	_ZN4_STL12basic_stringIcNS_11char_traitsIcEENS_9allocatorIcEEEC1EPKcRKS4_(PLT)
	add	r3, sp, #280
	mov	r0, r3
	bl	_ZN4_STL9allocatorIcED1Ev(PLT)
	add	r4, r4, #12
	add	r3, sp, #284
	mov	r0, r3
	bl	_ZN4_STL9allocatorIcEC1Ev(PLT)
	add	r3, sp, #284
	mov	r0, r4
	ldr	r2, .L41+28
.LPIC8:
	add	r2, pc, r2
	mov	r1, r2
	mov	r2, r3
	bl	_ZN4_STL12basic_stringIcNS_11char_traitsIcEENS_9allocatorIcEEEC1EPKcRKS4_(PLT)
	add	r3, sp, #284
	mov	r0, r3
	bl	_ZN4_STL9allocatorIcED1Ev(PLT)
	add	r4, r4, #12
	add	r3, sp, #288
	mov	r0, r3
	bl	_ZN4_STL9allocatorIcEC1Ev(PLT)
	add	r3, sp, #288
	mov	r0, r4
	ldr	r2, .L41+32
.LPIC9:
	add	r2, pc, r2
	mov	r1, r2
	mov	r2, r3
	bl	_ZN4_STL12basic_stringIcNS_11char_traitsIcEENS_9allocatorIcEEEC1EPKcRKS4_(PLT)
	add	r3, sp, #288
	mov	r0, r3
	bl	_ZN4_STL9allocatorIcED1Ev(PLT)
	add	r4, r4, #12
	add	r3, sp, #292
	mov	r0, r3
	bl	_ZN4_STL9allocatorIcEC1Ev(PLT)
	add	r3, sp, #292
	mov	r0, r4
	ldr	r2, .L41+36
.LPIC10:
	add	r2, pc, r2
	mov	r1, r2
	mov	r2, r3
	bl	_ZN4_STL12basic_stringIcNS_11char_traitsIcEENS_9allocatorIcEEEC1EPKcRKS4_(PLT)
	add	r3, sp, #292
	mov	r0, r3
	bl	_ZN4_STL9allocatorIcED1Ev(PLT)
	add	r4, r4, #12
	add	r3, sp, #296
	mov	r0, r3
	bl	_ZN4_STL9allocatorIcEC1Ev(PLT)
	add	r3, sp, #296
	mov	r0, r4
	ldr	r2, .L41+40
.LPIC11:
	add	r2, pc, r2
	mov	r1, r2
	mov	r2, r3
	bl	_ZN4_STL12basic_stringIcNS_11char_traitsIcEENS_9allocatorIcEEEC1EPKcRKS4_(PLT)
	add	r3, sp, #296
	mov	r0, r3
	bl	_ZN4_STL9allocatorIcED1Ev(PLT)
	add	r4, r4, #12
	add	r3, sp, #300
	mov	r0, r3
	bl	_ZN4_STL9allocatorIcEC1Ev(PLT)
	add	r3, sp, #300
	mov	r0, r4
	ldr	r2, .L41+44
.LPIC12:
	add	r2, pc, r2
	mov	r1, r2
	mov	r2, r3
	bl	_ZN4_STL12basic_stringIcNS_11char_traitsIcEENS_9allocatorIcEEEC1EPKcRKS4_(PLT)
	add	r3, sp, #300
	mov	r0, r3
	bl	_ZN4_STL9allocatorIcED1Ev(PLT)
	add	r4, r4, #12
	add	r3, sp, #304
	mov	r0, r3
	bl	_ZN4_STL9allocatorIcEC1Ev(PLT)
	add	r3, sp, #304
	mov	r0, r4
	ldr	r2, .L41+48
.LPIC13:
	add	r2, pc, r2
	mov	r1, r2
	mov	r2, r3
	bl	_ZN4_STL12basic_stringIcNS_11char_traitsIcEENS_9allocatorIcEEEC1EPKcRKS4_(PLT)
	add	r3, sp, #304
	mov	r0, r3
	bl	_ZN4_STL9allocatorIcED1Ev(PLT)
	add	r4, r4, #12
	add	r3, sp, #308
	mov	r0, r3
	bl	_ZN4_STL9allocatorIcEC1Ev(PLT)
	add	r3, sp, #308
	mov	r0, r4
	ldr	r2, .L41+52
.LPIC14:
	add	r2, pc, r2
	mov	r1, r2
	mov	r2, r3
	bl	_ZN4_STL12basic_stringIcNS_11char_traitsIcEENS_9allocatorIcEEEC1EPKcRKS4_(PLT)
	add	r3, sp, #308
	mov	r0, r3
	bl	_ZN4_STL9allocatorIcED1Ev(PLT)
	add	r4, r4, #12
	add	r3, sp, #312
	mov	r0, r3
	bl	_ZN4_STL9allocatorIcEC1Ev(PLT)
	add	r3, sp, #312
	mov	r0, r4
	ldr	r2, .L41+56
.LPIC15:
	add	r2, pc, r2
	mov	r1, r2
	mov	r2, r3
	bl	_ZN4_STL12basic_stringIcNS_11char_traitsIcEENS_9allocatorIcEEEC1EPKcRKS4_(PLT)
	add	r3, sp, #312
	mov	r0, r3
	bl	_ZN4_STL9allocatorIcED1Ev(PLT)
	add	r4, r4, #12
	add	r3, sp, #316
	mov	r0, r3
	bl	_ZN4_STL9allocatorIcEC1Ev(PLT)
	add	r3, sp, #316
	mov	r0, r4
	ldr	r2, .L41+60
.LPIC16:
	add	r2, pc, r2
	mov	r1, r2
	mov	r2, r3
	bl	_ZN4_STL12basic_stringIcNS_11char_traitsIcEENS_9allocatorIcEEEC1EPKcRKS4_(PLT)
	add	r3, sp, #316
	mov	r0, r3
	bl	_ZN4_STL9allocatorIcED1Ev(PLT)
	add	r4, r4, #12
	add	r3, sp, #320
	mov	r0, r3
	bl	_ZN4_STL9allocatorIcEC1Ev(PLT)
	add	r3, sp, #320
	mov	r0, r4
	ldr	r2, .L41+64
.LPIC17:
	add	r2, pc, r2
	mov	r1, r2
	mov	r2, r3
	bl	_ZN4_STL12basic_stringIcNS_11char_traitsIcEENS_9allocatorIcEEEC1EPKcRKS4_(PLT)
	add	r3, sp, #320
	mov	r0, r3
	bl	_ZN4_STL9allocatorIcED1Ev(PLT)
	add	r4, r4, #12
	add	r3, sp, #324
	mov	r0, r3
	bl	_ZN4_STL9allocatorIcEC1Ev(PLT)
	add	r3, sp, #324
	mov	r0, r4
	ldr	r2, .L41+68
.LPIC18:
	add	r2, pc, r2
	mov	r1, r2
	mov	r2, r3
	bl	_ZN4_STL12basic_stringIcNS_11char_traitsIcEENS_9allocatorIcEEEC1EPKcRKS4_(PLT)
	add	r3, sp, #324
	mov	r0, r3
	bl	_ZN4_STL9allocatorIcED1Ev(PLT)
	add	r4, r4, #12
	add	r3, sp, #328
	mov	r0, r3
	bl	_ZN4_STL9allocatorIcEC1Ev(PLT)
	add	r3, sp, #328
	mov	r0, r4
	ldr	r2, .L41+72
.LPIC19:
	add	r2, pc, r2
	mov	r1, r2
	mov	r2, r3
	bl	_ZN4_STL12basic_stringIcNS_11char_traitsIcEENS_9allocatorIcEEEC1EPKcRKS4_(PLT)
	add	r3, sp, #328
	mov	r0, r3
	bl	_ZN4_STL9allocatorIcED1Ev(PLT)
	add	r4, r4, #12
	add	r3, sp, #332
	mov	r0, r3
	bl	_ZN4_STL9allocatorIcEC1Ev(PLT)
	add	r3, sp, #332
	mov	r0, r4
	ldr	r2, .L41+76
.LPIC20:
	add	r2, pc, r2
	mov	r1, r2
	mov	r2, r3
	bl	_ZN4_STL12basic_stringIcNS_11char_traitsIcEENS_9allocatorIcEEEC1EPKcRKS4_(PLT)
	add	r3, sp, #332
	mov	r0, r3
	bl	_ZN4_STL9allocatorIcED1Ev(PLT)
	.loc 10 40 0
	bl	IwGxGetScreenWidth(PLT)
	mov	r2, r0
	ldr	r3, .L41+80
	umull	r1, r3, r3, r2
	mov	r3, r3, lsr #3
	str	r3, [sp, #372]
	.loc 10 41 0
	bl	IwGxGetScreenHeight(PLT)
	mov	r2, r0
	ldr	r3, .L41+80
	umull	r1, r3, r3, r2
	mov	r3, r3, lsr #4
	str	r3, [sp, #368]
.LBB6:
	.loc 10 43 0
	mov	r3, #0
	str	r3, [sp, #380]
	b	.L32
.L38:
.LBB7:
.LBB8:
	.loc 10 45 0
	mov	r3, #0
	str	r3, [sp, #376]
	b	.L33
.L37:
	.loc 10 48 0
	add	r1, sp, #16
	ldr	r2, [sp, #380]
	mov	r3, r2
	mov	r3, r3, asl #1
	add	r3, r3, r2
	mov	r3, r3, asl #2
	add	r2, r1, r3
	ldr	r3, [sp, #376]
	mov	r0, r2
	mov	r1, r3
	bl	_ZN4_STL12basic_stringIcNS_11char_traitsIcEENS_9allocatorIcEEE2atEj(PLT)
	mov	r3, r0
	ldrb	r2, [r3]	@ zero_extendqisi2
	mov	r3, #80
	cmp	r2, r3
	movne	r3, #0
	moveq	r3, #1
	uxtb	r3, r3
	cmp	r3, #0
	beq	.L34
	.loc 10 49 0
	ldr	r5, [sp, #12]
	ldr	r3, [sp, #376]
	ldr	r2, [sp, #372]
	mul	r3, r2, r3
	mov	r0, r3
	bl	__aeabi_i2f(PLT)
	mov	r4, r0
	ldr	r3, [sp, #380]
	ldr	r2, [sp, #368]
	mul	r3, r2, r3
	mov	r0, r3
	bl	__aeabi_i2f(PLT)
	mov	r3, r0
	add	r2, sp, #340
	mov	r0, r2
	mov	r1, r4
	mov	r2, r3
	bl	_ZN8CIwFVec2C1Eff(PLT)
	mov	r0, #12
	bl	_Znwj(PLT)
	mov	r4, r0
	mov	r0, r4
	add	r3, sp, #340
	ldmia	r3, {r1, r2}
	bl	_ZN8PlatformC1E8CIwFVec2(PLT)
	str	r4, [sp, #336]
	add	r3, sp, #336
	mov	r0, r5
	mov	r1, r3
	bl	_ZN4_STL6vectorIP8PlatformNS_9allocatorIS2_EEE9push_backERKS2_(PLT)
.L34:
	.loc 10 52 0
	add	r1, sp, #16
	ldr	r2, [sp, #380]
	mov	r3, r2
	mov	r3, r3, asl #1
	add	r3, r3, r2
	mov	r3, r3, asl #2
	add	r2, r1, r3
	ldr	r3, [sp, #376]
	mov	r0, r2
	mov	r1, r3
	bl	_ZN4_STL12basic_stringIcNS_11char_traitsIcEENS_9allocatorIcEEE2atEj(PLT)
	mov	r3, r0
	ldrb	r2, [r3]	@ zero_extendqisi2
	mov	r3, #87
	cmp	r2, r3
	movne	r3, #0
	moveq	r3, #1
	uxtb	r3, r3
	cmp	r3, #0
	beq	.L35
	.loc 10 53 0
	ldr	r3, [sp, #376]
	ldr	r2, [sp, #372]
	mul	r2, r2, r3
	ldr	r3, [sp, #372]
	mov	r1, r3, lsr #31
	add	r3, r1, r3
	mov	r3, r3, asr #1
	add	r3, r2, r3
	sub	r3, r3, #20
	mov	r0, r3
	bl	__aeabi_i2f(PLT)
	mov	r4, r0
	ldr	r3, [sp, #380]
	ldr	r2, [sp, #368]
	mul	r3, r2, r3
	mov	r0, r3
	bl	__aeabi_i2f(PLT)
	mov	r3, r0
	add	r2, sp, #348
	mov	r0, r2
	mov	r1, r4
	mov	r2, r3
	bl	_ZN8CIwFVec2C1Eff(PLT)
	mov	r0, #32
	bl	_Znwj(PLT)
	mov	r4, r0
	ldr	r3, [sp, #352]
	str	r3, [sp]
	ldr	r3, [sp, #348]
	mov	r0, r4
	mov	r1, #0
	mov	r2, #0
	bl	_ZN6WeaponC1Eff8CIwFVec2(PLT)
	ldr	r3, [sp, #12]
	str	r4, [r3, #32]
.L35:
	.loc 10 56 0
	add	r1, sp, #16
	ldr	r2, [sp, #380]
	mov	r3, r2
	mov	r3, r3, asl #1
	add	r3, r3, r2
	mov	r3, r3, asl #2
	add	r2, r1, r3
	ldr	r3, [sp, #376]
	mov	r0, r2
	mov	r1, r3
	bl	_ZN4_STL12basic_stringIcNS_11char_traitsIcEENS_9allocatorIcEEE2atEj(PLT)
	mov	r3, r0
	ldrb	r2, [r3]	@ zero_extendqisi2
	mov	r3, #84
	cmp	r2, r3
	movne	r3, #0
	moveq	r3, #1
	uxtb	r3, r3
	cmp	r3, #0
	beq	.L36
	.loc 10 57 0
	ldr	r3, [sp, #12]
	add	r5, r3, #16
	ldr	r3, [sp, #376]
	ldr	r2, [sp, #372]
	mul	r2, r2, r3
	ldr	r3, [sp, #372]
	mov	r1, r3, lsr #31
	add	r3, r1, r3
	mov	r3, r3, asr #1
	add	r3, r2, r3
	sub	r3, r3, #25
	mov	r0, r3
	bl	__aeabi_i2f(PLT)
	mov	r4, r0
	ldr	r3, [sp, #380]
	add	r3, r3, #1
	ldr	r2, [sp, #368]
	mul	r3, r2, r3
	sub	r3, r3, #50
	mov	r0, r3
	bl	__aeabi_i2f(PLT)
	mov	r3, r0
	add	r2, sp, #360
	mov	r0, r2
	mov	r1, r4
	mov	r2, r3
	bl	_ZN8CIwFVec2C1Eff(PLT)
	mov	r0, #16
	bl	_Znwj(PLT)
	mov	r4, r0
	mov	r0, r4
	add	r3, sp, #360
	ldmia	r3, {r1, r2}
	bl	_ZN6TargetC1E8CIwFVec2(PLT)
	str	r4, [sp, #356]
	add	r3, sp, #356
	mov	r0, r5
	mov	r1, r3
	bl	_ZN4_STL6vectorIP6TargetNS_9allocatorIS2_EEE9push_backERKS2_(PLT)
.L36:
	.loc 10 45 0
	ldr	r3, [sp, #376]
	add	r3, r3, #1
	str	r3, [sp, #376]
.L33:
	.loc 10 45 0 is_stmt 0 discriminator 1
	ldr	r3, [sp, #376]
	cmp	r3, #19
	ble	.L37
.LBE8:
.LBE7:
	.loc 10 43 0 is_stmt 1
	ldr	r3, [sp, #380]
	add	r3, r3, #1
	str	r3, [sp, #380]
.L32:
	.loc 10 43 0 is_stmt 0 discriminator 1
	ldr	r3, [sp, #380]
	cmp	r3, #19
	ble	.L38
.LBE6:
	.loc 10 60 0 is_stmt 1
	add	r4, sp, #16
	add	r4, r4, #240
.L40:
	.loc 10 60 0 is_stmt 0 discriminator 1
	add	r3, sp, #16
	cmp	r4, r3
	beq	.L31
	.loc 10 60 0 discriminator 2
	sub	r4, r4, #12
	mov	r0, r4
	bl	_ZN4_STL12basic_stringIcNS_11char_traitsIcEENS_9allocatorIcEEED1Ev(PLT)
	b	.L40
.L31:
.LBE5:
	.loc 10 62 0 is_stmt 1
	add	sp, sp, #388
	@ sp needed
	ldmfd	sp!, {r4, r5, pc}
.L42:
	.align	2
.L41:
	.word	.LC0-(.LPIC1+8)
	.word	.LC1-(.LPIC2+8)
	.word	.LC1-(.LPIC3+8)
	.word	.LC1-(.LPIC4+8)
	.word	.LC1-(.LPIC5+8)
	.word	.LC1-(.LPIC6+8)
	.word	.LC2-(.LPIC7+8)
	.word	.LC3-(.LPIC8+8)
	.word	.LC1-(.LPIC9+8)
	.word	.LC1-(.LPIC10+8)
	.word	.LC4-(.LPIC11+8)
	.word	.LC5-(.LPIC12+8)
	.word	.LC1-(.LPIC13+8)
	.word	.LC1-(.LPIC14+8)
	.word	.LC6-(.LPIC15+8)
	.word	.LC7-(.LPIC16+8)
	.word	.LC1-(.LPIC17+8)
	.word	.LC1-(.LPIC18+8)
	.word	.LC8-(.LPIC19+8)
	.word	.LC0-(.LPIC20+8)
	.word	-858993459
	.cfi_endproc
.LFE3040:
	.size	_ZN3Map4LoadEv, .-_ZN3Map4LoadEv
	.section	.text._ZN3Map6UpdateE8CIwFVec2,"ax",%progbits
	.align	2
	.global	_ZN3Map6UpdateE8CIwFVec2
	.hidden	_ZN3Map6UpdateE8CIwFVec2
	.type	_ZN3Map6UpdateE8CIwFVec2, %function
_ZN3Map6UpdateE8CIwFVec2:
.LFB3041:
	.loc 10 64 0
	.cfi_startproc
	@ args = 0, pretend = 0, frame = 16
	@ frame_needed = 0, uses_anonymous_args = 0
	stmfd	sp!, {r4, lr}
.LCFI18:
	.cfi_def_cfa_offset 8
	.cfi_offset 4, -8
	.cfi_offset 14, -4
	sub	sp, sp, #16
.LCFI19:
	.cfi_def_cfa_offset 24
	str	r0, [sp, #12]
	add	r3, sp, #4
	stmia	r3, {r1, r2}
	.loc 10 65 0
	ldr	r3, [sp, #12]
	ldr	r3, [r3, #32]
	mov	r0, r3
	add	r3, sp, #4
	ldmia	r3, {r1, r2}
	bl	_ZN6Weapon6UpdateE8CIwFVec2(PLT)
	.loc 10 66 0
	ldr	r3, [sp, #12]
	mov	r0, r3
	bl	_ZN4_STL6vectorIP8PlatformNS_9allocatorIS2_EEE5beginEv(PLT)
	mov	r2, r0
	ldr	r3, [sp, #12]
	str	r2, [r3, #12]
	b	.L44
.L45:
	.loc 10 67 0 discriminator 2
	ldr	r3, [sp, #12]
	ldr	r3, [r3, #12]
	ldr	r3, [r3]
	mov	r0, r3
	add	r3, sp, #4
	ldmia	r3, {r1, r2}
	bl	_ZN8Platform6UpdateE8CIwFVec2(PLT)
	.loc 10 66 0 discriminator 2
	ldr	r3, [sp, #12]
	ldr	r3, [r3, #12]
	add	r2, r3, #4
	ldr	r3, [sp, #12]
	str	r2, [r3, #12]
.L44:
	.loc 10 66 0 is_stmt 0 discriminator 1
	ldr	r3, [sp, #12]
	ldr	r4, [r3, #12]
	ldr	r3, [sp, #12]
	mov	r0, r3
	bl	_ZN4_STL6vectorIP8PlatformNS_9allocatorIS2_EEE3endEv(PLT)
	mov	r3, r0
	cmp	r4, r3
	moveq	r3, #0
	movne	r3, #1
	uxtb	r3, r3
	cmp	r3, #0
	bne	.L45
	.loc 10 69 0 is_stmt 1
	ldr	r3, [sp, #12]
	add	r3, r3, #16
	mov	r0, r3
	bl	_ZN4_STL6vectorIP6TargetNS_9allocatorIS2_EEE5beginEv(PLT)
	mov	r2, r0
	ldr	r3, [sp, #12]
	str	r2, [r3, #28]
	b	.L46
.L47:
	.loc 10 70 0 discriminator 2
	ldr	r3, [sp, #12]
	ldr	r3, [r3, #28]
	ldr	r3, [r3]
	mov	r0, r3
	add	r3, sp, #4
	ldmia	r3, {r1, r2}
	bl	_ZN6Target6UpdateE8CIwFVec2(PLT)
	.loc 10 69 0 discriminator 2
	ldr	r3, [sp, #12]
	ldr	r3, [r3, #28]
	add	r2, r3, #4
	ldr	r3, [sp, #12]
	str	r2, [r3, #28]
.L46:
	.loc 10 69 0 is_stmt 0 discriminator 1
	ldr	r3, [sp, #12]
	ldr	r4, [r3, #28]
	ldr	r3, [sp, #12]
	add	r3, r3, #16
	mov	r0, r3
	bl	_ZN4_STL6vectorIP6TargetNS_9allocatorIS2_EEE3endEv(PLT)
	mov	r3, r0
	cmp	r4, r3
	moveq	r3, #0
	movne	r3, #1
	uxtb	r3, r3
	cmp	r3, #0
	bne	.L47
	.loc 10 72 0 is_stmt 1
	add	sp, sp, #16
	@ sp needed
	ldmfd	sp!, {r4, pc}
	.cfi_endproc
.LFE3041:
	.size	_ZN3Map6UpdateE8CIwFVec2, .-_ZN3Map6UpdateE8CIwFVec2
	.section	.text._ZN3Map4InitEPN18Iw2DSceneGraphCore5CNodeE,"ax",%progbits
	.align	2
	.global	_ZN3Map4InitEPN18Iw2DSceneGraphCore5CNodeE
	.hidden	_ZN3Map4InitEPN18Iw2DSceneGraphCore5CNodeE
	.type	_ZN3Map4InitEPN18Iw2DSceneGraphCore5CNodeE, %function
_ZN3Map4InitEPN18Iw2DSceneGraphCore5CNodeE:
.LFB3042:
	.loc 10 74 0
	.cfi_startproc
	@ args = 0, pretend = 0, frame = 8
	@ frame_needed = 0, uses_anonymous_args = 0
	stmfd	sp!, {r4, lr}
.LCFI20:
	.cfi_def_cfa_offset 8
	.cfi_offset 4, -8
	.cfi_offset 14, -4
	sub	sp, sp, #8
.LCFI21:
	.cfi_def_cfa_offset 16
	str	r0, [sp, #4]
	str	r1, [sp]
	.loc 10 76 0
	ldr	r0, [sp, #4]
	bl	_ZN3Map4LoadEv(PLT)
	.loc 10 78 0
	ldr	r3, [sp, #4]
	mov	r0, r3
	bl	_ZN4_STL6vectorIP8PlatformNS_9allocatorIS2_EEE5beginEv(PLT)
	mov	r2, r0
	ldr	r3, [sp, #4]
	str	r2, [r3, #12]
	b	.L49
.L50:
	.loc 10 79 0 discriminator 2
	ldr	r3, [sp, #4]
	ldr	r3, [r3, #12]
	ldr	r3, [r3]
	mov	r0, r3
	ldr	r1, [sp]
	bl	_ZN8Platform4InitEPN18Iw2DSceneGraphCore5CNodeE(PLT)
	.loc 10 78 0 discriminator 2
	ldr	r3, [sp, #4]
	ldr	r3, [r3, #12]
	add	r2, r3, #4
	ldr	r3, [sp, #4]
	str	r2, [r3, #12]
.L49:
	.loc 10 78 0 is_stmt 0 discriminator 1
	ldr	r3, [sp, #4]
	ldr	r4, [r3, #12]
	ldr	r3, [sp, #4]
	mov	r0, r3
	bl	_ZN4_STL6vectorIP8PlatformNS_9allocatorIS2_EEE3endEv(PLT)
	mov	r3, r0
	cmp	r4, r3
	moveq	r3, #0
	movne	r3, #1
	uxtb	r3, r3
	cmp	r3, #0
	bne	.L50
	.loc 10 82 0 is_stmt 1
	ldr	r3, [sp, #4]
	add	r3, r3, #16
	mov	r0, r3
	bl	_ZN4_STL6vectorIP6TargetNS_9allocatorIS2_EEE5beginEv(PLT)
	mov	r2, r0
	ldr	r3, [sp, #4]
	str	r2, [r3, #28]
	b	.L51
.L52:
	.loc 10 83 0 discriminator 2
	ldr	r3, [sp, #4]
	ldr	r3, [r3, #28]
	ldr	r3, [r3]
	mov	r0, r3
	ldr	r1, [sp]
	bl	_ZN6Target4InitEPN18Iw2DSceneGraphCore5CNodeE(PLT)
	.loc 10 82 0 discriminator 2
	ldr	r3, [sp, #4]
	ldr	r3, [r3, #28]
	add	r2, r3, #4
	ldr	r3, [sp, #4]
	str	r2, [r3, #28]
.L51:
	.loc 10 82 0 is_stmt 0 discriminator 1
	ldr	r3, [sp, #4]
	ldr	r4, [r3, #28]
	ldr	r3, [sp, #4]
	add	r3, r3, #16
	mov	r0, r3
	bl	_ZN4_STL6vectorIP6TargetNS_9allocatorIS2_EEE3endEv(PLT)
	mov	r3, r0
	cmp	r4, r3
	moveq	r3, #0
	movne	r3, #1
	uxtb	r3, r3
	cmp	r3, #0
	bne	.L52
	.loc 10 87 0 is_stmt 1
	ldr	r3, [sp, #4]
	ldr	r3, [r3, #32]
	mov	r0, r3
	ldr	r1, [sp]
	bl	_ZN6Weapon4InitEPN18Iw2DSceneGraphCore5CNodeE(PLT)
	.loc 10 88 0
	add	sp, sp, #8
	@ sp needed
	ldmfd	sp!, {r4, pc}
	.cfi_endproc
.LFE3042:
	.size	_ZN3Map4InitEPN18Iw2DSceneGraphCore5CNodeE, .-_ZN3Map4InitEPN18Iw2DSceneGraphCore5CNodeE
	.section	.text._ZN3Map12getPlatformsEv,"ax",%progbits
	.align	2
	.global	_ZN3Map12getPlatformsEv
	.hidden	_ZN3Map12getPlatformsEv
	.type	_ZN3Map12getPlatformsEv, %function
_ZN3Map12getPlatformsEv:
.LFB3043:
	.loc 10 90 0
	.cfi_startproc
	@ args = 0, pretend = 0, frame = 8
	@ frame_needed = 0, uses_anonymous_args = 0
	str	lr, [sp, #-4]!
.LCFI22:
	.cfi_def_cfa_offset 4
	.cfi_offset 14, -4
	sub	sp, sp, #12
.LCFI23:
	.cfi_def_cfa_offset 16
	str	r0, [sp, #4]
	str	r1, [sp]
	.loc 10 91 0
	ldr	r3, [sp]
	ldr	r0, [sp, #4]
	mov	r1, r3
	bl	_ZN4_STL6vectorIP8PlatformNS_9allocatorIS2_EEEC1ERKS5_(PLT)
	.loc 10 92 0
	ldr	r0, [sp, #4]
	add	sp, sp, #12
	@ sp needed
	ldr	pc, [sp], #4
	.cfi_endproc
.LFE3043:
	.size	_ZN3Map12getPlatformsEv, .-_ZN3Map12getPlatformsEv
	.section	.text._ZN3Map10getTargetsEv,"ax",%progbits
	.align	2
	.global	_ZN3Map10getTargetsEv
	.hidden	_ZN3Map10getTargetsEv
	.type	_ZN3Map10getTargetsEv, %function
_ZN3Map10getTargetsEv:
.LFB3044:
	.loc 10 94 0
	.cfi_startproc
	@ args = 0, pretend = 0, frame = 8
	@ frame_needed = 0, uses_anonymous_args = 0
	str	lr, [sp, #-4]!
.LCFI24:
	.cfi_def_cfa_offset 4
	.cfi_offset 14, -4
	sub	sp, sp, #12
.LCFI25:
	.cfi_def_cfa_offset 16
	str	r0, [sp, #4]
	str	r1, [sp]
	.loc 10 95 0
	ldr	r3, [sp]
	add	r3, r3, #16
	ldr	r0, [sp, #4]
	mov	r1, r3
	bl	_ZN4_STL6vectorIP6TargetNS_9allocatorIS2_EEEC1ERKS5_(PLT)
	.loc 10 96 0
	ldr	r0, [sp, #4]
	add	sp, sp, #12
	@ sp needed
	ldr	pc, [sp], #4
	.cfi_endproc
.LFE3044:
	.size	_ZN3Map10getTargetsEv, .-_ZN3Map10getTargetsEv
	.section	.text._ZN3Map9getWeaponEv,"ax",%progbits
	.align	2
	.global	_ZN3Map9getWeaponEv
	.hidden	_ZN3Map9getWeaponEv
	.type	_ZN3Map9getWeaponEv, %function
_ZN3Map9getWeaponEv:
.LFB3045:
	.loc 10 98 0
	.cfi_startproc
	@ args = 0, pretend = 0, frame = 8
	@ frame_needed = 0, uses_anonymous_args = 0
	@ link register save eliminated.
	sub	sp, sp, #8
.LCFI26:
	.cfi_def_cfa_offset 8
	str	r0, [sp, #4]
	.loc 10 99 0
	ldr	r3, [sp, #4]
	ldr	r3, [r3, #32]
	.loc 10 100 0
	mov	r0, r3
	add	sp, sp, #8
	@ sp needed
	bx	lr
	.cfi_endproc
.LFE3045:
	.size	_ZN3Map9getWeaponEv, .-_ZN3Map9getWeaponEv
	.section	.text._ZN3Map15playerCollisionEPN14Iw2DSceneGraph7CSpriteE,"ax",%progbits
	.align	2
	.global	_ZN3Map15playerCollisionEPN14Iw2DSceneGraph7CSpriteE
	.hidden	_ZN3Map15playerCollisionEPN14Iw2DSceneGraph7CSpriteE
	.type	_ZN3Map15playerCollisionEPN14Iw2DSceneGraph7CSpriteE, %function
_ZN3Map15playerCollisionEPN14Iw2DSceneGraph7CSpriteE:
.LFB3046:
	.loc 10 102 0
	.cfi_startproc
	@ args = 0, pretend = 0, frame = 8
	@ frame_needed = 0, uses_anonymous_args = 0
	stmfd	sp!, {r4, r5, lr}
.LCFI27:
	.cfi_def_cfa_offset 12
	.cfi_offset 4, -12
	.cfi_offset 5, -8
	.cfi_offset 14, -4
	sub	sp, sp, #12
.LCFI28:
	.cfi_def_cfa_offset 24
	str	r0, [sp, #4]
	str	r1, [sp]
	ldr	r5, .L64
.LPIC21:
	add	r5, pc, r5
	.loc 10 103 0
	ldr	r3, [sp, #4]
	mov	r0, r3
	bl	_ZN4_STL6vectorIP8PlatformNS_9allocatorIS2_EEE5beginEv(PLT)
	mov	r2, r0
	ldr	r3, [sp, #4]
	str	r2, [r3, #12]
	b	.L60
.L63:
	.loc 10 105 0
	ldr	r3, .L64+4
	ldr	r3, [r5, r3]
	ldr	r4, [r3]
	ldr	r3, [sp, #4]
	ldr	r3, [r3, #12]
	ldr	r3, [r3]
	mov	r0, r3
	bl	_ZN8Platform9getSpriteEv(PLT)
	mov	r3, r0
	mov	r0, r4
	mov	r1, r3
	ldr	r2, [sp]
	bl	_ZN10Collisions18RectangleCollisionEPN14Iw2DSceneGraph7CSpriteES2_(PLT)
	mov	r3, r0
	cmp	r3, #0
	beq	.L61
	.loc 10 106 0
	mov	r3, #1
	b	.L59
.L61:
	.loc 10 103 0
	ldr	r3, [sp, #4]
	ldr	r3, [r3, #12]
	add	r2, r3, #4
	ldr	r3, [sp, #4]
	str	r2, [r3, #12]
.L60:
	.loc 10 103 0 is_stmt 0 discriminator 1
	ldr	r3, [sp, #4]
	ldr	r4, [r3, #12]
	ldr	r3, [sp, #4]
	mov	r0, r3
	bl	_ZN4_STL6vectorIP8PlatformNS_9allocatorIS2_EEE3endEv(PLT)
	mov	r3, r0
	cmp	r4, r3
	moveq	r3, #0
	movne	r3, #1
	uxtb	r3, r3
	cmp	r3, #0
	bne	.L63
.L59:
	.loc 10 109 0 is_stmt 1
	mov	r0, r3
	add	sp, sp, #12
	@ sp needed
	ldmfd	sp!, {r4, r5, pc}
.L65:
	.align	2
.L64:
	.word	_GLOBAL_OFFSET_TABLE_-(.LPIC21+8)
	.word	g_pCollisions(GOT)
	.cfi_endproc
.LFE3046:
	.size	_ZN3Map15playerCollisionEPN14Iw2DSceneGraph7CSpriteE, .-_ZN3Map15playerCollisionEPN14Iw2DSceneGraph7CSpriteE
	.section	.text._ZN4_STL12basic_stringIcNS_11char_traitsIcEENS_9allocatorIcEEED2Ev,"axG",%progbits,_ZN4_STL12basic_stringIcNS_11char_traitsIcEENS_9allocatorIcEEED5Ev,comdat
	.align	2
	.weak	_ZN4_STL12basic_stringIcNS_11char_traitsIcEENS_9allocatorIcEEED2Ev
	.hidden	_ZN4_STL12basic_stringIcNS_11char_traitsIcEENS_9allocatorIcEEED2Ev
	.type	_ZN4_STL12basic_stringIcNS_11char_traitsIcEENS_9allocatorIcEEED2Ev, %function
_ZN4_STL12basic_stringIcNS_11char_traitsIcEENS_9allocatorIcEEED2Ev:
.LFB3110:
	.file 11 "c:/marmalade/7.4/s3e/h/std/c++/stl/_string.h"
	.loc 11 305 0
	.cfi_startproc
	@ args = 0, pretend = 0, frame = 8
	@ frame_needed = 0, uses_anonymous_args = 0
	str	lr, [sp, #-4]!
.LCFI29:
	.cfi_def_cfa_offset 4
	.cfi_offset 14, -4
	sub	sp, sp, #12
.LCFI30:
	.cfi_def_cfa_offset 16
	str	r0, [sp, #4]
.LBB9:
	.loc 11 305 0
	ldr	r3, [sp, #4]
	ldr	r2, [r3]
	ldr	r3, [sp, #4]
	ldr	r3, [r3, #4]
	add	r3, r3, #1
	mov	r0, r2
	mov	r1, r3
	bl	_ZN4_STL8_DestroyEPcS0_(PLT)
	ldr	r3, [sp, #4]
	mov	r0, r3
	bl	_ZN4_STL12_String_baseIcNS_9allocatorIcEEED2Ev(PLT)
.LBE9:
	ldr	r3, [sp, #4]
	mov	r0, r3
	add	sp, sp, #12
	@ sp needed
	ldr	pc, [sp], #4
	.cfi_endproc
.LFE3110:
	.size	_ZN4_STL12basic_stringIcNS_11char_traitsIcEENS_9allocatorIcEEED2Ev, .-_ZN4_STL12basic_stringIcNS_11char_traitsIcEENS_9allocatorIcEEED2Ev
	.weak	_ZN4_STL12basic_stringIcNS_11char_traitsIcEENS_9allocatorIcEEED1Ev
	.hidden	_ZN4_STL12basic_stringIcNS_11char_traitsIcEENS_9allocatorIcEEED1Ev
	.set	_ZN4_STL12basic_stringIcNS_11char_traitsIcEENS_9allocatorIcEEED1Ev,_ZN4_STL12basic_stringIcNS_11char_traitsIcEENS_9allocatorIcEEED2Ev
	.section	.text._ZN4_STL9allocatorIP8PlatformEC2Ev,"axG",%progbits,_ZN4_STL9allocatorIP8PlatformEC5Ev,comdat
	.align	2
	.weak	_ZN4_STL9allocatorIP8PlatformEC2Ev
	.hidden	_ZN4_STL9allocatorIP8PlatformEC2Ev
	.type	_ZN4_STL9allocatorIP8PlatformEC2Ev, %function
_ZN4_STL9allocatorIP8PlatformEC2Ev:
.LFB3131:
	.file 12 "c:/marmalade/7.4/s3e/h/std/c++/stl/_alloc.h"
	.loc 12 345 0
	.cfi_startproc
	@ args = 0, pretend = 0, frame = 8
	@ frame_needed = 0, uses_anonymous_args = 0
	@ link register save eliminated.
	sub	sp, sp, #8
.LCFI31:
	.cfi_def_cfa_offset 8
	str	r0, [sp, #4]
	.loc 12 345 0
	ldr	r3, [sp, #4]
	mov	r0, r3
	add	sp, sp, #8
	@ sp needed
	bx	lr
	.cfi_endproc
.LFE3131:
	.size	_ZN4_STL9allocatorIP8PlatformEC2Ev, .-_ZN4_STL9allocatorIP8PlatformEC2Ev
	.weak	_ZN4_STL9allocatorIP8PlatformEC1Ev
	.hidden	_ZN4_STL9allocatorIP8PlatformEC1Ev
	.set	_ZN4_STL9allocatorIP8PlatformEC1Ev,_ZN4_STL9allocatorIP8PlatformEC2Ev
	.section	.text._ZN4_STL9allocatorIP8PlatformED2Ev,"axG",%progbits,_ZN4_STL9allocatorIP8PlatformED5Ev,comdat
	.align	2
	.weak	_ZN4_STL9allocatorIP8PlatformED2Ev
	.hidden	_ZN4_STL9allocatorIP8PlatformED2Ev
	.type	_ZN4_STL9allocatorIP8PlatformED2Ev, %function
_ZN4_STL9allocatorIP8PlatformED2Ev:
.LFB3134:
	.loc 12 350 0
	.cfi_startproc
	@ args = 0, pretend = 0, frame = 8
	@ frame_needed = 0, uses_anonymous_args = 0
	@ link register save eliminated.
	sub	sp, sp, #8
.LCFI32:
	.cfi_def_cfa_offset 8
	str	r0, [sp, #4]
	.loc 12 350 0
	ldr	r3, [sp, #4]
	mov	r0, r3
	add	sp, sp, #8
	@ sp needed
	bx	lr
	.cfi_endproc
.LFE3134:
	.size	_ZN4_STL9allocatorIP8PlatformED2Ev, .-_ZN4_STL9allocatorIP8PlatformED2Ev
	.weak	_ZN4_STL9allocatorIP8PlatformED1Ev
	.hidden	_ZN4_STL9allocatorIP8PlatformED1Ev
	.set	_ZN4_STL9allocatorIP8PlatformED1Ev,_ZN4_STL9allocatorIP8PlatformED2Ev
	.section	.text._ZN4_STL6vectorIP8PlatformNS_9allocatorIS2_EEEC2ERKS4_,"axG",%progbits,_ZN4_STL6vectorIP8PlatformNS_9allocatorIS2_EEEC5ERKS4_,comdat
	.align	2
	.weak	_ZN4_STL6vectorIP8PlatformNS_9allocatorIS2_EEEC2ERKS4_
	.hidden	_ZN4_STL6vectorIP8PlatformNS_9allocatorIS2_EEEC2ERKS4_
	.type	_ZN4_STL6vectorIP8PlatformNS_9allocatorIS2_EEEC2ERKS4_, %function
_ZN4_STL6vectorIP8PlatformNS_9allocatorIS2_EEEC2ERKS4_:
.LFB3137:
	.file 13 "c:/marmalade/7.4/s3e/h/std/c++/stl/_vector.h"
	.loc 13 198 0
	.cfi_startproc
	@ args = 0, pretend = 0, frame = 8
	@ frame_needed = 0, uses_anonymous_args = 0
	str	lr, [sp, #-4]!
.LCFI33:
	.cfi_def_cfa_offset 4
	.cfi_offset 14, -4
	sub	sp, sp, #12
.LCFI34:
	.cfi_def_cfa_offset 16
	str	r0, [sp, #4]
	str	r1, [sp]
.LBB10:
	.loc 13 199 0
	ldr	r3, [sp, #4]
	mov	r0, r3
	ldr	r1, [sp]
	bl	_ZN4_STL12_Vector_baseIP8PlatformNS_9allocatorIS2_EEEC2ERKS4_(PLT)
.LBE10:
	ldr	r3, [sp, #4]
	mov	r0, r3
	add	sp, sp, #12
	@ sp needed
	ldr	pc, [sp], #4
	.cfi_endproc
.LFE3137:
	.size	_ZN4_STL6vectorIP8PlatformNS_9allocatorIS2_EEEC2ERKS4_, .-_ZN4_STL6vectorIP8PlatformNS_9allocatorIS2_EEEC2ERKS4_
	.weak	_ZN4_STL6vectorIP8PlatformNS_9allocatorIS2_EEEC1ERKS4_
	.hidden	_ZN4_STL6vectorIP8PlatformNS_9allocatorIS2_EEEC1ERKS4_
	.set	_ZN4_STL6vectorIP8PlatformNS_9allocatorIS2_EEEC1ERKS4_,_ZN4_STL6vectorIP8PlatformNS_9allocatorIS2_EEEC2ERKS4_
	.section	.text._ZN4_STL6vectorIP8PlatformNS_9allocatorIS2_EEED2Ev,"axG",%progbits,_ZN4_STL6vectorIP8PlatformNS_9allocatorIS2_EEED5Ev,comdat
	.align	2
	.weak	_ZN4_STL6vectorIP8PlatformNS_9allocatorIS2_EEED2Ev
	.hidden	_ZN4_STL6vectorIP8PlatformNS_9allocatorIS2_EEED2Ev
	.type	_ZN4_STL6vectorIP8PlatformNS_9allocatorIS2_EEED2Ev, %function
_ZN4_STL6vectorIP8PlatformNS_9allocatorIS2_EEED2Ev:
.LFB3140:
	.loc 13 258 0
	.cfi_startproc
	@ args = 0, pretend = 0, frame = 8
	@ frame_needed = 0, uses_anonymous_args = 0
	str	lr, [sp, #-4]!
.LCFI35:
	.cfi_def_cfa_offset 4
	.cfi_offset 14, -4
	sub	sp, sp, #12
.LCFI36:
	.cfi_def_cfa_offset 16
	str	r0, [sp, #4]
.LBB11:
	.loc 13 258 0
	ldr	r3, [sp, #4]
	ldr	r2, [r3]
	ldr	r3, [sp, #4]
	ldr	r3, [r3, #4]
	mov	r0, r2
	mov	r1, r3
	bl	_ZN4_STL8_DestroyIPP8PlatformEEvT_S4_(PLT)
	ldr	r3, [sp, #4]
	mov	r0, r3
	bl	_ZN4_STL12_Vector_baseIP8PlatformNS_9allocatorIS2_EEED2Ev(PLT)
.LBE11:
	ldr	r3, [sp, #4]
	mov	r0, r3
	add	sp, sp, #12
	@ sp needed
	ldr	pc, [sp], #4
	.cfi_endproc
.LFE3140:
	.size	_ZN4_STL6vectorIP8PlatformNS_9allocatorIS2_EEED2Ev, .-_ZN4_STL6vectorIP8PlatformNS_9allocatorIS2_EEED2Ev
	.weak	_ZN4_STL6vectorIP8PlatformNS_9allocatorIS2_EEED1Ev
	.hidden	_ZN4_STL6vectorIP8PlatformNS_9allocatorIS2_EEED1Ev
	.set	_ZN4_STL6vectorIP8PlatformNS_9allocatorIS2_EEED1Ev,_ZN4_STL6vectorIP8PlatformNS_9allocatorIS2_EEED2Ev
	.section	.text._ZN4_STL9allocatorIP6TargetEC2Ev,"axG",%progbits,_ZN4_STL9allocatorIP6TargetEC5Ev,comdat
	.align	2
	.weak	_ZN4_STL9allocatorIP6TargetEC2Ev
	.hidden	_ZN4_STL9allocatorIP6TargetEC2Ev
	.type	_ZN4_STL9allocatorIP6TargetEC2Ev, %function
_ZN4_STL9allocatorIP6TargetEC2Ev:
.LFB3143:
	.loc 12 345 0
	.cfi_startproc
	@ args = 0, pretend = 0, frame = 8
	@ frame_needed = 0, uses_anonymous_args = 0
	@ link register save eliminated.
	sub	sp, sp, #8
.LCFI37:
	.cfi_def_cfa_offset 8
	str	r0, [sp, #4]
	.loc 12 345 0
	ldr	r3, [sp, #4]
	mov	r0, r3
	add	sp, sp, #8
	@ sp needed
	bx	lr
	.cfi_endproc
.LFE3143:
	.size	_ZN4_STL9allocatorIP6TargetEC2Ev, .-_ZN4_STL9allocatorIP6TargetEC2Ev
	.weak	_ZN4_STL9allocatorIP6TargetEC1Ev
	.hidden	_ZN4_STL9allocatorIP6TargetEC1Ev
	.set	_ZN4_STL9allocatorIP6TargetEC1Ev,_ZN4_STL9allocatorIP6TargetEC2Ev
	.section	.text._ZN4_STL9allocatorIP6TargetED2Ev,"axG",%progbits,_ZN4_STL9allocatorIP6TargetED5Ev,comdat
	.align	2
	.weak	_ZN4_STL9allocatorIP6TargetED2Ev
	.hidden	_ZN4_STL9allocatorIP6TargetED2Ev
	.type	_ZN4_STL9allocatorIP6TargetED2Ev, %function
_ZN4_STL9allocatorIP6TargetED2Ev:
.LFB3146:
	.loc 12 350 0
	.cfi_startproc
	@ args = 0, pretend = 0, frame = 8
	@ frame_needed = 0, uses_anonymous_args = 0
	@ link register save eliminated.
	sub	sp, sp, #8
.LCFI38:
	.cfi_def_cfa_offset 8
	str	r0, [sp, #4]
	.loc 12 350 0
	ldr	r3, [sp, #4]
	mov	r0, r3
	add	sp, sp, #8
	@ sp needed
	bx	lr
	.cfi_endproc
.LFE3146:
	.size	_ZN4_STL9allocatorIP6TargetED2Ev, .-_ZN4_STL9allocatorIP6TargetED2Ev
	.weak	_ZN4_STL9allocatorIP6TargetED1Ev
	.hidden	_ZN4_STL9allocatorIP6TargetED1Ev
	.set	_ZN4_STL9allocatorIP6TargetED1Ev,_ZN4_STL9allocatorIP6TargetED2Ev
	.section	.text._ZN4_STL6vectorIP6TargetNS_9allocatorIS2_EEEC2ERKS4_,"axG",%progbits,_ZN4_STL6vectorIP6TargetNS_9allocatorIS2_EEEC5ERKS4_,comdat
	.align	2
	.weak	_ZN4_STL6vectorIP6TargetNS_9allocatorIS2_EEEC2ERKS4_
	.hidden	_ZN4_STL6vectorIP6TargetNS_9allocatorIS2_EEEC2ERKS4_
	.type	_ZN4_STL6vectorIP6TargetNS_9allocatorIS2_EEEC2ERKS4_, %function
_ZN4_STL6vectorIP6TargetNS_9allocatorIS2_EEEC2ERKS4_:
.LFB3149:
	.loc 13 198 0
	.cfi_startproc
	@ args = 0, pretend = 0, frame = 8
	@ frame_needed = 0, uses_anonymous_args = 0
	str	lr, [sp, #-4]!
.LCFI39:
	.cfi_def_cfa_offset 4
	.cfi_offset 14, -4
	sub	sp, sp, #12
.LCFI40:
	.cfi_def_cfa_offset 16
	str	r0, [sp, #4]
	str	r1, [sp]
.LBB12:
	.loc 13 199 0
	ldr	r3, [sp, #4]
	mov	r0, r3
	ldr	r1, [sp]
	bl	_ZN4_STL12_Vector_baseIP6TargetNS_9allocatorIS2_EEEC2ERKS4_(PLT)
.LBE12:
	ldr	r3, [sp, #4]
	mov	r0, r3
	add	sp, sp, #12
	@ sp needed
	ldr	pc, [sp], #4
	.cfi_endproc
.LFE3149:
	.size	_ZN4_STL6vectorIP6TargetNS_9allocatorIS2_EEEC2ERKS4_, .-_ZN4_STL6vectorIP6TargetNS_9allocatorIS2_EEEC2ERKS4_
	.weak	_ZN4_STL6vectorIP6TargetNS_9allocatorIS2_EEEC1ERKS4_
	.hidden	_ZN4_STL6vectorIP6TargetNS_9allocatorIS2_EEEC1ERKS4_
	.set	_ZN4_STL6vectorIP6TargetNS_9allocatorIS2_EEEC1ERKS4_,_ZN4_STL6vectorIP6TargetNS_9allocatorIS2_EEEC2ERKS4_
	.section	.text._ZN4_STL6vectorIP6TargetNS_9allocatorIS2_EEED2Ev,"axG",%progbits,_ZN4_STL6vectorIP6TargetNS_9allocatorIS2_EEED5Ev,comdat
	.align	2
	.weak	_ZN4_STL6vectorIP6TargetNS_9allocatorIS2_EEED2Ev
	.hidden	_ZN4_STL6vectorIP6TargetNS_9allocatorIS2_EEED2Ev
	.type	_ZN4_STL6vectorIP6TargetNS_9allocatorIS2_EEED2Ev, %function
_ZN4_STL6vectorIP6TargetNS_9allocatorIS2_EEED2Ev:
.LFB3152:
	.loc 13 258 0
	.cfi_startproc
	@ args = 0, pretend = 0, frame = 8
	@ frame_needed = 0, uses_anonymous_args = 0
	str	lr, [sp, #-4]!
.LCFI41:
	.cfi_def_cfa_offset 4
	.cfi_offset 14, -4
	sub	sp, sp, #12
.LCFI42:
	.cfi_def_cfa_offset 16
	str	r0, [sp, #4]
.LBB13:
	.loc 13 258 0
	ldr	r3, [sp, #4]
	ldr	r2, [r3]
	ldr	r3, [sp, #4]
	ldr	r3, [r3, #4]
	mov	r0, r2
	mov	r1, r3
	bl	_ZN4_STL8_DestroyIPP6TargetEEvT_S4_(PLT)
	ldr	r3, [sp, #4]
	mov	r0, r3
	bl	_ZN4_STL12_Vector_baseIP6TargetNS_9allocatorIS2_EEED2Ev(PLT)
.LBE13:
	ldr	r3, [sp, #4]
	mov	r0, r3
	add	sp, sp, #12
	@ sp needed
	ldr	pc, [sp], #4
	.cfi_endproc
.LFE3152:
	.size	_ZN4_STL6vectorIP6TargetNS_9allocatorIS2_EEED2Ev, .-_ZN4_STL6vectorIP6TargetNS_9allocatorIS2_EEED2Ev
	.weak	_ZN4_STL6vectorIP6TargetNS_9allocatorIS2_EEED1Ev
	.hidden	_ZN4_STL6vectorIP6TargetNS_9allocatorIS2_EEED1Ev
	.set	_ZN4_STL6vectorIP6TargetNS_9allocatorIS2_EEED1Ev,_ZN4_STL6vectorIP6TargetNS_9allocatorIS2_EEED2Ev
	.section	.text._ZN4_STL9allocatorIcEC2Ev,"axG",%progbits,_ZN4_STL9allocatorIcEC5Ev,comdat
	.align	2
	.weak	_ZN4_STL9allocatorIcEC2Ev
	.hidden	_ZN4_STL9allocatorIcEC2Ev
	.type	_ZN4_STL9allocatorIcEC2Ev, %function
_ZN4_STL9allocatorIcEC2Ev:
.LFB3155:
	.loc 12 345 0
	.cfi_startproc
	@ args = 0, pretend = 0, frame = 8
	@ frame_needed = 0, uses_anonymous_args = 0
	@ link register save eliminated.
	sub	sp, sp, #8
.LCFI43:
	.cfi_def_cfa_offset 8
	str	r0, [sp, #4]
	.loc 12 345 0
	ldr	r3, [sp, #4]
	mov	r0, r3
	add	sp, sp, #8
	@ sp needed
	bx	lr
	.cfi_endproc
.LFE3155:
	.size	_ZN4_STL9allocatorIcEC2Ev, .-_ZN4_STL9allocatorIcEC2Ev
	.weak	_ZN4_STL9allocatorIcEC1Ev
	.hidden	_ZN4_STL9allocatorIcEC1Ev
	.set	_ZN4_STL9allocatorIcEC1Ev,_ZN4_STL9allocatorIcEC2Ev
	.section	.text._ZN4_STL9allocatorIcED2Ev,"axG",%progbits,_ZN4_STL9allocatorIcED5Ev,comdat
	.align	2
	.weak	_ZN4_STL9allocatorIcED2Ev
	.hidden	_ZN4_STL9allocatorIcED2Ev
	.type	_ZN4_STL9allocatorIcED2Ev, %function
_ZN4_STL9allocatorIcED2Ev:
.LFB3158:
	.loc 12 350 0
	.cfi_startproc
	@ args = 0, pretend = 0, frame = 8
	@ frame_needed = 0, uses_anonymous_args = 0
	@ link register save eliminated.
	sub	sp, sp, #8
.LCFI44:
	.cfi_def_cfa_offset 8
	str	r0, [sp, #4]
	.loc 12 350 0
	ldr	r3, [sp, #4]
	mov	r0, r3
	add	sp, sp, #8
	@ sp needed
	bx	lr
	.cfi_endproc
.LFE3158:
	.size	_ZN4_STL9allocatorIcED2Ev, .-_ZN4_STL9allocatorIcED2Ev
	.weak	_ZN4_STL9allocatorIcED1Ev
	.hidden	_ZN4_STL9allocatorIcED1Ev
	.set	_ZN4_STL9allocatorIcED1Ev,_ZN4_STL9allocatorIcED2Ev
	.section	.text._ZN4_STL12basic_stringIcNS_11char_traitsIcEENS_9allocatorIcEEEC2EPKcRKS4_,"axG",%progbits,_ZN4_STL12basic_stringIcNS_11char_traitsIcEENS_9allocatorIcEEEC5EPKcRKS4_,comdat
	.align	2
	.weak	_ZN4_STL12basic_stringIcNS_11char_traitsIcEENS_9allocatorIcEEEC2EPKcRKS4_
	.hidden	_ZN4_STL12basic_stringIcNS_11char_traitsIcEENS_9allocatorIcEEEC2EPKcRKS4_
	.type	_ZN4_STL12basic_stringIcNS_11char_traitsIcEENS_9allocatorIcEEEC2EPKcRKS4_, %function
_ZN4_STL12basic_stringIcNS_11char_traitsIcEENS_9allocatorIcEEEC2EPKcRKS4_:
.LFB3161:
	.file 14 "c:/marmalade/7.4/s3e/h/std/c++/stl/_string.c"
	.loc 14 549 0
	.cfi_startproc
	@ args = 0, pretend = 0, frame = 16
	@ frame_needed = 0, uses_anonymous_args = 0
	str	lr, [sp, #-4]!
.LCFI45:
	.cfi_def_cfa_offset 4
	.cfi_offset 14, -4
	sub	sp, sp, #20
.LCFI46:
	.cfi_def_cfa_offset 24
	str	r0, [sp, #12]
	str	r1, [sp, #8]
	str	r2, [sp, #4]
.LBB14:
	.loc 14 551 0
	ldr	r3, [sp, #12]
	mov	r0, r3
	ldr	r1, [sp, #4]
	bl	_ZN4_STL12_String_baseIcNS_9allocatorIcEEEC2ERKS2_(PLT)
	.loc 14 554 0
	ldr	r0, [sp, #8]
	bl	_ZN4_STL11char_traitsIcE6lengthEPKc(PLT)
	mov	r3, r0
	ldr	r2, [sp, #8]
	add	r3, r2, r3
	ldr	r0, [sp, #12]
	ldr	r1, [sp, #8]
	mov	r2, r3
	bl	_ZN4_STL12basic_stringIcNS_11char_traitsIcEENS_9allocatorIcEEE19_M_range_initializeIPKcEEvT_S9_(PLT)
.LBE14:
	.loc 14 555 0
	ldr	r3, [sp, #12]
	mov	r0, r3
	add	sp, sp, #20
	@ sp needed
	ldr	pc, [sp], #4
	.cfi_endproc
.LFE3161:
	.size	_ZN4_STL12basic_stringIcNS_11char_traitsIcEENS_9allocatorIcEEEC2EPKcRKS4_, .-_ZN4_STL12basic_stringIcNS_11char_traitsIcEENS_9allocatorIcEEEC2EPKcRKS4_
	.weak	_ZN4_STL12basic_stringIcNS_11char_traitsIcEENS_9allocatorIcEEEC1EPKcRKS4_
	.hidden	_ZN4_STL12basic_stringIcNS_11char_traitsIcEENS_9allocatorIcEEEC1EPKcRKS4_
	.set	_ZN4_STL12basic_stringIcNS_11char_traitsIcEENS_9allocatorIcEEEC1EPKcRKS4_,_ZN4_STL12basic_stringIcNS_11char_traitsIcEENS_9allocatorIcEEEC2EPKcRKS4_
	.section	.text._ZN4_STL12basic_stringIcNS_11char_traitsIcEENS_9allocatorIcEEE2atEj,"axG",%progbits,_ZN4_STL12basic_stringIcNS_11char_traitsIcEENS_9allocatorIcEEE2atEj,comdat
	.align	2
	.weak	_ZN4_STL12basic_stringIcNS_11char_traitsIcEENS_9allocatorIcEEE2atEj
	.hidden	_ZN4_STL12basic_stringIcNS_11char_traitsIcEENS_9allocatorIcEEE2atEj
	.type	_ZN4_STL12basic_stringIcNS_11char_traitsIcEENS_9allocatorIcEEE2atEj, %function
_ZN4_STL12basic_stringIcNS_11char_traitsIcEENS_9allocatorIcEEE2atEj:
.LFB3163:
	.loc 11 472 0
	.cfi_startproc
	@ args = 0, pretend = 0, frame = 8
	@ frame_needed = 0, uses_anonymous_args = 0
	str	lr, [sp, #-4]!
.LCFI47:
	.cfi_def_cfa_offset 4
	.cfi_offset 14, -4
	sub	sp, sp, #12
.LCFI48:
	.cfi_def_cfa_offset 16
	str	r0, [sp, #4]
	str	r1, [sp]
	.loc 11 473 0
	ldr	r0, [sp, #4]
	bl	_ZNK4_STL12basic_stringIcNS_11char_traitsIcEENS_9allocatorIcEEE4sizeEv(PLT)
	mov	r2, r0
	ldr	r3, [sp]
	cmp	r2, r3
	movhi	r3, #0
	movls	r3, #1
	uxtb	r3, r3
	cmp	r3, #0
	beq	.L103
	.loc 11 474 0
	ldr	r3, [sp, #4]
	mov	r0, r3
	bl	_ZNK4_STL12_String_baseIcNS_9allocatorIcEEE21_M_throw_out_of_rangeEv(PLT)
.L103:
	.loc 11 475 0
	ldr	r3, [sp, #4]
	ldr	r2, [r3]
	ldr	r3, [sp]
	add	r3, r2, r3
	.loc 11 476 0
	mov	r0, r3
	add	sp, sp, #12
	@ sp needed
	ldr	pc, [sp], #4
	.cfi_endproc
.LFE3163:
	.size	_ZN4_STL12basic_stringIcNS_11char_traitsIcEENS_9allocatorIcEEE2atEj, .-_ZN4_STL12basic_stringIcNS_11char_traitsIcEENS_9allocatorIcEEE2atEj
	.section	.text._ZN4_STL6vectorIP8PlatformNS_9allocatorIS2_EEE9push_backERKS2_,"axG",%progbits,_ZN4_STL6vectorIP8PlatformNS_9allocatorIS2_EEE9push_backERKS2_,comdat
	.align	2
	.weak	_ZN4_STL6vectorIP8PlatformNS_9allocatorIS2_EEE9push_backERKS2_
	.hidden	_ZN4_STL6vectorIP8PlatformNS_9allocatorIS2_EEE9push_backERKS2_
	.type	_ZN4_STL6vectorIP8PlatformNS_9allocatorIS2_EEE9push_backERKS2_, %function
_ZN4_STL6vectorIP8PlatformNS_9allocatorIS2_EEE9push_backERKS2_:
.LFB3164:
	.loc 13 331 0
	.cfi_startproc
	@ args = 0, pretend = 0, frame = 16
	@ frame_needed = 0, uses_anonymous_args = 0
	str	lr, [sp, #-4]!
.LCFI49:
	.cfi_def_cfa_offset 4
	.cfi_offset 14, -4
	sub	sp, sp, #28
.LCFI50:
	.cfi_def_cfa_offset 32
	str	r0, [sp, #12]
	str	r1, [sp, #8]
	.loc 13 332 0
	ldr	r3, [sp, #12]
	ldr	r2, [r3, #4]
	ldr	r3, [sp, #12]
	ldr	r3, [r3, #8]
	cmp	r2, r3
	beq	.L106
	.loc 13 333 0
	ldr	r3, [sp, #12]
	ldr	r3, [r3, #4]
	mov	r0, r3
	ldr	r1, [sp, #8]
	bl	_ZN4_STL10_ConstructIP8PlatformS2_EEvPT_RKT0_(PLT)
	.loc 13 334 0
	ldr	r3, [sp, #12]
	ldr	r3, [r3, #4]
	add	r2, r3, #4
	ldr	r3, [sp, #12]
	str	r2, [r3, #4]
	b	.L105
.L106:
	.loc 13 337 0
	ldr	r3, [sp, #12]
	ldr	r2, [r3, #4]
	add	r3, sp, #20
	mov	r1, #1
	str	r1, [sp]
	mov	r1, #1
	str	r1, [sp, #4]
	ldr	r0, [sp, #12]
	mov	r1, r2
	ldr	r2, [sp, #8]
	bl	_ZN4_STL6vectorIP8PlatformNS_9allocatorIS2_EEE18_M_insert_overflowEPS2_RKS2_RKNS_11__true_typeEjb(PLT)
.L105:
	.loc 13 338 0
	add	sp, sp, #28
	@ sp needed
	ldr	pc, [sp], #4
	.cfi_endproc
.LFE3164:
	.size	_ZN4_STL6vectorIP8PlatformNS_9allocatorIS2_EEE9push_backERKS2_, .-_ZN4_STL6vectorIP8PlatformNS_9allocatorIS2_EEE9push_backERKS2_
	.section	.text._ZN4_STL6vectorIP6TargetNS_9allocatorIS2_EEE9push_backERKS2_,"axG",%progbits,_ZN4_STL6vectorIP6TargetNS_9allocatorIS2_EEE9push_backERKS2_,comdat
	.align	2
	.weak	_ZN4_STL6vectorIP6TargetNS_9allocatorIS2_EEE9push_backERKS2_
	.hidden	_ZN4_STL6vectorIP6TargetNS_9allocatorIS2_EEE9push_backERKS2_
	.type	_ZN4_STL6vectorIP6TargetNS_9allocatorIS2_EEE9push_backERKS2_, %function
_ZN4_STL6vectorIP6TargetNS_9allocatorIS2_EEE9push_backERKS2_:
.LFB3165:
	.loc 13 331 0
	.cfi_startproc
	@ args = 0, pretend = 0, frame = 16
	@ frame_needed = 0, uses_anonymous_args = 0
	str	lr, [sp, #-4]!
.LCFI51:
	.cfi_def_cfa_offset 4
	.cfi_offset 14, -4
	sub	sp, sp, #28
.LCFI52:
	.cfi_def_cfa_offset 32
	str	r0, [sp, #12]
	str	r1, [sp, #8]
	.loc 13 332 0
	ldr	r3, [sp, #12]
	ldr	r2, [r3, #4]
	ldr	r3, [sp, #12]
	ldr	r3, [r3, #8]
	cmp	r2, r3
	beq	.L109
	.loc 13 333 0
	ldr	r3, [sp, #12]
	ldr	r3, [r3, #4]
	mov	r0, r3
	ldr	r1, [sp, #8]
	bl	_ZN4_STL10_ConstructIP6TargetS2_EEvPT_RKT0_(PLT)
	.loc 13 334 0
	ldr	r3, [sp, #12]
	ldr	r3, [r3, #4]
	add	r2, r3, #4
	ldr	r3, [sp, #12]
	str	r2, [r3, #4]
	b	.L108
.L109:
	.loc 13 337 0
	ldr	r3, [sp, #12]
	ldr	r2, [r3, #4]
	add	r3, sp, #20
	mov	r1, #1
	str	r1, [sp]
	mov	r1, #1
	str	r1, [sp, #4]
	ldr	r0, [sp, #12]
	mov	r1, r2
	ldr	r2, [sp, #8]
	bl	_ZN4_STL6vectorIP6TargetNS_9allocatorIS2_EEE18_M_insert_overflowEPS2_RKS2_RKNS_11__true_typeEjb(PLT)
.L108:
	.loc 13 338 0
	add	sp, sp, #28
	@ sp needed
	ldr	pc, [sp], #4
	.cfi_endproc
.LFE3165:
	.size	_ZN4_STL6vectorIP6TargetNS_9allocatorIS2_EEE9push_backERKS2_, .-_ZN4_STL6vectorIP6TargetNS_9allocatorIS2_EEE9push_backERKS2_
	.section	.text._ZN4_STL6vectorIP8PlatformNS_9allocatorIS2_EEE5beginEv,"axG",%progbits,_ZN4_STL6vectorIP8PlatformNS_9allocatorIS2_EEE5beginEv,comdat
	.align	2
	.weak	_ZN4_STL6vectorIP8PlatformNS_9allocatorIS2_EEE5beginEv
	.hidden	_ZN4_STL6vectorIP8PlatformNS_9allocatorIS2_EEE5beginEv
	.type	_ZN4_STL6vectorIP8PlatformNS_9allocatorIS2_EEE5beginEv, %function
_ZN4_STL6vectorIP8PlatformNS_9allocatorIS2_EEE5beginEv:
.LFB3166:
	.loc 13 172 0
	.cfi_startproc
	@ args = 0, pretend = 0, frame = 8
	@ frame_needed = 0, uses_anonymous_args = 0
	@ link register save eliminated.
	sub	sp, sp, #8
.LCFI53:
	.cfi_def_cfa_offset 8
	str	r0, [sp, #4]
	.loc 13 172 0
	ldr	r3, [sp, #4]
	ldr	r3, [r3]
	mov	r0, r3
	add	sp, sp, #8
	@ sp needed
	bx	lr
	.cfi_endproc
.LFE3166:
	.size	_ZN4_STL6vectorIP8PlatformNS_9allocatorIS2_EEE5beginEv, .-_ZN4_STL6vectorIP8PlatformNS_9allocatorIS2_EEE5beginEv
	.section	.text._ZN4_STL6vectorIP8PlatformNS_9allocatorIS2_EEE3endEv,"axG",%progbits,_ZN4_STL6vectorIP8PlatformNS_9allocatorIS2_EEE3endEv,comdat
	.align	2
	.weak	_ZN4_STL6vectorIP8PlatformNS_9allocatorIS2_EEE3endEv
	.hidden	_ZN4_STL6vectorIP8PlatformNS_9allocatorIS2_EEE3endEv
	.type	_ZN4_STL6vectorIP8PlatformNS_9allocatorIS2_EEE3endEv, %function
_ZN4_STL6vectorIP8PlatformNS_9allocatorIS2_EEE3endEv:
.LFB3167:
	.loc 13 174 0
	.cfi_startproc
	@ args = 0, pretend = 0, frame = 8
	@ frame_needed = 0, uses_anonymous_args = 0
	@ link register save eliminated.
	sub	sp, sp, #8
.LCFI54:
	.cfi_def_cfa_offset 8
	str	r0, [sp, #4]
	.loc 13 174 0
	ldr	r3, [sp, #4]
	ldr	r3, [r3, #4]
	mov	r0, r3
	add	sp, sp, #8
	@ sp needed
	bx	lr
	.cfi_endproc
.LFE3167:
	.size	_ZN4_STL6vectorIP8PlatformNS_9allocatorIS2_EEE3endEv, .-_ZN4_STL6vectorIP8PlatformNS_9allocatorIS2_EEE3endEv
	.section	.text._ZN4_STL6vectorIP6TargetNS_9allocatorIS2_EEE5beginEv,"axG",%progbits,_ZN4_STL6vectorIP6TargetNS_9allocatorIS2_EEE5beginEv,comdat
	.align	2
	.weak	_ZN4_STL6vectorIP6TargetNS_9allocatorIS2_EEE5beginEv
	.hidden	_ZN4_STL6vectorIP6TargetNS_9allocatorIS2_EEE5beginEv
	.type	_ZN4_STL6vectorIP6TargetNS_9allocatorIS2_EEE5beginEv, %function
_ZN4_STL6vectorIP6TargetNS_9allocatorIS2_EEE5beginEv:
.LFB3168:
	.loc 13 172 0
	.cfi_startproc
	@ args = 0, pretend = 0, frame = 8
	@ frame_needed = 0, uses_anonymous_args = 0
	@ link register save eliminated.
	sub	sp, sp, #8
.LCFI55:
	.cfi_def_cfa_offset 8
	str	r0, [sp, #4]
	.loc 13 172 0
	ldr	r3, [sp, #4]
	ldr	r3, [r3]
	mov	r0, r3
	add	sp, sp, #8
	@ sp needed
	bx	lr
	.cfi_endproc
.LFE3168:
	.size	_ZN4_STL6vectorIP6TargetNS_9allocatorIS2_EEE5beginEv, .-_ZN4_STL6vectorIP6TargetNS_9allocatorIS2_EEE5beginEv
	.section	.text._ZN4_STL6vectorIP6TargetNS_9allocatorIS2_EEE3endEv,"axG",%progbits,_ZN4_STL6vectorIP6TargetNS_9allocatorIS2_EEE3endEv,comdat
	.align	2
	.weak	_ZN4_STL6vectorIP6TargetNS_9allocatorIS2_EEE3endEv
	.hidden	_ZN4_STL6vectorIP6TargetNS_9allocatorIS2_EEE3endEv
	.type	_ZN4_STL6vectorIP6TargetNS_9allocatorIS2_EEE3endEv, %function
_ZN4_STL6vectorIP6TargetNS_9allocatorIS2_EEE3endEv:
.LFB3169:
	.loc 13 174 0
	.cfi_startproc
	@ args = 0, pretend = 0, frame = 8
	@ frame_needed = 0, uses_anonymous_args = 0
	@ link register save eliminated.
	sub	sp, sp, #8
.LCFI56:
	.cfi_def_cfa_offset 8
	str	r0, [sp, #4]
	.loc 13 174 0
	ldr	r3, [sp, #4]
	ldr	r3, [r3, #4]
	mov	r0, r3
	add	sp, sp, #8
	@ sp needed
	bx	lr
	.cfi_endproc
.LFE3169:
	.size	_ZN4_STL6vectorIP6TargetNS_9allocatorIS2_EEE3endEv, .-_ZN4_STL6vectorIP6TargetNS_9allocatorIS2_EEE3endEv
	.section	.text._ZN4_STL6vectorIP8PlatformNS_9allocatorIS2_EEEC2ERKS5_,"axG",%progbits,_ZN4_STL6vectorIP8PlatformNS_9allocatorIS2_EEEC5ERKS5_,comdat
	.align	2
	.weak	_ZN4_STL6vectorIP8PlatformNS_9allocatorIS2_EEEC2ERKS5_
	.hidden	_ZN4_STL6vectorIP8PlatformNS_9allocatorIS2_EEEC2ERKS5_
	.type	_ZN4_STL6vectorIP8PlatformNS_9allocatorIS2_EEEC2ERKS5_, %function
_ZN4_STL6vectorIP8PlatformNS_9allocatorIS2_EEEC2ERKS5_:
.LFB3171:
	.loc 13 212 0
	.cfi_startproc
	@ args = 0, pretend = 0, frame = 16
	@ frame_needed = 0, uses_anonymous_args = 0
	stmfd	sp!, {r4, r5, lr}
.LCFI57:
	.cfi_def_cfa_offset 12
	.cfi_offset 4, -12
	.cfi_offset 5, -8
	.cfi_offset 14, -4
	sub	sp, sp, #20
.LCFI58:
	.cfi_def_cfa_offset 32
	str	r0, [sp, #4]
	str	r1, [sp]
.LBB15:
	.loc 13 213 0
	ldr	r5, [sp, #4]
	ldr	r0, [sp]
	bl	_ZNK4_STL6vectorIP8PlatformNS_9allocatorIS2_EEE4sizeEv(PLT)
	mov	r4, r0
	add	r3, sp, #8
	mov	r0, r3
	ldr	r1, [sp]
	bl	_ZNK4_STL6vectorIP8PlatformNS_9allocatorIS2_EEE13get_allocatorEv(PLT)
	add	r3, sp, #8
	mov	r0, r5
	mov	r1, r4
	mov	r2, r3
	bl	_ZN4_STL12_Vector_baseIP8PlatformNS_9allocatorIS2_EEEC2EjRKS4_(PLT)
	add	r3, sp, #8
	mov	r0, r3
	bl	_ZN4_STL9allocatorIP8PlatformED1Ev(PLT)
	.loc 13 215 0
	ldr	r3, [sp]
	ldr	r0, [r3]
	ldr	r3, [sp]
	ldr	r1, [r3, #4]
	ldr	r3, [sp, #4]
	ldr	r2, [r3]
	add	r3, sp, #12
	bl	_ZN4_STL20__uninitialized_copyIPKP8PlatformPS2_EET0_T_S7_S6_RKNS_11__true_typeE(PLT)
	mov	r2, r0
	.loc 13 214 0
	ldr	r3, [sp, #4]
	str	r2, [r3, #4]
.LBE15:
	.loc 13 216 0
	ldr	r3, [sp, #4]
	mov	r0, r3
	add	sp, sp, #20
	@ sp needed
	ldmfd	sp!, {r4, r5, pc}
	.cfi_endproc
.LFE3171:
	.size	_ZN4_STL6vectorIP8PlatformNS_9allocatorIS2_EEEC2ERKS5_, .-_ZN4_STL6vectorIP8PlatformNS_9allocatorIS2_EEEC2ERKS5_
	.weak	_ZN4_STL6vectorIP8PlatformNS_9allocatorIS2_EEEC1ERKS5_
	.hidden	_ZN4_STL6vectorIP8PlatformNS_9allocatorIS2_EEEC1ERKS5_
	.set	_ZN4_STL6vectorIP8PlatformNS_9allocatorIS2_EEEC1ERKS5_,_ZN4_STL6vectorIP8PlatformNS_9allocatorIS2_EEEC2ERKS5_
	.section	.text._ZN4_STL6vectorIP6TargetNS_9allocatorIS2_EEEC2ERKS5_,"axG",%progbits,_ZN4_STL6vectorIP6TargetNS_9allocatorIS2_EEEC5ERKS5_,comdat
	.align	2
	.weak	_ZN4_STL6vectorIP6TargetNS_9allocatorIS2_EEEC2ERKS5_
	.hidden	_ZN4_STL6vectorIP6TargetNS_9allocatorIS2_EEEC2ERKS5_
	.type	_ZN4_STL6vectorIP6TargetNS_9allocatorIS2_EEEC2ERKS5_, %function
_ZN4_STL6vectorIP6TargetNS_9allocatorIS2_EEEC2ERKS5_:
.LFB3174:
	.loc 13 212 0
	.cfi_startproc
	@ args = 0, pretend = 0, frame = 16
	@ frame_needed = 0, uses_anonymous_args = 0
	stmfd	sp!, {r4, r5, lr}
.LCFI59:
	.cfi_def_cfa_offset 12
	.cfi_offset 4, -12
	.cfi_offset 5, -8
	.cfi_offset 14, -4
	sub	sp, sp, #20
.LCFI60:
	.cfi_def_cfa_offset 32
	str	r0, [sp, #4]
	str	r1, [sp]
.LBB16:
	.loc 13 213 0
	ldr	r5, [sp, #4]
	ldr	r0, [sp]
	bl	_ZNK4_STL6vectorIP6TargetNS_9allocatorIS2_EEE4sizeEv(PLT)
	mov	r4, r0
	add	r3, sp, #8
	mov	r0, r3
	ldr	r1, [sp]
	bl	_ZNK4_STL6vectorIP6TargetNS_9allocatorIS2_EEE13get_allocatorEv(PLT)
	add	r3, sp, #8
	mov	r0, r5
	mov	r1, r4
	mov	r2, r3
	bl	_ZN4_STL12_Vector_baseIP6TargetNS_9allocatorIS2_EEEC2EjRKS4_(PLT)
	add	r3, sp, #8
	mov	r0, r3
	bl	_ZN4_STL9allocatorIP6TargetED1Ev(PLT)
	.loc 13 215 0
	ldr	r3, [sp]
	ldr	r0, [r3]
	ldr	r3, [sp]
	ldr	r1, [r3, #4]
	ldr	r3, [sp, #4]
	ldr	r2, [r3]
	add	r3, sp, #12
	bl	_ZN4_STL20__uninitialized_copyIPKP6TargetPS2_EET0_T_S7_S6_RKNS_11__true_typeE(PLT)
	mov	r2, r0
	.loc 13 214 0
	ldr	r3, [sp, #4]
	str	r2, [r3, #4]
.LBE16:
	.loc 13 216 0
	ldr	r3, [sp, #4]
	mov	r0, r3
	add	sp, sp, #20
	@ sp needed
	ldmfd	sp!, {r4, r5, pc}
	.cfi_endproc
.LFE3174:
	.size	_ZN4_STL6vectorIP6TargetNS_9allocatorIS2_EEEC2ERKS5_, .-_ZN4_STL6vectorIP6TargetNS_9allocatorIS2_EEEC2ERKS5_
	.weak	_ZN4_STL6vectorIP6TargetNS_9allocatorIS2_EEEC1ERKS5_
	.hidden	_ZN4_STL6vectorIP6TargetNS_9allocatorIS2_EEEC1ERKS5_
	.set	_ZN4_STL6vectorIP6TargetNS_9allocatorIS2_EEEC1ERKS5_,_ZN4_STL6vectorIP6TargetNS_9allocatorIS2_EEEC2ERKS5_
	.section	.text._ZN4_STL17_STLP_alloc_proxyIPccNS_9allocatorIcEEED2Ev,"axG",%progbits,_ZN4_STL17_STLP_alloc_proxyIPccNS_9allocatorIcEEED5Ev,comdat
	.align	2
	.weak	_ZN4_STL17_STLP_alloc_proxyIPccNS_9allocatorIcEEED2Ev
	.hidden	_ZN4_STL17_STLP_alloc_proxyIPccNS_9allocatorIcEEED2Ev
	.type	_ZN4_STL17_STLP_alloc_proxyIPccNS_9allocatorIcEEED2Ev, %function
_ZN4_STL17_STLP_alloc_proxyIPccNS_9allocatorIcEEED2Ev:
.LFB3201:
	.loc 12 481 0
	.cfi_startproc
	@ args = 0, pretend = 0, frame = 8
	@ frame_needed = 0, uses_anonymous_args = 0
	str	lr, [sp, #-4]!
.LCFI61:
	.cfi_def_cfa_offset 4
	.cfi_offset 14, -4
	sub	sp, sp, #12
.LCFI62:
	.cfi_def_cfa_offset 16
	str	r0, [sp, #4]
.LBB17:
	.loc 12 481 0
	ldr	r0, [sp, #4]
	bl	_ZN4_STL9allocatorIcED2Ev(PLT)
.LBE17:
	ldr	r3, [sp, #4]
	mov	r0, r3
	add	sp, sp, #12
	@ sp needed
	ldr	pc, [sp], #4
	.cfi_endproc
.LFE3201:
	.size	_ZN4_STL17_STLP_alloc_proxyIPccNS_9allocatorIcEEED2Ev, .-_ZN4_STL17_STLP_alloc_proxyIPccNS_9allocatorIcEEED2Ev
	.weak	_ZN4_STL17_STLP_alloc_proxyIPccNS_9allocatorIcEEED1Ev
	.hidden	_ZN4_STL17_STLP_alloc_proxyIPccNS_9allocatorIcEEED1Ev
	.set	_ZN4_STL17_STLP_alloc_proxyIPccNS_9allocatorIcEEED1Ev,_ZN4_STL17_STLP_alloc_proxyIPccNS_9allocatorIcEEED2Ev
	.section	.text._ZN4_STL12_String_baseIcNS_9allocatorIcEEED2Ev,"axG",%progbits,_ZN4_STL12_String_baseIcNS_9allocatorIcEEED5Ev,comdat
	.align	2
	.weak	_ZN4_STL12_String_baseIcNS_9allocatorIcEEED2Ev
	.hidden	_ZN4_STL12_String_baseIcNS_9allocatorIcEEED2Ev
	.type	_ZN4_STL12_String_baseIcNS_9allocatorIcEEED2Ev, %function
_ZN4_STL12_String_baseIcNS_9allocatorIcEEED2Ev:
.LFB3203:
	.loc 11 135 0
	.cfi_startproc
	@ args = 0, pretend = 0, frame = 8
	@ frame_needed = 0, uses_anonymous_args = 0
	str	lr, [sp, #-4]!
.LCFI63:
	.cfi_def_cfa_offset 4
	.cfi_offset 14, -4
	sub	sp, sp, #12
.LCFI64:
	.cfi_def_cfa_offset 16
	str	r0, [sp, #4]
.LBB18:
	.loc 11 135 0
	ldr	r0, [sp, #4]
	bl	_ZN4_STL12_String_baseIcNS_9allocatorIcEEE19_M_deallocate_blockEv(PLT)
	ldr	r3, [sp, #4]
	add	r3, r3, #8
	mov	r0, r3
	bl	_ZN4_STL17_STLP_alloc_proxyIPccNS_9allocatorIcEEED1Ev(PLT)
.LBE18:
	ldr	r3, [sp, #4]
	mov	r0, r3
	add	sp, sp, #12
	@ sp needed
	ldr	pc, [sp], #4
	.cfi_endproc
.LFE3203:
	.size	_ZN4_STL12_String_baseIcNS_9allocatorIcEEED2Ev, .-_ZN4_STL12_String_baseIcNS_9allocatorIcEEED2Ev
	.weak	_ZN4_STL12_String_baseIcNS_9allocatorIcEEED1Ev
	.hidden	_ZN4_STL12_String_baseIcNS_9allocatorIcEEED1Ev
	.set	_ZN4_STL12_String_baseIcNS_9allocatorIcEEED1Ev,_ZN4_STL12_String_baseIcNS_9allocatorIcEEED2Ev
	.section	.text._ZN4_STL17_STLP_alloc_proxyIPP8PlatformS2_NS_9allocatorIS2_EEED2Ev,"axG",%progbits,_ZN4_STL17_STLP_alloc_proxyIPP8PlatformS2_NS_9allocatorIS2_EEED5Ev,comdat
	.align	2
	.weak	_ZN4_STL17_STLP_alloc_proxyIPP8PlatformS2_NS_9allocatorIS2_EEED2Ev
	.hidden	_ZN4_STL17_STLP_alloc_proxyIPP8PlatformS2_NS_9allocatorIS2_EEED2Ev
	.type	_ZN4_STL17_STLP_alloc_proxyIPP8PlatformS2_NS_9allocatorIS2_EEED2Ev, %function
_ZN4_STL17_STLP_alloc_proxyIPP8PlatformS2_NS_9allocatorIS2_EEED2Ev:
.LFB3216:
	.loc 12 481 0
	.cfi_startproc
	@ args = 0, pretend = 0, frame = 8
	@ frame_needed = 0, uses_anonymous_args = 0
	str	lr, [sp, #-4]!
.LCFI65:
	.cfi_def_cfa_offset 4
	.cfi_offset 14, -4
	sub	sp, sp, #12
.LCFI66:
	.cfi_def_cfa_offset 16
	str	r0, [sp, #4]
.LBB19:
	.loc 12 481 0
	ldr	r0, [sp, #4]
	bl	_ZN4_STL9allocatorIP8PlatformED2Ev(PLT)
.LBE19:
	ldr	r3, [sp, #4]
	mov	r0, r3
	add	sp, sp, #12
	@ sp needed
	ldr	pc, [sp], #4
	.cfi_endproc
.LFE3216:
	.size	_ZN4_STL17_STLP_alloc_proxyIPP8PlatformS2_NS_9allocatorIS2_EEED2Ev, .-_ZN4_STL17_STLP_alloc_proxyIPP8PlatformS2_NS_9allocatorIS2_EEED2Ev
	.weak	_ZN4_STL17_STLP_alloc_proxyIPP8PlatformS2_NS_9allocatorIS2_EEED1Ev
	.hidden	_ZN4_STL17_STLP_alloc_proxyIPP8PlatformS2_NS_9allocatorIS2_EEED1Ev
	.set	_ZN4_STL17_STLP_alloc_proxyIPP8PlatformS2_NS_9allocatorIS2_EEED1Ev,_ZN4_STL17_STLP_alloc_proxyIPP8PlatformS2_NS_9allocatorIS2_EEED2Ev
	.section	.text._ZN4_STL12_Vector_baseIP8PlatformNS_9allocatorIS2_EEEC2ERKS4_,"axG",%progbits,_ZN4_STL12_Vector_baseIP8PlatformNS_9allocatorIS2_EEEC5ERKS4_,comdat
	.align	2
	.weak	_ZN4_STL12_Vector_baseIP8PlatformNS_9allocatorIS2_EEEC2ERKS4_
	.hidden	_ZN4_STL12_Vector_baseIP8PlatformNS_9allocatorIS2_EEEC2ERKS4_
	.type	_ZN4_STL12_Vector_baseIP8PlatformNS_9allocatorIS2_EEEC2ERKS4_, %function
_ZN4_STL12_Vector_baseIP8PlatformNS_9allocatorIS2_EEEC2ERKS4_:
.LFB3218:
	.loc 13 71 0
	.cfi_startproc
	@ args = 0, pretend = 0, frame = 8
	@ frame_needed = 0, uses_anonymous_args = 0
	str	lr, [sp, #-4]!
.LCFI67:
	.cfi_def_cfa_offset 4
	.cfi_offset 14, -4
	sub	sp, sp, #12
.LCFI68:
	.cfi_def_cfa_offset 16
	str	r0, [sp, #4]
	str	r1, [sp]
.LBB20:
	.loc 13 72 0
	ldr	r3, [sp, #4]
	mov	r2, #0
	str	r2, [r3]
	ldr	r3, [sp, #4]
	mov	r2, #0
	str	r2, [r3, #4]
	ldr	r3, [sp, #4]
	add	r3, r3, #8
	mov	r0, r3
	ldr	r1, [sp]
	mov	r2, #0
	bl	_ZN4_STL17_STLP_alloc_proxyIPP8PlatformS2_NS_9allocatorIS2_EEEC1ERKS5_S3_(PLT)
.LBE20:
	.loc 13 73 0
	ldr	r3, [sp, #4]
	mov	r0, r3
	add	sp, sp, #12
	@ sp needed
	ldr	pc, [sp], #4
	.cfi_endproc
.LFE3218:
	.size	_ZN4_STL12_Vector_baseIP8PlatformNS_9allocatorIS2_EEEC2ERKS4_, .-_ZN4_STL12_Vector_baseIP8PlatformNS_9allocatorIS2_EEEC2ERKS4_
	.weak	_ZN4_STL12_Vector_baseIP8PlatformNS_9allocatorIS2_EEEC1ERKS4_
	.hidden	_ZN4_STL12_Vector_baseIP8PlatformNS_9allocatorIS2_EEEC1ERKS4_
	.set	_ZN4_STL12_Vector_baseIP8PlatformNS_9allocatorIS2_EEEC1ERKS4_,_ZN4_STL12_Vector_baseIP8PlatformNS_9allocatorIS2_EEEC2ERKS4_
	.section	.text._ZN4_STL12_Vector_baseIP8PlatformNS_9allocatorIS2_EEED2Ev,"axG",%progbits,_ZN4_STL12_Vector_baseIP8PlatformNS_9allocatorIS2_EEED5Ev,comdat
	.align	2
	.weak	_ZN4_STL12_Vector_baseIP8PlatformNS_9allocatorIS2_EEED2Ev
	.hidden	_ZN4_STL12_Vector_baseIP8PlatformNS_9allocatorIS2_EEED2Ev
	.type	_ZN4_STL12_Vector_baseIP8PlatformNS_9allocatorIS2_EEED2Ev, %function
_ZN4_STL12_Vector_baseIP8PlatformNS_9allocatorIS2_EEED2Ev:
.LFB3221:
	.loc 13 83 0
	.cfi_startproc
	@ args = 0, pretend = 0, frame = 8
	@ frame_needed = 0, uses_anonymous_args = 0
	str	lr, [sp, #-4]!
.LCFI69:
	.cfi_def_cfa_offset 4
	.cfi_offset 14, -4
	sub	sp, sp, #12
.LCFI70:
	.cfi_def_cfa_offset 16
	str	r0, [sp, #4]
.LBB21:
	.loc 13 84 0
	ldr	r3, [sp, #4]
	ldr	r3, [r3]
	cmp	r3, #0
	beq	.L138
	.loc 13 85 0
	ldr	r3, [sp, #4]
	add	r1, r3, #8
	ldr	r3, [sp, #4]
	ldr	r2, [r3]
	ldr	r3, [sp, #4]
	ldr	r3, [r3, #8]
	mov	r0, r3
	ldr	r3, [sp, #4]
	ldr	r3, [r3]
	rsb	r3, r3, r0
	mov	r3, r3, asr #2
	mov	r0, r1
	mov	r1, r2
	mov	r2, r3
	bl	_ZN4_STL9allocatorIP8PlatformE10deallocateEPS2_j(PLT)
.L138:
	.loc 13 86 0
	ldr	r3, [sp, #4]
	add	r3, r3, #8
	mov	r0, r3
	bl	_ZN4_STL17_STLP_alloc_proxyIPP8PlatformS2_NS_9allocatorIS2_EEED1Ev(PLT)
.LBE21:
	ldr	r3, [sp, #4]
	mov	r0, r3
	add	sp, sp, #12
	@ sp needed
	ldr	pc, [sp], #4
	.cfi_endproc
.LFE3221:
	.size	_ZN4_STL12_Vector_baseIP8PlatformNS_9allocatorIS2_EEED2Ev, .-_ZN4_STL12_Vector_baseIP8PlatformNS_9allocatorIS2_EEED2Ev
	.weak	_ZN4_STL12_Vector_baseIP8PlatformNS_9allocatorIS2_EEED1Ev
	.hidden	_ZN4_STL12_Vector_baseIP8PlatformNS_9allocatorIS2_EEED1Ev
	.set	_ZN4_STL12_Vector_baseIP8PlatformNS_9allocatorIS2_EEED1Ev,_ZN4_STL12_Vector_baseIP8PlatformNS_9allocatorIS2_EEED2Ev
	.section	.text._ZN4_STL8_DestroyIPP8PlatformEEvT_S4_,"axG",%progbits,_ZN4_STL8_DestroyIPP8PlatformEEvT_S4_,comdat
	.align	2
	.weak	_ZN4_STL8_DestroyIPP8PlatformEEvT_S4_
	.hidden	_ZN4_STL8_DestroyIPP8PlatformEEvT_S4_
	.type	_ZN4_STL8_DestroyIPP8PlatformEEvT_S4_, %function
_ZN4_STL8_DestroyIPP8PlatformEEvT_S4_:
.LFB3223:
	.loc 3 138 0
	.cfi_startproc
	@ args = 0, pretend = 0, frame = 8
	@ frame_needed = 0, uses_anonymous_args = 0
	str	lr, [sp, #-4]!
.LCFI71:
	.cfi_def_cfa_offset 4
	.cfi_offset 14, -4
	sub	sp, sp, #12
.LCFI72:
	.cfi_def_cfa_offset 16
	str	r0, [sp, #4]
	str	r1, [sp]
	.loc 3 139 0
	ldr	r0, [sp, #4]
	ldr	r1, [sp]
	mov	r2, #0
	bl	_ZN4_STL9__destroyIPP8PlatformS2_EEvT_S4_PT0_(PLT)
	.loc 3 140 0
	add	sp, sp, #12
	@ sp needed
	ldr	pc, [sp], #4
	.cfi_endproc
.LFE3223:
	.size	_ZN4_STL8_DestroyIPP8PlatformEEvT_S4_, .-_ZN4_STL8_DestroyIPP8PlatformEEvT_S4_
	.section	.text._ZN4_STL17_STLP_alloc_proxyIPP6TargetS2_NS_9allocatorIS2_EEED2Ev,"axG",%progbits,_ZN4_STL17_STLP_alloc_proxyIPP6TargetS2_NS_9allocatorIS2_EEED5Ev,comdat
	.align	2
	.weak	_ZN4_STL17_STLP_alloc_proxyIPP6TargetS2_NS_9allocatorIS2_EEED2Ev
	.hidden	_ZN4_STL17_STLP_alloc_proxyIPP6TargetS2_NS_9allocatorIS2_EEED2Ev
	.type	_ZN4_STL17_STLP_alloc_proxyIPP6TargetS2_NS_9allocatorIS2_EEED2Ev, %function
_ZN4_STL17_STLP_alloc_proxyIPP6TargetS2_NS_9allocatorIS2_EEED2Ev:
.LFB3226:
	.loc 12 481 0
	.cfi_startproc
	@ args = 0, pretend = 0, frame = 8
	@ frame_needed = 0, uses_anonymous_args = 0
	str	lr, [sp, #-4]!
.LCFI73:
	.cfi_def_cfa_offset 4
	.cfi_offset 14, -4
	sub	sp, sp, #12
.LCFI74:
	.cfi_def_cfa_offset 16
	str	r0, [sp, #4]
.LBB22:
	.loc 12 481 0
	ldr	r0, [sp, #4]
	bl	_ZN4_STL9allocatorIP6TargetED2Ev(PLT)
.LBE22:
	ldr	r3, [sp, #4]
	mov	r0, r3
	add	sp, sp, #12
	@ sp needed
	ldr	pc, [sp], #4
	.cfi_endproc
.LFE3226:
	.size	_ZN4_STL17_STLP_alloc_proxyIPP6TargetS2_NS_9allocatorIS2_EEED2Ev, .-_ZN4_STL17_STLP_alloc_proxyIPP6TargetS2_NS_9allocatorIS2_EEED2Ev
	.weak	_ZN4_STL17_STLP_alloc_proxyIPP6TargetS2_NS_9allocatorIS2_EEED1Ev
	.hidden	_ZN4_STL17_STLP_alloc_proxyIPP6TargetS2_NS_9allocatorIS2_EEED1Ev
	.set	_ZN4_STL17_STLP_alloc_proxyIPP6TargetS2_NS_9allocatorIS2_EEED1Ev,_ZN4_STL17_STLP_alloc_proxyIPP6TargetS2_NS_9allocatorIS2_EEED2Ev
	.section	.text._ZN4_STL12_Vector_baseIP6TargetNS_9allocatorIS2_EEEC2ERKS4_,"axG",%progbits,_ZN4_STL12_Vector_baseIP6TargetNS_9allocatorIS2_EEEC5ERKS4_,comdat
	.align	2
	.weak	_ZN4_STL12_Vector_baseIP6TargetNS_9allocatorIS2_EEEC2ERKS4_
	.hidden	_ZN4_STL12_Vector_baseIP6TargetNS_9allocatorIS2_EEEC2ERKS4_
	.type	_ZN4_STL12_Vector_baseIP6TargetNS_9allocatorIS2_EEEC2ERKS4_, %function
_ZN4_STL12_Vector_baseIP6TargetNS_9allocatorIS2_EEEC2ERKS4_:
.LFB3228:
	.loc 13 71 0
	.cfi_startproc
	@ args = 0, pretend = 0, frame = 8
	@ frame_needed = 0, uses_anonymous_args = 0
	str	lr, [sp, #-4]!
.LCFI75:
	.cfi_def_cfa_offset 4
	.cfi_offset 14, -4
	sub	sp, sp, #12
.LCFI76:
	.cfi_def_cfa_offset 16
	str	r0, [sp, #4]
	str	r1, [sp]
.LBB23:
	.loc 13 72 0
	ldr	r3, [sp, #4]
	mov	r2, #0
	str	r2, [r3]
	ldr	r3, [sp, #4]
	mov	r2, #0
	str	r2, [r3, #4]
	ldr	r3, [sp, #4]
	add	r3, r3, #8
	mov	r0, r3
	ldr	r1, [sp]
	mov	r2, #0
	bl	_ZN4_STL17_STLP_alloc_proxyIPP6TargetS2_NS_9allocatorIS2_EEEC1ERKS5_S3_(PLT)
.LBE23:
	.loc 13 73 0
	ldr	r3, [sp, #4]
	mov	r0, r3
	add	sp, sp, #12
	@ sp needed
	ldr	pc, [sp], #4
	.cfi_endproc
.LFE3228:
	.size	_ZN4_STL12_Vector_baseIP6TargetNS_9allocatorIS2_EEEC2ERKS4_, .-_ZN4_STL12_Vector_baseIP6TargetNS_9allocatorIS2_EEEC2ERKS4_
	.weak	_ZN4_STL12_Vector_baseIP6TargetNS_9allocatorIS2_EEEC1ERKS4_
	.hidden	_ZN4_STL12_Vector_baseIP6TargetNS_9allocatorIS2_EEEC1ERKS4_
	.set	_ZN4_STL12_Vector_baseIP6TargetNS_9allocatorIS2_EEEC1ERKS4_,_ZN4_STL12_Vector_baseIP6TargetNS_9allocatorIS2_EEEC2ERKS4_
	.section	.text._ZN4_STL12_Vector_baseIP6TargetNS_9allocatorIS2_EEED2Ev,"axG",%progbits,_ZN4_STL12_Vector_baseIP6TargetNS_9allocatorIS2_EEED5Ev,comdat
	.align	2
	.weak	_ZN4_STL12_Vector_baseIP6TargetNS_9allocatorIS2_EEED2Ev
	.hidden	_ZN4_STL12_Vector_baseIP6TargetNS_9allocatorIS2_EEED2Ev
	.type	_ZN4_STL12_Vector_baseIP6TargetNS_9allocatorIS2_EEED2Ev, %function
_ZN4_STL12_Vector_baseIP6TargetNS_9allocatorIS2_EEED2Ev:
.LFB3231:
	.loc 13 83 0
	.cfi_startproc
	@ args = 0, pretend = 0, frame = 8
	@ frame_needed = 0, uses_anonymous_args = 0
	str	lr, [sp, #-4]!
.LCFI77:
	.cfi_def_cfa_offset 4
	.cfi_offset 14, -4
	sub	sp, sp, #12
.LCFI78:
	.cfi_def_cfa_offset 16
	str	r0, [sp, #4]
.LBB24:
	.loc 13 84 0
	ldr	r3, [sp, #4]
	ldr	r3, [r3]
	cmp	r3, #0
	beq	.L149
	.loc 13 85 0
	ldr	r3, [sp, #4]
	add	r1, r3, #8
	ldr	r3, [sp, #4]
	ldr	r2, [r3]
	ldr	r3, [sp, #4]
	ldr	r3, [r3, #8]
	mov	r0, r3
	ldr	r3, [sp, #4]
	ldr	r3, [r3]
	rsb	r3, r3, r0
	mov	r3, r3, asr #2
	mov	r0, r1
	mov	r1, r2
	mov	r2, r3
	bl	_ZN4_STL9allocatorIP6TargetE10deallocateEPS2_j(PLT)
.L149:
	.loc 13 86 0
	ldr	r3, [sp, #4]
	add	r3, r3, #8
	mov	r0, r3
	bl	_ZN4_STL17_STLP_alloc_proxyIPP6TargetS2_NS_9allocatorIS2_EEED1Ev(PLT)
.LBE24:
	ldr	r3, [sp, #4]
	mov	r0, r3
	add	sp, sp, #12
	@ sp needed
	ldr	pc, [sp], #4
	.cfi_endproc
.LFE3231:
	.size	_ZN4_STL12_Vector_baseIP6TargetNS_9allocatorIS2_EEED2Ev, .-_ZN4_STL12_Vector_baseIP6TargetNS_9allocatorIS2_EEED2Ev
	.weak	_ZN4_STL12_Vector_baseIP6TargetNS_9allocatorIS2_EEED1Ev
	.hidden	_ZN4_STL12_Vector_baseIP6TargetNS_9allocatorIS2_EEED1Ev
	.set	_ZN4_STL12_Vector_baseIP6TargetNS_9allocatorIS2_EEED1Ev,_ZN4_STL12_Vector_baseIP6TargetNS_9allocatorIS2_EEED2Ev
	.section	.text._ZN4_STL8_DestroyIPP6TargetEEvT_S4_,"axG",%progbits,_ZN4_STL8_DestroyIPP6TargetEEvT_S4_,comdat
	.align	2
	.weak	_ZN4_STL8_DestroyIPP6TargetEEvT_S4_
	.hidden	_ZN4_STL8_DestroyIPP6TargetEEvT_S4_
	.type	_ZN4_STL8_DestroyIPP6TargetEEvT_S4_, %function
_ZN4_STL8_DestroyIPP6TargetEEvT_S4_:
.LFB3233:
	.loc 3 138 0
	.cfi_startproc
	@ args = 0, pretend = 0, frame = 8
	@ frame_needed = 0, uses_anonymous_args = 0
	str	lr, [sp, #-4]!
.LCFI79:
	.cfi_def_cfa_offset 4
	.cfi_offset 14, -4
	sub	sp, sp, #12
.LCFI80:
	.cfi_def_cfa_offset 16
	str	r0, [sp, #4]
	str	r1, [sp]
	.loc 3 139 0
	ldr	r0, [sp, #4]
	ldr	r1, [sp]
	mov	r2, #0
	bl	_ZN4_STL9__destroyIPP6TargetS2_EEvT_S4_PT0_(PLT)
	.loc 3 140 0
	add	sp, sp, #12
	@ sp needed
	ldr	pc, [sp], #4
	.cfi_endproc
.LFE3233:
	.size	_ZN4_STL8_DestroyIPP6TargetEEvT_S4_, .-_ZN4_STL8_DestroyIPP6TargetEEvT_S4_
	.section	.text._ZN4_STL12_String_baseIcNS_9allocatorIcEEEC2ERKS2_,"axG",%progbits,_ZN4_STL12_String_baseIcNS_9allocatorIcEEEC5ERKS2_,comdat
	.align	2
	.weak	_ZN4_STL12_String_baseIcNS_9allocatorIcEEEC2ERKS2_
	.hidden	_ZN4_STL12_String_baseIcNS_9allocatorIcEEEC2ERKS2_
	.type	_ZN4_STL12_String_baseIcNS_9allocatorIcEEEC2ERKS2_, %function
_ZN4_STL12_String_baseIcNS_9allocatorIcEEEC2ERKS2_:
.LFB3235:
	.loc 11 128 0
	.cfi_startproc
	@ args = 0, pretend = 0, frame = 8
	@ frame_needed = 0, uses_anonymous_args = 0
	str	lr, [sp, #-4]!
.LCFI81:
	.cfi_def_cfa_offset 4
	.cfi_offset 14, -4
	sub	sp, sp, #12
.LCFI82:
	.cfi_def_cfa_offset 16
	str	r0, [sp, #4]
	str	r1, [sp]
.LBB25:
	.loc 11 129 0
	ldr	r3, [sp, #4]
	mov	r2, #0
	str	r2, [r3]
	ldr	r3, [sp, #4]
	mov	r2, #0
	str	r2, [r3, #4]
	ldr	r3, [sp, #4]
	add	r3, r3, #8
	mov	r0, r3
	ldr	r1, [sp]
	mov	r2, #0
	bl	_ZN4_STL17_STLP_alloc_proxyIPccNS_9allocatorIcEEEC1ERKS3_S1_(PLT)
.LBE25:
	ldr	r3, [sp, #4]
	mov	r0, r3
	add	sp, sp, #12
	@ sp needed
	ldr	pc, [sp], #4
	.cfi_endproc
.LFE3235:
	.size	_ZN4_STL12_String_baseIcNS_9allocatorIcEEEC2ERKS2_, .-_ZN4_STL12_String_baseIcNS_9allocatorIcEEEC2ERKS2_
	.weak	_ZN4_STL12_String_baseIcNS_9allocatorIcEEEC1ERKS2_
	.hidden	_ZN4_STL12_String_baseIcNS_9allocatorIcEEEC1ERKS2_
	.set	_ZN4_STL12_String_baseIcNS_9allocatorIcEEEC1ERKS2_,_ZN4_STL12_String_baseIcNS_9allocatorIcEEEC2ERKS2_
	.section	.text._ZN4_STL12basic_stringIcNS_11char_traitsIcEENS_9allocatorIcEEE19_M_range_initializeIPKcEEvT_S9_,"axG",%progbits,_ZN4_STL12basic_stringIcNS_11char_traitsIcEENS_9allocatorIcEEE19_M_range_initializeIPKcEEvT_S9_,comdat
	.align	2
	.weak	_ZN4_STL12basic_stringIcNS_11char_traitsIcEENS_9allocatorIcEEE19_M_range_initializeIPKcEEvT_S9_
	.hidden	_ZN4_STL12basic_stringIcNS_11char_traitsIcEENS_9allocatorIcEEE19_M_range_initializeIPKcEEvT_S9_
	.type	_ZN4_STL12basic_stringIcNS_11char_traitsIcEENS_9allocatorIcEEE19_M_range_initializeIPKcEEvT_S9_, %function
_ZN4_STL12basic_stringIcNS_11char_traitsIcEENS_9allocatorIcEEE19_M_range_initializeIPKcEEvT_S9_:
.LFB3237:
	.loc 11 390 0
	.cfi_startproc
	@ args = 0, pretend = 0, frame = 24
	@ frame_needed = 0, uses_anonymous_args = 0
	str	lr, [sp, #-4]!
.LCFI83:
	.cfi_def_cfa_offset 4
	.cfi_offset 14, -4
	sub	sp, sp, #28
.LCFI84:
	.cfi_def_cfa_offset 32
	str	r0, [sp, #12]
	str	r1, [sp, #8]
	str	r2, [sp, #4]
	.loc 11 391 0
	add	r3, sp, #20
	ldr	r0, [sp, #12]
	ldr	r1, [sp, #8]
	ldr	r2, [sp, #4]
	bl	_ZN4_STL12basic_stringIcNS_11char_traitsIcEENS_9allocatorIcEEE19_M_range_initializeIPKcEEvT_S9_RKNS_20forward_iterator_tagE(PLT)
	.loc 11 392 0
	add	sp, sp, #28
	@ sp needed
	ldr	pc, [sp], #4
	.cfi_endproc
.LFE3237:
	.size	_ZN4_STL12basic_stringIcNS_11char_traitsIcEENS_9allocatorIcEEE19_M_range_initializeIPKcEEvT_S9_, .-_ZN4_STL12basic_stringIcNS_11char_traitsIcEENS_9allocatorIcEEE19_M_range_initializeIPKcEEvT_S9_
	.section	.text._ZNK4_STL12basic_stringIcNS_11char_traitsIcEENS_9allocatorIcEEE4sizeEv,"axG",%progbits,_ZNK4_STL12basic_stringIcNS_11char_traitsIcEENS_9allocatorIcEEE4sizeEv,comdat
	.align	2
	.weak	_ZNK4_STL12basic_stringIcNS_11char_traitsIcEENS_9allocatorIcEEE4sizeEv
	.hidden	_ZNK4_STL12basic_stringIcNS_11char_traitsIcEENS_9allocatorIcEEE4sizeEv
	.type	_ZNK4_STL12basic_stringIcNS_11char_traitsIcEENS_9allocatorIcEEE4sizeEv, %function
_ZNK4_STL12basic_stringIcNS_11char_traitsIcEENS_9allocatorIcEEE4sizeEv:
.LFB3238:
	.loc 11 431 0
	.cfi_startproc
	@ args = 0, pretend = 0, frame = 8
	@ frame_needed = 0, uses_anonymous_args = 0
	@ link register save eliminated.
	sub	sp, sp, #8
.LCFI85:
	.cfi_def_cfa_offset 8
	str	r0, [sp, #4]
	.loc 11 431 0
	ldr	r3, [sp, #4]
	ldr	r3, [r3, #4]
	mov	r2, r3
	ldr	r3, [sp, #4]
	ldr	r3, [r3]
	rsb	r3, r3, r2
	mov	r0, r3
	add	sp, sp, #8
	@ sp needed
	bx	lr
	.cfi_endproc
.LFE3238:
	.size	_ZNK4_STL12basic_stringIcNS_11char_traitsIcEENS_9allocatorIcEEE4sizeEv, .-_ZNK4_STL12basic_stringIcNS_11char_traitsIcEENS_9allocatorIcEEE4sizeEv
	.section	.rodata
	.align	2
.LC9:
	.ascii	"basic_string\000"
	.section	.text._ZNK4_STL12_String_baseIcNS_9allocatorIcEEE21_M_throw_out_of_rangeEv,"axG",%progbits,_ZNK4_STL12_String_baseIcNS_9allocatorIcEEE21_M_throw_out_of_rangeEv,comdat
	.align	2
	.weak	_ZNK4_STL12_String_baseIcNS_9allocatorIcEEE21_M_throw_out_of_rangeEv
	.hidden	_ZNK4_STL12_String_baseIcNS_9allocatorIcEEE21_M_throw_out_of_rangeEv
	.type	_ZNK4_STL12_String_baseIcNS_9allocatorIcEEE21_M_throw_out_of_rangeEv, %function
_ZNK4_STL12_String_baseIcNS_9allocatorIcEEE21_M_throw_out_of_rangeEv:
.LFB3239:
	.loc 14 526 0
	.cfi_startproc
	@ args = 0, pretend = 0, frame = 8
	@ frame_needed = 0, uses_anonymous_args = 0
	str	lr, [sp, #-4]!
.LCFI86:
	.cfi_def_cfa_offset 4
	.cfi_offset 14, -4
	sub	sp, sp, #12
.LCFI87:
	.cfi_def_cfa_offset 16
	str	r0, [sp, #4]
	.loc 14 527 0
	ldr	r3, .L160
.LPIC22:
	add	r3, pc, r3
	mov	r0, r3
	bl	_ZN4_STL24__stl_throw_out_of_rangeEPKc(PLT)
	.loc 14 528 0
	add	sp, sp, #12
	@ sp needed
	ldr	pc, [sp], #4
.L161:
	.align	2
.L160:
	.word	.LC9-(.LPIC22+8)
	.cfi_endproc
.LFE3239:
	.size	_ZNK4_STL12_String_baseIcNS_9allocatorIcEEE21_M_throw_out_of_rangeEv, .-_ZNK4_STL12_String_baseIcNS_9allocatorIcEEE21_M_throw_out_of_rangeEv
	.section	.text._ZN4_STL10_ConstructIP8PlatformS2_EEvPT_RKT0_,"axG",%progbits,_ZN4_STL10_ConstructIP8PlatformS2_EEvPT_RKT0_,comdat
	.align	2
	.weak	_ZN4_STL10_ConstructIP8PlatformS2_EEvPT_RKT0_
	.hidden	_ZN4_STL10_ConstructIP8PlatformS2_EEvPT_RKT0_
	.type	_ZN4_STL10_ConstructIP8PlatformS2_EEvPT_RKT0_, %function
_ZN4_STL10_ConstructIP8PlatformS2_EEvPT_RKT0_:
.LFB3240:
	.loc 3 93 0
	.cfi_startproc
	@ args = 0, pretend = 0, frame = 8
	@ frame_needed = 0, uses_anonymous_args = 0
	str	lr, [sp, #-4]!
.LCFI88:
	.cfi_def_cfa_offset 4
	.cfi_offset 14, -4
	sub	sp, sp, #12
.LCFI89:
	.cfi_def_cfa_offset 16
	str	r0, [sp, #4]
	str	r1, [sp]
	.loc 3 97 0
	ldr	r3, [sp, #4]
	mov	r0, #4
	mov	r1, r3
	bl	_ZnwjPv(PLT)
	mov	r3, r0
	ldr	r2, [sp]
	ldr	r2, [r2]
	str	r2, [r3]
	.loc 3 98 0
	add	sp, sp, #12
	@ sp needed
	ldr	pc, [sp], #4
	.cfi_endproc
.LFE3240:
	.size	_ZN4_STL10_ConstructIP8PlatformS2_EEvPT_RKT0_, .-_ZN4_STL10_ConstructIP8PlatformS2_EEvPT_RKT0_
	.section	.text._ZN4_STL6vectorIP8PlatformNS_9allocatorIS2_EEE18_M_insert_overflowEPS2_RKS2_RKNS_11__true_typeEjb,"axG",%progbits,_ZN4_STL6vectorIP8PlatformNS_9allocatorIS2_EEE18_M_insert_overflowEPS2_RKS2_RKNS_11__true_typeEjb,comdat
	.align	2
	.weak	_ZN4_STL6vectorIP8PlatformNS_9allocatorIS2_EEE18_M_insert_overflowEPS2_RKS2_RKNS_11__true_typeEjb
	.hidden	_ZN4_STL6vectorIP8PlatformNS_9allocatorIS2_EEE18_M_insert_overflowEPS2_RKS2_RKNS_11__true_typeEjb
	.type	_ZN4_STL6vectorIP8PlatformNS_9allocatorIS2_EEE18_M_insert_overflowEPS2_RKS2_RKNS_11__true_typeEjb, %function
_ZN4_STL6vectorIP8PlatformNS_9allocatorIS2_EEE18_M_insert_overflowEPS2_RKS2_RKNS_11__true_typeEjb:
.LFB3241:
	.loc 13 150 0
	.cfi_startproc
	@ args = 8, pretend = 0, frame = 32
	@ frame_needed = 0, uses_anonymous_args = 0
	str	lr, [sp, #-4]!
.LCFI90:
	.cfi_def_cfa_offset 4
	.cfi_offset 14, -4
	sub	sp, sp, #36
.LCFI91:
	.cfi_def_cfa_offset 40
	str	r0, [sp, #12]
	str	r1, [sp, #8]
	str	r2, [sp, #4]
	str	r3, [sp]
.LBB26:
	.loc 13 152 0
	ldr	r0, [sp, #12]
	bl	_ZNK4_STL6vectorIP8PlatformNS_9allocatorIS2_EEE4sizeEv(PLT)
	mov	r3, r0
	str	r3, [sp, #16]
	.loc 13 153 0
	add	r3, sp, #16
	mov	r0, r3
	add	r3, sp, #40
	mov	r1, r3
	bl	_ZN4_STL3maxIjEERKT_S3_S3_(PLT)
	mov	r3, r0
	ldr	r2, [r3]
	ldr	r3, [sp, #16]
	add	r3, r2, r3
	str	r3, [sp, #24]
	.loc 13 155 0
	ldr	r3, [sp, #12]
	add	r3, r3, #8
	mov	r0, r3
	ldr	r1, [sp, #24]
	mov	r2, #0
	bl	_ZN4_STL9allocatorIP8PlatformE8allocateEjPKv(PLT)
	str	r0, [sp, #20]
	.loc 13 156 0
	ldr	r3, [sp, #12]
	ldr	r3, [r3]
	mov	r0, r3
	ldr	r1, [sp, #8]
	ldr	r2, [sp, #20]
	bl	_ZN4_STL14__copy_trivialEPKvS1_Pv(PLT)
	str	r0, [sp, #28]
	.loc 13 158 0
	ldr	r3, [sp, #40]
	ldr	r0, [sp, #28]
	mov	r1, r3
	ldr	r2, [sp, #4]
	bl	_ZN4_STL6fill_nIPP8PlatformjS2_EET_S4_T0_RKT1_(PLT)
	str	r0, [sp, #28]
	.loc 13 159 0
	ldrb	r3, [sp, #44]
	eor	r3, r3, #1
	uxtb	r3, r3
	cmp	r3, #0
	beq	.L164
	.loc 13 161 0
	ldr	r3, [sp, #12]
	ldr	r3, [r3, #4]
	ldr	r0, [sp, #8]
	mov	r1, r3
	ldr	r2, [sp, #28]
	bl	_ZN4_STL14__copy_trivialEPKvS1_Pv(PLT)
	str	r0, [sp, #28]
.L164:
	.loc 13 162 0
	ldr	r0, [sp, #12]
	bl	_ZN4_STL6vectorIP8PlatformNS_9allocatorIS2_EEE8_M_clearEv(PLT)
	.loc 13 163 0
	ldr	r3, [sp, #24]
	mov	r3, r3, asl #2
	ldr	r2, [sp, #20]
	add	r3, r2, r3
	ldr	r0, [sp, #12]
	ldr	r1, [sp, #20]
	ldr	r2, [sp, #28]
	bl	_ZN4_STL6vectorIP8PlatformNS_9allocatorIS2_EEE6_M_setEPS2_S6_S6_(PLT)
.LBE26:
	.loc 13 164 0
	add	sp, sp, #36
	@ sp needed
	ldr	pc, [sp], #4
	.cfi_endproc
.LFE3241:
	.size	_ZN4_STL6vectorIP8PlatformNS_9allocatorIS2_EEE18_M_insert_overflowEPS2_RKS2_RKNS_11__true_typeEjb, .-_ZN4_STL6vectorIP8PlatformNS_9allocatorIS2_EEE18_M_insert_overflowEPS2_RKS2_RKNS_11__true_typeEjb
	.section	.text._ZN4_STL10_ConstructIP6TargetS2_EEvPT_RKT0_,"axG",%progbits,_ZN4_STL10_ConstructIP6TargetS2_EEvPT_RKT0_,comdat
	.align	2
	.weak	_ZN4_STL10_ConstructIP6TargetS2_EEvPT_RKT0_
	.hidden	_ZN4_STL10_ConstructIP6TargetS2_EEvPT_RKT0_
	.type	_ZN4_STL10_ConstructIP6TargetS2_EEvPT_RKT0_, %function
_ZN4_STL10_ConstructIP6TargetS2_EEvPT_RKT0_:
.LFB3242:
	.loc 3 93 0
	.cfi_startproc
	@ args = 0, pretend = 0, frame = 8
	@ frame_needed = 0, uses_anonymous_args = 0
	str	lr, [sp, #-4]!
.LCFI92:
	.cfi_def_cfa_offset 4
	.cfi_offset 14, -4
	sub	sp, sp, #12
.LCFI93:
	.cfi_def_cfa_offset 16
	str	r0, [sp, #4]
	str	r1, [sp]
	.loc 3 97 0
	ldr	r3, [sp, #4]
	mov	r0, #4
	mov	r1, r3
	bl	_ZnwjPv(PLT)
	mov	r3, r0
	ldr	r2, [sp]
	ldr	r2, [r2]
	str	r2, [r3]
	.loc 3 98 0
	add	sp, sp, #12
	@ sp needed
	ldr	pc, [sp], #4
	.cfi_endproc
.LFE3242:
	.size	_ZN4_STL10_ConstructIP6TargetS2_EEvPT_RKT0_, .-_ZN4_STL10_ConstructIP6TargetS2_EEvPT_RKT0_
	.section	.text._ZN4_STL6vectorIP6TargetNS_9allocatorIS2_EEE18_M_insert_overflowEPS2_RKS2_RKNS_11__true_typeEjb,"axG",%progbits,_ZN4_STL6vectorIP6TargetNS_9allocatorIS2_EEE18_M_insert_overflowEPS2_RKS2_RKNS_11__true_typeEjb,comdat
	.align	2
	.weak	_ZN4_STL6vectorIP6TargetNS_9allocatorIS2_EEE18_M_insert_overflowEPS2_RKS2_RKNS_11__true_typeEjb
	.hidden	_ZN4_STL6vectorIP6TargetNS_9allocatorIS2_EEE18_M_insert_overflowEPS2_RKS2_RKNS_11__true_typeEjb
	.type	_ZN4_STL6vectorIP6TargetNS_9allocatorIS2_EEE18_M_insert_overflowEPS2_RKS2_RKNS_11__true_typeEjb, %function
_ZN4_STL6vectorIP6TargetNS_9allocatorIS2_EEE18_M_insert_overflowEPS2_RKS2_RKNS_11__true_typeEjb:
.LFB3243:
	.loc 13 150 0
	.cfi_startproc
	@ args = 8, pretend = 0, frame = 32
	@ frame_needed = 0, uses_anonymous_args = 0
	str	lr, [sp, #-4]!
.LCFI94:
	.cfi_def_cfa_offset 4
	.cfi_offset 14, -4
	sub	sp, sp, #36
.LCFI95:
	.cfi_def_cfa_offset 40
	str	r0, [sp, #12]
	str	r1, [sp, #8]
	str	r2, [sp, #4]
	str	r3, [sp]
.LBB27:
	.loc 13 152 0
	ldr	r0, [sp, #12]
	bl	_ZNK4_STL6vectorIP6TargetNS_9allocatorIS2_EEE4sizeEv(PLT)
	mov	r3, r0
	str	r3, [sp, #16]
	.loc 13 153 0
	add	r3, sp, #16
	mov	r0, r3
	add	r3, sp, #40
	mov	r1, r3
	bl	_ZN4_STL3maxIjEERKT_S3_S3_(PLT)
	mov	r3, r0
	ldr	r2, [r3]
	ldr	r3, [sp, #16]
	add	r3, r2, r3
	str	r3, [sp, #24]
	.loc 13 155 0
	ldr	r3, [sp, #12]
	add	r3, r3, #8
	mov	r0, r3
	ldr	r1, [sp, #24]
	mov	r2, #0
	bl	_ZN4_STL9allocatorIP6TargetE8allocateEjPKv(PLT)
	str	r0, [sp, #20]
	.loc 13 156 0
	ldr	r3, [sp, #12]
	ldr	r3, [r3]
	mov	r0, r3
	ldr	r1, [sp, #8]
	ldr	r2, [sp, #20]
	bl	_ZN4_STL14__copy_trivialEPKvS1_Pv(PLT)
	str	r0, [sp, #28]
	.loc 13 158 0
	ldr	r3, [sp, #40]
	ldr	r0, [sp, #28]
	mov	r1, r3
	ldr	r2, [sp, #4]
	bl	_ZN4_STL6fill_nIPP6TargetjS2_EET_S4_T0_RKT1_(PLT)
	str	r0, [sp, #28]
	.loc 13 159 0
	ldrb	r3, [sp, #44]
	eor	r3, r3, #1
	uxtb	r3, r3
	cmp	r3, #0
	beq	.L167
	.loc 13 161 0
	ldr	r3, [sp, #12]
	ldr	r3, [r3, #4]
	ldr	r0, [sp, #8]
	mov	r1, r3
	ldr	r2, [sp, #28]
	bl	_ZN4_STL14__copy_trivialEPKvS1_Pv(PLT)
	str	r0, [sp, #28]
.L167:
	.loc 13 162 0
	ldr	r0, [sp, #12]
	bl	_ZN4_STL6vectorIP6TargetNS_9allocatorIS2_EEE8_M_clearEv(PLT)
	.loc 13 163 0
	ldr	r3, [sp, #24]
	mov	r3, r3, asl #2
	ldr	r2, [sp, #20]
	add	r3, r2, r3
	ldr	r0, [sp, #12]
	ldr	r1, [sp, #20]
	ldr	r2, [sp, #28]
	bl	_ZN4_STL6vectorIP6TargetNS_9allocatorIS2_EEE6_M_setEPS2_S6_S6_(PLT)
.LBE27:
	.loc 13 164 0
	add	sp, sp, #36
	@ sp needed
	ldr	pc, [sp], #4
	.cfi_endproc
.LFE3243:
	.size	_ZN4_STL6vectorIP6TargetNS_9allocatorIS2_EEE18_M_insert_overflowEPS2_RKS2_RKNS_11__true_typeEjb, .-_ZN4_STL6vectorIP6TargetNS_9allocatorIS2_EEE18_M_insert_overflowEPS2_RKS2_RKNS_11__true_typeEjb
	.section	.text._ZNK4_STL6vectorIP8PlatformNS_9allocatorIS2_EEE4sizeEv,"axG",%progbits,_ZNK4_STL6vectorIP8PlatformNS_9allocatorIS2_EEE4sizeEv,comdat
	.align	2
	.weak	_ZNK4_STL6vectorIP8PlatformNS_9allocatorIS2_EEE4sizeEv
	.hidden	_ZNK4_STL6vectorIP8PlatformNS_9allocatorIS2_EEE4sizeEv
	.type	_ZNK4_STL6vectorIP8PlatformNS_9allocatorIS2_EEE4sizeEv, %function
_ZNK4_STL6vectorIP8PlatformNS_9allocatorIS2_EEE4sizeEv:
.LFB3244:
	.loc 13 182 0
	.cfi_startproc
	@ args = 0, pretend = 0, frame = 8
	@ frame_needed = 0, uses_anonymous_args = 0
	@ link register save eliminated.
	sub	sp, sp, #8
.LCFI96:
	.cfi_def_cfa_offset 8
	str	r0, [sp, #4]
	.loc 13 182 0
	ldr	r3, [sp, #4]
	ldr	r3, [r3, #4]
	mov	r2, r3
	ldr	r3, [sp, #4]
	ldr	r3, [r3]
	rsb	r3, r3, r2
	mov	r3, r3, asr #2
	mov	r0, r3
	add	sp, sp, #8
	@ sp needed
	bx	lr
	.cfi_endproc
.LFE3244:
	.size	_ZNK4_STL6vectorIP8PlatformNS_9allocatorIS2_EEE4sizeEv, .-_ZNK4_STL6vectorIP8PlatformNS_9allocatorIS2_EEE4sizeEv
	.section	.text._ZNK4_STL6vectorIP8PlatformNS_9allocatorIS2_EEE13get_allocatorEv,"axG",%progbits,_ZNK4_STL6vectorIP8PlatformNS_9allocatorIS2_EEE13get_allocatorEv,comdat
	.align	2
	.weak	_ZNK4_STL6vectorIP8PlatformNS_9allocatorIS2_EEE13get_allocatorEv
	.hidden	_ZNK4_STL6vectorIP8PlatformNS_9allocatorIS2_EEE13get_allocatorEv
	.type	_ZNK4_STL6vectorIP8PlatformNS_9allocatorIS2_EEE13get_allocatorEv, %function
_ZNK4_STL6vectorIP8PlatformNS_9allocatorIS2_EEE13get_allocatorEv:
.LFB3245:
	.loc 13 117 0
	.cfi_startproc
	@ args = 0, pretend = 0, frame = 8
	@ frame_needed = 0, uses_anonymous_args = 0
	str	lr, [sp, #-4]!
.LCFI97:
	.cfi_def_cfa_offset 4
	.cfi_offset 14, -4
	sub	sp, sp, #12
.LCFI98:
	.cfi_def_cfa_offset 16
	str	r0, [sp, #4]
	str	r1, [sp]
	.loc 13 118 0
	ldr	r3, [sp]
	add	r3, r3, #8
	ldr	r0, [sp, #4]
	mov	r1, r3
	bl	_ZN4_STL9allocatorIP8PlatformEC1ERKS3_(PLT)
	.loc 13 119 0
	ldr	r0, [sp, #4]
	add	sp, sp, #12
	@ sp needed
	ldr	pc, [sp], #4
	.cfi_endproc
.LFE3245:
	.size	_ZNK4_STL6vectorIP8PlatformNS_9allocatorIS2_EEE13get_allocatorEv, .-_ZNK4_STL6vectorIP8PlatformNS_9allocatorIS2_EEE13get_allocatorEv
	.section	.text._ZN4_STL12_Vector_baseIP8PlatformNS_9allocatorIS2_EEEC2EjRKS4_,"axG",%progbits,_ZN4_STL12_Vector_baseIP8PlatformNS_9allocatorIS2_EEEC5EjRKS4_,comdat
	.align	2
	.weak	_ZN4_STL12_Vector_baseIP8PlatformNS_9allocatorIS2_EEEC2EjRKS4_
	.hidden	_ZN4_STL12_Vector_baseIP8PlatformNS_9allocatorIS2_EEEC2EjRKS4_
	.type	_ZN4_STL12_Vector_baseIP8PlatformNS_9allocatorIS2_EEEC2EjRKS4_, %function
_ZN4_STL12_Vector_baseIP8PlatformNS_9allocatorIS2_EEEC2EjRKS4_:
.LFB3247:
	.loc 13 74 0
	.cfi_startproc
	@ args = 0, pretend = 0, frame = 16
	@ frame_needed = 0, uses_anonymous_args = 0
	str	lr, [sp, #-4]!
.LCFI99:
	.cfi_def_cfa_offset 4
	.cfi_offset 14, -4
	sub	sp, sp, #20
.LCFI100:
	.cfi_def_cfa_offset 24
	str	r0, [sp, #12]
	str	r1, [sp, #8]
	str	r2, [sp, #4]
.LBB28:
	.loc 13 75 0
	ldr	r3, [sp, #12]
	mov	r2, #0
	str	r2, [r3]
	ldr	r3, [sp, #12]
	mov	r2, #0
	str	r2, [r3, #4]
	ldr	r3, [sp, #12]
	add	r3, r3, #8
	mov	r0, r3
	ldr	r1, [sp, #4]
	mov	r2, #0
	bl	_ZN4_STL17_STLP_alloc_proxyIPP8PlatformS2_NS_9allocatorIS2_EEEC1ERKS5_S3_(PLT)
	.loc 13 77 0
	ldr	r3, [sp, #12]
	add	r3, r3, #8
	mov	r0, r3
	ldr	r1, [sp, #8]
	mov	r2, #0
	bl	_ZN4_STL9allocatorIP8PlatformE8allocateEjPKv(PLT)
	mov	r2, r0
	ldr	r3, [sp, #12]
	str	r2, [r3]
	.loc 13 78 0
	ldr	r3, [sp, #12]
	ldr	r2, [r3]
	ldr	r3, [sp, #12]
	str	r2, [r3, #4]
	.loc 13 79 0
	ldr	r3, [sp, #12]
	ldr	r2, [r3]
	ldr	r3, [sp, #8]
	mov	r3, r3, asl #2
	add	r2, r2, r3
	ldr	r3, [sp, #12]
	str	r2, [r3, #8]
.LBE28:
	.loc 13 81 0
	ldr	r3, [sp, #12]
	mov	r0, r3
	add	sp, sp, #20
	@ sp needed
	ldr	pc, [sp], #4
	.cfi_endproc
.LFE3247:
	.size	_ZN4_STL12_Vector_baseIP8PlatformNS_9allocatorIS2_EEEC2EjRKS4_, .-_ZN4_STL12_Vector_baseIP8PlatformNS_9allocatorIS2_EEEC2EjRKS4_
	.weak	_ZN4_STL12_Vector_baseIP8PlatformNS_9allocatorIS2_EEEC1EjRKS4_
	.hidden	_ZN4_STL12_Vector_baseIP8PlatformNS_9allocatorIS2_EEEC1EjRKS4_
	.set	_ZN4_STL12_Vector_baseIP8PlatformNS_9allocatorIS2_EEEC1EjRKS4_,_ZN4_STL12_Vector_baseIP8PlatformNS_9allocatorIS2_EEEC2EjRKS4_
	.section	.text._ZN4_STL20__uninitialized_copyIPKP8PlatformPS2_EET0_T_S7_S6_RKNS_11__true_typeE,"axG",%progbits,_ZN4_STL20__uninitialized_copyIPKP8PlatformPS2_EET0_T_S7_S6_RKNS_11__true_typeE,comdat
	.align	2
	.weak	_ZN4_STL20__uninitialized_copyIPKP8PlatformPS2_EET0_T_S7_S6_RKNS_11__true_typeE
	.hidden	_ZN4_STL20__uninitialized_copyIPKP8PlatformPS2_EET0_T_S7_S6_RKNS_11__true_typeE
	.type	_ZN4_STL20__uninitialized_copyIPKP8PlatformPS2_EET0_T_S7_S6_RKNS_11__true_typeE, %function
_ZN4_STL20__uninitialized_copyIPKP8PlatformPS2_EET0_T_S7_S6_RKNS_11__true_typeE:
.LFB3249:
	.loc 4 53 0
	.cfi_startproc
	@ args = 0, pretend = 0, frame = 24
	@ frame_needed = 0, uses_anonymous_args = 0
	str	lr, [sp, #-4]!
.LCFI101:
	.cfi_def_cfa_offset 4
	.cfi_offset 14, -4
	sub	sp, sp, #28
.LCFI102:
	.cfi_def_cfa_offset 32
	str	r0, [sp, #12]
	str	r1, [sp, #8]
	str	r2, [sp, #4]
	str	r3, [sp]
	.loc 4 55 0
	bl	_ZN4_STL12_BothPtrTypeIPKP8PlatformPS2_E4_RetEv(PLT)
	add	r3, sp, #20
	ldr	r0, [sp, #12]
	ldr	r1, [sp, #8]
	ldr	r2, [sp, #4]
	bl	_ZN4_STL10__copy_auxIPKP8PlatformPS2_EET0_T_S7_S6_RKNS_11__true_typeE(PLT)
	mov	r3, r0
	.loc 4 56 0
	mov	r0, r3
	add	sp, sp, #28
	@ sp needed
	ldr	pc, [sp], #4
	.cfi_endproc
.LFE3249:
	.size	_ZN4_STL20__uninitialized_copyIPKP8PlatformPS2_EET0_T_S7_S6_RKNS_11__true_typeE, .-_ZN4_STL20__uninitialized_copyIPKP8PlatformPS2_EET0_T_S7_S6_RKNS_11__true_typeE
	.section	.text._ZNK4_STL6vectorIP6TargetNS_9allocatorIS2_EEE4sizeEv,"axG",%progbits,_ZNK4_STL6vectorIP6TargetNS_9allocatorIS2_EEE4sizeEv,comdat
	.align	2
	.weak	_ZNK4_STL6vectorIP6TargetNS_9allocatorIS2_EEE4sizeEv
	.hidden	_ZNK4_STL6vectorIP6TargetNS_9allocatorIS2_EEE4sizeEv
	.type	_ZNK4_STL6vectorIP6TargetNS_9allocatorIS2_EEE4sizeEv, %function
_ZNK4_STL6vectorIP6TargetNS_9allocatorIS2_EEE4sizeEv:
.LFB3250:
	.loc 13 182 0
	.cfi_startproc
	@ args = 0, pretend = 0, frame = 8
	@ frame_needed = 0, uses_anonymous_args = 0
	@ link register save eliminated.
	sub	sp, sp, #8
.LCFI103:
	.cfi_def_cfa_offset 8
	str	r0, [sp, #4]
	.loc 13 182 0
	ldr	r3, [sp, #4]
	ldr	r3, [r3, #4]
	mov	r2, r3
	ldr	r3, [sp, #4]
	ldr	r3, [r3]
	rsb	r3, r3, r2
	mov	r3, r3, asr #2
	mov	r0, r3
	add	sp, sp, #8
	@ sp needed
	bx	lr
	.cfi_endproc
.LFE3250:
	.size	_ZNK4_STL6vectorIP6TargetNS_9allocatorIS2_EEE4sizeEv, .-_ZNK4_STL6vectorIP6TargetNS_9allocatorIS2_EEE4sizeEv
	.section	.text._ZNK4_STL6vectorIP6TargetNS_9allocatorIS2_EEE13get_allocatorEv,"axG",%progbits,_ZNK4_STL6vectorIP6TargetNS_9allocatorIS2_EEE13get_allocatorEv,comdat
	.align	2
	.weak	_ZNK4_STL6vectorIP6TargetNS_9allocatorIS2_EEE13get_allocatorEv
	.hidden	_ZNK4_STL6vectorIP6TargetNS_9allocatorIS2_EEE13get_allocatorEv
	.type	_ZNK4_STL6vectorIP6TargetNS_9allocatorIS2_EEE13get_allocatorEv, %function
_ZNK4_STL6vectorIP6TargetNS_9allocatorIS2_EEE13get_allocatorEv:
.LFB3251:
	.loc 13 117 0
	.cfi_startproc
	@ args = 0, pretend = 0, frame = 8
	@ frame_needed = 0, uses_anonymous_args = 0
	str	lr, [sp, #-4]!
.LCFI104:
	.cfi_def_cfa_offset 4
	.cfi_offset 14, -4
	sub	sp, sp, #12
.LCFI105:
	.cfi_def_cfa_offset 16
	str	r0, [sp, #4]
	str	r1, [sp]
	.loc 13 118 0
	ldr	r3, [sp]
	add	r3, r3, #8
	ldr	r0, [sp, #4]
	mov	r1, r3
	bl	_ZN4_STL9allocatorIP6TargetEC1ERKS3_(PLT)
	.loc 13 119 0
	ldr	r0, [sp, #4]
	add	sp, sp, #12
	@ sp needed
	ldr	pc, [sp], #4
	.cfi_endproc
.LFE3251:
	.size	_ZNK4_STL6vectorIP6TargetNS_9allocatorIS2_EEE13get_allocatorEv, .-_ZNK4_STL6vectorIP6TargetNS_9allocatorIS2_EEE13get_allocatorEv
	.section	.text._ZN4_STL12_Vector_baseIP6TargetNS_9allocatorIS2_EEEC2EjRKS4_,"axG",%progbits,_ZN4_STL12_Vector_baseIP6TargetNS_9allocatorIS2_EEEC5EjRKS4_,comdat
	.align	2
	.weak	_ZN4_STL12_Vector_baseIP6TargetNS_9allocatorIS2_EEEC2EjRKS4_
	.hidden	_ZN4_STL12_Vector_baseIP6TargetNS_9allocatorIS2_EEEC2EjRKS4_
	.type	_ZN4_STL12_Vector_baseIP6TargetNS_9allocatorIS2_EEEC2EjRKS4_, %function
_ZN4_STL12_Vector_baseIP6TargetNS_9allocatorIS2_EEEC2EjRKS4_:
.LFB3253:
	.loc 13 74 0
	.cfi_startproc
	@ args = 0, pretend = 0, frame = 16
	@ frame_needed = 0, uses_anonymous_args = 0
	str	lr, [sp, #-4]!
.LCFI106:
	.cfi_def_cfa_offset 4
	.cfi_offset 14, -4
	sub	sp, sp, #20
.LCFI107:
	.cfi_def_cfa_offset 24
	str	r0, [sp, #12]
	str	r1, [sp, #8]
	str	r2, [sp, #4]
.LBB29:
	.loc 13 75 0
	ldr	r3, [sp, #12]
	mov	r2, #0
	str	r2, [r3]
	ldr	r3, [sp, #12]
	mov	r2, #0
	str	r2, [r3, #4]
	ldr	r3, [sp, #12]
	add	r3, r3, #8
	mov	r0, r3
	ldr	r1, [sp, #4]
	mov	r2, #0
	bl	_ZN4_STL17_STLP_alloc_proxyIPP6TargetS2_NS_9allocatorIS2_EEEC1ERKS5_S3_(PLT)
	.loc 13 77 0
	ldr	r3, [sp, #12]
	add	r3, r3, #8
	mov	r0, r3
	ldr	r1, [sp, #8]
	mov	r2, #0
	bl	_ZN4_STL9allocatorIP6TargetE8allocateEjPKv(PLT)
	mov	r2, r0
	ldr	r3, [sp, #12]
	str	r2, [r3]
	.loc 13 78 0
	ldr	r3, [sp, #12]
	ldr	r2, [r3]
	ldr	r3, [sp, #12]
	str	r2, [r3, #4]
	.loc 13 79 0
	ldr	r3, [sp, #12]
	ldr	r2, [r3]
	ldr	r3, [sp, #8]
	mov	r3, r3, asl #2
	add	r2, r2, r3
	ldr	r3, [sp, #12]
	str	r2, [r3, #8]
.LBE29:
	.loc 13 81 0
	ldr	r3, [sp, #12]
	mov	r0, r3
	add	sp, sp, #20
	@ sp needed
	ldr	pc, [sp], #4
	.cfi_endproc
.LFE3253:
	.size	_ZN4_STL12_Vector_baseIP6TargetNS_9allocatorIS2_EEEC2EjRKS4_, .-_ZN4_STL12_Vector_baseIP6TargetNS_9allocatorIS2_EEEC2EjRKS4_
	.weak	_ZN4_STL12_Vector_baseIP6TargetNS_9allocatorIS2_EEEC1EjRKS4_
	.hidden	_ZN4_STL12_Vector_baseIP6TargetNS_9allocatorIS2_EEEC1EjRKS4_
	.set	_ZN4_STL12_Vector_baseIP6TargetNS_9allocatorIS2_EEEC1EjRKS4_,_ZN4_STL12_Vector_baseIP6TargetNS_9allocatorIS2_EEEC2EjRKS4_
	.section	.text._ZN4_STL20__uninitialized_copyIPKP6TargetPS2_EET0_T_S7_S6_RKNS_11__true_typeE,"axG",%progbits,_ZN4_STL20__uninitialized_copyIPKP6TargetPS2_EET0_T_S7_S6_RKNS_11__true_typeE,comdat
	.align	2
	.weak	_ZN4_STL20__uninitialized_copyIPKP6TargetPS2_EET0_T_S7_S6_RKNS_11__true_typeE
	.hidden	_ZN4_STL20__uninitialized_copyIPKP6TargetPS2_EET0_T_S7_S6_RKNS_11__true_typeE
	.type	_ZN4_STL20__uninitialized_copyIPKP6TargetPS2_EET0_T_S7_S6_RKNS_11__true_typeE, %function
_ZN4_STL20__uninitialized_copyIPKP6TargetPS2_EET0_T_S7_S6_RKNS_11__true_typeE:
.LFB3255:
	.loc 4 53 0
	.cfi_startproc
	@ args = 0, pretend = 0, frame = 24
	@ frame_needed = 0, uses_anonymous_args = 0
	str	lr, [sp, #-4]!
.LCFI108:
	.cfi_def_cfa_offset 4
	.cfi_offset 14, -4
	sub	sp, sp, #28
.LCFI109:
	.cfi_def_cfa_offset 32
	str	r0, [sp, #12]
	str	r1, [sp, #8]
	str	r2, [sp, #4]
	str	r3, [sp]
	.loc 4 55 0
	bl	_ZN4_STL12_BothPtrTypeIPKP6TargetPS2_E4_RetEv(PLT)
	add	r3, sp, #20
	ldr	r0, [sp, #12]
	ldr	r1, [sp, #8]
	ldr	r2, [sp, #4]
	bl	_ZN4_STL10__copy_auxIPKP6TargetPS2_EET0_T_S7_S6_RKNS_11__true_typeE(PLT)
	mov	r3, r0
	.loc 4 56 0
	mov	r0, r3
	add	sp, sp, #28
	@ sp needed
	ldr	pc, [sp], #4
	.cfi_endproc
.LFE3255:
	.size	_ZN4_STL20__uninitialized_copyIPKP6TargetPS2_EET0_T_S7_S6_RKNS_11__true_typeE, .-_ZN4_STL20__uninitialized_copyIPKP6TargetPS2_EET0_T_S7_S6_RKNS_11__true_typeE
	.section	.text._ZN4_STL12_String_baseIcNS_9allocatorIcEEE19_M_deallocate_blockEv,"axG",%progbits,_ZN4_STL12_String_baseIcNS_9allocatorIcEEE19_M_deallocate_blockEv,comdat
	.align	2
	.weak	_ZN4_STL12_String_baseIcNS_9allocatorIcEEE19_M_deallocate_blockEv
	.hidden	_ZN4_STL12_String_baseIcNS_9allocatorIcEEE19_M_deallocate_blockEv
	.type	_ZN4_STL12_String_baseIcNS_9allocatorIcEEE19_M_deallocate_blockEv, %function
_ZN4_STL12_String_baseIcNS_9allocatorIcEEE19_M_deallocate_blockEv:
.LFB3264:
	.loc 11 123 0
	.cfi_startproc
	@ args = 0, pretend = 0, frame = 8
	@ frame_needed = 0, uses_anonymous_args = 0
	str	lr, [sp, #-4]!
.LCFI110:
	.cfi_def_cfa_offset 4
	.cfi_offset 14, -4
	sub	sp, sp, #12
.LCFI111:
	.cfi_def_cfa_offset 16
	str	r0, [sp, #4]
	.loc 11 124 0
	ldr	r3, [sp, #4]
	add	r1, r3, #8
	ldr	r3, [sp, #4]
	ldr	r2, [r3]
	ldr	r3, [sp, #4]
	ldr	r3, [r3, #8]
	mov	r0, r3
	ldr	r3, [sp, #4]
	ldr	r3, [r3]
	rsb	r3, r3, r0
	mov	r0, r1
	mov	r1, r2
	mov	r2, r3
	bl	_ZN4_STL9allocatorIcE10deallocateEPcj(PLT)
	add	sp, sp, #12
	@ sp needed
	ldr	pc, [sp], #4
	.cfi_endproc
.LFE3264:
	.size	_ZN4_STL12_String_baseIcNS_9allocatorIcEEE19_M_deallocate_blockEv, .-_ZN4_STL12_String_baseIcNS_9allocatorIcEEE19_M_deallocate_blockEv
	.section	.text._ZN4_STL17_STLP_alloc_proxyIPP8PlatformS2_NS_9allocatorIS2_EEEC2ERKS5_S3_,"axG",%progbits,_ZN4_STL17_STLP_alloc_proxyIPP8PlatformS2_NS_9allocatorIS2_EEEC5ERKS5_S3_,comdat
	.align	2
	.weak	_ZN4_STL17_STLP_alloc_proxyIPP8PlatformS2_NS_9allocatorIS2_EEEC2ERKS5_S3_
	.hidden	_ZN4_STL17_STLP_alloc_proxyIPP8PlatformS2_NS_9allocatorIS2_EEEC2ERKS5_S3_
	.type	_ZN4_STL17_STLP_alloc_proxyIPP8PlatformS2_NS_9allocatorIS2_EEEC2ERKS5_S3_, %function
_ZN4_STL17_STLP_alloc_proxyIPP8PlatformS2_NS_9allocatorIS2_EEEC2ERKS5_S3_:
.LFB3278:
	.loc 12 487 0
	.cfi_startproc
	@ args = 0, pretend = 0, frame = 16
	@ frame_needed = 0, uses_anonymous_args = 0
	str	lr, [sp, #-4]!
.LCFI112:
	.cfi_def_cfa_offset 4
	.cfi_offset 14, -4
	sub	sp, sp, #20
.LCFI113:
	.cfi_def_cfa_offset 24
	str	r0, [sp, #12]
	str	r1, [sp, #8]
	str	r2, [sp, #4]
.LBB30:
	.loc 12 487 0
	ldr	r0, [sp, #12]
	ldr	r1, [sp, #8]
	bl	_ZN4_STL9allocatorIP8PlatformEC2ERKS3_(PLT)
	ldr	r3, [sp, #12]
	ldr	r2, [sp, #4]
	str	r2, [r3]
.LBE30:
	ldr	r3, [sp, #12]
	mov	r0, r3
	add	sp, sp, #20
	@ sp needed
	ldr	pc, [sp], #4
	.cfi_endproc
.LFE3278:
	.size	_ZN4_STL17_STLP_alloc_proxyIPP8PlatformS2_NS_9allocatorIS2_EEEC2ERKS5_S3_, .-_ZN4_STL17_STLP_alloc_proxyIPP8PlatformS2_NS_9allocatorIS2_EEEC2ERKS5_S3_
	.weak	_ZN4_STL17_STLP_alloc_proxyIPP8PlatformS2_NS_9allocatorIS2_EEEC1ERKS5_S3_
	.hidden	_ZN4_STL17_STLP_alloc_proxyIPP8PlatformS2_NS_9allocatorIS2_EEEC1ERKS5_S3_
	.set	_ZN4_STL17_STLP_alloc_proxyIPP8PlatformS2_NS_9allocatorIS2_EEEC1ERKS5_S3_,_ZN4_STL17_STLP_alloc_proxyIPP8PlatformS2_NS_9allocatorIS2_EEEC2ERKS5_S3_
	.section	.text._ZN4_STL9allocatorIP8PlatformE10deallocateEPS2_j,"axG",%progbits,_ZN4_STL9allocatorIP8PlatformE10deallocateEPS2_j,comdat
	.align	2
	.weak	_ZN4_STL9allocatorIP8PlatformE10deallocateEPS2_j
	.hidden	_ZN4_STL9allocatorIP8PlatformE10deallocateEPS2_j
	.type	_ZN4_STL9allocatorIP8PlatformE10deallocateEPS2_j, %function
_ZN4_STL9allocatorIP8PlatformE10deallocateEPS2_j:
.LFB3280:
	.loc 12 358 0
	.cfi_startproc
	@ args = 0, pretend = 0, frame = 16
	@ frame_needed = 0, uses_anonymous_args = 0
	str	lr, [sp, #-4]!
.LCFI114:
	.cfi_def_cfa_offset 4
	.cfi_offset 14, -4
	sub	sp, sp, #20
.LCFI115:
	.cfi_def_cfa_offset 24
	str	r0, [sp, #12]
	str	r1, [sp, #8]
	str	r2, [sp, #4]
	.loc 12 360 0
	ldr	r3, [sp, #8]
	cmp	r3, #0
	beq	.L190
	.loc 12 360 0 is_stmt 0 discriminator 1
	ldr	r3, [sp, #4]
	mov	r3, r3, asl #2
	ldr	r0, [sp, #8]
	mov	r1, r3
	bl	_ZN4_STL14__malloc_allocILi0EE10deallocateEPvj(PLT)
.L190:
	.loc 12 361 0 is_stmt 1
	add	sp, sp, #20
	@ sp needed
	ldr	pc, [sp], #4
	.cfi_endproc
.LFE3280:
	.size	_ZN4_STL9allocatorIP8PlatformE10deallocateEPS2_j, .-_ZN4_STL9allocatorIP8PlatformE10deallocateEPS2_j
	.section	.text._ZN4_STL9__destroyIPP8PlatformS2_EEvT_S4_PT0_,"axG",%progbits,_ZN4_STL9__destroyIPP8PlatformS2_EEvT_S4_PT0_,comdat
	.align	2
	.weak	_ZN4_STL9__destroyIPP8PlatformS2_EEvT_S4_PT0_
	.hidden	_ZN4_STL9__destroyIPP8PlatformS2_EEvT_S4_PT0_
	.type	_ZN4_STL9__destroyIPP8PlatformS2_EEvT_S4_PT0_, %function
_ZN4_STL9__destroyIPP8PlatformS2_EEvT_S4_PT0_:
.LFB3281:
	.loc 3 132 0
	.cfi_startproc
	@ args = 0, pretend = 0, frame = 24
	@ frame_needed = 0, uses_anonymous_args = 0
	str	lr, [sp, #-4]!
.LCFI116:
	.cfi_def_cfa_offset 4
	.cfi_offset 14, -4
	sub	sp, sp, #28
.LCFI117:
	.cfi_def_cfa_offset 32
	str	r0, [sp, #12]
	str	r1, [sp, #8]
	str	r2, [sp, #4]
.LBB31:
	.loc 3 134 0
	add	r3, sp, #20
	ldr	r0, [sp, #12]
	ldr	r1, [sp, #8]
	mov	r2, r3
	bl	_ZN4_STL13__destroy_auxIPP8PlatformEEvT_S4_RKNS_11__true_typeE(PLT)
.LBE31:
	.loc 3 135 0
	add	sp, sp, #28
	@ sp needed
	ldr	pc, [sp], #4
	.cfi_endproc
.LFE3281:
	.size	_ZN4_STL9__destroyIPP8PlatformS2_EEvT_S4_PT0_, .-_ZN4_STL9__destroyIPP8PlatformS2_EEvT_S4_PT0_
	.section	.text._ZN4_STL17_STLP_alloc_proxyIPP6TargetS2_NS_9allocatorIS2_EEEC2ERKS5_S3_,"axG",%progbits,_ZN4_STL17_STLP_alloc_proxyIPP6TargetS2_NS_9allocatorIS2_EEEC5ERKS5_S3_,comdat
	.align	2
	.weak	_ZN4_STL17_STLP_alloc_proxyIPP6TargetS2_NS_9allocatorIS2_EEEC2ERKS5_S3_
	.hidden	_ZN4_STL17_STLP_alloc_proxyIPP6TargetS2_NS_9allocatorIS2_EEEC2ERKS5_S3_
	.type	_ZN4_STL17_STLP_alloc_proxyIPP6TargetS2_NS_9allocatorIS2_EEEC2ERKS5_S3_, %function
_ZN4_STL17_STLP_alloc_proxyIPP6TargetS2_NS_9allocatorIS2_EEEC2ERKS5_S3_:
.LFB3283:
	.loc 12 487 0
	.cfi_startproc
	@ args = 0, pretend = 0, frame = 16
	@ frame_needed = 0, uses_anonymous_args = 0
	str	lr, [sp, #-4]!
.LCFI118:
	.cfi_def_cfa_offset 4
	.cfi_offset 14, -4
	sub	sp, sp, #20
.LCFI119:
	.cfi_def_cfa_offset 24
	str	r0, [sp, #12]
	str	r1, [sp, #8]
	str	r2, [sp, #4]
.LBB32:
	.loc 12 487 0
	ldr	r0, [sp, #12]
	ldr	r1, [sp, #8]
	bl	_ZN4_STL9allocatorIP6TargetEC2ERKS3_(PLT)
	ldr	r3, [sp, #12]
	ldr	r2, [sp, #4]
	str	r2, [r3]
.LBE32:
	ldr	r3, [sp, #12]
	mov	r0, r3
	add	sp, sp, #20
	@ sp needed
	ldr	pc, [sp], #4
	.cfi_endproc
.LFE3283:
	.size	_ZN4_STL17_STLP_alloc_proxyIPP6TargetS2_NS_9allocatorIS2_EEEC2ERKS5_S3_, .-_ZN4_STL17_STLP_alloc_proxyIPP6TargetS2_NS_9allocatorIS2_EEEC2ERKS5_S3_
	.weak	_ZN4_STL17_STLP_alloc_proxyIPP6TargetS2_NS_9allocatorIS2_EEEC1ERKS5_S3_
	.hidden	_ZN4_STL17_STLP_alloc_proxyIPP6TargetS2_NS_9allocatorIS2_EEEC1ERKS5_S3_
	.set	_ZN4_STL17_STLP_alloc_proxyIPP6TargetS2_NS_9allocatorIS2_EEEC1ERKS5_S3_,_ZN4_STL17_STLP_alloc_proxyIPP6TargetS2_NS_9allocatorIS2_EEEC2ERKS5_S3_
	.section	.text._ZN4_STL9allocatorIP6TargetE10deallocateEPS2_j,"axG",%progbits,_ZN4_STL9allocatorIP6TargetE10deallocateEPS2_j,comdat
	.align	2
	.weak	_ZN4_STL9allocatorIP6TargetE10deallocateEPS2_j
	.hidden	_ZN4_STL9allocatorIP6TargetE10deallocateEPS2_j
	.type	_ZN4_STL9allocatorIP6TargetE10deallocateEPS2_j, %function
_ZN4_STL9allocatorIP6TargetE10deallocateEPS2_j:
.LFB3285:
	.loc 12 358 0
	.cfi_startproc
	@ args = 0, pretend = 0, frame = 16
	@ frame_needed = 0, uses_anonymous_args = 0
	str	lr, [sp, #-4]!
.LCFI120:
	.cfi_def_cfa_offset 4
	.cfi_offset 14, -4
	sub	sp, sp, #20
.LCFI121:
	.cfi_def_cfa_offset 24
	str	r0, [sp, #12]
	str	r1, [sp, #8]
	str	r2, [sp, #4]
	.loc 12 360 0
	ldr	r3, [sp, #8]
	cmp	r3, #0
	beq	.L196
	.loc 12 360 0 is_stmt 0 discriminator 1
	ldr	r3, [sp, #4]
	mov	r3, r3, asl #2
	ldr	r0, [sp, #8]
	mov	r1, r3
	bl	_ZN4_STL14__malloc_allocILi0EE10deallocateEPvj(PLT)
.L196:
	.loc 12 361 0 is_stmt 1
	add	sp, sp, #20
	@ sp needed
	ldr	pc, [sp], #4
	.cfi_endproc
.LFE3285:
	.size	_ZN4_STL9allocatorIP6TargetE10deallocateEPS2_j, .-_ZN4_STL9allocatorIP6TargetE10deallocateEPS2_j
	.section	.text._ZN4_STL9__destroyIPP6TargetS2_EEvT_S4_PT0_,"axG",%progbits,_ZN4_STL9__destroyIPP6TargetS2_EEvT_S4_PT0_,comdat
	.align	2
	.weak	_ZN4_STL9__destroyIPP6TargetS2_EEvT_S4_PT0_
	.hidden	_ZN4_STL9__destroyIPP6TargetS2_EEvT_S4_PT0_
	.type	_ZN4_STL9__destroyIPP6TargetS2_EEvT_S4_PT0_, %function
_ZN4_STL9__destroyIPP6TargetS2_EEvT_S4_PT0_:
.LFB3286:
	.loc 3 132 0
	.cfi_startproc
	@ args = 0, pretend = 0, frame = 24
	@ frame_needed = 0, uses_anonymous_args = 0
	str	lr, [sp, #-4]!
.LCFI122:
	.cfi_def_cfa_offset 4
	.cfi_offset 14, -4
	sub	sp, sp, #28
.LCFI123:
	.cfi_def_cfa_offset 32
	str	r0, [sp, #12]
	str	r1, [sp, #8]
	str	r2, [sp, #4]
.LBB33:
	.loc 3 134 0
	add	r3, sp, #20
	ldr	r0, [sp, #12]
	ldr	r1, [sp, #8]
	mov	r2, r3
	bl	_ZN4_STL13__destroy_auxIPP6TargetEEvT_S4_RKNS_11__true_typeE(PLT)
.LBE33:
	.loc 3 135 0
	add	sp, sp, #28
	@ sp needed
	ldr	pc, [sp], #4
	.cfi_endproc
.LFE3286:
	.size	_ZN4_STL9__destroyIPP6TargetS2_EEvT_S4_PT0_, .-_ZN4_STL9__destroyIPP6TargetS2_EEvT_S4_PT0_
	.section	.text._ZN4_STL17_STLP_alloc_proxyIPccNS_9allocatorIcEEEC2ERKS3_S1_,"axG",%progbits,_ZN4_STL17_STLP_alloc_proxyIPccNS_9allocatorIcEEEC5ERKS3_S1_,comdat
	.align	2
	.weak	_ZN4_STL17_STLP_alloc_proxyIPccNS_9allocatorIcEEEC2ERKS3_S1_
	.hidden	_ZN4_STL17_STLP_alloc_proxyIPccNS_9allocatorIcEEEC2ERKS3_S1_
	.type	_ZN4_STL17_STLP_alloc_proxyIPccNS_9allocatorIcEEEC2ERKS3_S1_, %function
_ZN4_STL17_STLP_alloc_proxyIPccNS_9allocatorIcEEEC2ERKS3_S1_:
.LFB3288:
	.loc 12 487 0
	.cfi_startproc
	@ args = 0, pretend = 0, frame = 16
	@ frame_needed = 0, uses_anonymous_args = 0
	str	lr, [sp, #-4]!
.LCFI124:
	.cfi_def_cfa_offset 4
	.cfi_offset 14, -4
	sub	sp, sp, #20
.LCFI125:
	.cfi_def_cfa_offset 24
	str	r0, [sp, #12]
	str	r1, [sp, #8]
	str	r2, [sp, #4]
.LBB34:
	.loc 12 487 0
	ldr	r0, [sp, #12]
	ldr	r1, [sp, #8]
	bl	_ZN4_STL9allocatorIcEC2ERKS1_(PLT)
	ldr	r3, [sp, #12]
	ldr	r2, [sp, #4]
	str	r2, [r3]
.LBE34:
	ldr	r3, [sp, #12]
	mov	r0, r3
	add	sp, sp, #20
	@ sp needed
	ldr	pc, [sp], #4
	.cfi_endproc
.LFE3288:
	.size	_ZN4_STL17_STLP_alloc_proxyIPccNS_9allocatorIcEEEC2ERKS3_S1_, .-_ZN4_STL17_STLP_alloc_proxyIPccNS_9allocatorIcEEEC2ERKS3_S1_
	.weak	_ZN4_STL17_STLP_alloc_proxyIPccNS_9allocatorIcEEEC1ERKS3_S1_
	.hidden	_ZN4_STL17_STLP_alloc_proxyIPccNS_9allocatorIcEEEC1ERKS3_S1_
	.set	_ZN4_STL17_STLP_alloc_proxyIPccNS_9allocatorIcEEEC1ERKS3_S1_,_ZN4_STL17_STLP_alloc_proxyIPccNS_9allocatorIcEEEC2ERKS3_S1_
	.section	.text._ZN4_STL12basic_stringIcNS_11char_traitsIcEENS_9allocatorIcEEE19_M_range_initializeIPKcEEvT_S9_RKNS_20forward_iterator_tagE,"axG",%progbits,_ZN4_STL12basic_stringIcNS_11char_traitsIcEENS_9allocatorIcEEE19_M_range_initializeIPKcEEvT_S9_RKNS_20forward_iterator_tagE,comdat
	.align	2
	.weak	_ZN4_STL12basic_stringIcNS_11char_traitsIcEENS_9allocatorIcEEE19_M_range_initializeIPKcEEvT_S9_RKNS_20forward_iterator_tagE
	.hidden	_ZN4_STL12basic_stringIcNS_11char_traitsIcEENS_9allocatorIcEEE19_M_range_initializeIPKcEEvT_S9_RKNS_20forward_iterator_tagE
	.type	_ZN4_STL12basic_stringIcNS_11char_traitsIcEENS_9allocatorIcEEE19_M_range_initializeIPKcEEvT_S9_RKNS_20forward_iterator_tagE, %function
_ZN4_STL12basic_stringIcNS_11char_traitsIcEENS_9allocatorIcEEE19_M_range_initializeIPKcEEvT_S9_RKNS_20forward_iterator_tagE:
.LFB3290:
	.loc 11 382 0
	.cfi_startproc
	@ args = 0, pretend = 0, frame = 24
	@ frame_needed = 0, uses_anonymous_args = 0
	str	lr, [sp, #-4]!
.LCFI126:
	.cfi_def_cfa_offset 4
	.cfi_offset 14, -4
	sub	sp, sp, #28
.LCFI127:
	.cfi_def_cfa_offset 32
	str	r0, [sp, #12]
	str	r1, [sp, #8]
	str	r2, [sp, #4]
	str	r3, [sp]
.LBB35:
	.loc 11 384 0
	add	r2, sp, #8
	add	r3, sp, #4
	mov	r0, r2
	mov	r1, r3
	bl	_ZN4_STL8distanceIPKcEENS_15iterator_traitsIT_E15difference_typeERKS4_S8_(PLT)
	str	r0, [sp, #20]
	.loc 11 385 0
	ldr	r2, [sp, #12]
	ldr	r3, [sp, #20]
	add	r3, r3, #1
	mov	r0, r2
	mov	r1, r3
	bl	_ZN4_STL12_String_baseIcNS_9allocatorIcEEE17_M_allocate_blockEj(PLT)
	.loc 11 386 0
	ldr	r1, [sp, #8]
	ldr	r2, [sp, #4]
	ldr	r3, [sp, #12]
	ldr	r3, [r3]
	mov	r0, r1
	mov	r1, r2
	mov	r2, r3
	bl	_ZN4_STL18uninitialized_copyEPKcS1_Pc(PLT)
	mov	r2, r0
	ldr	r3, [sp, #12]
	str	r2, [r3, #4]
	.loc 11 387 0
	ldr	r0, [sp, #12]
	bl	_ZN4_STL12basic_stringIcNS_11char_traitsIcEENS_9allocatorIcEEE19_M_terminate_stringEv(PLT)
.LBE35:
	.loc 11 388 0
	add	sp, sp, #28
	@ sp needed
	ldr	pc, [sp], #4
	.cfi_endproc
.LFE3290:
	.size	_ZN4_STL12basic_stringIcNS_11char_traitsIcEENS_9allocatorIcEEE19_M_range_initializeIPKcEEvT_S9_RKNS_20forward_iterator_tagE, .-_ZN4_STL12basic_stringIcNS_11char_traitsIcEENS_9allocatorIcEEE19_M_range_initializeIPKcEEvT_S9_RKNS_20forward_iterator_tagE
	.section	.text._ZN4_STL3maxIjEERKT_S3_S3_,"axG",%progbits,_ZN4_STL3maxIjEERKT_S3_S3_,comdat
	.align	2
	.weak	_ZN4_STL3maxIjEERKT_S3_S3_
	.hidden	_ZN4_STL3maxIjEERKT_S3_S3_
	.type	_ZN4_STL3maxIjEERKT_S3_S3_, %function
_ZN4_STL3maxIjEERKT_S3_S3_:
.LFB3291:
	.loc 1 79 0
	.cfi_startproc
	@ args = 0, pretend = 0, frame = 8
	@ frame_needed = 0, uses_anonymous_args = 0
	@ link register save eliminated.
	sub	sp, sp, #8
.LCFI128:
	.cfi_def_cfa_offset 8
	str	r0, [sp, #4]
	str	r1, [sp]
	.loc 1 79 0
	ldr	r3, [sp, #4]
	ldr	r2, [r3]
	ldr	r3, [sp]
	ldr	r3, [r3]
	cmp	r2, r3
	bcs	.L204
	.loc 1 79 0 is_stmt 0 discriminator 1
	ldr	r3, [sp]
	b	.L205
.L204:
	.loc 1 79 0 discriminator 2
	ldr	r3, [sp, #4]
.L205:
	.loc 1 79 0 discriminator 3
	mov	r0, r3
	add	sp, sp, #8
	@ sp needed
	bx	lr
	.cfi_endproc
.LFE3291:
	.size	_ZN4_STL3maxIjEERKT_S3_S3_, .-_ZN4_STL3maxIjEERKT_S3_S3_
	.section	.text._ZN4_STL9allocatorIP8PlatformE8allocateEjPKv,"axG",%progbits,_ZN4_STL9allocatorIP8PlatformE8allocateEjPKv,comdat
	.align	2
	.weak	_ZN4_STL9allocatorIP8PlatformE8allocateEjPKv
	.hidden	_ZN4_STL9allocatorIP8PlatformE8allocateEjPKv
	.type	_ZN4_STL9allocatorIP8PlatformE8allocateEjPKv, %function
_ZN4_STL9allocatorIP8PlatformE8allocateEjPKv:
.LFB3292:
	.loc 12 354 0 is_stmt 1
	.cfi_startproc
	@ args = 0, pretend = 0, frame = 16
	@ frame_needed = 0, uses_anonymous_args = 0
	str	lr, [sp, #-4]!
.LCFI129:
	.cfi_def_cfa_offset 4
	.cfi_offset 14, -4
	sub	sp, sp, #20
.LCFI130:
	.cfi_def_cfa_offset 24
	str	r0, [sp, #12]
	str	r1, [sp, #8]
	str	r2, [sp, #4]
	.loc 12 355 0
	ldr	r3, [sp, #8]
	cmp	r3, #0
	beq	.L208
	.loc 12 355 0 is_stmt 0 discriminator 1
	ldr	r3, [sp, #8]
	mov	r3, r3, asl #2
	mov	r0, r3
	bl	_ZN4_STL14__malloc_allocILi0EE8allocateEj(PLT)
	mov	r3, r0
	b	.L209
.L208:
	.loc 12 355 0 discriminator 2
	mov	r3, #0
.L209:
	.loc 12 356 0 is_stmt 1 discriminator 3
	mov	r0, r3
	add	sp, sp, #20
	@ sp needed
	ldr	pc, [sp], #4
	.cfi_endproc
.LFE3292:
	.size	_ZN4_STL9allocatorIP8PlatformE8allocateEjPKv, .-_ZN4_STL9allocatorIP8PlatformE8allocateEjPKv
	.section	.text._ZN4_STL6fill_nIPP8PlatformjS2_EET_S4_T0_RKT1_,"axG",%progbits,_ZN4_STL6fill_nIPP8PlatformjS2_EET_S4_T0_RKT1_,comdat
	.align	2
	.weak	_ZN4_STL6fill_nIPP8PlatformjS2_EET_S4_T0_RKT1_
	.hidden	_ZN4_STL6fill_nIPP8PlatformjS2_EET_S4_T0_RKT1_
	.type	_ZN4_STL6fill_nIPP8PlatformjS2_EET_S4_T0_RKT1_, %function
_ZN4_STL6fill_nIPP8PlatformjS2_EET_S4_T0_RKT1_:
.LFB3293:
	.loc 1 332 0
	.cfi_startproc
	@ args = 0, pretend = 0, frame = 16
	@ frame_needed = 0, uses_anonymous_args = 0
	@ link register save eliminated.
	sub	sp, sp, #16
.LCFI131:
	.cfi_def_cfa_offset 16
	str	r0, [sp, #12]
	str	r1, [sp, #8]
	str	r2, [sp, #4]
	.loc 1 334 0
	b	.L212
.L213:
	.loc 1 335 0 discriminator 2
	ldr	r3, [sp, #4]
	ldr	r2, [r3]
	ldr	r3, [sp, #12]
	str	r2, [r3]
	.loc 1 334 0 discriminator 2
	ldr	r3, [sp, #8]
	sub	r3, r3, #1
	str	r3, [sp, #8]
	ldr	r3, [sp, #12]
	add	r3, r3, #4
	str	r3, [sp, #12]
.L212:
	.loc 1 334 0 is_stmt 0 discriminator 1
	ldr	r3, [sp, #8]
	cmp	r3, #0
	bne	.L213
	.loc 1 336 0 is_stmt 1
	ldr	r3, [sp, #12]
	.loc 1 337 0
	mov	r0, r3
	add	sp, sp, #16
	@ sp needed
	bx	lr
	.cfi_endproc
.LFE3293:
	.size	_ZN4_STL6fill_nIPP8PlatformjS2_EET_S4_T0_RKT1_, .-_ZN4_STL6fill_nIPP8PlatformjS2_EET_S4_T0_RKT1_
	.section	.text._ZN4_STL6vectorIP8PlatformNS_9allocatorIS2_EEE8_M_clearEv,"axG",%progbits,_ZN4_STL6vectorIP8PlatformNS_9allocatorIS2_EEE8_M_clearEv,comdat
	.align	2
	.weak	_ZN4_STL6vectorIP8PlatformNS_9allocatorIS2_EEE8_M_clearEv
	.hidden	_ZN4_STL6vectorIP8PlatformNS_9allocatorIS2_EEE8_M_clearEv
	.type	_ZN4_STL6vectorIP8PlatformNS_9allocatorIS2_EEE8_M_clearEv, %function
_ZN4_STL6vectorIP8PlatformNS_9allocatorIS2_EEE8_M_clearEv:
.LFB3294:
	.loc 13 493 0
	.cfi_startproc
	@ args = 0, pretend = 0, frame = 8
	@ frame_needed = 0, uses_anonymous_args = 0
	str	lr, [sp, #-4]!
.LCFI132:
	.cfi_def_cfa_offset 4
	.cfi_offset 14, -4
	sub	sp, sp, #12
.LCFI133:
	.cfi_def_cfa_offset 16
	str	r0, [sp, #4]
	.loc 13 495 0
	ldr	r3, [sp, #4]
	ldr	r2, [r3]
	ldr	r3, [sp, #4]
	ldr	r3, [r3, #4]
	mov	r0, r2
	mov	r1, r3
	bl	_ZN4_STL8_DestroyIPP8PlatformEEvT_S4_(PLT)
	.loc 13 496 0
	ldr	r3, [sp, #4]
	add	r1, r3, #8
	ldr	r3, [sp, #4]
	ldr	r2, [r3]
	ldr	r3, [sp, #4]
	ldr	r3, [r3, #8]
	mov	r0, r3
	ldr	r3, [sp, #4]
	ldr	r3, [r3]
	rsb	r3, r3, r0
	mov	r3, r3, asr #2
	mov	r0, r1
	mov	r1, r2
	mov	r2, r3
	bl	_ZN4_STL9allocatorIP8PlatformE10deallocateEPS2_j(PLT)
	.loc 13 498 0
	add	sp, sp, #12
	@ sp needed
	ldr	pc, [sp], #4
	.cfi_endproc
.LFE3294:
	.size	_ZN4_STL6vectorIP8PlatformNS_9allocatorIS2_EEE8_M_clearEv, .-_ZN4_STL6vectorIP8PlatformNS_9allocatorIS2_EEE8_M_clearEv
	.section	.text._ZN4_STL6vectorIP8PlatformNS_9allocatorIS2_EEE6_M_setEPS2_S6_S6_,"axG",%progbits,_ZN4_STL6vectorIP8PlatformNS_9allocatorIS2_EEE6_M_setEPS2_S6_S6_,comdat
	.align	2
	.weak	_ZN4_STL6vectorIP8PlatformNS_9allocatorIS2_EEE6_M_setEPS2_S6_S6_
	.hidden	_ZN4_STL6vectorIP8PlatformNS_9allocatorIS2_EEE6_M_setEPS2_S6_S6_
	.type	_ZN4_STL6vectorIP8PlatformNS_9allocatorIS2_EEE6_M_setEPS2_S6_S6_, %function
_ZN4_STL6vectorIP8PlatformNS_9allocatorIS2_EEE6_M_setEPS2_S6_S6_:
.LFB3295:
	.loc 13 500 0
	.cfi_startproc
	@ args = 0, pretend = 0, frame = 16
	@ frame_needed = 0, uses_anonymous_args = 0
	@ link register save eliminated.
	sub	sp, sp, #16
.LCFI134:
	.cfi_def_cfa_offset 16
	str	r0, [sp, #12]
	str	r1, [sp, #8]
	str	r2, [sp, #4]
	str	r3, [sp]
	.loc 13 501 0
	ldr	r3, [sp, #12]
	ldr	r2, [sp, #8]
	str	r2, [r3]
	.loc 13 502 0
	ldr	r3, [sp, #12]
	ldr	r2, [sp, #4]
	str	r2, [r3, #4]
	.loc 13 503 0
	ldr	r3, [sp, #12]
	ldr	r2, [sp]
	str	r2, [r3, #8]
	.loc 13 504 0
	add	sp, sp, #16
	@ sp needed
	bx	lr
	.cfi_endproc
.LFE3295:
	.size	_ZN4_STL6vectorIP8PlatformNS_9allocatorIS2_EEE6_M_setEPS2_S6_S6_, .-_ZN4_STL6vectorIP8PlatformNS_9allocatorIS2_EEE6_M_setEPS2_S6_S6_
	.section	.text._ZN4_STL9allocatorIP6TargetE8allocateEjPKv,"axG",%progbits,_ZN4_STL9allocatorIP6TargetE8allocateEjPKv,comdat
	.align	2
	.weak	_ZN4_STL9allocatorIP6TargetE8allocateEjPKv
	.hidden	_ZN4_STL9allocatorIP6TargetE8allocateEjPKv
	.type	_ZN4_STL9allocatorIP6TargetE8allocateEjPKv, %function
_ZN4_STL9allocatorIP6TargetE8allocateEjPKv:
.LFB3296:
	.loc 12 354 0
	.cfi_startproc
	@ args = 0, pretend = 0, frame = 16
	@ frame_needed = 0, uses_anonymous_args = 0
	str	lr, [sp, #-4]!
.LCFI135:
	.cfi_def_cfa_offset 4
	.cfi_offset 14, -4
	sub	sp, sp, #20
.LCFI136:
	.cfi_def_cfa_offset 24
	str	r0, [sp, #12]
	str	r1, [sp, #8]
	str	r2, [sp, #4]
	.loc 12 355 0
	ldr	r3, [sp, #8]
	cmp	r3, #0
	beq	.L218
	.loc 12 355 0 is_stmt 0 discriminator 1
	ldr	r3, [sp, #8]
	mov	r3, r3, asl #2
	mov	r0, r3
	bl	_ZN4_STL14__malloc_allocILi0EE8allocateEj(PLT)
	mov	r3, r0
	b	.L219
.L218:
	.loc 12 355 0 discriminator 2
	mov	r3, #0
.L219:
	.loc 12 356 0 is_stmt 1 discriminator 3
	mov	r0, r3
	add	sp, sp, #20
	@ sp needed
	ldr	pc, [sp], #4
	.cfi_endproc
.LFE3296:
	.size	_ZN4_STL9allocatorIP6TargetE8allocateEjPKv, .-_ZN4_STL9allocatorIP6TargetE8allocateEjPKv
	.section	.text._ZN4_STL6fill_nIPP6TargetjS2_EET_S4_T0_RKT1_,"axG",%progbits,_ZN4_STL6fill_nIPP6TargetjS2_EET_S4_T0_RKT1_,comdat
	.align	2
	.weak	_ZN4_STL6fill_nIPP6TargetjS2_EET_S4_T0_RKT1_
	.hidden	_ZN4_STL6fill_nIPP6TargetjS2_EET_S4_T0_RKT1_
	.type	_ZN4_STL6fill_nIPP6TargetjS2_EET_S4_T0_RKT1_, %function
_ZN4_STL6fill_nIPP6TargetjS2_EET_S4_T0_RKT1_:
.LFB3297:
	.loc 1 332 0
	.cfi_startproc
	@ args = 0, pretend = 0, frame = 16
	@ frame_needed = 0, uses_anonymous_args = 0
	@ link register save eliminated.
	sub	sp, sp, #16
.LCFI137:
	.cfi_def_cfa_offset 16
	str	r0, [sp, #12]
	str	r1, [sp, #8]
	str	r2, [sp, #4]
	.loc 1 334 0
	b	.L222
.L223:
	.loc 1 335 0 discriminator 2
	ldr	r3, [sp, #4]
	ldr	r2, [r3]
	ldr	r3, [sp, #12]
	str	r2, [r3]
	.loc 1 334 0 discriminator 2
	ldr	r3, [sp, #8]
	sub	r3, r3, #1
	str	r3, [sp, #8]
	ldr	r3, [sp, #12]
	add	r3, r3, #4
	str	r3, [sp, #12]
.L222:
	.loc 1 334 0 is_stmt 0 discriminator 1
	ldr	r3, [sp, #8]
	cmp	r3, #0
	bne	.L223
	.loc 1 336 0 is_stmt 1
	ldr	r3, [sp, #12]
	.loc 1 337 0
	mov	r0, r3
	add	sp, sp, #16
	@ sp needed
	bx	lr
	.cfi_endproc
.LFE3297:
	.size	_ZN4_STL6fill_nIPP6TargetjS2_EET_S4_T0_RKT1_, .-_ZN4_STL6fill_nIPP6TargetjS2_EET_S4_T0_RKT1_
	.section	.text._ZN4_STL6vectorIP6TargetNS_9allocatorIS2_EEE8_M_clearEv,"axG",%progbits,_ZN4_STL6vectorIP6TargetNS_9allocatorIS2_EEE8_M_clearEv,comdat
	.align	2
	.weak	_ZN4_STL6vectorIP6TargetNS_9allocatorIS2_EEE8_M_clearEv
	.hidden	_ZN4_STL6vectorIP6TargetNS_9allocatorIS2_EEE8_M_clearEv
	.type	_ZN4_STL6vectorIP6TargetNS_9allocatorIS2_EEE8_M_clearEv, %function
_ZN4_STL6vectorIP6TargetNS_9allocatorIS2_EEE8_M_clearEv:
.LFB3298:
	.loc 13 493 0
	.cfi_startproc
	@ args = 0, pretend = 0, frame = 8
	@ frame_needed = 0, uses_anonymous_args = 0
	str	lr, [sp, #-4]!
.LCFI138:
	.cfi_def_cfa_offset 4
	.cfi_offset 14, -4
	sub	sp, sp, #12
.LCFI139:
	.cfi_def_cfa_offset 16
	str	r0, [sp, #4]
	.loc 13 495 0
	ldr	r3, [sp, #4]
	ldr	r2, [r3]
	ldr	r3, [sp, #4]
	ldr	r3, [r3, #4]
	mov	r0, r2
	mov	r1, r3
	bl	_ZN4_STL8_DestroyIPP6TargetEEvT_S4_(PLT)
	.loc 13 496 0
	ldr	r3, [sp, #4]
	add	r1, r3, #8
	ldr	r3, [sp, #4]
	ldr	r2, [r3]
	ldr	r3, [sp, #4]
	ldr	r3, [r3, #8]
	mov	r0, r3
	ldr	r3, [sp, #4]
	ldr	r3, [r3]
	rsb	r3, r3, r0
	mov	r3, r3, asr #2
	mov	r0, r1
	mov	r1, r2
	mov	r2, r3
	bl	_ZN4_STL9allocatorIP6TargetE10deallocateEPS2_j(PLT)
	.loc 13 498 0
	add	sp, sp, #12
	@ sp needed
	ldr	pc, [sp], #4
	.cfi_endproc
.LFE3298:
	.size	_ZN4_STL6vectorIP6TargetNS_9allocatorIS2_EEE8_M_clearEv, .-_ZN4_STL6vectorIP6TargetNS_9allocatorIS2_EEE8_M_clearEv
	.section	.text._ZN4_STL6vectorIP6TargetNS_9allocatorIS2_EEE6_M_setEPS2_S6_S6_,"axG",%progbits,_ZN4_STL6vectorIP6TargetNS_9allocatorIS2_EEE6_M_setEPS2_S6_S6_,comdat
	.align	2
	.weak	_ZN4_STL6vectorIP6TargetNS_9allocatorIS2_EEE6_M_setEPS2_S6_S6_
	.hidden	_ZN4_STL6vectorIP6TargetNS_9allocatorIS2_EEE6_M_setEPS2_S6_S6_
	.type	_ZN4_STL6vectorIP6TargetNS_9allocatorIS2_EEE6_M_setEPS2_S6_S6_, %function
_ZN4_STL6vectorIP6TargetNS_9allocatorIS2_EEE6_M_setEPS2_S6_S6_:
.LFB3299:
	.loc 13 500 0
	.cfi_startproc
	@ args = 0, pretend = 0, frame = 16
	@ frame_needed = 0, uses_anonymous_args = 0
	@ link register save eliminated.
	sub	sp, sp, #16
.LCFI140:
	.cfi_def_cfa_offset 16
	str	r0, [sp, #12]
	str	r1, [sp, #8]
	str	r2, [sp, #4]
	str	r3, [sp]
	.loc 13 501 0
	ldr	r3, [sp, #12]
	ldr	r2, [sp, #8]
	str	r2, [r3]
	.loc 13 502 0
	ldr	r3, [sp, #12]
	ldr	r2, [sp, #4]
	str	r2, [r3, #4]
	.loc 13 503 0
	ldr	r3, [sp, #12]
	ldr	r2, [sp]
	str	r2, [r3, #8]
	.loc 13 504 0
	add	sp, sp, #16
	@ sp needed
	bx	lr
	.cfi_endproc
.LFE3299:
	.size	_ZN4_STL6vectorIP6TargetNS_9allocatorIS2_EEE6_M_setEPS2_S6_S6_, .-_ZN4_STL6vectorIP6TargetNS_9allocatorIS2_EEE6_M_setEPS2_S6_S6_
	.section	.text._ZN4_STL9allocatorIP8PlatformEC2ERKS3_,"axG",%progbits,_ZN4_STL9allocatorIP8PlatformEC5ERKS3_,comdat
	.align	2
	.weak	_ZN4_STL9allocatorIP8PlatformEC2ERKS3_
	.hidden	_ZN4_STL9allocatorIP8PlatformEC2ERKS3_
	.type	_ZN4_STL9allocatorIP8PlatformEC2ERKS3_, %function
_ZN4_STL9allocatorIP8PlatformEC2ERKS3_:
.LFB3301:
	.loc 12 349 0
	.cfi_startproc
	@ args = 0, pretend = 0, frame = 8
	@ frame_needed = 0, uses_anonymous_args = 0
	@ link register save eliminated.
	sub	sp, sp, #8
.LCFI141:
	.cfi_def_cfa_offset 8
	str	r0, [sp, #4]
	str	r1, [sp]
	.loc 12 349 0
	ldr	r3, [sp, #4]
	mov	r0, r3
	add	sp, sp, #8
	@ sp needed
	bx	lr
	.cfi_endproc
.LFE3301:
	.size	_ZN4_STL9allocatorIP8PlatformEC2ERKS3_, .-_ZN4_STL9allocatorIP8PlatformEC2ERKS3_
	.weak	_ZN4_STL9allocatorIP8PlatformEC1ERKS3_
	.hidden	_ZN4_STL9allocatorIP8PlatformEC1ERKS3_
	.set	_ZN4_STL9allocatorIP8PlatformEC1ERKS3_,_ZN4_STL9allocatorIP8PlatformEC2ERKS3_
	.section	.text._ZN4_STL12_BothPtrTypeIPKP8PlatformPS2_E4_RetEv,"axG",%progbits,_ZN4_STL12_BothPtrTypeIPKP8PlatformPS2_E4_RetEv,comdat
	.align	2
	.weak	_ZN4_STL12_BothPtrTypeIPKP8PlatformPS2_E4_RetEv
	.hidden	_ZN4_STL12_BothPtrTypeIPKP8PlatformPS2_E4_RetEv
	.type	_ZN4_STL12_BothPtrTypeIPKP8PlatformPS2_E4_RetEv, %function
_ZN4_STL12_BothPtrTypeIPKP8PlatformPS2_E4_RetEv:
.LFB3303:
	.file 15 "c:/marmalade/7.4/s3e/h/std/c++/stl/type_traits.h"
	.loc 15 234 0
	.cfi_startproc
	@ args = 0, pretend = 0, frame = 0
	@ frame_needed = 0, uses_anonymous_args = 0
	@ link register save eliminated.
	.loc 15 234 0
	mov	r0, r3
	bx	lr
	.cfi_endproc
.LFE3303:
	.size	_ZN4_STL12_BothPtrTypeIPKP8PlatformPS2_E4_RetEv, .-_ZN4_STL12_BothPtrTypeIPKP8PlatformPS2_E4_RetEv
	.section	.text._ZN4_STL10__copy_auxIPKP8PlatformPS2_EET0_T_S7_S6_RKNS_11__true_typeE,"axG",%progbits,_ZN4_STL10__copy_auxIPKP8PlatformPS2_EET0_T_S7_S6_RKNS_11__true_typeE,comdat
	.align	2
	.weak	_ZN4_STL10__copy_auxIPKP8PlatformPS2_EET0_T_S7_S6_RKNS_11__true_typeE
	.hidden	_ZN4_STL10__copy_auxIPKP8PlatformPS2_EET0_T_S7_S6_RKNS_11__true_typeE
	.type	_ZN4_STL10__copy_auxIPKP8PlatformPS2_EET0_T_S7_S6_RKNS_11__true_typeE, %function
_ZN4_STL10__copy_auxIPKP8PlatformPS2_EET0_T_S7_S6_RKNS_11__true_typeE:
.LFB3304:
	.loc 1 201 0
	.cfi_startproc
	@ args = 0, pretend = 0, frame = 24
	@ frame_needed = 0, uses_anonymous_args = 0
	str	lr, [sp, #-4]!
.LCFI142:
	.cfi_def_cfa_offset 4
	.cfi_offset 14, -4
	sub	sp, sp, #28
.LCFI143:
	.cfi_def_cfa_offset 32
	str	r0, [sp, #12]
	str	r1, [sp, #8]
	str	r2, [sp, #4]
	str	r3, [sp]
	.loc 1 204 0
	mov	r0, #0
	mov	r1, #0
	bl	_ZN4_STL13_IsOKToMemCpyIP8PlatformS2_EENS_11_OKToMemCpyIT_T0_EEPS4_PS5_(PLT)
	bl	_ZN4_STL11_OKToMemCpyIP8PlatformS2_E4_RetEv(PLT)
	add	r3, sp, #20
	ldr	r0, [sp, #12]
	ldr	r1, [sp, #8]
	ldr	r2, [sp, #4]
	bl	_ZN4_STL11__copy_ptrsIPKP8PlatformPS2_EET0_T_S7_S6_RKNS_11__true_typeE(PLT)
	mov	r3, r0
	.loc 1 205 0
	mov	r0, r3
	add	sp, sp, #28
	@ sp needed
	ldr	pc, [sp], #4
	.cfi_endproc
.LFE3304:
	.size	_ZN4_STL10__copy_auxIPKP8PlatformPS2_EET0_T_S7_S6_RKNS_11__true_typeE, .-_ZN4_STL10__copy_auxIPKP8PlatformPS2_EET0_T_S7_S6_RKNS_11__true_typeE
	.section	.text._ZN4_STL9allocatorIP6TargetEC2ERKS3_,"axG",%progbits,_ZN4_STL9allocatorIP6TargetEC5ERKS3_,comdat
	.align	2
	.weak	_ZN4_STL9allocatorIP6TargetEC2ERKS3_
	.hidden	_ZN4_STL9allocatorIP6TargetEC2ERKS3_
	.type	_ZN4_STL9allocatorIP6TargetEC2ERKS3_, %function
_ZN4_STL9allocatorIP6TargetEC2ERKS3_:
.LFB3306:
	.loc 12 349 0
	.cfi_startproc
	@ args = 0, pretend = 0, frame = 8
	@ frame_needed = 0, uses_anonymous_args = 0
	@ link register save eliminated.
	sub	sp, sp, #8
.LCFI144:
	.cfi_def_cfa_offset 8
	str	r0, [sp, #4]
	str	r1, [sp]
	.loc 12 349 0
	ldr	r3, [sp, #4]
	mov	r0, r3
	add	sp, sp, #8
	@ sp needed
	bx	lr
	.cfi_endproc
.LFE3306:
	.size	_ZN4_STL9allocatorIP6TargetEC2ERKS3_, .-_ZN4_STL9allocatorIP6TargetEC2ERKS3_
	.weak	_ZN4_STL9allocatorIP6TargetEC1ERKS3_
	.hidden	_ZN4_STL9allocatorIP6TargetEC1ERKS3_
	.set	_ZN4_STL9allocatorIP6TargetEC1ERKS3_,_ZN4_STL9allocatorIP6TargetEC2ERKS3_
	.section	.text._ZN4_STL12_BothPtrTypeIPKP6TargetPS2_E4_RetEv,"axG",%progbits,_ZN4_STL12_BothPtrTypeIPKP6TargetPS2_E4_RetEv,comdat
	.align	2
	.weak	_ZN4_STL12_BothPtrTypeIPKP6TargetPS2_E4_RetEv
	.hidden	_ZN4_STL12_BothPtrTypeIPKP6TargetPS2_E4_RetEv
	.type	_ZN4_STL12_BothPtrTypeIPKP6TargetPS2_E4_RetEv, %function
_ZN4_STL12_BothPtrTypeIPKP6TargetPS2_E4_RetEv:
.LFB3308:
	.loc 15 234 0
	.cfi_startproc
	@ args = 0, pretend = 0, frame = 0
	@ frame_needed = 0, uses_anonymous_args = 0
	@ link register save eliminated.
	.loc 15 234 0
	mov	r0, r3
	bx	lr
	.cfi_endproc
.LFE3308:
	.size	_ZN4_STL12_BothPtrTypeIPKP6TargetPS2_E4_RetEv, .-_ZN4_STL12_BothPtrTypeIPKP6TargetPS2_E4_RetEv
	.section	.text._ZN4_STL10__copy_auxIPKP6TargetPS2_EET0_T_S7_S6_RKNS_11__true_typeE,"axG",%progbits,_ZN4_STL10__copy_auxIPKP6TargetPS2_EET0_T_S7_S6_RKNS_11__true_typeE,comdat
	.align	2
	.weak	_ZN4_STL10__copy_auxIPKP6TargetPS2_EET0_T_S7_S6_RKNS_11__true_typeE
	.hidden	_ZN4_STL10__copy_auxIPKP6TargetPS2_EET0_T_S7_S6_RKNS_11__true_typeE
	.type	_ZN4_STL10__copy_auxIPKP6TargetPS2_EET0_T_S7_S6_RKNS_11__true_typeE, %function
_ZN4_STL10__copy_auxIPKP6TargetPS2_EET0_T_S7_S6_RKNS_11__true_typeE:
.LFB3309:
	.loc 1 201 0
	.cfi_startproc
	@ args = 0, pretend = 0, frame = 24
	@ frame_needed = 0, uses_anonymous_args = 0
	str	lr, [sp, #-4]!
.LCFI145:
	.cfi_def_cfa_offset 4
	.cfi_offset 14, -4
	sub	sp, sp, #28
.LCFI146:
	.cfi_def_cfa_offset 32
	str	r0, [sp, #12]
	str	r1, [sp, #8]
	str	r2, [sp, #4]
	str	r3, [sp]
	.loc 1 204 0
	mov	r0, #0
	mov	r1, #0
	bl	_ZN4_STL13_IsOKToMemCpyIP6TargetS2_EENS_11_OKToMemCpyIT_T0_EEPS4_PS5_(PLT)
	bl	_ZN4_STL11_OKToMemCpyIP6TargetS2_E4_RetEv(PLT)
	add	r3, sp, #20
	ldr	r0, [sp, #12]
	ldr	r1, [sp, #8]
	ldr	r2, [sp, #4]
	bl	_ZN4_STL11__copy_ptrsIPKP6TargetPS2_EET0_T_S7_S6_RKNS_11__true_typeE(PLT)
	mov	r3, r0
	.loc 1 205 0
	mov	r0, r3
	add	sp, sp, #28
	@ sp needed
	ldr	pc, [sp], #4
	.cfi_endproc
.LFE3309:
	.size	_ZN4_STL10__copy_auxIPKP6TargetPS2_EET0_T_S7_S6_RKNS_11__true_typeE, .-_ZN4_STL10__copy_auxIPKP6TargetPS2_EET0_T_S7_S6_RKNS_11__true_typeE
	.section	.text._ZN4_STL9allocatorIcE10deallocateEPcj,"axG",%progbits,_ZN4_STL9allocatorIcE10deallocateEPcj,comdat
	.align	2
	.weak	_ZN4_STL9allocatorIcE10deallocateEPcj
	.hidden	_ZN4_STL9allocatorIcE10deallocateEPcj
	.type	_ZN4_STL9allocatorIcE10deallocateEPcj, %function
_ZN4_STL9allocatorIcE10deallocateEPcj:
.LFB3314:
	.loc 12 358 0
	.cfi_startproc
	@ args = 0, pretend = 0, frame = 16
	@ frame_needed = 0, uses_anonymous_args = 0
	str	lr, [sp, #-4]!
.LCFI147:
	.cfi_def_cfa_offset 4
	.cfi_offset 14, -4
	sub	sp, sp, #20
.LCFI148:
	.cfi_def_cfa_offset 24
	str	r0, [sp, #12]
	str	r1, [sp, #8]
	str	r2, [sp, #4]
	.loc 12 360 0
	ldr	r3, [sp, #8]
	cmp	r3, #0
	beq	.L241
	.loc 12 360 0 is_stmt 0 discriminator 1
	ldr	r0, [sp, #8]
	ldr	r1, [sp, #4]
	bl	_ZN4_STL14__malloc_allocILi0EE10deallocateEPvj(PLT)
.L241:
	.loc 12 361 0 is_stmt 1
	add	sp, sp, #20
	@ sp needed
	ldr	pc, [sp], #4
	.cfi_endproc
.LFE3314:
	.size	_ZN4_STL9allocatorIcE10deallocateEPcj, .-_ZN4_STL9allocatorIcE10deallocateEPcj
	.section	.text._ZN4_STL14__malloc_allocILi0EE10deallocateEPvj,"axG",%progbits,_ZN4_STL14__malloc_allocILi0EE10deallocateEPvj,comdat
	.align	2
	.weak	_ZN4_STL14__malloc_allocILi0EE10deallocateEPvj
	.hidden	_ZN4_STL14__malloc_allocILi0EE10deallocateEPvj
	.type	_ZN4_STL14__malloc_allocILi0EE10deallocateEPvj, %function
_ZN4_STL14__malloc_allocILi0EE10deallocateEPvj:
.LFB3320:
	.loc 12 114 0
	.cfi_startproc
	@ args = 0, pretend = 0, frame = 8
	@ frame_needed = 0, uses_anonymous_args = 0
	str	lr, [sp, #-4]!
.LCFI149:
	.cfi_def_cfa_offset 4
	.cfi_offset 14, -4
	sub	sp, sp, #12
.LCFI150:
	.cfi_def_cfa_offset 16
	str	r0, [sp, #4]
	str	r1, [sp]
	.loc 12 114 0
	ldr	r0, [sp, #4]
	bl	free(PLT)
	add	sp, sp, #12
	@ sp needed
	ldr	pc, [sp], #4
	.cfi_endproc
.LFE3320:
	.size	_ZN4_STL14__malloc_allocILi0EE10deallocateEPvj, .-_ZN4_STL14__malloc_allocILi0EE10deallocateEPvj
	.section	.text._ZN4_STL13__destroy_auxIPP8PlatformEEvT_S4_RKNS_11__true_typeE,"axG",%progbits,_ZN4_STL13__destroy_auxIPP8PlatformEEvT_S4_RKNS_11__true_typeE,comdat
	.align	2
	.weak	_ZN4_STL13__destroy_auxIPP8PlatformEEvT_S4_RKNS_11__true_typeE
	.hidden	_ZN4_STL13__destroy_auxIPP8PlatformEEvT_S4_RKNS_11__true_typeE
	.type	_ZN4_STL13__destroy_auxIPP8PlatformEEvT_S4_RKNS_11__true_typeE, %function
_ZN4_STL13__destroy_auxIPP8PlatformEEvT_S4_RKNS_11__true_typeE:
.LFB3321:
	.loc 3 128 0
	.cfi_startproc
	@ args = 0, pretend = 0, frame = 16
	@ frame_needed = 0, uses_anonymous_args = 0
	@ link register save eliminated.
	sub	sp, sp, #16
.LCFI151:
	.cfi_def_cfa_offset 16
	str	r0, [sp, #12]
	str	r1, [sp, #8]
	str	r2, [sp, #4]
	.loc 3 128 0
	add	sp, sp, #16
	@ sp needed
	bx	lr
	.cfi_endproc
.LFE3321:
	.size	_ZN4_STL13__destroy_auxIPP8PlatformEEvT_S4_RKNS_11__true_typeE, .-_ZN4_STL13__destroy_auxIPP8PlatformEEvT_S4_RKNS_11__true_typeE
	.section	.text._ZN4_STL13__destroy_auxIPP6TargetEEvT_S4_RKNS_11__true_typeE,"axG",%progbits,_ZN4_STL13__destroy_auxIPP6TargetEEvT_S4_RKNS_11__true_typeE,comdat
	.align	2
	.weak	_ZN4_STL13__destroy_auxIPP6TargetEEvT_S4_RKNS_11__true_typeE
	.hidden	_ZN4_STL13__destroy_auxIPP6TargetEEvT_S4_RKNS_11__true_typeE
	.type	_ZN4_STL13__destroy_auxIPP6TargetEEvT_S4_RKNS_11__true_typeE, %function
_ZN4_STL13__destroy_auxIPP6TargetEEvT_S4_RKNS_11__true_typeE:
.LFB3322:
	.loc 3 128 0
	.cfi_startproc
	@ args = 0, pretend = 0, frame = 16
	@ frame_needed = 0, uses_anonymous_args = 0
	@ link register save eliminated.
	sub	sp, sp, #16
.LCFI152:
	.cfi_def_cfa_offset 16
	str	r0, [sp, #12]
	str	r1, [sp, #8]
	str	r2, [sp, #4]
	.loc 3 128 0
	add	sp, sp, #16
	@ sp needed
	bx	lr
	.cfi_endproc
.LFE3322:
	.size	_ZN4_STL13__destroy_auxIPP6TargetEEvT_S4_RKNS_11__true_typeE, .-_ZN4_STL13__destroy_auxIPP6TargetEEvT_S4_RKNS_11__true_typeE
	.section	.text._ZN4_STL9allocatorIcEC2ERKS1_,"axG",%progbits,_ZN4_STL9allocatorIcEC5ERKS1_,comdat
	.align	2
	.weak	_ZN4_STL9allocatorIcEC2ERKS1_
	.hidden	_ZN4_STL9allocatorIcEC2ERKS1_
	.type	_ZN4_STL9allocatorIcEC2ERKS1_, %function
_ZN4_STL9allocatorIcEC2ERKS1_:
.LFB3324:
	.loc 12 349 0
	.cfi_startproc
	@ args = 0, pretend = 0, frame = 8
	@ frame_needed = 0, uses_anonymous_args = 0
	@ link register save eliminated.
	sub	sp, sp, #8
.LCFI153:
	.cfi_def_cfa_offset 8
	str	r0, [sp, #4]
	str	r1, [sp]
	.loc 12 349 0
	ldr	r3, [sp, #4]
	mov	r0, r3
	add	sp, sp, #8
	@ sp needed
	bx	lr
	.cfi_endproc
.LFE3324:
	.size	_ZN4_STL9allocatorIcEC2ERKS1_, .-_ZN4_STL9allocatorIcEC2ERKS1_
	.weak	_ZN4_STL9allocatorIcEC1ERKS1_
	.hidden	_ZN4_STL9allocatorIcEC1ERKS1_
	.set	_ZN4_STL9allocatorIcEC1ERKS1_,_ZN4_STL9allocatorIcEC2ERKS1_
	.section	.text._ZN4_STL8distanceIPKcEENS_15iterator_traitsIT_E15difference_typeERKS4_S8_,"axG",%progbits,_ZN4_STL8distanceIPKcEENS_15iterator_traitsIT_E15difference_typeERKS4_S8_,comdat
	.align	2
	.weak	_ZN4_STL8distanceIPKcEENS_15iterator_traitsIT_E15difference_typeERKS4_S8_
	.hidden	_ZN4_STL8distanceIPKcEENS_15iterator_traitsIT_E15difference_typeERKS4_S8_
	.type	_ZN4_STL8distanceIPKcEENS_15iterator_traitsIT_E15difference_typeERKS4_S8_, %function
_ZN4_STL8distanceIPKcEENS_15iterator_traitsIT_E15difference_typeERKS4_S8_:
.LFB3326:
	.file 16 "c:/marmalade/7.4/s3e/h/std/c++/stl/_iterator_base.h"
	.loc 16 368 0
	.cfi_startproc
	@ args = 0, pretend = 0, frame = 16
	@ frame_needed = 0, uses_anonymous_args = 0
	str	lr, [sp, #-4]!
.LCFI154:
	.cfi_def_cfa_offset 4
	.cfi_offset 14, -4
	sub	sp, sp, #20
.LCFI155:
	.cfi_def_cfa_offset 24
	str	r0, [sp, #4]
	str	r1, [sp]
	.loc 16 369 0
	add	r3, sp, #12
	ldr	r0, [sp, #4]
	ldr	r1, [sp]
	mov	r2, r3
	bl	_ZN4_STL10__distanceIPKcEENS_15iterator_traitsIT_E15difference_typeERKS4_S8_RKNS_26random_access_iterator_tagE(PLT)
	mov	r3, r0
	.loc 16 370 0
	mov	r0, r3
	add	sp, sp, #20
	@ sp needed
	ldr	pc, [sp], #4
	.cfi_endproc
.LFE3326:
	.size	_ZN4_STL8distanceIPKcEENS_15iterator_traitsIT_E15difference_typeERKS4_S8_, .-_ZN4_STL8distanceIPKcEENS_15iterator_traitsIT_E15difference_typeERKS4_S8_
	.section	.text._ZN4_STL12_String_baseIcNS_9allocatorIcEEE17_M_allocate_blockEj,"axG",%progbits,_ZN4_STL12_String_baseIcNS_9allocatorIcEEE17_M_allocate_blockEj,comdat
	.align	2
	.weak	_ZN4_STL12_String_baseIcNS_9allocatorIcEEE17_M_allocate_blockEj
	.hidden	_ZN4_STL12_String_baseIcNS_9allocatorIcEEE17_M_allocate_blockEj
	.type	_ZN4_STL12_String_baseIcNS_9allocatorIcEEE17_M_allocate_blockEj, %function
_ZN4_STL12_String_baseIcNS_9allocatorIcEEE17_M_allocate_blockEj:
.LFB3327:
	.loc 14 530 0
	.cfi_startproc
	@ args = 0, pretend = 0, frame = 8
	@ frame_needed = 0, uses_anonymous_args = 0
	str	lr, [sp, #-4]!
.LCFI156:
	.cfi_def_cfa_offset 4
	.cfi_offset 14, -4
	sub	sp, sp, #12
.LCFI157:
	.cfi_def_cfa_offset 16
	str	r0, [sp, #4]
	str	r1, [sp]
	.loc 14 531 0
	ldr	r0, [sp, #4]
	bl	_ZNK4_STL12_String_baseIcNS_9allocatorIcEEE8max_sizeEv(PLT)
	mov	r3, r0
	add	r2, r3, #1
	ldr	r3, [sp]
	cmp	r2, r3
	bcc	.L252
	.loc 14 531 0 is_stmt 0 discriminator 1
	ldr	r3, [sp]
	cmp	r3, #0
	beq	.L252
	.loc 14 531 0 discriminator 3
	mov	r3, #1
	b	.L253
.L252:
	.loc 14 531 0 discriminator 2
	mov	r3, #0
.L253:
	.loc 14 531 0 discriminator 4
	cmp	r3, #0
	beq	.L254
	.loc 14 532 0 is_stmt 1
	ldr	r3, [sp, #4]
	add	r3, r3, #8
	mov	r0, r3
	ldr	r1, [sp]
	mov	r2, #0
	bl	_ZN4_STL9allocatorIcE8allocateEjPKv(PLT)
	mov	r2, r0
	ldr	r3, [sp, #4]
	str	r2, [r3]
	.loc 14 533 0
	ldr	r3, [sp, #4]
	ldr	r2, [r3]
	ldr	r3, [sp, #4]
	str	r2, [r3, #4]
	.loc 14 534 0
	ldr	r3, [sp, #4]
	ldr	r2, [r3]
	ldr	r3, [sp]
	add	r2, r2, r3
	ldr	r3, [sp, #4]
	str	r2, [r3, #8]
	b	.L251
.L254:
	.loc 14 537 0
	ldr	r0, [sp, #4]
	bl	_ZNK4_STL12_String_baseIcNS_9allocatorIcEEE21_M_throw_length_errorEv(PLT)
.L251:
	.loc 14 538 0
	add	sp, sp, #12
	@ sp needed
	ldr	pc, [sp], #4
	.cfi_endproc
.LFE3327:
	.size	_ZN4_STL12_String_baseIcNS_9allocatorIcEEE17_M_allocate_blockEj, .-_ZN4_STL12_String_baseIcNS_9allocatorIcEEE17_M_allocate_blockEj
	.section	.text._ZN4_STL12basic_stringIcNS_11char_traitsIcEENS_9allocatorIcEEE19_M_terminate_stringEv,"axG",%progbits,_ZN4_STL12basic_stringIcNS_11char_traitsIcEENS_9allocatorIcEEE19_M_terminate_stringEv,comdat
	.align	2
	.weak	_ZN4_STL12basic_stringIcNS_11char_traitsIcEENS_9allocatorIcEEE19_M_terminate_stringEv
	.hidden	_ZN4_STL12basic_stringIcNS_11char_traitsIcEENS_9allocatorIcEEE19_M_terminate_stringEv
	.type	_ZN4_STL12basic_stringIcNS_11char_traitsIcEENS_9allocatorIcEEE19_M_terminate_stringEv, %function
_ZN4_STL12basic_stringIcNS_11char_traitsIcEENS_9allocatorIcEEE19_M_terminate_stringEv:
.LFB3328:
	.loc 11 354 0
	.cfi_startproc
	@ args = 0, pretend = 0, frame = 16
	@ frame_needed = 0, uses_anonymous_args = 0
	str	lr, [sp, #-4]!
.LCFI158:
	.cfi_def_cfa_offset 4
	.cfi_offset 14, -4
	sub	sp, sp, #20
.LCFI159:
	.cfi_def_cfa_offset 24
	str	r0, [sp, #4]
	.loc 11 355 0
	add	r3, sp, #12
	ldr	r0, [sp, #4]
	mov	r1, r3
	bl	_ZN4_STL12basic_stringIcNS_11char_traitsIcEENS_9allocatorIcEEE23_M_terminate_string_auxERKNS_11__true_typeE(PLT)
	.loc 11 356 0
	add	sp, sp, #20
	@ sp needed
	ldr	pc, [sp], #4
	.cfi_endproc
.LFE3328:
	.size	_ZN4_STL12basic_stringIcNS_11char_traitsIcEENS_9allocatorIcEEE19_M_terminate_stringEv, .-_ZN4_STL12basic_stringIcNS_11char_traitsIcEENS_9allocatorIcEEE19_M_terminate_stringEv
	.section	.text._ZN4_STL14__malloc_allocILi0EE8allocateEj,"axG",%progbits,_ZN4_STL14__malloc_allocILi0EE8allocateEj,comdat
	.align	2
	.weak	_ZN4_STL14__malloc_allocILi0EE8allocateEj
	.hidden	_ZN4_STL14__malloc_allocILi0EE8allocateEj
	.type	_ZN4_STL14__malloc_allocILi0EE8allocateEj, %function
_ZN4_STL14__malloc_allocILi0EE8allocateEj:
.LFB3329:
	.loc 12 109 0
	.cfi_startproc
	@ args = 0, pretend = 0, frame = 16
	@ frame_needed = 0, uses_anonymous_args = 0
	str	lr, [sp, #-4]!
.LCFI160:
	.cfi_def_cfa_offset 4
	.cfi_offset 14, -4
	sub	sp, sp, #20
.LCFI161:
	.cfi_def_cfa_offset 24
	str	r0, [sp, #4]
.LBB36:
	.loc 12 110 0
	ldr	r0, [sp, #4]
	bl	malloc(PLT)
	mov	r3, r0
	str	r3, [sp, #12]
	.loc 12 111 0
	ldr	r3, [sp, #12]
	cmp	r3, #0
	bne	.L258
	.loc 12 111 0 is_stmt 0 discriminator 1
	ldr	r0, [sp, #4]
	bl	_ZN4_STL14__malloc_allocILi0EE13_S_oom_mallocEj(PLT)
	str	r0, [sp, #12]
.L258:
	.loc 12 112 0 is_stmt 1
	ldr	r3, [sp, #12]
.LBE36:
	.loc 12 113 0
	mov	r0, r3
	add	sp, sp, #20
	@ sp needed
	ldr	pc, [sp], #4
	.cfi_endproc
.LFE3329:
	.size	_ZN4_STL14__malloc_allocILi0EE8allocateEj, .-_ZN4_STL14__malloc_allocILi0EE8allocateEj
	.section	.text._ZN4_STL13_IsOKToMemCpyIP8PlatformS2_EENS_11_OKToMemCpyIT_T0_EEPS4_PS5_,"axG",%progbits,_ZN4_STL13_IsOKToMemCpyIP8PlatformS2_EENS_11_OKToMemCpyIT_T0_EEPS4_PS5_,comdat
	.align	2
	.weak	_ZN4_STL13_IsOKToMemCpyIP8PlatformS2_EENS_11_OKToMemCpyIT_T0_EEPS4_PS5_
	.hidden	_ZN4_STL13_IsOKToMemCpyIP8PlatformS2_EENS_11_OKToMemCpyIT_T0_EEPS4_PS5_
	.type	_ZN4_STL13_IsOKToMemCpyIP8PlatformS2_EENS_11_OKToMemCpyIT_T0_EEPS4_PS5_, %function
_ZN4_STL13_IsOKToMemCpyIP8PlatformS2_EENS_11_OKToMemCpyIT_T0_EEPS4_PS5_:
.LFB3330:
	.loc 15 365 0
	.cfi_startproc
	@ args = 0, pretend = 0, frame = 8
	@ frame_needed = 0, uses_anonymous_args = 0
	@ link register save eliminated.
	sub	sp, sp, #8
.LCFI162:
	.cfi_def_cfa_offset 8
	str	r0, [sp, #4]
	str	r1, [sp]
	.loc 15 367 0
	mov	r0, r3
	add	sp, sp, #8
	@ sp needed
	bx	lr
	.cfi_endproc
.LFE3330:
	.size	_ZN4_STL13_IsOKToMemCpyIP8PlatformS2_EENS_11_OKToMemCpyIT_T0_EEPS4_PS5_, .-_ZN4_STL13_IsOKToMemCpyIP8PlatformS2_EENS_11_OKToMemCpyIT_T0_EEPS4_PS5_
	.section	.text._ZN4_STL11_OKToMemCpyIP8PlatformS2_E4_RetEv,"axG",%progbits,_ZN4_STL11_OKToMemCpyIP8PlatformS2_E4_RetEv,comdat
	.align	2
	.weak	_ZN4_STL11_OKToMemCpyIP8PlatformS2_E4_RetEv
	.hidden	_ZN4_STL11_OKToMemCpyIP8PlatformS2_E4_RetEv
	.type	_ZN4_STL11_OKToMemCpyIP8PlatformS2_E4_RetEv, %function
_ZN4_STL11_OKToMemCpyIP8PlatformS2_E4_RetEv:
.LFB3331:
	.loc 15 361 0
	.cfi_startproc
	@ args = 0, pretend = 0, frame = 0
	@ frame_needed = 0, uses_anonymous_args = 0
	@ link register save eliminated.
	.loc 15 361 0
	mov	r0, r3
	bx	lr
	.cfi_endproc
.LFE3331:
	.size	_ZN4_STL11_OKToMemCpyIP8PlatformS2_E4_RetEv, .-_ZN4_STL11_OKToMemCpyIP8PlatformS2_E4_RetEv
	.section	.text._ZN4_STL11__copy_ptrsIPKP8PlatformPS2_EET0_T_S7_S6_RKNS_11__true_typeE,"axG",%progbits,_ZN4_STL11__copy_ptrsIPKP8PlatformPS2_EET0_T_S7_S6_RKNS_11__true_typeE,comdat
	.align	2
	.weak	_ZN4_STL11__copy_ptrsIPKP8PlatformPS2_EET0_T_S7_S6_RKNS_11__true_typeE
	.hidden	_ZN4_STL11__copy_ptrsIPKP8PlatformPS2_EET0_T_S7_S6_RKNS_11__true_typeE
	.type	_ZN4_STL11__copy_ptrsIPKP8PlatformPS2_EET0_T_S7_S6_RKNS_11__true_typeE, %function
_ZN4_STL11__copy_ptrsIPKP8PlatformPS2_EET0_T_S7_S6_RKNS_11__true_typeE:
.LFB3332:
	.loc 1 194 0
	.cfi_startproc
	@ args = 0, pretend = 0, frame = 16
	@ frame_needed = 0, uses_anonymous_args = 0
	str	lr, [sp, #-4]!
.LCFI163:
	.cfi_def_cfa_offset 4
	.cfi_offset 14, -4
	sub	sp, sp, #20
.LCFI164:
	.cfi_def_cfa_offset 24
	str	r0, [sp, #12]
	str	r1, [sp, #8]
	str	r2, [sp, #4]
	str	r3, [sp]
	.loc 1 197 0
	ldr	r0, [sp, #12]
	ldr	r1, [sp, #8]
	ldr	r2, [sp, #4]
	bl	_ZN4_STL14__copy_trivialEPKvS1_Pv(PLT)
	mov	r3, r0
	.loc 1 198 0
	mov	r0, r3
	add	sp, sp, #20
	@ sp needed
	ldr	pc, [sp], #4
	.cfi_endproc
.LFE3332:
	.size	_ZN4_STL11__copy_ptrsIPKP8PlatformPS2_EET0_T_S7_S6_RKNS_11__true_typeE, .-_ZN4_STL11__copy_ptrsIPKP8PlatformPS2_EET0_T_S7_S6_RKNS_11__true_typeE
	.section	.text._ZN4_STL13_IsOKToMemCpyIP6TargetS2_EENS_11_OKToMemCpyIT_T0_EEPS4_PS5_,"axG",%progbits,_ZN4_STL13_IsOKToMemCpyIP6TargetS2_EENS_11_OKToMemCpyIT_T0_EEPS4_PS5_,comdat
	.align	2
	.weak	_ZN4_STL13_IsOKToMemCpyIP6TargetS2_EENS_11_OKToMemCpyIT_T0_EEPS4_PS5_
	.hidden	_ZN4_STL13_IsOKToMemCpyIP6TargetS2_EENS_11_OKToMemCpyIT_T0_EEPS4_PS5_
	.type	_ZN4_STL13_IsOKToMemCpyIP6TargetS2_EENS_11_OKToMemCpyIT_T0_EEPS4_PS5_, %function
_ZN4_STL13_IsOKToMemCpyIP6TargetS2_EENS_11_OKToMemCpyIT_T0_EEPS4_PS5_:
.LFB3333:
	.loc 15 365 0
	.cfi_startproc
	@ args = 0, pretend = 0, frame = 8
	@ frame_needed = 0, uses_anonymous_args = 0
	@ link register save eliminated.
	sub	sp, sp, #8
.LCFI165:
	.cfi_def_cfa_offset 8
	str	r0, [sp, #4]
	str	r1, [sp]
	.loc 15 367 0
	mov	r0, r3
	add	sp, sp, #8
	@ sp needed
	bx	lr
	.cfi_endproc
.LFE3333:
	.size	_ZN4_STL13_IsOKToMemCpyIP6TargetS2_EENS_11_OKToMemCpyIT_T0_EEPS4_PS5_, .-_ZN4_STL13_IsOKToMemCpyIP6TargetS2_EENS_11_OKToMemCpyIT_T0_EEPS4_PS5_
	.section	.text._ZN4_STL11_OKToMemCpyIP6TargetS2_E4_RetEv,"axG",%progbits,_ZN4_STL11_OKToMemCpyIP6TargetS2_E4_RetEv,comdat
	.align	2
	.weak	_ZN4_STL11_OKToMemCpyIP6TargetS2_E4_RetEv
	.hidden	_ZN4_STL11_OKToMemCpyIP6TargetS2_E4_RetEv
	.type	_ZN4_STL11_OKToMemCpyIP6TargetS2_E4_RetEv, %function
_ZN4_STL11_OKToMemCpyIP6TargetS2_E4_RetEv:
.LFB3334:
	.loc 15 361 0
	.cfi_startproc
	@ args = 0, pretend = 0, frame = 0
	@ frame_needed = 0, uses_anonymous_args = 0
	@ link register save eliminated.
	.loc 15 361 0
	mov	r0, r3
	bx	lr
	.cfi_endproc
.LFE3334:
	.size	_ZN4_STL11_OKToMemCpyIP6TargetS2_E4_RetEv, .-_ZN4_STL11_OKToMemCpyIP6TargetS2_E4_RetEv
	.section	.text._ZN4_STL11__copy_ptrsIPKP6TargetPS2_EET0_T_S7_S6_RKNS_11__true_typeE,"axG",%progbits,_ZN4_STL11__copy_ptrsIPKP6TargetPS2_EET0_T_S7_S6_RKNS_11__true_typeE,comdat
	.align	2
	.weak	_ZN4_STL11__copy_ptrsIPKP6TargetPS2_EET0_T_S7_S6_RKNS_11__true_typeE
	.hidden	_ZN4_STL11__copy_ptrsIPKP6TargetPS2_EET0_T_S7_S6_RKNS_11__true_typeE
	.type	_ZN4_STL11__copy_ptrsIPKP6TargetPS2_EET0_T_S7_S6_RKNS_11__true_typeE, %function
_ZN4_STL11__copy_ptrsIPKP6TargetPS2_EET0_T_S7_S6_RKNS_11__true_typeE:
.LFB3335:
	.loc 1 194 0
	.cfi_startproc
	@ args = 0, pretend = 0, frame = 16
	@ frame_needed = 0, uses_anonymous_args = 0
	str	lr, [sp, #-4]!
.LCFI166:
	.cfi_def_cfa_offset 4
	.cfi_offset 14, -4
	sub	sp, sp, #20
.LCFI167:
	.cfi_def_cfa_offset 24
	str	r0, [sp, #12]
	str	r1, [sp, #8]
	str	r2, [sp, #4]
	str	r3, [sp]
	.loc 1 197 0
	ldr	r0, [sp, #12]
	ldr	r1, [sp, #8]
	ldr	r2, [sp, #4]
	bl	_ZN4_STL14__copy_trivialEPKvS1_Pv(PLT)
	mov	r3, r0
	.loc 1 198 0
	mov	r0, r3
	add	sp, sp, #20
	@ sp needed
	ldr	pc, [sp], #4
	.cfi_endproc
.LFE3335:
	.size	_ZN4_STL11__copy_ptrsIPKP6TargetPS2_EET0_T_S7_S6_RKNS_11__true_typeE, .-_ZN4_STL11__copy_ptrsIPKP6TargetPS2_EET0_T_S7_S6_RKNS_11__true_typeE
	.section	.text._ZN4_STL10__distanceIPKcEENS_15iterator_traitsIT_E15difference_typeERKS4_S8_RKNS_26random_access_iterator_tagE,"axG",%progbits,_ZN4_STL10__distanceIPKcEENS_15iterator_traitsIT_E15difference_typeERKS4_S8_RKNS_26random_access_iterator_tagE,comdat
	.align	2
	.weak	_ZN4_STL10__distanceIPKcEENS_15iterator_traitsIT_E15difference_typeERKS4_S8_RKNS_26random_access_iterator_tagE
	.hidden	_ZN4_STL10__distanceIPKcEENS_15iterator_traitsIT_E15difference_typeERKS4_S8_RKNS_26random_access_iterator_tagE
	.type	_ZN4_STL10__distanceIPKcEENS_15iterator_traitsIT_E15difference_typeERKS4_S8_RKNS_26random_access_iterator_tagE, %function
_ZN4_STL10__distanceIPKcEENS_15iterator_traitsIT_E15difference_typeERKS4_S8_RKNS_26random_access_iterator_tagE:
.LFB3344:
	.loc 16 361 0
	.cfi_startproc
	@ args = 0, pretend = 0, frame = 16
	@ frame_needed = 0, uses_anonymous_args = 0
	@ link register save eliminated.
	sub	sp, sp, #16
.LCFI168:
	.cfi_def_cfa_offset 16
	str	r0, [sp, #12]
	str	r1, [sp, #8]
	str	r2, [sp, #4]
	.loc 16 363 0
	ldr	r3, [sp, #8]
	ldr	r3, [r3]
	mov	r2, r3
	ldr	r3, [sp, #12]
	ldr	r3, [r3]
	rsb	r3, r3, r2
	.loc 16 364 0
	mov	r0, r3
	add	sp, sp, #16
	@ sp needed
	bx	lr
	.cfi_endproc
.LFE3344:
	.size	_ZN4_STL10__distanceIPKcEENS_15iterator_traitsIT_E15difference_typeERKS4_S8_RKNS_26random_access_iterator_tagE, .-_ZN4_STL10__distanceIPKcEENS_15iterator_traitsIT_E15difference_typeERKS4_S8_RKNS_26random_access_iterator_tagE
	.section	.text._ZNK4_STL12_String_baseIcNS_9allocatorIcEEE8max_sizeEv,"axG",%progbits,_ZNK4_STL12_String_baseIcNS_9allocatorIcEEE8max_sizeEv,comdat
	.align	2
	.weak	_ZNK4_STL12_String_baseIcNS_9allocatorIcEEE8max_sizeEv
	.hidden	_ZNK4_STL12_String_baseIcNS_9allocatorIcEEE8max_sizeEv
	.type	_ZNK4_STL12_String_baseIcNS_9allocatorIcEEE8max_sizeEv, %function
_ZNK4_STL12_String_baseIcNS_9allocatorIcEEE8max_sizeEv:
.LFB3345:
	.loc 11 126 0
	.cfi_startproc
	@ args = 0, pretend = 0, frame = 8
	@ frame_needed = 0, uses_anonymous_args = 0
	@ link register save eliminated.
	sub	sp, sp, #8
.LCFI169:
	.cfi_def_cfa_offset 8
	str	r0, [sp, #4]
	.loc 11 126 0
	mvn	r3, #1
	mov	r0, r3
	add	sp, sp, #8
	@ sp needed
	bx	lr
	.cfi_endproc
.LFE3345:
	.size	_ZNK4_STL12_String_baseIcNS_9allocatorIcEEE8max_sizeEv, .-_ZNK4_STL12_String_baseIcNS_9allocatorIcEEE8max_sizeEv
	.section	.text._ZN4_STL9allocatorIcE8allocateEjPKv,"axG",%progbits,_ZN4_STL9allocatorIcE8allocateEjPKv,comdat
	.align	2
	.weak	_ZN4_STL9allocatorIcE8allocateEjPKv
	.hidden	_ZN4_STL9allocatorIcE8allocateEjPKv
	.type	_ZN4_STL9allocatorIcE8allocateEjPKv, %function
_ZN4_STL9allocatorIcE8allocateEjPKv:
.LFB3346:
	.loc 12 354 0
	.cfi_startproc
	@ args = 0, pretend = 0, frame = 16
	@ frame_needed = 0, uses_anonymous_args = 0
	str	lr, [sp, #-4]!
.LCFI170:
	.cfi_def_cfa_offset 4
	.cfi_offset 14, -4
	sub	sp, sp, #20
.LCFI171:
	.cfi_def_cfa_offset 24
	str	r0, [sp, #12]
	str	r1, [sp, #8]
	str	r2, [sp, #4]
	.loc 12 355 0
	ldr	r3, [sp, #8]
	cmp	r3, #0
	beq	.L277
	.loc 12 355 0 is_stmt 0 discriminator 1
	ldr	r0, [sp, #8]
	bl	_ZN4_STL14__malloc_allocILi0EE8allocateEj(PLT)
	mov	r3, r0
	b	.L278
.L277:
	.loc 12 355 0 discriminator 2
	mov	r3, #0
.L278:
	.loc 12 356 0 is_stmt 1 discriminator 3
	mov	r0, r3
	add	sp, sp, #20
	@ sp needed
	ldr	pc, [sp], #4
	.cfi_endproc
.LFE3346:
	.size	_ZN4_STL9allocatorIcE8allocateEjPKv, .-_ZN4_STL9allocatorIcE8allocateEjPKv
	.section	.text._ZNK4_STL12_String_baseIcNS_9allocatorIcEEE21_M_throw_length_errorEv,"axG",%progbits,_ZNK4_STL12_String_baseIcNS_9allocatorIcEEE21_M_throw_length_errorEv,comdat
	.align	2
	.weak	_ZNK4_STL12_String_baseIcNS_9allocatorIcEEE21_M_throw_length_errorEv
	.hidden	_ZNK4_STL12_String_baseIcNS_9allocatorIcEEE21_M_throw_length_errorEv
	.type	_ZNK4_STL12_String_baseIcNS_9allocatorIcEEE21_M_throw_length_errorEv, %function
_ZNK4_STL12_String_baseIcNS_9allocatorIcEEE21_M_throw_length_errorEv:
.LFB3347:
	.loc 14 522 0
	.cfi_startproc
	@ args = 0, pretend = 0, frame = 8
	@ frame_needed = 0, uses_anonymous_args = 0
	str	lr, [sp, #-4]!
.LCFI172:
	.cfi_def_cfa_offset 4
	.cfi_offset 14, -4
	sub	sp, sp, #12
.LCFI173:
	.cfi_def_cfa_offset 16
	str	r0, [sp, #4]
	.loc 14 523 0
	ldr	r3, .L281
.LPIC23:
	add	r3, pc, r3
	mov	r0, r3
	bl	_ZN4_STL24__stl_throw_length_errorEPKc(PLT)
	.loc 14 524 0
	add	sp, sp, #12
	@ sp needed
	ldr	pc, [sp], #4
.L282:
	.align	2
.L281:
	.word	.LC9-(.LPIC23+8)
	.cfi_endproc
.LFE3347:
	.size	_ZNK4_STL12_String_baseIcNS_9allocatorIcEEE21_M_throw_length_errorEv, .-_ZNK4_STL12_String_baseIcNS_9allocatorIcEEE21_M_throw_length_errorEv
	.section	.text._ZN4_STL12basic_stringIcNS_11char_traitsIcEENS_9allocatorIcEEE23_M_terminate_string_auxERKNS_11__true_typeE,"axG",%progbits,_ZN4_STL12basic_stringIcNS_11char_traitsIcEENS_9allocatorIcEEE23_M_terminate_string_auxERKNS_11__true_typeE,comdat
	.align	2
	.weak	_ZN4_STL12basic_stringIcNS_11char_traitsIcEENS_9allocatorIcEEE23_M_terminate_string_auxERKNS_11__true_typeE
	.hidden	_ZN4_STL12basic_stringIcNS_11char_traitsIcEENS_9allocatorIcEEE23_M_terminate_string_auxERKNS_11__true_typeE
	.type	_ZN4_STL12basic_stringIcNS_11char_traitsIcEENS_9allocatorIcEEE23_M_terminate_string_auxERKNS_11__true_typeE, %function
_ZN4_STL12basic_stringIcNS_11char_traitsIcEENS_9allocatorIcEEE23_M_terminate_string_auxERKNS_11__true_typeE:
.LFB3348:
	.loc 11 350 0
	.cfi_startproc
	@ args = 0, pretend = 0, frame = 8
	@ frame_needed = 0, uses_anonymous_args = 0
	@ link register save eliminated.
	sub	sp, sp, #8
.LCFI174:
	.cfi_def_cfa_offset 8
	str	r0, [sp, #4]
	str	r1, [sp]
	.loc 11 351 0
	ldr	r3, [sp, #4]
	ldr	r3, [r3, #4]
	mov	r2, #0
	strb	r2, [r3]
	.loc 11 352 0
	add	sp, sp, #8
	@ sp needed
	bx	lr
	.cfi_endproc
.LFE3348:
	.size	_ZN4_STL12basic_stringIcNS_11char_traitsIcEENS_9allocatorIcEEE23_M_terminate_string_auxERKNS_11__true_typeE, .-_ZN4_STL12basic_stringIcNS_11char_traitsIcEENS_9allocatorIcEEE23_M_terminate_string_auxERKNS_11__true_typeE
	.text
.Letext0:
	.file 17 "c:/marmalade/7.4/s3e/h/s3eTypes.h"
	.file 18 "c:/marmalade/7.4/s3e/h/s3eFile.h"
	.file 19 "c:/marmalade/7.4/s3e/h/s3eDebug.h"
	.file 20 "c:/marmalade/7.4/s3e/h/s3eSurface.h"
	.file 21 "c:/marmalade/7.4/s3e/h/std/stddef.h"
	.file 22 "c:/marmalade/7.4/s3e/h/std/stdarg.h"
	.file 23 "<built-in>"
	.file 24 "c:/marmalade/7.4/s3e/h/std/stdio.h"
	.file 25 "c:/marmalade/7.4/s3e/h/std/stdlib.h"
	.file 26 "c:/marmalade/7.4/s3e/h/std/c++/typeinfo.h"
	.file 27 "c:/marmalade/7.4/s3e/h/std/c++/exception"
	.file 28 "c:/marmalade/7.4/s3e/h/std/c++/typeinfo"
	.file 29 "c:/marmalade/7.4/s3e/h/std/c++/cstddef"
	.file 30 "c:/marmalade/7.4/s3e/h/std/c++/using/cstring"
	.file 31 "c:/marmalade/7.4/s3e/h/std/c++/cstdlib"
	.file 32 "c:/marmalade/7.4/s3e/h/std/c++/cstdio"
	.file 33 "c:/marmalade/7.4/s3e/h/std/c++/cwchar"
	.file 34 "c:/marmalade/7.4/s3e/h/std/c++/stl/_vector.c"
	.file 35 "c:/marmalade/7.4/s3e/h/std/c++/stl/_config.h"
	.file 36 "c:/marmalade/7.4/s3e/h/ext/../std/string.h"
	.file 37 "c:/marmalade/7.4/modules/iwgeom/h/IwGeomCore.h"
	.file 38 "c:/marmalade/7.4/modules/iwutil/h/IwSerialise.h"
	.file 39 "c:/marmalade/7.4/modules/iwgeom/h/IwGeomSVec2.h"
	.file 40 "c:/marmalade/7.4/modules/iwgeom/h/IwGeomVec2.h"
	.file 41 "c:/marmalade/7.4/modules/iwgeom/h/IwGeomSVec3.h"
	.file 42 "c:/marmalade/7.4/modules/iwgeom/h/IwGeomVec3.h"
	.file 43 "c:/marmalade/7.4/modules/iwgeom/h/IwGeomFVec3.h"
	.file 44 "c:/marmalade/7.4/modules/iwgeom/h/IwGeomMat.h"
	.file 45 "c:/marmalade/7.4/modules/iwgeom/h/IwGeomFMat.h"
	.file 46 "c:/marmalade/7.4/modules/iw2dscenegraphcore/h/Iw2DSceneGraphCore.h"
	.file 47 "c:/marmalade/7.4/modules/iwgx/h/IwColour.h"
	.file 48 "c:/marmalade/7.4/modules/iwutil/h/IwString.h"
	.file 49 "c:/marmalade/7.4/modules/iwutil/h/IwAllocator.h"
	.file 50 "c:/marmalade/7.4/modules/iwutil/h/IwManaged.h"
	.file 51 "c:/marmalade/7.4/modules/iwutil/h/IwArray.h"
	.file 52 "c:/marmalade/7.4/modules/iwutil/h/IwManagedList.h"
	.file 53 "c:/marmalade/7.4/modules/iwutil/h/IwEvent.h"
	.file 54 "c:/marmalade/7.4/modules/iwutil/h/IwImage.h"
	.file 55 "c:/marmalade/7.4/modules/iwutil/h/IwMemBucket.h"
	.file 56 "c:/marmalade/7.4/modules/iwutil/h/IwMemBucketHelpers.h"
	.file 57 "c:/marmalade/7.4/modules/iwutil/h/IwList.h"
	.file 58 "c:/marmalade/7.4/modules/iwgx/h/IwGxTypes.h"
	.file 59 "c:/marmalade/7.4/s3e/h/std/time.h"
	.file 60 "c:/marmalade/7.4/s3e/h/ext/../std/wchar.h"
	.file 61 "c:/marmalade/7.4/modules/iw2dscenegraph/h/Iw2DSceneGraph.h"
	.file 62 "c:/marmalade/7.4/s3e/h/GLES/gl.h"
	.file 63 "c:/marmalade/7.4/modules/iwgx/h/IwGxStream.h"
	.file 64 "c:/marmalade/7.4/modules/iwgx/h/IwGxMetrics.h"
	.file 65 "c:/marmalade/7.4/modules/iwgx/h/IwMaterial.h"
	.file 66 "c:/marmalade/7.4/modules/iwgx/h/IwTexture.h"
	.file 67 "c:/marmalade/7.4/modules/iwgx/h/IwGxSurface.h"
	.file 68 "c:/marmalade/7.4/s3e/h/EGL/egl.h"
	.file 69 "c:/marmalade/7.4/modules/iwgx/h/IwTPage.h"
	.file 70 "c:/marmalade/7.4/modules/iwresmanager/h/IwResGroup.h"
	.file 71 "c:/marmalade/7.4/modules/iwresmanager/h/IwResManagerClass.h"
	.file 72 "c:/Users/Ben/Desktop/FYP/FinalYearProject/source/scene.h"
	.file 73 "c:/Users/Ben/Desktop/FYP/FinalYearProject/source/resources.h"
	.file 74 "c:/Users/Ben/Desktop/FYP/FinalYearProject/source/Collisions.h"
	.file 75 "c:/Users/Ben/Desktop/FYP/FinalYearProject/source/Weapon.h"
	.file 76 "c:/Users/Ben/Desktop/FYP/FinalYearProject/source/Target.h"
	.file 77 "c:/Users/Ben/Desktop/FYP/FinalYearProject/source/Map.h"
	.file 78 "c:/marmalade/7.4/modules/iwgeom/h/IwGeomSqrt.h"
	.file 79 "c:/marmalade/7.4/modules/iwutil/h/IwMenu.h"
	.file 80 "c:/marmalade/7.4/modules/iwutil/h/IwTextParserITX.h"
	.file 81 "c:/marmalade/7.4/modules/iwgx/h/IwGxFuncTable.h"
	.file 82 "c:/marmalade/7.4/modules/iwutil/h/IwTypes.h"