((dp0
S'arm_dbg_args'
p1
S'-via:"c:\\Users\\lab422\\Desktop\\FYP\\Learning Resources\\Sprint 1 Minimal Example\\FinalYearProject\\build_finalyearproject_vc12\\FinalYearProject_vc12_arm_debug.via" -qemu'
p2
sS'game-icf'
p3
S''
p4
sS'dist'
p5
NsS'csproj'
p6
g4
sS'module_path_append'
p7
NsS'global_path'
p8
S'c:\\users\\lab422\\desktop\\fyp\\learning resources\\sprint 1 minimal example'
p9
sS'system_path'
p10
S'c:\\marmalade\\7.4\\s3e\\makefile_builder'
p11
sS'android_x86_dbg_args'
p12
S'../../tools/DeployTool/DeployTool.exe --dir "c:\\Users\\lab422\\Desktop\\FYP\\Learning Resources\\Sprint 1 Minimal Example\\FinalYearProject\\build_finalyearproject_vc12"'
p13
sS'no-emit'
p14
NsS'arm-float-abi'
p15
g4
sS'arm_rel_rtsm_args'
p16
S'-via:"c:\\Users\\lab422\\Desktop\\FYP\\Learning Resources\\Sprint 1 Minimal Example\\FinalYearProject\\build_finalyearproject_vc12\\FinalYearProject_vc12_arm_release.via" -qemu'
p17
sS'amd64'
p18
NsS'line-width'
p19
I80
sS'gcc_dbg_args'
p20
S'-via:"c:\\Users\\lab422\\Desktop\\FYP\\Learning Resources\\Sprint 1 Minimal Example\\FinalYearProject\\build_finalyearproject_vc12\\FinalYearProject_vc12_gcc_debug.via" -qemu'
p21
sS'android-x86'
p22
NsS'x86_dbg_exe'
p23
S'c:/marmalade/7.4/s3e\\win32\\s3e_simulator_debug.exe'
p24
sS'disable-runtime-checks'
p25
NsS'release'
p26
NsS'no-make'
p27
NsS'xcode-x86-build-settings'
p28
g4
sS'optimise-size'
p29
NsS'output-name-debug'
p30
g4
sS'arm-fpu'
p31
g4
sS'proj_name'
p32
S'FinalYearProject_vc12'
p33
sS'rvct-version'
p34
S'none'
p35
sS'compiler'
p36
g4
sS'execute'
p37
NsS'compile-static'
p38
NsS'msvc-project'
p39
NsS'buildenv'
p40
g4
sS'quick'
p41
NsS'module_path'
p42
NsS'use-release-std-libs'
p43
NsS'using_perforce'
p44
I00
sS'tizen-x86'
p45
NsS'mips-s3e'
p46
NsS's3e-api-lib-name'
p47
S's3e_api_iwgl'
p48
sS'ios-no-pic'
p49
NsS'shared-arm-lib'
p50
NsS'arm-cpu'
p51
g4
sS'compile-thumb'
p52
NsS'no-ide'
p53
NsS'msvc-version'
p54
S'6.0'
p55
sS'arm'
p56
NsS'builddir'
p57
g4
sS'compile-debug-as-release'
p58
I0
sS'arm-arch'
p59
g4
sS'brief'
p60
NsS'dll'
p61
NsS'buildenv-toolset'
p62
g4
sS'version'
p63
NsS'ccache'
p64
I0
sS'offline'
p65
NsS'ios-version'
p66
g4
sS'hub_data'
p67
g4
sS'fake_vc_call'
p68
NsS'jobs'
p69
I0
sS'linkflags'
p70
NsS'debug'
p71
NsS'xcode-build-order'
p72
g4
sS'gcc_rel_rtsm_args'
p73
S'-via:"c:\\Users\\lab422\\Desktop\\FYP\\Learning Resources\\Sprint 1 Minimal Example\\FinalYearProject\\build_finalyearproject_vc12\\FinalYearProject_vc12_gcc_release.via" -qemu'
p74
sS'done_defaults'
p75
I1
sS'path'
p76
NsS's3e-data-dir'
p77
S'c:/Users/lab422/Desktop/FYP/Learning Resources/Sprint 1 Minimal Example/FinalYearProject\\data'
p78
sS'enable-exceptions'
p79
NsS'osx-dll'
p80
NsS'extension'
p81
g4
sS'no-vc6'
p82
NsS'non-interactive'
p83
NsS'win32-console'
p84
NsS'dist-format'
p85
g4
sS's3e-force-arch'
p86
NsS'dump_defines'
p87
NsS'use_prebuilt'
p88
NsS'gcc-version'
p89
g4
sS'x86_dbg_args'
p90
S'-via:"c:\\Users\\lab422\\Desktop\\FYP\\Learning Resources\\Sprint 1 Minimal Example\\FinalYearProject\\build_finalyearproject_vc12\\FinalYearProject_vc12_debug.via"'
p91
sS'tizen_x86_dbg_args'
p92
g13
sS'arm-debugger'
p93
g4
sS'use_temp_extension'
p94
NsS'verbose'
p95
I0
sS'log'
p96
NsS'no-strip'
p97
NsS'rebuild'
p98
NsS'win32-simulator-dll'
p99
NsS'strict'
p100
NsS'mips_dbg_args'
p101
g13
sS'enable-global-path'
p102
NsS'cflags'
p103
NsS'dist-dir'
p104
g4
sS'xcode-arm-build-settings'
p105
g4
sS'jflags'
p106
NsS'csprojSDKRefs'
p107
g4
sS'tizen_x86_rel_exe'
p108
S'c:\\marmalade\\7.4\\s3e\\makefile_builder\\tool_launcher.exe'
p109
sS'test-assets'
p110
g4
sS'distcc'
p111
NsS'external-compiler'
p112
NsS'no-distcc'
p113
NsS'preinclude'
p114
NsS'using_sdk'
p115
I01
sS'nologo'
p116
NsS'warn-level'
p117
I2
sS'mips_dbg_exe'
p118
g109
sS'mkb_in'
p119
S'c:/Users/lab422/Desktop/FYP/Learning Resources/Sprint 1 Minimal Example/FinalYearProject/FinalYearProject.mkb'
p120
sS'tizen_x86_dbg_exe'
p121
g109
sS'arm_dbg_exe'
p122
S'c:/marmalade/7.4/s3e\\bin\\armdebug.exe'
p123
sS'csprojDLLRef'
p124
NsS'tizen_x86_rel_args'
p125
g13
sS'android_x86_dbg_exe'
p126
g109
sS'test-config'
p127
g4
sS'list-targets'
p128
NsS'arm_rel_exe'
p129
g109
sS'arm_rel_args'
p130
g13
sS'makedeps'
p131
NsS'android_x86_rel_exe'
p132
g109
sS'default-buildenv'
p133
S'VC12'
p134
sS'x86_rel_exe'
p135
g24
sS'preprocess-java'
p136
NsS'mips_rel_args'
p137
g13
sS'defines'
p138
NsS'lib'
p139
NsS'global_argv'
p140
(lp141
S'C:\\Marmalade\\7.4\\s3e\\makefile_builder\\mkb.py'
p142
aS'C:\\Users\\lab422\\Desktop\\FYP\\Learning Resources\\Sprint 1 Minimal Example\\FinalYearProject\\FinalYearProject.mkb'
p143
asS'make'
p144
NsS'optimise-speed'
p145
NsS'internal'
p146
NsS'enable-stdinc'
p147
NsS'deploy-only'
p148
NsS'x86'
p149
NsS'deploy'
p150
g4
sS'x86_run_exe'
p151
S'c:/marmalade/7.4/s3e\\win32\\s3e_console.exe'
p152
sS'x86_rel_args'
p153
S'-via:"c:\\Users\\lab422\\Desktop\\FYP\\Learning Resources\\Sprint 1 Minimal Example\\FinalYearProject\\build_finalyearproject_vc12\\FinalYearProject_vc12_release.via"'
p154
sS'gcc_rel_args'
p155
g13
sS'mips'
p156
NsS'xcode-build-settings'
p157
g4
sS'incredibuild'
p158
NsS'strict-compile'
p159
NsS'use-auto-subdirs'
p160
NsS'mips_rel_exe'
p161
g109
sS'android_x86_rel_args'
p162
g13
sS'app-icf'
p163
g4
sS'deployargs'
p164
NsS'iosnativedebug'
p165
NsS'mkf_in'
p166
(lp167
S'c:\\marmalade\\7.4\\modules\\iwutil\\iwutil.mkf'
p168
aS'c:\\marmalade\\7.4\\modules\\third_party\\libjpeg\\libjpeg.mkf'
p169
aS'c:\\marmalade\\7.4\\modules\\third_party\\libpng\\libpng.mkf'
p170
aS'c:\\marmalade\\7.4\\modules\\third_party\\zlib\\zlib.mkf'
p171
aS'c:\\marmalade\\7.4\\modules\\iw2dscenegraphcore\\iw2dscenegraphcore.mkf'
p172
aS'c:\\marmalade\\7.4\\modules\\iw2dscenegraph\\iw2dscenegraph.mkf'
p173
aS'c:\\marmalade\\7.4\\modules\\iw2d\\iw2d.mkf'
p174
aS'c:\\marmalade\\7.4\\modules\\iwgx\\iwgx.mkf'
p175
aS'c:\\marmalade\\7.4\\modules\\iwgl\\iwgl.mkf'
p176
aS'c:\\marmalade\\7.4\\modules\\iwgeom\\iwgeom.mkf'
p177
aS'c:\\marmalade\\7.4\\modules\\iwresmanager\\iwresmanager.mkf'
p178
aS'c:\\marmalade\\7.4\\extensions\\pvrtextool\\pvrtextool.mkf'
p179
aS'c:\\marmalade\\7.4\\modules\\iwgxfont\\iwgxfont.mkf'
p180
aS'c:\\marmalade\\7.4\\modules\\third_party\\tiniconv\\tiniconv.mkf'
p181
aS'c:\\marmalade\\7.4\\modules\\iwtween\\iwtween.mkf'
p182
asS'strict-mkb'
p183
NsS'executeargs'
p184
NsS'clean'
p185
NsS'no-asm'
p186
NsS'output-name'
p187
g4
sS'no-modules'
p188
NsS'find_define'
p189
g4
s(dp190
S'c:\\marmalade\\7.4\\s3e\\makefile_builder\\plugins\\Emitter.pyc'
p191
F1409106506.0
sS'c:\\marmalade\\7.4\\s3e\\makefile_builder\\templates\\ws8_ext_sln.pyc'
p192
F1409106508.0
sS'c:\\marmalade\\7.4\\s3e\\makefile_builder\\templates\\MainWindow.xib'
p193
F1409103204.0
sS'c:\\marmalade\\7.4\\s3e\\makefile_builder\\templates\\template.suo'
p194
F1409103204.0
sS'c:\\marmalade\\7.4\\s3e\\makefile_builder\\plugins\\xcode4_schememanagement.py'
p195
F1409103204.0
sS'c:\\marmalade\\7.4\\s3e\\makefile_builder\\templates\\ws81_sln.pyc'
p196
F1409106508.0
sS'c:\\marmalade\\7.4\\s3e\\makefile_builder\\templates\\win8_ext_csproj.pyc'
p197
F1409106508.0
sS'c:\\marmalade\\7.4\\s3e\\makefile_builder\\mkb_option.pyc'
p198
F1409106506.0
sS'c:\\marmalade\\7.4\\s3e\\makefile_builder\\plugins\\s3e_xcode.py'
p199
F1409103204.0
sS'c:\\marmalade\\7.4\\s3e\\makefile_builder\\plugins\\s3e_scons.pyc'
p200
F1409106506.0
sS'c:\\marmalade\\7.4\\s3e\\makefile_builder\\templates\\win8_vcxproj.pyc'
p201
F1409106508.0
sS'c:\\marmalade\\7.4\\s3e\\makefile_builder\\plugins\\null.pyc'
p202
F1409106506.0
sS'c:\\marmalade\\7.4\\s3e\\makefile_builder\\templates\\vc8_user.pyc'
p203
F1409106506.0
sS'c:\\marmalade\\7.4\\s3e\\makefile_builder\\templates\\wp81_ext_sln.pyc'
p204
F1409106508.0
sS'c:\\marmalade\\7.4\\s3e\\makefile_builder\\templates\\scons.pyc'
p205
F1409106506.0
sS'c:\\marmalade\\7.4\\s3e\\makefile_builder\\templates\\wp8_ext_csproj.pyc'
p206
F1409106508.0
sS'c:\\marmalade\\7.4\\s3e\\makefile_builder\\templates\\xcode_pbxuser.py'
p207
F1409103204.0
sS'c:\\marmalade\\7.4\\s3e\\makefile_builder\\plugins\\s3e_qmake.py'
p208
F1409103204.0
sS'c:\\marmalade\\7.4\\s3e\\makefile_builder\\plugins\\iphone.pyc'
p209
F1409106506.0
sS'c:\\marmalade\\7.4\\s3e\\makefile_builder\\templates\\ws81_ext_csproj.pyc'
p210
F1409106508.0
sS'c:\\marmalade\\7.4\\s3e\\makefile_builder\\templates\\vc6_opt.pyc'
p211
F1409106506.0
sS'c:\\marmalade\\7.4\\s3e\\makefile_builder\\plugins\\s3e_win8.pyc'
p212
F1409106506.0
sS'c:\\marmalade\\7.4\\s3e\\makefile_builder\\mkb_main.pyc'
p213
F1409106506.0
sS'c:\\marmalade\\7.4\\s3e\\makefile_builder\\templates\\wp8_csproj.pyc'
p214
F1409106508.0
sS'c:\\marmalade\\7.4\\s3e\\makefile_builder\\templates\\win32_vcproj.pyc'
p215
F1409106506.0
sS'c:\\marmalade\\7.4\\s3e\\makefile_builder\\templates\\win8_sln.pyc'
p216
F1409106508.0
sS'c:\\marmalade\\7.4\\s3e\\makefile_builder\\mkb_launcher.exe'
p217
F1409103760.0
sS'c:\\marmalade\\7.4\\s3e\\makefile_builder\\plugins\\osx_xcode.pyc'
p218
F1409106506.0
sS'c:\\marmalade\\7.4\\s3e\\makefile_builder\\plugins'
p219
F1411126710.2346628
sS'c:\\marmalade\\7.4\\s3e\\makefile_builder\\templates\\wp8_csproj_user.pyc'
p220
F1409106508.0
sS'c:\\marmalade\\7.4\\s3e\\makefile_builder\\plugins\\win32_vc6.pyc'
p221
F1409106506.0
sS'c:\\marmalade\\7.4\\s3e\\makefile_builder\\plugins\\s3e_vc6.pyc'
p222
F1409106506.0
sS'c:\\marmalade\\7.4\\s3e\\makefile_builder\\templates\\vc10_user.pyc'
p223
F1409106506.0
sS'c:\\marmalade\\7.4\\s3e\\makefile_builder\\docs\\deprecated.defines.txt'
p224
F1409103204.0
sS'c:\\marmalade\\7.4\\s3e\\makefile_builder\\templates\\wp81_csproj_user.pyc'
p225
F1409106508.0
sS'c:\\marmalade\\7.4\\s3e\\makefile_builder\\templates\\ws81_ext_sln.pyc'
p226
F1409106508.0
sS'c:\\marmalade\\7.4\\s3e\\makefile_builder\\templates\\make.py'
p227
F1409103204.0
sS'c:\\marmalade\\7.4\\s3e\\makefile_builder\\plugins\\wp81_wp81.pyc'
p228
F1409106506.0
sS'c:\\marmalade\\7.4\\s3e\\makefile_builder\\plugins\\s3e_qmake.pyc'
p229
F1411126710.1536582
sS'c:\\marmalade\\7.4\\s3e\\makefile_builder\\templates\\mips_linker_script'
p230
F1409103204.0
sS'c:\\marmalade\\7.4\\s3e\\makefile_builder\\plugins\\deploy.pyc'
p231
F1409106506.0
sS'c:\\marmalade\\7.4\\s3e\\makefile_builder\\plugins\\ws81_ws81.pyc'
p232
F1409106506.0
sS'c:\\marmalade\\7.4\\s3e\\makefile_builder\\mkb.py'
p233
F1409103204.0
sS'c:\\marmalade\\7.4\\s3e\\makefile_builder\\docs\\options.txt'
p234
F1409103204.0
sS'c:\\marmalade\\7.4\\s3e\\makefile_builder\\mkb_parser.pyc'
p235
F1409106506.0
sS'c:\\marmalade\\7.4\\s3e\\makefile_builder\\templates\\qmake_user.py'
p236
F1409103204.0
sS'c:\\marmalade\\7.4\\s3e\\makefile_builder\\docs\\mkb.defines.txt'
p237
F1409103204.0
sS'c:\\marmalade\\7.4\\s3e\\makefile_builder\\deployment.pyc'
p238
F1409106506.0
sS'c:\\marmalade\\7.4\\s3e\\makefile_builder\\plugins\\wp8_wp8.pyc'
p239
F1409106506.0
sS'c:\\marmalade\\7.4\\s3e\\makefile_builder\\plugins\\linux_scons.pyc'
p240
F1409106506.0
sS'c:\\marmalade\\7.4\\s3e\\makefile_builder\\plugins\\s3e_web.pyc'
p241
F1409106506.0
sS'c:\\marmalade\\7.4\\s3e\\makefile_builder\\plugins\\S3EEmitter.pyc'
p242
F1409106506.0
sS'c:\\marmalade\\7.4\\s3e\\makefile_builder\\plugins\\Win8Emitter.pyc'
p243
F1409106506.0
sS'c:\\marmalade\\7.4\\s3e\\makefile_builder\\templates\\xcode4_arm.xcscheme'
p244
F1409103204.0
sS'c:\\marmalade\\7.4\\s3e\\makefile_builder\\plugins\\vc6_utils.pyc'
p245
F1409106506.0
sS'c:\\marmalade\\7.4\\s3e\\makefile_builder\\templates\\wp8_vcxproj.pyc'
p246
F1409106508.0
sS'c:\\marmalade\\7.4\\s3e\\makefile_builder\\templates\\xcode4.xcscheme'
p247
F1409103204.0
sS'c:\\marmalade\\7.4\\s3e\\makefile_builder\\plugins\\MakeEmitter.pyc'
p248
F1409106506.0
sS'c:\\marmalade\\7.4\\s3e\\makefile_builder\\plugins\\java.pyc'
p249
F1409106506.0
sS'c:\\marmalade\\7.4\\s3e\\makefile_builder\\plugins\\XcodeEmitter.pyc'
p250
F1411126709.9866486
sS'c:\\marmalade\\7.4\\s3e\\makefile_builder\\plugins\\XcodeEmitter.py'
p251
F1409103204.0
sS'c:\\marmalade\\7.4\\s3e\\makefile_builder\\mkb_globals.pyc'
p252
F1409106506.0
sS'c:\\marmalade\\7.4\\s3e\\makefile_builder\\tool_launcher.exe'
p253
F1409103760.0
sS'c:\\marmalade\\7.4\\s3e\\makefile_builder\\mkb_util.pyc'
p254
F1409106506.0
sS'c:\\marmalade\\7.4\\s3e\\makefile_builder\\plugins\\xcode4_schememanagement.pyc'
p255
F1411126709.995649
sS'c:\\marmalade\\7.4\\s3e\\makefile_builder\\templates\\ws8_sln.pyc'
p256
F1409106508.0
sS'c:\\marmalade\\7.4\\s3e\\makefile_builder\\templates\\win32_sln.pyc'
p257
F1409106506.0
sS'c:\\marmalade\\7.4\\s3e\\makefile_builder\\templates\\wp81_ext_csproj.pyc'
p258
F1409106508.0
sS'c:\\marmalade\\7.4\\s3e\\makefile_builder\\plugins\\s3e_wp81.pyc'
p259
F1409106506.0
sS'c:\\marmalade\\7.4\\s3e\\makefile_builder\\plugins\\s3e_wp8.pyc'
p260
F1409106506.0
sS'c:\\marmalade\\7.4\\s3e\\makefile_builder\\templates\\qmake.py'
p261
F1409103204.0
sS'c:\\marmalade\\7.4\\s3e\\makefile_builder\\templates\\gdb_start.txt'
p262
F1409103204.0
sS'c:\\marmalade\\7.4\\s3e\\makefile_builder\\templates'
p263
F1411126377.7216442
sS'c:\\marmalade\\7.4\\s3e\\makefile_builder\\templates\\ws8_ext_csproj.pyc'
p264
F1409106508.0
sS'c:\\marmalade\\7.4\\s3e\\makefile_builder\\templates\\win8_csproj_user.pyc'
p265
F1409106508.0
sS'c:\\marmalade\\7.4\\s3e\\makefile_builder\\templates\\vc7_suo.pyc'
p266
F1409106506.0
sS'c:\\marmalade\\7.4\\s3e\\makefile_builder\\plugins\\VisualStudioEmitter.pyc'
p267
F1409106506.0
sS'c:\\marmalade\\7.4\\s3e\\makefile_builder\\templates\\linker_script'
p268
F1409103204.0
sS'c:\\marmalade\\7.4\\s3e\\makefile_builder\\docs\\deprecated.options.txt'
p269
F1409103204.0
sS'c:\\marmalade\\7.4\\s3e\\makefile_builder\\plugins\\s3e_xcode.pyc'
p270
F1411126710.2356627
sS'c:\\marmalade\\7.4\\s3e\\makefile_builder\\plugins\\s3e_ws8.pyc'
p271
F1409106506.0
sS'c:\\marmalade\\7.4\\s3e\\makefile_builder\\templates\\xcode4_DeployTool.xcscheme'
p272
F1409103204.0
sS'c:\\marmalade\\7.4\\s3e\\makefile_builder\\templates\\ws8_csproj_user.pyc'
p273
F1409106508.0
sS'c:\\marmalade\\7.4\\s3e\\makefile_builder\\plugins\\osx_scons.pyc'
p274
F1409106506.0
sS'c:\\marmalade\\7.4\\s3e\\makefile_builder\\templates\\ws81_csproj.pyc'
p275
F1409106508.0
sS'c:\\marmalade\\7.4\\s3e\\makefile_builder\\templates\\wp8_sln.pyc'
p276
F1409106508.0
sS'c:\\marmalade\\7.4\\s3e\\makefile_builder\\docs'
p277
F1411126377.7456455
sS'c:\\marmalade\\7.4\\s3e\\makefile_builder\\plugins\\ws8_ws8.pyc'
p278
F1409106506.0
sS'c:\\marmalade\\7.4\\s3e\\makefile_builder\\docs\\deployment_options.txt'
p279
F1409103204.0
sS'c:\\marmalade\\7.4\\s3e\\makefile_builder\\templates\\win32_vcxproj_filters.pyc'
p280
F1409106506.0
sS'c:\\marmalade\\7.4\\s3e\\makefile_builder\\templates\\win32_dsw.pyc'
p281
F1409106506.0
sS'c:\\marmalade\\7.4\\s3e\\makefile_builder\\plugins\\s3e_ws81.pyc'
p282
F1409106506.0
sS'c:\\marmalade\\7.4\\s3e\\makefile_builder\\plugins\\SConsEmitter.pyc'
p283
F1409106506.0
sS'c:\\marmalade\\7.4\\s3e\\makefile_builder\\templates\\wp81_vcxproj.pyc'
p284
F1409106508.0
sS'c:\\marmalade\\7.4\\s3e\\makefile_builder\\plugins\\win8_utils.pyc'
p285
F1409106506.0
sS'c:\\marmalade\\7.4\\s3e\\makefile_builder\\templates\\template.opt'
p286
F1409103204.0
sS'c:\\marmalade\\7.4\\s3e\\makefile_builder\\plugins\\vc7_utils.pyc'
p287
F1409106506.0
sS'c:\\marmalade\\7.4\\s3e\\makefile_builder\\templates\\win32_dsp.pyc'
p288
F1409106506.0
sS'c:\\marmalade\\7.4\\s3e\\makefile_builder\\plugins\\s3e_make.pyc'
p289
F1409106506.0
sS'c:\\marmalade\\7.4\\s3e\\makefile_builder\\templates\\rvct_linker_script'
p290
F1409103204.0
sS'c:\\marmalade\\7.4\\s3e\\makefile_builder\\templates\\win8_csproj.pyc'
p291
F1409106508.0
sS'c:\\marmalade\\7.4\\s3e\\makefile_builder\\templates\\xcode.py'
p292
F1409103204.0
sS'c:\\marmalade\\7.4\\s3e\\makefile_builder\\templates\\ws8_vcxproj.pyc'
p293
F1409106508.0
sS'c:\\marmalade\\7.4\\s3e\\makefile_builder\\templates\\wp81_csproj.pyc'
p294
F1409106508.0
sS'c:\\marmalade\\7.4\\s3e\\makefile_builder\\mkb_upstream.pyc'
p295
F1409106506.0
sS'c:\\marmalade\\7.4\\s3e\\makefile_builder\\templates\\win32_vcxproj.pyc'
p296
F1409106506.0
sS'c:\\marmalade\\7.4\\s3e\\makefile_builder\\templates\\ws8_csproj.pyc'
p297
F1409106508.0
sS'c:\\marmalade\\7.4\\s3e\\makefile_builder\\docs\\parse_options.pyc'
p298
F1409106508.0
sS'c:\\marmalade\\7.4\\s3e\\makefile_builder\\templates\\Info.plist'
p299
F1409103204.0
sS'c:\\marmalade\\7.4\\s3e\\makefile_builder\\templates\\wp81_sln.pyc'
p300
F1409106508.0
sS'c:\\marmalade\\7.4\\s3e\\makefile_builder\\templates\\ws81_csproj_user.pyc'
p301
F1409106508.0
sS'c:\\marmalade\\7.4\\s3e\\makefile_builder\\templates\\ws81_vcxproj.pyc'
p302
F1409106508.0
sccopy_reg
_reconstructor
p303
(cmkb_main
MkbFile
p304
c__builtin__
object
p305
Ntp306
Rp307
(dp308
g5
(lp309
sS'target_name'
p310
S'FinalYearProject'
p311
sS'current_file'
p312
g120
sS'package_path'
p313
(lp314
sS'post_build'
p315
(lp316
(lp317
S'c:/marmalade/7.4/s3e/tools'
p318
aS'C:\\Marmalade\\7.4\\s3e\\python\\python.exe .\\process_map.py "$(TargetPath)"'
p319
aa(S'c:\\marmalade\\7.4\\s3e\\bin'
p320
S'"s3e_plink" -l "$(TargetPath)" '
p321
g149
tp322
asS'librarys'
p323
(lp324
g303
(cmkb_main
Library
p325
g305
Ntp326
Rp327
(dp328
S'name'
p329
S'vc6_compat.lib'
p330
sS'expand_name'
p331
I00
sS'include_spec_rvct_objs'
p332
(lp333
sS'include_all_objs'
p334
I00
sS'share_arm'
p335
I00
sS'arch'
p336
S'x86'
p337
sS'nodebug'
p338
I00
sg36
Nsbag303
(g325
g305
Ntp339
Rp340
(dp341
g329
S'iwutil'
p342
sg331
I01
sg332
(lp343
sg334
Nsg335
Nsg336
Nsg338
I00
sg36
Nsbag303
(g325
g305
Ntp344
Rp345
(dp346
g329
S'jpeg'
p347
sg331
I01
sg332
g343
sg334
Nsg335
Nsg336
Nsg338
I00
sg36
Nsbag303
(g325
g305
Ntp348
Rp349
(dp350
g329
S'z'
p351
sg331
I01
sg332
g343
sg334
Nsg335
Nsg336
Nsg338
I00
sg36
Nsbag303
(g325
g305
Ntp352
Rp353
(dp354
g329
S'png'
p355
sg331
I01
sg332
g343
sg334
Nsg335
Nsg336
Nsg338
I00
sg36
Nsbag303
(g325
g305
Ntp356
Rp357
(dp358
g329
S'iw2d'
p359
sg331
I01
sg332
g343
sg334
Nsg335
Nsg336
Nsg338
I00
sg36
Nsbag303
(g325
g305
Ntp360
Rp361
(dp362
g329
S'ATI_Compress_MT_VC7.lib'
p363
sg331
I00
sg332
g343
sg334
Nsg335
Nsg336
S'x86'
p364
sg338
I00
sg36
Nsbag303
(g325
g305
Ntp365
Rp366
(dp367
g329
S'iwgx'
p368
sg331
I01
sg332
g343
sg334
Nsg335
Nsg336
Nsg338
I00
sg36
Nsbag303
(g325
g305
Ntp369
Rp370
(dp371
g329
S'iwgl'
p372
sg331
I01
sg332
g343
sg334
Nsg335
Nsg336
Nsg338
I00
sg36
Nsbag303
(g325
g305
Ntp373
Rp374
(dp375
g329
S'iwgeom'
p376
sg331
I01
sg332
g343
sg334
Nsg335
Nsg336
Nsg338
I00
sg36
Nsbag303
(g325
g305
Ntp377
Rp378
(dp379
g329
S'iwresmanager'
p380
sg331
I01
sg332
g343
sg334
Nsg335
Nsg336
Nsg338
I00
sg36
Nsbag303
(g325
g305
Ntp381
Rp382
(dp383
g329
S'iwgxfont'
p384
sg331
I01
sg332
g343
sg334
Nsg335
Nsg336
Nsg338
I00
sg36
Nsbag303
(g325
g305
Ntp385
Rp386
(dp387
g329
S'tiniconv'
p388
sg331
I01
sg332
g343
sg334
Nsg335
Nsg336
Nsg338
I00
sg36
Nsbag303
(g325
g305
Ntp389
Rp390
(dp391
g329
S's3e_cpp'
p392
sg331
I01
sg332
g333
sg334
I00
sg335
I00
sg336
Nsg338
I00
sg36
Nsbag303
(g325
g305
Ntp393
Rp394
(dp395
g329
S's3e'
p396
sg331
I01
sg332
(lp397
S'iwcrt.o'
p398
asg334
I00
sg335
I00
sg336
Nsg338
I00
sg36
Nsbag303
(g325
g305
Ntp399
Rp400
(dp401
g329
g48
sg331
I01
sg332
g333
sg334
I00
sg335
I00
sg336
S'x86'
p402
sg338
I01
sg36
Nsbag303
(g325
g305
Ntp403
Rp404
(dp405
g329
g48
sg331
I01
sg332
g333
sg334
I00
sg335
I00
sg336
S'!x86'
p406
sg338
I01
sg36
Nsbag303
(g325
g305
Ntp407
Rp408
(dp409
g329
S'stdc++'
p410
sg331
I00
sg332
g333
sg334
I00
sg335
I00
sg336
S'mips'
p411
sg338
I00
sg36
Nsbag303
(g325
g305
Ntp412
Rp413
(dp414
g329
S'c'
p415
sg331
I00
sg332
g333
sg334
I00
sg335
I00
sg336
S'mips'
p416
sg338
I00
sg36
Nsbag303
(g325
g305
Ntp417
Rp418
(dp419
g329
S'm'
p420
sg331
I00
sg332
g333
sg334
I00
sg335
I00
sg336
S'mips'
p421
sg338
I00
sg36
Nsbag303
(g325
g305
Ntp422
Rp423
(dp424
g329
S'gcc'
p425
sg331
I00
sg332
g333
sg334
I00
sg335
I00
sg336
S'mips'
p426
sg338
I00
sg36
Nsbag303
(g325
g305
Ntp427
Rp428
(dp429
g329
S'stdc++'
p430
sg331
I00
sg332
g333
sg334
I00
sg335
I00
sg336
S'gcc_x86_android'
p431
sg338
I00
sg36
Nsbag303
(g325
g305
Ntp432
Rp433
(dp434
g329
g415
sg331
I00
sg332
g333
sg334
I00
sg335
I00
sg336
S'gcc_x86_android'
p435
sg338
I00
sg36
Nsbag303
(g325
g305
Ntp436
Rp437
(dp438
g329
g420
sg331
I00
sg332
g333
sg334
I00
sg335
I00
sg336
S'gcc_x86_android'
p439
sg338
I00
sg36
Nsbag303
(g325
g305
Ntp440
Rp441
(dp442
g329
g425
sg331
I00
sg332
g333
sg334
I00
sg335
I00
sg336
S'gcc_x86_android'
p443
sg338
I00
sg36
NsbasS'library_paths'
p444
(lp445
g303
(cmkb_main
LibraryPath
p446
g305
Ntp447
Rp448
(dp449
S'expand_path'
p450
I01
sg329
S'c:/marmalade/7.4/modules/iwutil'
p451
sbag303
(g446
g305
Ntp452
Rp453
(dp454
g450
I01
sg329
S'c:/marmalade/7.4/modules/third_party/libjpeg'
p455
sbag303
(g446
g305
Ntp456
Rp457
(dp458
g450
I01
sg329
S'c:/marmalade/7.4/modules/third_party/zlib'
p459
sbag303
(g446
g305
Ntp460
Rp461
(dp462
g450
I01
sg329
S'c:/marmalade/7.4/modules/third_party/libpng'
p463
sbag303
(g446
g305
Ntp464
Rp465
(dp466
g450
I01
sg329
S'c:/marmalade/7.4/modules/iw2d'
p467
sbag303
(g446
g305
Ntp468
Rp469
(dp470
g450
I00
sg329
S'c:/marmalade/7.4/modules/iwgx/atitools'
p471
sbag303
(g446
g305
Ntp472
Rp473
(dp474
g450
I01
sg329
S'c:/marmalade/7.4/modules/iwgx'
p475
sbag303
(g446
g305
Ntp476
Rp477
(dp478
g450
I01
sg329
S'c:/marmalade/7.4/modules/iwgl'
p479
sbag303
(g446
g305
Ntp480
Rp481
(dp482
g450
I01
sg329
S'c:/marmalade/7.4/modules/iwgeom'
p483
sbag303
(g446
g305
Ntp484
Rp485
(dp486
g450
I01
sg329
S'c:/marmalade/7.4/modules/iwresmanager'
p487
sbag303
(g446
g305
Ntp488
Rp489
(dp490
g450
I01
sg329
S'c:/marmalade/7.4/modules/iwgxfont'
p491
sbag303
(g446
g305
Ntp492
Rp493
(dp494
g450
I01
sg329
S'c:/marmalade/7.4/modules/third_party/tiniconv'
p495
sbag303
(g446
g305
Ntp496
Rp497
(dp498
g450
I01
sg329
S'c:/marmalade/7.4/s3e'
p499
sbasS'macros'
p500
(dp501
S'IW_USE_CALLSTACK'
p502
NsS'IW_MKF_IWGEOM'
p503
NsS'I3D_PLATFORM_S3E'
p504
NsS'IW_MKF_IW2DSCENEGRAPHCORE'
p505
NsS'IW_MKF_LIBJPEG'
p506
NsS'I3D_OS_S3E'
p507
NsS'IW_MKF_PVRTEXTOOL'
p508
NsS'IW_MKF_TINICONV'
p509
NsS'IW_APP_VERSION'
p510
S'"1.0"'
p511
sS'__S3E__'
p512
NsS'IW_MKF_IWRESMANAGER'
p513
NsS'IW_MKF_IWUTIL'
p514
NsS'IW_PLATFORM_S3E'
p515
NsS'IW_ASSERTION_CHANNEL_2D'
p516
S'1'
p517
sS'IW_APP_NAME'
p518
S'"FinalYearProject"'
p519
sS'IW_MKF_IWGXFONT'
p520
NsS'IW_MKF_IWTWEEN'
p521
NsS'IW_MKF_ZLIB'
p522
NsS'IW_MKF_IWGX'
p523
NsS'IW_MKF_IW2DSCENEGRAPH'
p524
NsS'IW_USE_ASSERTIONS'
p525
NsS'_CRT_SECURE_NO_DEPRECATE'
p526
NsS'IW_MKF_IWGL'
p527
NsS'IW_MKF_LIBPNG'
p528
NsS'IW_TRACE_CHANNEL_IW_2DSCENEGRAPH'
p529
g517
sS'IW_DEBUG'
p530
NsS'IW_USE_TRACING'
p531
NsS'IW_ASSERTION_CHANNEL_IW_2DSCENEGRAPH'
p532
g517
sS'IW_TRACE_CHANNEL_PVRTEXTOOL'
p533
g517
sS'IW_SDK'
p534
NsS'S3E_INCLUDE_LEGACY'
p535
NsS'IW_TRACE_CHANNEL_PVRTEXTOOL_VERBOSE'
p536
S'2'
p537
sS'IW_MKF_IW2D'
p538
NsS'IW_ASSERTION_CHANNEL_PVRTEXTOOL'
p539
g517
ssS'done_warnings'
p540
(dp541
sS'subprojects'
p542
(dp543
g171
S'zlib'
p544
sg169
S'libjpeg'
p545
sg172
S'iw2dscenegraphcore'
p546
sg175
S'iwgx'
p547
sg177
S'iwgeom'
p548
sg168
S'iwutil'
p549
sg173
S'iw2dscenegraph'
p550
sg181
S'tiniconv'
p551
sg176
S'iwgl'
p552
sg174
S'iw2d'
p553
sg180
S'iwgxfont'
p554
sg178
S'iwresmanager'
p555
sg170
S'libpng'
p556
sg182
S'iwtween'
p557
sg179
S'PVRTexTool'
p558
ssS'deployments'
p559
(dp560
S'Default'
p561
g303
(cdeployment
Deployment
p562
g305
Ntp563
Rp564
(dp565
S'got_version'
p566
I0
sS'assets'
p567
g561
sS'mkb'
p568
g307
sS'target'
p569
Nsg336
(lp570
sS'options'
p571
(dp572
S'iphone-link-lib'
p573
(lp574
sS'game-icf'
p575
NsS'android-tm'
p576
NsS'winmobile-icon32'
p577
NsS'ws8-logo-image150x150'
p578
NsS'wp81-logo-image150x150'
p579
NsS'ws81-product-version'
p580
NsS'osx-ext-dll'
p581
(lp582
S'c:/marmalade/7.4/extensions/pvrtextool/lib/osx/libPVRTexTool.dylib'
p583
asS'iphone-provisioning-profile'
p584
NsS'ws8-splash-screen-image620x300'
p585
NsS'wp81-extra-pri'
p586
(lp587
sS'ws8-ext-capabilities'
p588
(lp589
sS'android-icon-hdpi'
p590
NsS'brew-icon-large'
p591
NsS'iphone-splash-full-orient'
p592
NsS'wp8-tile-fliptemplate-supports-large'
p593
NsS'iphone-show-status-bar'
p594
NsS'roku-requires-mkv'
p595
NsS'long-caption'
p596
NsS'android-pkgname'
p597
NsS'wp81-publisher-display-name'
p598
NsS'blackberry-permissions-read-device-identifying-information'
p599
NsS'ws81-certificate-end-date'
p600
NsS'psp-dlgcontentid'
p601
NsS'iphone-minimum-ios-version'
p602
NsS'target-folder'
p603
NsS'tizen-dist1-CA-path'
p604
NsS'symbian-icon2-format'
p605
NsS'tizen-author-key'
p606
NsS'firefoxos-icon-128X128'
p607
NsS'iphone-region'
p608
NsS'uiq3-icon3-mask'
p609
NsS'brew-encoding'
p610
NsS'android-x86'
p611
NsS'nds-initialcode'
p612
NsS'iphone-persistent-wifi'
p613
NsS'psp-snd0'
p614
NsS'roku-icon-focus-hd'
p615
NsS'winmobile-install-folder'
p616
NsS'android-external-res'
p617
(lp618
sS'ws8-product-version'
p619
NsS'brew-priviledges'
p620
NsS'iphone-icon-ipad-search'
p621
NsS'iphone-icon-ipad'
p622
NsS'roku-hidden'
p623
NsS'psp-titlename'
p624
NsS'wp81-product-version'
p625
NsS'symbian-icon1-mask'
p626
NsS'psp-parentallevel'
p627
NsS'splashscreen-use-all'
p628
NsS'wp8-author'
p629
NsS'symbian-disable-ecompxl'
p630
NsS'splashscreen-auto-onblack'
p631
NsS'win32-ext-dll'
p632
(lp633
S'c:/marmalade/7.4/extensions/pvrtextool/lib/win32/PVRTexTool.dll'
p634
asS'iphone-development-key'
p635
NsS'winmobile-icon48'
p636
NsS'android-unsigned'
p637
NsS'osx-appstore-category'
p638
NsS'version-revision'
p639
NsS'roku-icon-focus-sd'
p640
NsS'android-keystore'
p641
NsS'winmobile-png90'
p642
NsS'iphone-icon-ipad-high-res'
p643
NsS'iphone-disable-ipad'
p644
NsS'wp8-product-id'
p645
NsS'ws81-splash-screen-background'
p646
NsS'wp8-ext-capabilities'
p647
(lp648
sS'iphone-ipad-only'
p649
NsS'symbian-icon1-mask-black'
p650
NsS'iphone-nosign'
p651
NsS'iphone-bundle-localisations'
p652
NsS'winmobile-png60'
p653
NsS'blackberry-permissions-access-shared'
p654
NsS'blackberry-author'
p655
NsS'android-icon-xxxhdpi'
p656
NsS'olddeploytoolstyle'
p657
NsS'android_icon_gallery'
p658
NsS'wp81-splash-screen-background'
p659
NsS'winmobile-cab-compress'
p660
NsS'iphone-info-plist'
p661
NsS'ws81-ext-managed-dll'
p662
(lp663
sS'playbook-cskpass'
p664
NsS'ws8-distribution-pfx-password'
p665
NsS'symbian-key'
p666
NsS'app-icf'
p667
NsS'blackberry-storepass'
p668
NsS'wp8-tile-fliptemplate-back-title'
p669
NsS'brew-compress-loader'
p670
NsS'win32-pref-windowposy'
p671
NsS'win32-pref-windowposx'
p672
NsS'roku-requires-audiometadata'
p673
NsS'wp8-exclude-low-mem'
p674
NsS'iphone-icon-ipad-search-high-res'
p675
NsS'iphone-link-libdir'
p676
(lp677
sS'wp81-ext-capabilities'
p678
(lp679
sS'blackberry-permissions-read-geolocation'
p680
NsS'ws81-ext-device-capabilities'
p681
(lp682
sS'tizen-signed'
p683
NsS'android-extra-application-manifest'
p684
(lp685
sS'ws8-ext-native-dll'
p686
(lp687
sS'symbian-icon2-mask'
p688
NsS'iphone-backgroundmode-audio'
p689
NsS'webos-memory'
p690
NsS'android-keypass'
p691
NsS'name'
p692
NsS'uiq3-icon2-format'
p693
NsS'roku-splash-screen-sd'
p694
NsS'auto-derbh'
p695
NsS'roku-icon-side-sd'
p696
NsS'android-external-assets'
p697
(lp698
sS'nds-publicsavedatasize'
p699
NsS'splashscreen'
p700
NsS'brew-mif'
p701
NsS'iphone-icon-settings-high-res'
p702
NsS'android-manifest'
p703
NsS'ws81-splash-screen-image620x300'
p704
NsS'wp81-product-name'
p705
NsS's3e-compression'
p706
NsS'tizen-author-password'
p707
NsS'wp8-tile-fliptemplate-back-content'
p708
NsS'blackberry-extra-descriptor'
p709
(lp710
sS'symbian-icon1'
p711
NsS'symbian-icon2'
p712
NsS'android-extra-styles-file'
p713
NsS'wp81-publisher-id'
p714
NsS'nds-bannertitle-jp'
p715
NsS'wp81-logo-image44x44'
p716
NsS'osx-sign-for-store'
p717
NsS'symbian7-uid'
p718
NsS'wp8-tile-fliptemplate-large-back-content'
p719
NsS'wp81-phone-publisher-id'
p720
NsS'nds-bannertitle-cn'
p721
NsS'iphone-distribution-key'
p722
NsS'android-icon-gallery'
p723
NsS'blackberry-keystore'
p724
NsS'ws8-extra-res'
p725
(lp726
sS'caption'
p727
NsS'android-extra-manifest'
p728
(lp729
sS'wp81-ext-sdk-ref'
p730
(lp731
sS'android-icon-xxhdpi'
p732
NsS'version-minor'
p733
NsS'iphone-link-libdirs'
p734
(lp735
sS'iphone-icon-large'
p736
NsS'symbian-keypwd'
p737
NsS'symbian8-uid'
p738
NsS'symbian-cert-key'
p739
NsS'winmobile-ampd-part-number'
p740
NsS'arch'
p741
NsS'nds-romheadertemplate'
p742
NsS'webos-icon'
p743
NsS'wp81-ext-device-capabilities'
p744
(lp745
sS'psp-dlgprotectdocument'
p746
NsS'ws8-splash-screen-background'
p747
NsS'android-icon-mdpi'
p748
NsS'nds-icon'
p749
NsS'ws8-custom-manifest-fill'
p750
NsS'iphone-development-cert'
p751
NsS'blackberry-phone-icon'
p752
NsS'iphone-enable-4inch-retina'
p753
NsS'ws8-custom-manifest'
p754
NsS'version-major'
p755
NsS'wp8-genre-isgame'
p756
NsS'uiq3-uid'
p757
NsS'iphone-splash-retina-generate'
p758
NsS'tizen-hw-acceleration'
p759
NsS'iphone_bundle_localisations'
p760
NsS'tizen-dist1-key'
p761
NsS'wp81-custom-manifest-fill'
p762
NsS'wp8-custom-manifest'
p763
NsS'nds-bannertitle-ge'
p764
NsS'iphone-sign-for-distribution'
p765
NsS'wp8-tile-fliptemplate-medium-back-image'
p766
NsS'wp8-publisher-id'
p767
NsS'icon'
p768
NsS'wp8-exclude-wxga'
p769
NsS'wp81-identity-name'
p770
NsS'uiq3-icon2-mask'
p771
NsS'iphone-splashscreen-portrait'
p772
NsS'iphone-icon-high-res'
p773
NsS'ws81-distribution-pfx-password'
p774
NsS'playbook-author'
p775
NsS'android-icon-xhdpi'
p776
NsS'linux-ext-lib'
p777
(lp778
sS'blackberry-permissions-access-internet'
p779
NsS'wp8-exclude-720p'
p780
NsS'lgtv-use-drm'
p781
NsS'symbian-platsecflags'
p782
NsS'ws8-description'
p783
NsS'blackberry-playbook-icon'
p784
NsS'copyright'
p785
NsS'win32-gles-directory'
p786
NsS'version'
p787
NsS'ws81-logo-image150x150'
p788
NsS'osx-signing-identity-app'
p789
NsS'tizen-project-url'
p790
NsS'symbian-icon-svg'
p791
NsS'android-aliasname'
p792
NsS'psp-dlgmanual'
p793
NsS'brew-uid'
p794
NsS'symbian-locationsupport'
p795
NsS'wp81-logo-image50x50'
p796
NsS'ws8-ext-managed-dll'
p797
(lp798
sS'nds-bannertitle-it'
p799
NsS'ws81-custom-manifest-fill'
p800
NsS'ws8-ext-sdk-manifest-part'
p801
(lp802
sS'uiq3-icon1-mask'
p803
NsS'winmobile-icon16'
p804
NsS'ws8-product-name'
p805
NsS'blackberry-cskpass'
p806
NsS'winmobile-start-menu-folder'
p807
NsS'brew-clsid'
p808
NsS'roku-requires-bluetooth'
p809
NsS'ws8-ext-device-capabilities'
p810
(lp811
sS'blackberry-permissions-use-camera'
p812
NsS'ws81-extra-pri'
p813
(lp814
sS'iphone-prerendered-icon'
p815
NsS'iphone-appid'
p816
NsS'ws8-identity-name'
p817
NsS'tizen-dist2-CA-path'
p818
NsS'android-external-jars'
p819
(lp820
sS'winmobile-icon64'
p821
NsS'blackberry-permissions-post-notification'
p822
NsS'winmobile-setup-dll'
p823
NsS'firefoxos-manifest'
p824
NsS'win8-winrt-extra-res'
p825
(lp826
sS'wp81-ext-sdk-manifest-part'
p827
(lp828
sS'symbian9-uid'
p829
NsS'iphone-icon-ipad-ios7'
p830
NsS'winmobile-trace-file'
p831
NsS'roku-splash-color'
p832
NsS'psp-appversion'
p833
NsS'ws8-publisher-id'
p834
NsS'android-supports-gl-texture'
p835
(lp836
sS'winmobile-png45'
p837
NsS'wp81-extra-res'
p838
(lp839
sS'android-storepass'
p840
NsS'osx-signing-identity-inst'
p841
NsS'android-custom-activity'
p842
NsS'psp-discversion'
p843
NsS'wp81-ext-managed-dll'
p844
(lp845
sS'psp-copyright'
p846
NsS'embed-icf'
p847
NsS'tizen-manifest'
p848
NsS'osx-icon'
p849
NsS'webos-appinfo'
p850
NsS'psp-dlghealthwarning'
p851
NsS'webos-appid'
p852
NsS'roku-icon-side-hd'
p853
NsS'iphone-icon-ipad-search-high-res-ios7'
p854
NsS'ws81-ext-sdk-manifest-part'
p855
(lp856
sS'loader_name_prefix'
p857
NsS'nds-titlename'
p858
NsS'ws81-logo-image50x50'
p859
NsS'wp81-custom-manifest'
p860
NsS'osx-entitlements-plist'
p861
NsS'psp-dlgicon0'
p862
NsS'winmobile-nouninstall'
p863
NsS'psp-discid'
p864
NsS'tizen-dist2-password'
p865
NsS'ws8-ext-sdk-ref'
p866
(lp867
sS'iphone-extra-string'
p868
(lp869
sS'version-string'
p870
NsS'iphone-icon-high-res-ios7'
p871
NsS'blackberry-permissions-record-audio'
p872
NsS'ws8-certificate-end-date'
p873
NsS'tizen-so'
p874
(lp875
sS'wp8-tile-fliptemplate-small-image'
p876
NsS'playbook-authorid'
p877
NsS'iphone-signing-identity'
p878
NsS'roku-persist-quota'
p879
NsS'nds-bannertitle-fr'
p880
NsS'ws8-distribution-pfx'
p881
NsS'ws8-publisher-display-name'
p882
NsS'brew-icon-small'
p883
NsS'psp-dlgpic2'
p884
NsS'psp-dlgpic0'
p885
NsS'psp-pic0'
p886
NsS'psp-pic1'
p887
NsS'win32-pref-windowtitle'
p888
NsS'psp-icon0'
p889
NsS'psp-icon1'
p890
NsS'ws81-identity-name'
p891
NsS'winmobile-icon'
p892
NsS'iphone-no-splash'
p893
NsS'iphone-splash'
p894
NsS'iphone-app-fonts'
p895
NsS'wp8-ext-native-dll'
p896
(lp897
sS'wp81-splash-screen-image480x800'
p898
NsS'ws81-distribution-cer'
p899
NsS'uiq3-icon2'
p900
NsS'uiq3-icon3'
p901
NsS'uiq3-icon1'
p902
NsS'uiq3-icon1-format'
p903
NsS'ws8-logo-image50x50'
p904
NsS'symbian-icon2-mask-black'
p905
NsS'symbian-run-on-install'
p906
NsS'wp81-description'
p907
NsS'ws81-publisher-display-name'
p908
NsS'firefoxos-xulrunner'
p909
NsS'symbian-soundrecordsupport'
p910
NsS'nds-bannertitle-sp'
p911
NsS'psp-producer'
p912
NsS'iphone-apple-wwdr-cert'
p913
NsS'android-icon-nonstandard'
p914
NsS'win32-pref-processtitle'
p915
NsS'nds-bannertitle-hn'
p916
NsS'tizen-dist2-key'
p917
NsS'brew-depends'
p918
NsS'ws81-custom-manifest'
p919
NsS'iphone-icon-ipad-search-ios7'
p920
NsS'brew-icon-medium'
p921
NsS'iphone-bundle-url-name'
p922
NsS'wp8-tile-fliptemplate-large-front-image'
p923
NsS'tizen-dist2-CA-root-path'
p924
NsS'ws81-description'
p925
NsS'uiq3-icon3-format'
p926
NsS'ws81-logo-image30x30'
p927
NsS'win8-phone-extra-res'
p928
(lp929
sS'iphone-signing-host'
p930
NsS'tizen-icon'
p931
NsS'osx-info-plist'
p932
NsS'symbian-icon1-format'
p933
NsS'win8-store-extra-res'
p934
(lp935
sS'blackberry-authorid'
p936
NsS'ws81-publisher-id'
p937
NsS'ws81-distribution-pfx'
p938
NsS'wp8-description'
p939
NsS'iphone-link-opts'
p940
(lp941
sS'ws81-ext-sdk-ref'
p942
(lp943
sS'roku-splash-min-time'
p944
NsS'wp8-tile-fliptemplate-medium-front-image'
p945
NsS'provider'
p946
NsS'playbook-keystore'
p947
NsS'tizen-appid'
p948
NsS'wp8-extra-res'
p949
(lp950
sS'symbian-osexecsupport'
p951
NsS'android-install-location'
p952
NsS'nds-privatesavedatasize'
p953
NsS'playbook-storepass'
p954
NsS'android-icon-ldpi'
p955
NsS'manufacturer'
p956
NsS'itunes-artwork'
p957
NsS'iphone-extra-sections'
p958
NsS'ws81-product-name'
p959
NsS'ws81-ext-native-dll'
p960
(lp961
sS'ws8-extra-pri'
p962
(lp963
sS'win32-icon'
p964
NsS'ws8-logo-image30x30'
p965
NsS'wp8-ext-managed-dll'
p966
(lp967
sS'iphone-splashscreen-landscape'
p968
NsS'symbian-maxheapsize'
p969
NsS'nds-makercode'
p970
NsS'priv-sign-key'
p971
NsS'networking'
p972
NsS'android-icon'
p973
NsS'iphone-icon-settings'
p974
NsS'wp81-phone-product-id'
p975
NsS'firefoxos-icon-60X60'
p976
NsS'iphone-distribution-cert'
p977
NsS'android_extra_strings'
p978
NsS'nds-bannertitle-en'
p979
NsS'wp8-tile-fliptemplate-title'
p980
NsS'android-so'
p981
(lp982
sS'wp8-higher-mem'
p983
NsS'wp8-ext-sdk-ref'
p984
(lp985
sS'roku-splash-screen-hd'
p986
NsS'iphone-bundle-url-schemes'
p987
NsS'roku-screensaver-private'
p988
NsS'osx-extra-res'
p989
(lp990
sS'ws81-extra-res'
p991
(lp992
sS'playbook-icon'
p993
NsS'uid'
p994
NsS'pkguid-as-uid'
p995
NsS'wp81-ext-native-dll'
p996
(lp997
sS'tizen-dist1-password'
p998
NsS'roku-screensaver-title'
p999
NsS'osx-minimum-osx-version'
p1000
NsS'symbian-cert'
p1001
NsS'iphone-icon'
p1002
NsS'ws81-ext-capabilities'
p1003
(lp1004
sS'ws8-distribution-cer'
p1005
NsS'playbook-access-shared'
p1006
NsS'iphone-icon-ipad-high-res-ios7'
p1007
NsS'iphone-link-libs'
p1008
(lp1009
sS'wp8-exclude-wvga'
p1010
NsS'assets'
p1011
NsS'wp8-tile-fliptemplate-large-back-image'
p1012
NsS'wp8-custom-manifest-fill'
p1013
NsS'pub-sign-key'
p1014
NsS'android-extra-strings'
p1015
NsS'tizen-author-CA-path'
p1016
Nssg329
g561
sbssS'platform'
p1017
S'S3E'
p1018
sg63
S'1.0'
p1019
sS'arcade_platform'
p1020
g4
sS'extensions'
p1021
(dp1022
sS'source_groups_tree'
p1023
(dp1024
S'(libpng)'
p1025
(dp1026
S'h'
p1027
(dp1028
S'c:/marmalade/7.4/modules/third_party/libpng/h/png.h'
p1029
(lp1030
I1
a(dp1031
asS'c:/marmalade/7.4/modules/third_party/libpng/h/pngconf.h'
p1032
(lp1033
I1
ag1031
assS'c:/marmalade/7.4/modules/third_party/libpng/libpng.mkf'
p1034
(lp1035
I1
a(dp1036
assS'(libjpeg)'
p1037
(dp1038
g1027
(dp1039
S'c:/marmalade/7.4/modules/third_party/libjpeg/h/jerror.h'
p1040
(lp1041
I1
a(dp1042
asS'c:/marmalade/7.4/modules/third_party/libjpeg/h/jmemsys.h'
p1043
(lp1044
I1
ag1042
asS'c:/marmalade/7.4/modules/third_party/libjpeg/h/jchuff.h'
p1045
(lp1046
I1
ag1042
asS'c:/marmalade/7.4/modules/third_party/libjpeg/h/jpeglib.h'
p1047
(lp1048
I1
ag1042
asS'c:/marmalade/7.4/modules/third_party/libjpeg/h/cdjpeg.h'
p1049
(lp1050
I1
ag1042
asS'c:/marmalade/7.4/modules/third_party/libjpeg/h/jinclude.h'
p1051
(lp1052
I1
ag1042
asS'c:/marmalade/7.4/modules/third_party/libjpeg/h/jconfig.h'
p1053
(lp1054
I1
ag1042
asS'c:/marmalade/7.4/modules/third_party/libjpeg/h/cderror.h'
p1055
(lp1056
I1
ag1042
asS'c:/marmalade/7.4/modules/third_party/libjpeg/h/jdct.h'
p1057
(lp1058
I1
ag1042
asS'c:/marmalade/7.4/modules/third_party/libjpeg/h/jversion.h'
p1059
(lp1060
I1
ag1042
asS'c:/marmalade/7.4/modules/third_party/libjpeg/h/transupp.h'
p1061
(lp1062
I1
ag1042
asS'c:/marmalade/7.4/modules/third_party/libjpeg/h/jdhuff.h'
p1063
(lp1064
I1
ag1042
asS'c:/marmalade/7.4/modules/third_party/libjpeg/h/jpegint.h'
p1065
(lp1066
I1
ag1042
asS'c:/marmalade/7.4/modules/third_party/libjpeg/h/jmorecfg.h'
p1067
(lp1068
I1
ag1042
assS'c:/marmalade/7.4/modules/third_party/libjpeg/libjpeg.mkf'
p1069
(lp1070
I1
a(dp1071
assS'(tiniconv)'
p1072
(dp1073
S'c:/marmalade/7.4/modules/third_party/tiniconv/source/tiniconv_int.h'
p1074
(lp1075
I1
a(dp1076
asS'c:/marmalade/7.4/modules/third_party/tiniconv/tiniconv.mkf'
p1077
(lp1078
I1
a(dp1079
asS'c:/marmalade/7.4/modules/third_party/tiniconv/source/tiniconv.h'
p1080
(lp1081
I1
ag1076
assS'Extensions'
p1082
(dp1083
S'PVRTexTool'
p1084
(dp1085
S'interface'
p1086
(dp1087
S'c:/marmalade/7.4/extensions/pvrtextool/interface/PVRTexTool_interface.cpp'
p1088
(lp1089
I1
a(dp1090
asS'c:/marmalade/7.4/extensions/pvrtextool/interface/PVRTexTool.defines.txt'
p1091
(lp1092
I1
ag1090
assS'c:/marmalade/7.4/extensions/pvrtextool/pvrtextool.mkf'
p1093
(lp1094
I1
a(dp1095
asS'c:/marmalade/7.4/extensions/pvrtextool/h/PVRTexTool.h'
p1096
(lp1097
I1
ag1090
asssS'c:/Users/lab422/Desktop/FYP/Learning Resources/Sprint 1 Minimal Example/FinalYearProject/FinalYearProject.cpp'
p1098
(lp1099
I1
a(dp1100
asS"'Marmalade Studio'"
p1101
(dp1102
S'iw2dscenegraph'
p1103
(dp1104
S'c:/marmalade/7.4/modules/iw2dscenegraph/docs/iw2dscenegraph.defines.txt'
p1105
(lp1106
I1
a(dp1107
asS'c:/marmalade/7.4/modules/iw2dscenegraph/source/Iw2DSceneGraph.cpp'
p1108
(lp1109
I1
ag1107
asS'c:/marmalade/7.4/modules/iw2dscenegraph/iw2dscenegraph.mkf'
p1110
(lp1111
I1
a(dp1112
asS'c:/marmalade/7.4/modules/iw2dscenegraph/h/Iw2DSceneGraph.h'
p1113
(lp1114
I1
ag1107
assS'iwgl'
p1115
(dp1116
S'c:/marmalade/7.4/modules/iwgl/iwgl.mkf'
p1117
(lp1118
I1
a(dp1119
asS'c:/marmalade/7.4/modules/iwgl/docs/iwgl.config.txt'
p1120
(lp1121
I1
a(dp1122
asS'c:/marmalade/7.4/modules/iwgl/h/IwGL.h'
p1123
(lp1124
I1
ag1122
asS'c:/marmalade/7.4/modules/iwgl/h/IwGLExt.h'
p1125
(lp1126
I1
ag1122
assS'iw2d'
p1127
(dp1128
S'c:/marmalade/7.4/modules/iw2d/docs/iw2d.config.txt'
p1129
(lp1130
I1
a(dp1131
asS'c:/marmalade/7.4/modules/iw2d/docs/iw2d_public.defines.txt'
p1132
(lp1133
I1
ag1131
asS'c:/marmalade/7.4/modules/iw2d/h/Iw2D.h'
p1134
(lp1135
I1
ag1131
asS'c:/marmalade/7.4/modules/iw2d/iw2d.mkf'
p1136
(lp1137
I1
a(dp1138
assS'iwgxfont'
p1139
(dp1140
S'c:/marmalade/7.4/modules/iwgxfont/docs/iwgxfont_public.defines.txt'
p1141
(lp1142
I1
a(dp1143
asS'c:/marmalade/7.4/modules/iwgxfont/h/IwGxFontGlyph.h'
p1144
(lp1145
I1
ag1143
asS'c:/marmalade/7.4/modules/iwgxfont/docs/iwgxfont.config.txt'
p1146
(lp1147
I1
ag1143
asS'c:/marmalade/7.4/modules/iwgxfont/h/IwGxFont.h'
p1148
(lp1149
I1
ag1143
asS'c:/marmalade/7.4/modules/iwgxfont/h/IwGxFontTypes.h'
p1150
(lp1151
I1
ag1143
asS'c:/marmalade/7.4/modules/iwgxfont/h/IwGxFontPreparedData.h'
p1152
(lp1153
I1
ag1143
asS'c:/marmalade/7.4/modules/iwgxfont/h/IwGxFontState.h'
p1154
(lp1155
I1
ag1143
asS'c:/marmalade/7.4/modules/iwgxfont/h/IwGxFontContainer.h'
p1156
(lp1157
I1
ag1143
asS'c:/marmalade/7.4/modules/iwgxfont/iwgxfont.mkf'
p1158
(lp1159
I1
a(dp1160
assS'iwgeom'
p1161
(dp1162
S'c:/marmalade/7.4/modules/iwgeom/docs/iwgeom.config.txt'
p1163
(lp1164
I1
a(dp1165
asS'c:/marmalade/7.4/modules/iwgeom/h/IwGeomFIntersect.h'
p1166
(lp1167
I1
ag1165
asS'c:/marmalade/7.4/modules/iwgeom/h/IwGeomMat2D.h.tpl'
p1168
(lp1169
I1
ag1165
asS'c:/marmalade/7.4/modules/iwgeom/iwgeom.mkf'
p1170
(lp1171
I1
a(dp1172
asS'c:/marmalade/7.4/modules/iwgeom/h/IwGeomVec.h.tpl'
p1173
(lp1174
I1
ag1165
asS'c:/marmalade/7.4/modules/iwgeom/h/IwGeomFSphere.h'
p1175
(lp1176
I1
ag1165
asS'c:/marmalade/7.4/modules/iwgeom/h/IwGeomFQuat.h'
p1177
(lp1178
I1
ag1165
asS'c:/marmalade/7.4/modules/iwgeom/h/IwGeomMenu.h'
p1179
(lp1180
I1
ag1165
asS'c:/marmalade/7.4/modules/iwgeom/h/IwGeomFMat2D.h'
p1181
(lp1182
I1
ag1165
asS'c:/marmalade/7.4/modules/iwgeom/h/IwGeomFVec4.h'
p1183
(lp1184
I1
ag1165
asS'c:/marmalade/7.4/modules/iwgeom/h/IwGeomQuat.h'
p1185
(lp1186
I1
ag1165
asS'c:/marmalade/7.4/modules/iwgeom/h/IwGeomFBBox.h'
p1187
(lp1188
I1
ag1165
asS'c:/marmalade/7.4/modules/iwgeom/h/IwGeomSVec4.h'
p1189
(lp1190
I1
ag1165
asS'c:/marmalade/7.4/modules/iwgeom/h/IwGeomFVec2.h'
p1191
(lp1192
I1
ag1165
asS'c:/marmalade/7.4/modules/iwgeom/h/IwGeomVec.h'
p1193
(lp1194
I1
ag1165
asS'c:/marmalade/7.4/modules/iwgeom/h/IwGeomPlane.h'
p1195
(lp1196
I1
ag1165
asS'c:/marmalade/7.4/modules/iwgeom/h/IwGeomQuat.h.tpl'
p1197
(lp1198
I1
ag1165
asS'c:/marmalade/7.4/modules/iwgeom/h/IwGeomSVec3.h'
p1199
(lp1200
I1
ag1165
asS'c:/marmalade/7.4/modules/iwgeom/h/IwGeomMat.h'
p1201
(lp1202
I1
ag1165
asS'c:/marmalade/7.4/modules/iwgeom/h/IwGeomVec3.h'
p1203
(lp1204
I1
ag1165
asS'c:/marmalade/7.4/modules/iwgeom/h/IwGeomVec2.h'
p1205
(lp1206
I1
ag1165
asS'c:/marmalade/7.4/modules/iwgeom/h/IwGeomLegacy.h'
p1207
(lp1208
I1
ag1165
asS'c:/marmalade/7.4/modules/iwgeom/h/IwGeomSQuat.h'
p1209
(lp1210
I1
ag1165
asS'c:/marmalade/7.4/modules/iwgeom/h/IwGeomCore.h'
p1211
(lp1212
I1
ag1165
asS'c:/marmalade/7.4/modules/iwgeom/h/IwGeomVec4.h'
p1213
(lp1214
I1
ag1165
asS'c:/marmalade/7.4/modules/iwgeom/h/IwGeomBBox.h'
p1215
(lp1216
I1
ag1165
asS'c:/marmalade/7.4/modules/iwgeom/h/IwGeomIntersect.h'
p1217
(lp1218
I1
ag1165
asS'c:/marmalade/7.4/modules/iwgeom/h/IwGeomSVec2.h'
p1219
(lp1220
I1
ag1165
asS'c:/marmalade/7.4/modules/iwgeom/h/IwGeomMat2D.h'
p1221
(lp1222
I1
ag1165
asS'c:/marmalade/7.4/modules/iwgeom/h/IwGeomSphere.h'
p1223
(lp1224
I1
ag1165
asS'c:/marmalade/7.4/modules/iwgeom/h/IwGeomFVec3.h'
p1225
(lp1226
I1
ag1165
asS'c:/marmalade/7.4/modules/iwgeom/h/IwGeom.h'
p1227
(lp1228
I1
ag1165
asS'c:/marmalade/7.4/modules/iwgeom/h/IwGeomMat.h.tpl'
p1229
(lp1230
I1
ag1165
asS'c:/marmalade/7.4/modules/iwgeom/h/IwGeomFPlane.h'
p1231
(lp1232
I1
ag1165
asS'c:/marmalade/7.4/modules/iwgeom/h/IwGeomFMat.h'
p1233
(lp1234
I1
ag1165
asS'c:/marmalade/7.4/modules/iwgeom/h/IwGeomSqrt.h'
p1235
(lp1236
I1
ag1165
assS'iwresmanager'
p1237
(dp1238
S'c:/marmalade/7.4/modules/iwresmanager/h/IwResGroup.h'
p1239
(lp1240
I1
a(dp1241
asS'c:/marmalade/7.4/modules/iwresmanager/h/IwResManager.h'
p1242
(lp1243
I1
ag1241
asS'c:/marmalade/7.4/modules/iwresmanager/h/IwResHandlerITX.h'
p1244
(lp1245
I1
ag1241
asS'c:/marmalade/7.4/modules/iwresmanager/h/IwResSerialise.h'
p1246
(lp1247
I1
ag1241
asS'c:/marmalade/7.4/modules/iwresmanager/h/IwResHandlerGROUP.h'
p1248
(lp1249
I1
ag1241
asS'c:/marmalade/7.4/modules/iwresmanager/iwresmanager.mkf'
p1250
(lp1251
I1
a(dp1252
asS'c:/marmalade/7.4/modules/iwresmanager/h/IwResHandlerImage.h'
p1253
(lp1254
I1
ag1241
asS'c:/marmalade/7.4/modules/iwresmanager/h/IwResHandler.h'
p1255
(lp1256
I1
ag1241
asS'c:/marmalade/7.4/modules/iwresmanager/docs/iwresmanager.config.txt'
p1257
(lp1258
I1
ag1241
asS'c:/marmalade/7.4/modules/iwresmanager/h/IwResManagerClass.h'
p1259
(lp1260
I1
ag1241
assS'iwgx'
p1261
(dp1262
S'c:/marmalade/7.4/modules/iwgx/h/IwDebugPrim.h'
p1263
(lp1264
I1
a(dp1265
asS'c:/marmalade/7.4/modules/iwgx/h/IwGxFuncTable.h'
p1266
(lp1267
I1
ag1265
asS'c:/marmalade/7.4/modules/iwgx/h/IwClip.inl'
p1268
(lp1269
I1
ag1265
asS'c:/marmalade/7.4/modules/iwgx/h/IwGxPrint.h'
p1270
(lp1271
I1
ag1265
asS'c:/marmalade/7.4/modules/iwgx/h/IwGx.h'
p1272
(lp1273
I1
ag1265
asS'c:/marmalade/7.4/modules/iwgx/h/IwTexture.h'
p1274
(lp1275
I1
ag1265
asS'c:/marmalade/7.4/modules/iwgx/h/IwFColour.h'
p1276
(lp1277
I1
ag1265
asS'c:/marmalade/7.4/modules/iwgx/h/IwColour.h'
p1278
(lp1279
I1
ag1265
asS'c:/marmalade/7.4/modules/iwgx/h/IwGxState.h'
p1280
(lp1281
I1
ag1265
asS'c:/marmalade/7.4/modules/iwgx/h/IwClip.h'
p1282
(lp1283
I1
ag1265
asS'c:/marmalade/7.4/modules/iwgx/h/IwTPage.h'
p1284
(lp1285
I1
ag1265
asS'c:/marmalade/7.4/modules/iwgx/h/IwMaterial.h'
p1286
(lp1287
I1
ag1265
asS'c:/marmalade/7.4/modules/iwgx/h/IwGxDebug.h'
p1288
(lp1289
I1
ag1265
asS'c:/marmalade/7.4/modules/iwgx/h/IwMatAnim.h'
p1290
(lp1291
I1
ag1265
asS'c:/marmalade/7.4/modules/iwgx/h/IwGxStream.h'
p1292
(lp1293
I1
ag1265
asS'c:/marmalade/7.4/modules/iwgx/h/IwResHandlerMTL.h'
p1294
(lp1295
I1
ag1265
asS'c:/marmalade/7.4/modules/iwgx/h/IwGxMetrics.h'
p1296
(lp1297
I1
ag1265
asS'c:/marmalade/7.4/modules/iwgx/h/IwGxError.h'
p1298
(lp1299
I1
ag1265
asS'c:/marmalade/7.4/modules/iwgx/docs/iwgx.config.txt'
p1300
(lp1301
I1
ag1265
asS'c:/marmalade/7.4/modules/iwgx/h/IwGxTransformSW.h'
p1302
(lp1303
I1
ag1265
asS'c:/marmalade/7.4/modules/iwgx/iwgx.mkf'
p1304
(lp1305
I1
a(dp1306
asS'c:/marmalade/7.4/modules/iwgx/docs/iwgx_public.defines.txt'
p1307
(lp1308
I1
ag1265
asS'c:/marmalade/7.4/modules/iwgx/h/IwGxShaderTechnique.h'
p1309
(lp1310
I1
ag1265
asS'c:/marmalade/7.4/modules/iwgx/h/IwGxTypes.h'
p1311
(lp1312
I1
ag1265
asS'c:/marmalade/7.4/modules/iwgx/h/IwGxSurface.h'
p1313
(lp1314
I1
ag1265
assS'iw2dscenegraphcore'
p1315
(dp1316
S'c:/marmalade/7.4/modules/iw2dscenegraphcore/iw2dscenegraphcore.mkf'
p1317
(lp1318
I1
a(dp1319
asS'c:/marmalade/7.4/modules/iw2dscenegraphcore/source/Iw2DSceneGraphCore.cpp'
p1320
(lp1321
I1
a(dp1322
asS'c:/marmalade/7.4/modules/iw2dscenegraphcore/h/Iw2DSceneGraphCore.h'
p1323
(lp1324
I1
ag1322
assS'iwutil'
p1325
(dp1326
S'c:/marmalade/7.4/modules/iwutil/h/IwTextParser.h'
p1327
(lp1328
I1
a(dp1329
asS'c:/marmalade/7.4/modules/iwutil/h/IwMenu.h'
p1330
(lp1331
I1
ag1329
asS'c:/marmalade/7.4/modules/iwutil/h/IwUtilInitTerm.h'
p1332
(lp1333
I1
ag1329
asS'c:/marmalade/7.4/modules/iwutil/h/IwCopyingPtr.h'
p1334
(lp1335
I1
ag1329
asS'c:/marmalade/7.4/modules/iwutil/h/IwDebug.h'
p1336
(lp1337
I1
ag1329
asS'c:/marmalade/7.4/modules/iwutil/h/IwVariableBitField.h'
p1338
(lp1339
I1
ag1329
asS'c:/marmalade/7.4/modules/iwutil/h/IwBuffer.h'
p1340
(lp1341
I1
ag1329
asS'c:/marmalade/7.4/modules/iwutil/h/IwRandom.h'
p1342
(lp1343
I1
ag1329
asS'c:/marmalade/7.4/modules/iwutil/h/IwResource.h'
p1344
(lp1345
I1
ag1329
asS'c:/marmalade/7.4/modules/iwutil/h/IwCore.h'
p1346
(lp1347
I1
ag1329
asS'c:/marmalade/7.4/modules/iwutil/h/IwTextParserITX.h'
p1348
(lp1349
I1
ag1329
asS'c:/marmalade/7.4/modules/iwutil/h/IwManaged.h'
p1350
(lp1351
I1
ag1329
asS'c:/marmalade/7.4/modules/iwutil/h/IwHashString.h'
p1352
(lp1353
I1
ag1329
asS'c:/marmalade/7.4/modules/iwutil/h/IwProfileMenu.h'
p1354
(lp1355
I1
ag1329
asS'c:/marmalade/7.4/modules/iwutil/h/IwManagedList.h'
p1356
(lp1357
I1
ag1329
asS'c:/marmalade/7.4/modules/iwutil/h/IwList.h'
p1358
(lp1359
I1
ag1329
asS'c:/marmalade/7.4/modules/iwutil/h/IwSerialise.h'
p1360
(lp1361
I1
ag1329
asS'c:/marmalade/7.4/modules/iwutil/h/IwClassFactory.h'
p1362
(lp1363
I1
ag1329
asS'c:/marmalade/7.4/modules/iwutil/h/IwTypes.h'
p1364
(lp1365
I1
ag1329
asS'c:/marmalade/7.4/modules/iwutil/h/IwAllocator.h'
p1366
(lp1367
I1
ag1329
asS'c:/marmalade/7.4/modules/iwutil/h/IwMemory.h'
p1368
(lp1369
I1
ag1329
asS'c:/marmalade/7.4/modules/iwutil/h/IwTextParseable.h'
p1370
(lp1371
I1
ag1329
asS'c:/marmalade/7.4/modules/iwutil/h/IwFile.h'
p1372
(lp1373
I1
ag1329
asS'c:/marmalade/7.4/modules/iwutil/h/IwRuntime.h'
p1374
(lp1375
I1
ag1329
asS'c:/marmalade/7.4/modules/iwutil/h/IwMemBucketHelpers.h'
p1376
(lp1377
I1
ag1329
asS'c:/marmalade/7.4/modules/iwutil/h/IwUncopyable.h'
p1378
(lp1379
I1
ag1329
asS'c:/marmalade/7.4/modules/iwutil/h/IwChar.h'
p1380
(lp1381
I1
ag1329
asS'c:/marmalade/7.4/modules/iwutil/h/IwOptimiseARM.h'
p1382
(lp1383
I1
ag1329
asS'c:/marmalade/7.4/modules/iwutil/h/IwImage.h'
p1384
(lp1385
I1
ag1329
asS'c:/marmalade/7.4/modules/iwutil/h/IwImageHelper.h'
p1386
(lp1387
I1
ag1329
asS'c:/marmalade/7.4/modules/iwutil/h/IwMemBucket.h'
p1388
(lp1389
I1
ag1329
asS'c:/marmalade/7.4/modules/iwutil/h/IwDivide.h'
p1390
(lp1391
I1
ag1329
asS'c:/marmalade/7.4/modules/iwutil/h/IwOptimiseSpeed.h'
p1392
(lp1393
I1
ag1329
asS'c:/marmalade/7.4/modules/iwutil/h/IwArray.h'
p1394
(lp1395
I1
ag1329
asS'c:/marmalade/7.4/modules/iwutil/docs/iwutil.config.txt'
p1396
(lp1397
I1
ag1329
asS'c:/marmalade/7.4/modules/iwutil/h/IwUTF8.h'
p1398
(lp1399
I1
ag1329
asS'c:/marmalade/7.4/modules/iwutil/h/IwEvent.h'
p1400
(lp1401
I1
ag1329
asS'c:/marmalade/7.4/modules/iwutil/h/IwMath.h'
p1402
(lp1403
I1
ag1329
asS'c:/marmalade/7.4/modules/iwutil/h/IwFibre.h'
p1404
(lp1405
I1
ag1329
asS'c:/marmalade/7.4/modules/iwutil/h/IwString.h'
p1406
(lp1407
I1
ag1329
asS'c:/marmalade/7.4/modules/iwutil/h/IwKeymap.h'
p1408
(lp1409
I1
ag1329
asS'c:/marmalade/7.4/modules/iwutil/iwutil.mkf'
p1410
(lp1411
I1
a(dp1412
asS'c:/marmalade/7.4/modules/iwutil/h/IwSingleton.h'
p1413
(lp1414
I1
ag1329
asS'c:/marmalade/7.4/modules/iwutil/h/IwAutoFile.h'
p1415
(lp1416
I1
ag1329
asS'c:/marmalade/7.4/modules/iwutil/h/IwOptimiseThumb.h'
p1417
(lp1418
I1
ag1329
asS'c:/marmalade/7.4/modules/iwutil/h/IwUtil.h'
p1419
(lp1420
I1
ag1329
asS'c:/marmalade/7.4/modules/iwutil/h/IwPath.h'
p1421
(lp1422
I1
ag1329
asS'c:/marmalade/7.4/modules/iwutil/h/IwMemManagerDL.h'
p1423
(lp1424
I1
ag1329
asS'c:/marmalade/7.4/modules/iwutil/h/IwDivTable.h'
p1425
(lp1426
I1
ag1329
asS'c:/marmalade/7.4/modules/iwutil/h/IwOptimiseSize.h'
p1427
(lp1428
I1
ag1329
asssS'(zlib)'
p1429
(dp1430
g1027
(dp1431
S'c:/marmalade/7.4/modules/third_party/zlib/h/zconf.h'
p1432
(lp1433
I1
a(dp1434
asS'c:/marmalade/7.4/modules/third_party/zlib/h/zlib.h'
p1435
(lp1436
I1
ag1434
assS'c:/marmalade/7.4/modules/third_party/zlib/zlib.mkf'
p1437
(lp1438
I1
a(dp1439
assS'(iwtween)'
p1440
(dp1441
S'c:/marmalade/7.4/modules/iwtween/source/IwTween.cpp'
p1442
(lp1443
I1
a(dp1444
asS'c:/marmalade/7.4/modules/iwtween/h/IwTween.h'
p1445
(lp1446
I1
ag1444
asS'c:/marmalade/7.4/modules/iwtween/iwtween.mkf'
p1447
(lp1448
I1
a(dp1449
asssS'files'
p1450
(dp1451
S'IwGxFontPreparedData.h'
p1452
g303
(cmkb_main
File
p1453
g305
Ntp1454
Rp1455
(dp1456
S'flags'
p1457
g1143
sS'group'
p1458
(lp1459
S"'Marmalade Studio'"
p1460
ag1139
asg329
g1152
sbsS'iterator'
p1461
g303
(g1453
g305
Ntp1462
Rp1463
(dp1464
g1457
(dp1465
sg1458
(lp1466
S"'Marmalade System (S3E)'"
p1467
aS'stdc headers'
p1468
aS'c++'
p1469
asg329
S'c:/marmalade/7.4/s3e/h/std/c++/iterator'
p1470
sbsS'IwGL.h'
p1471
g303
(g1453
g305
Ntp1472
Rp1473
(dp1474
g1457
g1122
sg1458
(lp1475
S"'Marmalade Studio'"
p1476
ag1115
asg329
g1123
sbsS's3e.h'
p1477
g303
(g1453
g305
Ntp1478
Rp1479
(dp1480
g1457
g1465
sg1458
(lp1481
g1467
asg329
S'c:/marmalade/7.4/s3e/h/s3e.h'
p1482
sbsS'errno.h'
p1483
g303
(g1453
g305
Ntp1484
Rp1485
(dp1486
g1457
g1465
sg1458
(lp1487
g1467
aS'stdc headers'
p1488
asg329
S'c:/marmalade/7.4/s3e/h/std/errno.h'
p1489
sbsS'IwSingleton.h'
p1490
g303
(g1453
g305
Ntp1491
Rp1492
(dp1493
g1457
g1329
sg1458
(lp1494
S"'Marmalade Studio'"
p1495
ag1325
asg329
g1413
sbsS'dlfcn.h'
p1496
g303
(g1453
g305
Ntp1497
Rp1498
(dp1499
g1457
g1465
sg1458
g1487
sg329
S'c:/marmalade/7.4/s3e/h/std/dlfcn.h'
p1500
sbsS'stdio_streambuf'
p1501
g303
(g1453
g305
Ntp1502
Rp1503
(dp1504
g1457
g1465
sg1458
g1466
sg329
S'c:/marmalade/7.4/s3e/h/std/c++/stdio_streambuf'
p1505
sbsS'sched.h'
p1506
g303
(g1453
g305
Ntp1507
Rp1508
(dp1509
g1457
g1465
sg1458
g1487
sg329
S'c:/marmalade/7.4/s3e/h/std/sched.h'
p1510
sbsS'IwGeomFMat2D.h'
p1511
g303
(g1453
g305
Ntp1512
Rp1513
(dp1514
g1457
g1165
sg1458
(lp1515
S"'Marmalade Studio'"
p1516
ag1161
asg329
g1181
sbsS's3eExt.h'
p1517
g303
(g1453
g305
Ntp1518
Rp1519
(dp1520
g1457
g1465
sg1458
g1481
sg329
S'c:/marmalade/7.4/s3e/h/s3eExt.h'
p1521
sbsS'grp.h'
p1522
g303
(g1453
g305
Ntp1523
Rp1524
(dp1525
g1457
g1465
sg1458
g1487
sg329
S'c:/marmalade/7.4/s3e/h/std/grp.h'
p1526
sbsS'list'
p1527
g303
(g1453
g305
Ntp1528
Rp1529
(dp1530
g1457
g1465
sg1458
g1466
sg329
S'c:/marmalade/7.4/s3e/h/std/c++/list'
p1531
sbsS'FinalYearProject.cpp'
p1532
g303
(g1453
g305
Ntp1533
Rp1534
(dp1535
g1457
g1100
sg1458
(lp1536
sg329
g1098
sbsS'IwGeomMat.h.tpl'
p1537
g303
(g1453
g305
Ntp1538
Rp1539
(dp1540
g1457
g1165
sg1458
g1515
sg329
g1229
sbsS'istream'
p1541
g303
(g1453
g305
Ntp1542
Rp1543
(dp1544
g1457
g1465
sg1458
g1466
sg329
S'c:/marmalade/7.4/s3e/h/std/c++/istream'
p1545
sbsS'jpeglib.h'
p1546
g303
(g1453
g305
Ntp1547
Rp1548
(dp1549
g1457
g1042
sg1458
(lp1550
g1037
ag1027
asg329
g1047
sbsS'iw2d_public.defines.txt'
p1551
g303
(g1453
g305
Ntp1552
Rp1553
(dp1554
g1457
g1131
sg1458
(lp1555
S"'Marmalade Studio'"
p1556
ag1127
asg329
g1132
sbsS'iostream.h'
p1557
g303
(g1453
g305
Ntp1558
Rp1559
(dp1560
g1457
g1465
sg1458
g1466
sg329
S'c:/marmalade/7.4/s3e/h/std/c++/iostream.h'
p1561
sbsS'string'
p1562
g303
(g1453
g305
Ntp1563
Rp1564
(dp1565
g1457
g1465
sg1458
g1466
sg329
S'c:/marmalade/7.4/s3e/h/std/c++/string'
p1566
sbsS'IwMemory.h'
p1567
g303
(g1453
g305
Ntp1568
Rp1569
(dp1570
g1457
g1329
sg1458
g1494
sg329
g1368
sbsS'IwGeomPlane.h'
p1571
g303
(g1453
g305
Ntp1572
Rp1573
(dp1574
g1457
g1165
sg1458
g1515
sg329
g1195
sbsS'iw2d.config.txt'
p1575
g303
(g1453
g305
Ntp1576
Rp1577
(dp1578
g1457
g1131
sg1458
g1555
sg329
g1129
sbsS'iomanip'
p1579
g303
(g1453
g305
Ntp1580
Rp1581
(dp1582
g1457
g1465
sg1458
g1466
sg329
S'c:/marmalade/7.4/s3e/h/std/c++/iomanip'
p1583
sbsS'iwgeom.mkf'
p1584
g303
(g1453
g305
Ntp1585
Rp1586
(dp1587
g1457
g1172
sg1458
g1515
sg329
g1170
sbsS'IwGxError.h'
p1588
g303
(g1453
g305
Ntp1589
Rp1590
(dp1591
g1457
g1265
sg1458
(lp1592
S"'Marmalade Studio'"
p1593
ag1261
asg329
g1298
sbsS'IwGeom.h'
p1594
g303
(g1453
g305
Ntp1595
Rp1596
(dp1597
g1457
g1165
sg1458
g1515
sg329
g1227
sbsS'IwGeomVec4.h'
p1598
g303
(g1453
g305
Ntp1599
Rp1600
(dp1601
g1457
g1165
sg1458
g1515
sg329
g1213
sbsS'dir.h'
p1602
g303
(g1453
g305
Ntp1603
Rp1604
(dp1605
g1457
g1465
sg1458
(lp1606
g1467
aS'stdc headers'
p1607
aS'sys'
p1608
asg329
S'c:/marmalade/7.4/s3e/h/std/sys/dir.h'
p1609
sbsS'locale.h'
p1610
g303
(g1453
g305
Ntp1611
Rp1612
(dp1613
g1457
g1465
sg1458
g1487
sg329
S'c:/marmalade/7.4/s3e/h/std/locale.h'
p1614
sbsS'vector'
p1615
g303
(g1453
g305
Ntp1616
Rp1617
(dp1618
g1457
g1465
sg1458
g1466
sg329
S'c:/marmalade/7.4/s3e/h/std/c++/vector'
p1619
sbsS'IwManaged.h'
p1620
g303
(g1453
g305
Ntp1621
Rp1622
(dp1623
g1457
g1329
sg1458
g1494
sg329
g1350
sbsS's3eCompass.h'
p1624
g303
(g1453
g305
Ntp1625
Rp1626
(dp1627
g1457
g1465
sg1458
g1481
sg329
S'c:/marmalade/7.4/s3e/h/s3eCompass.h'
p1628
sbsS'cderror.h'
p1629
g303
(g1453
g305
Ntp1630
Rp1631
(dp1632
g1457
g1042
sg1458
g1550
sg329
g1055
sbsS'climits'
p1633
g303
(g1453
g305
Ntp1634
Rp1635
(dp1636
g1457
g1465
sg1458
g1466
sg329
S'c:/marmalade/7.4/s3e/h/std/c++/climits'
p1637
sbsS's3eVibra.h'
p1638
g303
(g1453
g305
Ntp1639
Rp1640
(dp1641
g1457
g1465
sg1458
g1481
sg329
S'c:/marmalade/7.4/s3e/h/s3eVibra.h'
p1642
sbsS'jversion.h'
p1643
g303
(g1453
g305
Ntp1644
Rp1645
(dp1646
g1457
g1042
sg1458
g1550
sg329
g1059
sbsS'fnmatch.h'
p1647
g303
(g1453
g305
Ntp1648
Rp1649
(dp1650
g1457
g1465
sg1458
g1487
sg329
S'c:/marmalade/7.4/s3e/h/std/fnmatch.h'
p1651
sbsS'IwGxState.h'
p1652
g303
(g1453
g305
Ntp1653
Rp1654
(dp1655
g1457
g1265
sg1458
g1592
sg329
g1280
sbsS's3eAudio.h'
p1656
g303
(g1453
g305
Ntp1657
Rp1658
(dp1659
g1457
g1465
sg1458
g1481
sg329
S'c:/marmalade/7.4/s3e/h/s3eAudio.h'
p1660
sbsS's3eSurface.h'
p1661
g303
(g1453
g305
Ntp1662
Rp1663
(dp1664
g1457
g1465
sg1458
g1481
sg329
S'c:/marmalade/7.4/s3e/h/s3eSurface.h'
p1665
sbsS'new'
p1666
g303
(g1453
g305
Ntp1667
Rp1668
(dp1669
g1457
g1465
sg1458
g1466
sg329
S'c:/marmalade/7.4/s3e/h/std/c++/new'
p1670
sbsS's3eWindow.h'
p1671
g303
(g1453
g305
Ntp1672
Rp1673
(dp1674
g1457
g1465
sg1458
(lp1675
g1467
aS'Extensions'
p1676
asg329
S'c:/marmalade/7.4/s3e/h/ext/s3eWindow.h'
p1677
sbsS'IwBuffer.h'
p1678
g303
(g1453
g305
Ntp1679
Rp1680
(dp1681
g1457
g1329
sg1458
g1494
sg329
g1340
sbsS'IwGeomQuat.h.tpl'
p1682
g303
(g1453
g305
Ntp1683
Rp1684
(dp1685
g1457
g1165
sg1458
g1515
sg329
g1197
sbsS's3eOSExec.h'
p1686
g303
(g1453
g305
Ntp1687
Rp1688
(dp1689
g1457
g1465
sg1458
g1675
sg329
S'c:/marmalade/7.4/s3e/h/ext/s3eOSExec.h'
p1690
sbsS'IwGxTransformSW.h'
p1691
g303
(g1453
g305
Ntp1692
Rp1693
(dp1694
g1457
g1265
sg1458
g1592
sg329
g1302
sbsS'IwGxMetrics.h'
p1695
g303
(g1453
g305
Ntp1696
Rp1697
(dp1698
g1457
g1265
sg1458
g1592
sg329
g1296
sbsS'iwgxfont.config.txt'
p1699
g303
(g1453
g305
Ntp1700
Rp1701
(dp1702
g1457
g1143
sg1458
g1459
sg329
g1146
sbsS'gl2platform.h'
p1703
g303
(g1453
g305
Ntp1704
Rp1705
(dp1706
g1457
g1465
sg1458
(lp1707
g1467
aS'GL'
p1708
aS'GLES 2.0'
p1709
asg329
S'c:/marmalade/7.4/s3e/h/GLES2/gl2platform.h'
p1710
sbsS'iw2dscenegraph.defines.txt'
p1711
g303
(g1453
g305
Ntp1712
Rp1713
(dp1714
g1457
g1107
sg1458
(lp1715
S"'Marmalade Studio'"
p1716
ag1103
asg329
g1105
sbsS'queue'
p1717
g303
(g1453
g305
Ntp1718
Rp1719
(dp1720
g1457
g1465
sg1458
g1466
sg329
S'c:/marmalade/7.4/s3e/h/std/c++/queue'
p1721
sbsS'time_1.h'
p1722
g303
(g1453
g305
Ntp1723
Rp1724
(dp1725
g1457
g1465
sg1458
g1606
sg329
S'c:/marmalade/7.4/s3e/h/std/sys/time.h'
p1726
sbsS'Iw2D.h'
p1727
g303
(g1453
g305
Ntp1728
Rp1729
(dp1730
g1457
g1131
sg1458
g1555
sg329
g1134
sbsS'IwGeomVec2.h'
p1731
g303
(g1453
g305
Ntp1732
Rp1733
(dp1734
g1457
g1165
sg1458
g1515
sg329
g1205
sbsS's3eDevice.h'
p1735
g303
(g1453
g305
Ntp1736
Rp1737
(dp1738
g1457
g1465
sg1458
g1481
sg329
S'c:/marmalade/7.4/s3e/h/s3eDevice.h'
p1739
sbsS'malloc.h'
p1740
g303
(g1453
g305
Ntp1741
Rp1742
(dp1743
g1457
g1465
sg1458
g1487
sg329
S'c:/marmalade/7.4/s3e/h/std/malloc.h'
p1744
sbsS'stdarg.h'
p1745
g303
(g1453
g305
Ntp1746
Rp1747
(dp1748
g1457
g1465
sg1458
g1487
sg329
S'c:/marmalade/7.4/s3e/h/std/stdarg.h'
p1749
sbsS'IwGeomCore.h'
p1750
g303
(g1453
g305
Ntp1751
Rp1752
(dp1753
g1457
g1165
sg1458
g1515
sg329
g1211
sbsS'Iw2DSceneGraph.h'
p1754
g303
(g1453
g305
Ntp1755
Rp1756
(dp1757
g1457
g1107
sg1458
g1715
sg329
g1113
sbsS'endian.h'
p1758
g303
(g1453
g305
Ntp1759
Rp1760
(dp1761
g1457
g1465
sg1458
g1487
sg329
S'c:/marmalade/7.4/s3e/h/std/endian.h'
p1762
sbsS'gl3ext.h'
p1763
g303
(g1453
g305
Ntp1764
Rp1765
(dp1766
g1457
g1465
sg1458
(lp1767
g1467
aS'GL'
p1768
aS'GLES 3.0'
p1769
asg329
S'c:/marmalade/7.4/s3e/h/GLES3/gl3ext.h'
p1770
sbsS'glob.h'
p1771
g303
(g1453
g305
Ntp1772
Rp1773
(dp1774
g1457
g1465
sg1458
g1487
sg329
S'c:/marmalade/7.4/s3e/h/std/glob.h'
p1775
sbsS'fstream'
p1776
g303
(g1453
g305
Ntp1777
Rp1778
(dp1779
g1457
g1465
sg1458
g1466
sg329
S'c:/marmalade/7.4/s3e/h/std/c++/fstream'
p1780
sbsS's3eCamera.h'
p1781
g303
(g1453
g305
Ntp1782
Rp1783
(dp1784
g1457
g1465
sg1458
g1481
sg329
S'c:/marmalade/7.4/s3e/h/s3eCamera.h'
p1785
sbsS'jconfig.h'
p1786
g303
(g1453
g305
Ntp1787
Rp1788
(dp1789
g1457
g1042
sg1458
g1550
sg329
g1053
sbsS'memory'
p1790
g303
(g1453
g305
Ntp1791
Rp1792
(dp1793
g1457
g1465
sg1458
g1466
sg329
S'c:/marmalade/7.4/s3e/h/std/c++/memory'
p1794
sbsS'egl.h'
p1795
g303
(g1453
g305
Ntp1796
Rp1797
(dp1798
g1457
g1465
sg1458
(lp1799
g1467
aS'GL'
p1800
aS'EGL'
p1801
asg329
S'c:/marmalade/7.4/s3e/h/EGL/egl.h'
p1802
sbsS'IwClip.inl'
p1803
g303
(g1453
g305
Ntp1804
Rp1805
(dp1806
g1457
g1265
sg1458
g1592
sg329
g1268
sbsS'IwMemManagerDL.h'
p1807
g303
(g1453
g305
Ntp1808
Rp1809
(dp1810
g1457
g1329
sg1458
g1494
sg329
g1423
sbsS'deque'
p1811
g303
(g1453
g305
Ntp1812
Rp1813
(dp1814
g1457
g1465
sg1458
g1466
sg329
S'c:/marmalade/7.4/s3e/h/std/c++/deque'
p1815
sbsS'IwString.h'
p1816
g303
(g1453
g305
Ntp1817
Rp1818
(dp1819
g1457
g1329
sg1458
g1494
sg329
g1406
sbsS'cwchar'
p1820
g303
(g1453
g305
Ntp1821
Rp1822
(dp1823
g1457
g1465
sg1458
g1466
sg329
S'c:/marmalade/7.4/s3e/h/std/c++/cwchar'
p1824
sbsS'iwutil.mkf'
p1825
g303
(g1453
g305
Ntp1826
Rp1827
(dp1828
g1457
g1412
sg1458
g1494
sg329
g1410
sbsS'csignal'
p1829
g303
(g1453
g305
Ntp1830
Rp1831
(dp1832
g1457
g1465
sg1458
g1466
sg329
S'c:/marmalade/7.4/s3e/h/std/c++/csignal'
p1833
sbsS'float.h'
p1834
g303
(g1453
g305
Ntp1835
Rp1836
(dp1837
g1457
g1465
sg1458
g1487
sg329
S'c:/marmalade/7.4/s3e/h/std/float.h'
p1838
sbsS'pthread_alloc'
p1839
g303
(g1453
g305
Ntp1840
Rp1841
(dp1842
g1457
g1465
sg1458
g1466
sg329
S'c:/marmalade/7.4/s3e/h/std/c++/pthread_alloc'
p1843
sbsS'getopt.h'
p1844
g303
(g1453
g305
Ntp1845
Rp1846
(dp1847
g1457
g1465
sg1458
g1487
sg329
S'c:/marmalade/7.4/s3e/h/std/getopt.h'
p1848
sbsS'IwOptimiseARM.h'
p1849
g303
(g1453
g305
Ntp1850
Rp1851
(dp1852
g1457
g1329
sg1458
g1494
sg329
g1382
sbsS'times.h'
p1853
g303
(g1453
g305
Ntp1854
Rp1855
(dp1856
g1457
g1465
sg1458
g1606
sg329
S'c:/marmalade/7.4/s3e/h/std/sys/times.h'
p1857
sbsS'IwGeomFSphere.h'
p1858
g303
(g1453
g305
Ntp1859
Rp1860
(dp1861
g1457
g1165
sg1458
g1515
sg329
g1175
sbsS'IwTypes.h'
p1862
g303
(g1453
g305
Ntp1863
Rp1864
(dp1865
g1457
g1329
sg1458
g1494
sg329
g1364
sbsS'unistd.h'
p1866
g303
(g1453
g305
Ntp1867
Rp1868
(dp1869
g1457
g1465
sg1458
g1487
sg329
S'c:/marmalade/7.4/s3e/h/std/unistd.h'
p1870
sbsS's3eCompression.h'
p1871
g303
(g1453
g305
Ntp1872
Rp1873
(dp1874
g1457
g1465
sg1458
g1481
sg329
S'c:/marmalade/7.4/s3e/h/s3eCompression.h'
p1875
sbsS'langinfo.h'
p1876
g303
(g1453
g305
Ntp1877
Rp1878
(dp1879
g1457
g1465
sg1458
g1487
sg329
S'c:/marmalade/7.4/s3e/h/std/langinfo.h'
p1880
sbsS's3edebugHeap.h'
p1881
g303
(g1453
g305
Ntp1882
Rp1883
(dp1884
g1457
g1465
sg1458
g1675
sg329
S'c:/marmalade/7.4/s3e/h/ext/s3edebugHeap.h'
p1885
sbsS'AirplayVersion.h'
p1886
g303
(g1453
g305
Ntp1887
Rp1888
(dp1889
g1457
g1465
sg1458
g1481
sg329
S'c:/marmalade/7.4/s3e/h/AirplayVersion.h'
p1890
sbsS'gl2extimg.h'
p1891
g303
(g1453
g305
Ntp1892
Rp1893
(dp1894
g1457
g1465
sg1458
g1707
sg329
S'c:/marmalade/7.4/s3e/h/GLES2/gl2extimg.h'
p1895
sbsS'app.config.txt'
p1896
g303
(g1453
g305
Ntp1897
Rp1898
(dp1899
g1457
(dp1900
sg1458
g4
sg329
S'c:/Users/lab422/Desktop/FYP/Learning Resources/Sprint 1 Minimal Example/FinalYearProject/data/app.config.txt'
p1901
sbsS'IwGeomSqrt.h'
p1902
g303
(g1453
g305
Ntp1903
Rp1904
(dp1905
g1457
g1165
sg1458
g1515
sg329
g1235
sbsS'tiniconv_int.h'
p1906
g303
(g1453
g305
Ntp1907
Rp1908
(dp1909
g1457
g1076
sg1458
(lp1910
g1072
asg329
g1074
sbsS'syslog.h'
p1911
g303
(g1453
g305
Ntp1912
Rp1913
(dp1914
g1457
g1465
sg1458
g1487
sg329
S'c:/marmalade/7.4/s3e/h/std/syslog.h'
p1915
sbsS'IwGxFontTypes.h'
p1916
g303
(g1453
g305
Ntp1917
Rp1918
(dp1919
g1457
g1143
sg1458
g1459
sg329
g1150
sbsS'IwGeomFIntersect.h'
p1920
g303
(g1453
g305
Ntp1921
Rp1922
(dp1923
g1457
g1165
sg1458
g1515
sg329
g1166
sbsS'hash_map'
p1924
g303
(g1453
g305
Ntp1925
Rp1926
(dp1927
g1457
g1465
sg1458
g1466
sg329
S'c:/marmalade/7.4/s3e/h/std/c++/hash_map'
p1928
sbsS's3e.mkf'
p1929
g303
(g1453
g305
Ntp1930
Rp1931
(dp1932
g1457
(dp1933
sg1458
g1481
sg329
S'c:/marmalade/7.4/s3e/s3e.mkf'
p1934
sbsS'IwGeomMat2D.h.tpl'
p1935
g303
(g1453
g305
Ntp1936
Rp1937
(dp1938
g1457
g1165
sg1458
g1515
sg329
g1168
sbsS's3eOSReadString.h'
p1939
g303
(g1453
g305
Ntp1940
Rp1941
(dp1942
g1457
g1465
sg1458
g1675
sg329
S'c:/marmalade/7.4/s3e/h/ext/s3eOSReadString.h'
p1943
sbsS'map'
p1944
g303
(g1453
g305
Ntp1945
Rp1946
(dp1947
g1457
g1465
sg1458
g1466
sg329
S'c:/marmalade/7.4/s3e/h/std/c++/map'
p1948
sbsS'iwtween.mkf'
p1949
g303
(g1453
g305
Ntp1950
Rp1951
(dp1952
g1457
g1449
sg1458
(lp1953
g1440
asg329
g1447
sbsS'IwOptimiseSpeed.h'
p1954
g303
(g1453
g305
Ntp1955
Rp1956
(dp1957
g1457
g1329
sg1458
g1494
sg329
g1392
sbsS'msl_string.h'
p1958
g303
(g1453
g305
Ntp1959
Rp1960
(dp1961
g1457
g1465
sg1458
g1466
sg329
S'c:/marmalade/7.4/s3e/h/std/c++/msl_string.h'
p1962
sbsS'select.h'
p1963
g303
(g1453
g305
Ntp1964
Rp1965
(dp1966
g1457
g1465
sg1458
g1606
sg329
S'c:/marmalade/7.4/s3e/h/std/sys/select.h'
p1967
sbsS'zlib.mkf'
p1968
g303
(g1453
g305
Ntp1969
Rp1970
(dp1971
g1457
g1439
sg1458
(lp1972
g1429
asg329
g1437
sbsS'signal.h'
p1973
g303
(g1453
g305
Ntp1974
Rp1975
(dp1976
g1457
g1465
sg1458
g1487
sg329
S'c:/marmalade/7.4/s3e/h/std/signal.h'
p1977
sbsS'sigcontext.h'
p1978
g303
(g1453
g305
Ntp1979
Rp1980
(dp1981
g1457
g1465
sg1458
g1487
sg329
S'c:/marmalade/7.4/s3e/h/std/sigcontext.h'
p1982
sbsS'libpng.mkf'
p1983
g303
(g1453
g305
Ntp1984
Rp1985
(dp1986
g1457
g1036
sg1458
(lp1987
g1025
asg329
g1034
sbsS's3eClipboard.h'
p1988
g303
(g1453
g305
Ntp1989
Rp1990
(dp1991
g1457
g1465
sg1458
g1481
sg329
S'c:/marmalade/7.4/s3e/h/s3eClipboard.h'
p1992
sbsS'IwGxFuncTable.h'
p1993
g303
(g1453
g305
Ntp1994
Rp1995
(dp1996
g1457
g1265
sg1458
g1592
sg329
g1266
sbsS'IwResHandlerGROUP.h'
p1997
g303
(g1453
g305
Ntp1998
Rp1999
(dp2000
g1457
g1241
sg1458
(lp2001
g1101
ag1237
asg329
g1248
sbsS's3eDebug.h'
p2002
g303
(g1453
g305
Ntp2003
Rp2004
(dp2005
g1457
g1465
sg1458
g1481
sg329
S'c:/marmalade/7.4/s3e/h/s3eDebug.h'
p2006
sbsS'socket.h'
p2007
g303
(g1453
g305
Ntp2008
Rp2009
(dp2010
g1457
g1465
sg1458
g1606
sg329
S'c:/marmalade/7.4/s3e/h/std/sys/socket.h'
p2011
sbsS'glext.h'
p2012
g303
(g1453
g305
Ntp2013
Rp2014
(dp2015
g1457
g1465
sg1458
(lp2016
g1467
aS'GL'
p2017
aS'GLES 1.x'
p2018
asg329
S'c:/marmalade/7.4/s3e/h/GLES/glext.h'
p2019
sbsS'typeinfo.h'
p2020
g303
(g1453
g305
Ntp2021
Rp2022
(dp2023
g1457
g1465
sg1458
g1466
sg329
S'c:/marmalade/7.4/s3e/h/std/c++/typeinfo.h'
p2024
sbsS'typeinfo'
p2025
g303
(g1453
g305
Ntp2026
Rp2027
(dp2028
g1457
g1465
sg1458
g1466
sg329
S'c:/marmalade/7.4/s3e/h/std/c++/typeinfo'
p2029
sbsS'fstream.h'
p2030
g303
(g1453
g305
Ntp2031
Rp2032
(dp2033
g1457
g1465
sg1458
g1466
sg329
S'c:/marmalade/7.4/s3e/h/std/c++/fstream.h'
p2034
sbsS's3ePointer.h'
p2035
g303
(g1453
g305
Ntp2036
Rp2037
(dp2038
g1457
g1465
sg1458
g1481
sg329
S'c:/marmalade/7.4/s3e/h/s3ePointer.h'
p2039
sbsS'IwMemBucket.h'
p2040
g303
(g1453
g305
Ntp2041
Rp2042
(dp2043
g1457
g1329
sg1458
g1494
sg329
g1388
sbsS'PVRTexTool.h'
p2044
g303
(g1453
g305
Ntp2045
Rp2046
(dp2047
g1457
g1090
sg1458
(lp2048
g1082
ag1084
asg329
g1096
sbsS's3eGL.h'
p2049
g303
(g1453
g305
Ntp2050
Rp2051
(dp2052
g1457
g1465
sg1458
g1481
sg329
S'c:/marmalade/7.4/s3e/h/s3eGL.h'
p2053
sbsS'IwGeomFVec2.h'
p2054
g303
(g1453
g305
Ntp2055
Rp2056
(dp2057
g1457
g1165
sg1458
g1515
sg329
g1191
sbsS'IwGeomSVec4.h'
p2058
g303
(g1453
g305
Ntp2059
Rp2060
(dp2061
g1457
g1165
sg1458
g1515
sg329
g1189
sbsS'poll.h'
p2062
g303
(g1453
g305
Ntp2063
Rp2064
(dp2065
g1457
g1465
sg1458
g1487
sg329
S'c:/marmalade/7.4/s3e/h/std/poll.h'
p2066
sbsS'IwMatAnim.h'
p2067
g303
(g1453
g305
Ntp2068
Rp2069
(dp2070
g1457
g1265
sg1458
g1592
sg329
g1290
sbsS'PVRTexTool.defines.txt'
p2071
g303
(g1453
g305
Ntp2072
Rp2073
(dp2074
g1457
g1090
sg1458
(lp2075
g1082
ag1084
ag1086
asg329
g1091
sbsS'IwGx.h'
p2076
g303
(g1453
g305
Ntp2077
Rp2078
(dp2079
g1457
g1265
sg1458
g1592
sg329
g1272
sbsS'valarray'
p2080
g303
(g1453
g305
Ntp2081
Rp2082
(dp2083
g1457
g1465
sg1458
g1466
sg329
S'c:/marmalade/7.4/s3e/h/std/c++/valarray'
p2084
sbsS'iosfwd'
p2085
g303
(g1453
g305
Ntp2086
Rp2087
(dp2088
g1457
g1465
sg1458
g1466
sg329
S'c:/marmalade/7.4/s3e/h/std/c++/iosfwd'
p2089
sbsS'gl2.h'
p2090
g303
(g1453
g305
Ntp2091
Rp2092
(dp2093
g1457
g1465
sg1458
g1707
sg329
S'c:/marmalade/7.4/s3e/h/GLES2/gl2.h'
p2094
sbsS'jpegint.h'
p2095
g303
(g1453
g305
Ntp2096
Rp2097
(dp2098
g1457
g1042
sg1458
g1550
sg329
g1065
sbsS'stdiostream.h'
p2099
g303
(g1453
g305
Ntp2100
Rp2101
(dp2102
g1457
g1465
sg1458
g1466
sg329
S'c:/marmalade/7.4/s3e/h/std/c++/stdiostream.h'
p2103
sbsS'mem.h'
p2104
g303
(g1453
g305
Ntp2105
Rp2106
(dp2107
g1457
g1465
sg1458
g1466
sg329
S'c:/marmalade/7.4/s3e/h/std/c++/mem.h'
p2108
sbsS'jerror.h'
p2109
g303
(g1453
g305
Ntp2110
Rp2111
(dp2112
g1457
g1042
sg1458
g1550
sg329
g1040
sbsS'zconf.h'
p2113
g303
(g1453
g305
Ntp2114
Rp2115
(dp2116
g1457
g1434
sg1458
(lp2117
g1429
ag1027
asg329
g1432
sbsS's3e.config.txt'
p2118
g303
(g1453
g305
Ntp2119
Rp2120
(dp2121
g1457
g1465
sg1458
g1481
sg329
S'c:/marmalade/7.4/s3e/s3e.config.txt'
p2122
sbsS'numeric'
p2123
g303
(g1453
g305
Ntp2124
Rp2125
(dp2126
g1457
g1465
sg1458
g1466
sg329
S'c:/marmalade/7.4/s3e/h/std/c++/numeric'
p2127
sbsS'utime.h'
p2128
g303
(g1453
g305
Ntp2129
Rp2130
(dp2131
g1457
g1465
sg1458
g1487
sg329
S'c:/marmalade/7.4/s3e/h/std/utime.h'
p2132
sbsS'jdhuff.h'
p2133
g303
(g1453
g305
Ntp2134
Rp2135
(dp2136
g1457
g1042
sg1458
g1550
sg329
g1063
sbsS'IwGxStream.h'
p2137
g303
(g1453
g305
Ntp2138
Rp2139
(dp2140
g1457
g1265
sg1458
g1592
sg329
g1292
sbsS'IwImage.h'
p2141
g303
(g1453
g305
Ntp2142
Rp2143
(dp2144
g1457
g1329
sg1458
g1494
sg329
g1384
sbsS's3eImagePicker.h'
p2145
g303
(g1453
g305
Ntp2146
Rp2147
(dp2148
g1457
g1465
sg1458
g1675
sg329
S'c:/marmalade/7.4/s3e/h/ext/s3eImagePicker.h'
p2149
sbsS'IwTextParserITX.h'
p2150
g303
(g1453
g305
Ntp2151
Rp2152
(dp2153
g1457
g1329
sg1458
g1494
sg329
g1348
sbsS'stdlib.h'
p2154
g303
(g1453
g305
Ntp2155
Rp2156
(dp2157
g1457
g1465
sg1458
g1487
sg329
S'c:/marmalade/7.4/s3e/h/std/stdlib.h'
p2158
sbsS'IwCopyingPtr.h'
p2159
g303
(g1453
g305
Ntp2160
Rp2161
(dp2162
g1457
g1329
sg1458
g1494
sg329
g1334
sbsS'iostream'
p2163
g303
(g1453
g305
Ntp2164
Rp2165
(dp2166
g1457
g1465
sg1458
g1466
sg329
S'c:/marmalade/7.4/s3e/h/std/c++/iostream'
p2167
sbsS'png.h'
p2168
g303
(g1453
g305
Ntp2169
Rp2170
(dp2171
g1457
g1031
sg1458
(lp2172
g1025
ag1027
asg329
g1029
sbsS'stddef.h'
p2173
g303
(g1453
g305
Ntp2174
Rp2175
(dp2176
g1457
g1465
sg1458
g1487
sg329
S'c:/marmalade/7.4/s3e/h/std/stddef.h'
p2177
sbsS'setjmp_win32.h'
p2178
g303
(g1453
g305
Ntp2179
Rp2180
(dp2181
g1457
g1465
sg1458
g1487
sg329
S'c:/marmalade/7.4/s3e/h/std/setjmp_win32.h'
p2182
sbsS'IwGxPrint.h'
p2183
g303
(g1453
g305
Ntp2184
Rp2185
(dp2186
g1457
g1265
sg1458
g1592
sg329
g1270
sbsS'iwgx_public.defines.txt'
p2187
g303
(g1453
g305
Ntp2188
Rp2189
(dp2190
g1457
g1265
sg1458
g1592
sg329
g1307
sbsS'streambuf.h'
p2191
g303
(g1453
g305
Ntp2192
Rp2193
(dp2194
g1457
g1465
sg1458
g1466
sg329
S'c:/marmalade/7.4/s3e/h/std/c++/streambuf.h'
p2195
sbsS'IwGeomFPlane.h'
p2196
g303
(g1453
g305
Ntp2197
Rp2198
(dp2199
g1457
g1165
sg1458
g1515
sg329
g1231
sbsS'wchar.h'
p2200
g303
(g1453
g305
Ntp2201
Rp2202
(dp2203
g1457
g1465
sg1458
g1487
sg329
S'c:/marmalade/7.4/s3e/h/std/wchar.h'
p2204
sbsS's3eCameraCapture.h'
p2205
g303
(g1453
g305
Ntp2206
Rp2207
(dp2208
g1457
g1465
sg1458
g1675
sg329
S'c:/marmalade/7.4/s3e/h/ext/s3eCameraCapture.h'
p2209
sbsS'eglext.h'
p2210
g303
(g1453
g305
Ntp2211
Rp2212
(dp2213
g1457
g1465
sg1458
g1799
sg329
S'c:/marmalade/7.4/s3e/h/EGL/eglext.h'
p2214
sbsS'IwResHandlerImage.h'
p2215
g303
(g1453
g305
Ntp2216
Rp2217
(dp2218
g1457
g1241
sg1458
g2001
sg329
g1253
sbsS'strstream.h'
p2219
g303
(g1453
g305
Ntp2220
Rp2221
(dp2222
g1457
g1465
sg1458
g1466
sg329
S'c:/marmalade/7.4/s3e/h/std/c++/strstream.h'
p2223
sbsS'tiniconv.h'
p2224
g303
(g1453
g305
Ntp2225
Rp2226
(dp2227
g1457
g1076
sg1458
g1910
sg329
g1080
sbsS'IwGLExt.h'
p2228
g303
(g1453
g305
Ntp2229
Rp2230
(dp2231
g1457
g1122
sg1458
g1475
sg329
g1125
sbsS'app.icf'
p2232
g303
(g1453
g305
Ntp2233
Rp2234
(dp2235
g1457
(dp2236
sg1458
g4
sg329
S'c:/Users/lab422/Desktop/FYP/Learning Resources/Sprint 1 Minimal Example/FinalYearProject/data/app.icf'
p2237
sbsS'IwClassFactory.h'
p2238
g303
(g1453
g305
Ntp2239
Rp2240
(dp2241
g1457
g1329
sg1458
g1494
sg329
g1362
sbsS'file.h'
p2242
g303
(g1453
g305
Ntp2243
Rp2244
(dp2245
g1457
g1465
sg1458
g1606
sg329
S'c:/marmalade/7.4/s3e/h/std/sys/file.h'
p2246
sbsS'cstring'
p2247
g303
(g1453
g305
Ntp2248
Rp2249
(dp2250
g1457
g1465
sg1458
g1466
sg329
S'c:/marmalade/7.4/s3e/h/std/c++/cstring'
p2251
sbsS'iwutil.config.txt'
p2252
g303
(g1453
g305
Ntp2253
Rp2254
(dp2255
g1457
g1329
sg1458
g1494
sg329
g1396
sbsS's3eSMS.h'
p2256
g303
(g1453
g305
Ntp2257
Rp2258
(dp2259
g1457
g1465
sg1458
g1675
sg329
S'c:/marmalade/7.4/s3e/h/ext/s3eSMS.h'
p2260
sbsS'limits.h'
p2261
g303
(g1453
g305
Ntp2262
Rp2263
(dp2264
g1457
g1465
sg1458
g1487
sg329
S'c:/marmalade/7.4/s3e/h/std/limits.h'
p2265
sbsS'iwgl.config.txt'
p2266
g303
(g1453
g305
Ntp2267
Rp2268
(dp2269
g1457
g1122
sg1458
g1475
sg329
g1120
sbsS'IwMaterial.h'
p2270
g303
(g1453
g305
Ntp2271
Rp2272
(dp2273
g1457
g1265
sg1458
g1592
sg329
g1286
sbsS'PVRTexTool_interface.cpp'
p2274
g303
(g1453
g305
Ntp2275
Rp2276
(dp2277
g1457
g1090
sg1458
g2075
sg329
g1088
sbsS'IwGxSurface.h'
p2278
g303
(g1453
g305
Ntp2279
Rp2280
(dp2281
g1457
g1265
sg1458
g1592
sg329
g1313
sbsS's3eSocket.h'
p2282
g303
(g1453
g305
Ntp2283
Rp2284
(dp2285
g1457
g1465
sg1458
g1481
sg329
S'c:/marmalade/7.4/s3e/h/s3eSocket.h'
p2286
sbsS'IwAutoFile.h'
p2287
g303
(g1453
g305
Ntp2288
Rp2289
(dp2290
g1457
g1329
sg1458
g1494
sg329
g1415
sbsS'ipc.h'
p2291
g303
(g1453
g305
Ntp2292
Rp2293
(dp2294
g1457
g1465
sg1458
g1606
sg329
S'c:/marmalade/7.4/s3e/h/std/sys/ipc.h'
p2295
sbsS'poll_1.h'
p2296
g303
(g1453
g305
Ntp2297
Rp2298
(dp2299
g1457
g1465
sg1458
g1606
sg329
S'c:/marmalade/7.4/s3e/h/std/sys/poll.h'
p2300
sbsS's3eThread.h'
p2301
g303
(g1453
g305
Ntp2302
Rp2303
(dp2304
g1457
g1465
sg1458
g1481
sg329
S'c:/marmalade/7.4/s3e/h/s3eThread.h'
p2305
sbsS'ucontext.h'
p2306
g303
(g1453
g305
Ntp2307
Rp2308
(dp2309
g1457
g1465
sg1458
g1487
sg329
S'c:/marmalade/7.4/s3e/h/std/ucontext.h'
p2310
sbsS'time.h'
p2311
g303
(g1453
g305
Ntp2312
Rp2313
(dp2314
g1457
g1465
sg1458
g1487
sg329
S'c:/marmalade/7.4/s3e/h/std/time.h'
p2315
sbsS'jchuff.h'
p2316
g303
(g1453
g305
Ntp2317
Rp2318
(dp2319
g1457
g1042
sg1458
g1550
sg329
g1045
sbsS's3eSoundRecord.h'
p2320
g303
(g1453
g305
Ntp2321
Rp2322
(dp2323
g1457
g1465
sg1458
g1481
sg329
S'c:/marmalade/7.4/s3e/h/s3eSoundRecord.h'
p2324
sbsS'IwFibre.h'
p2325
g303
(g1453
g305
Ntp2326
Rp2327
(dp2328
g1457
g1329
sg1458
g1494
sg329
g1404
sbsS's3eVersion.h'
p2329
g303
(g1453
g305
Ntp2330
Rp2331
(dp2332
g1457
g1465
sg1458
g1481
sg329
S'c:/marmalade/7.4/s3e/h/s3eVersion.h'
p2333
sbsS'IwGxFontGlyph.h'
p2334
g303
(g1453
g305
Ntp2335
Rp2336
(dp2337
g1457
g1143
sg1458
g1459
sg329
g1144
sbsS's3eTypes.h'
p2338
g303
(g1453
g305
Ntp2339
Rp2340
(dp2341
g1457
g1465
sg1458
g1481
sg329
S'c:/marmalade/7.4/s3e/h/s3eTypes.h'
p2342
sbsS'signal_2.h'
p2343
g303
(g1453
g305
Ntp2344
Rp2345
(dp2346
g1457
g1465
sg1458
g1466
sg329
S'c:/marmalade/7.4/s3e/h/std/c++/signal.h'
p2347
sbsS'termios.h'
p2348
g303
(g1453
g305
Ntp2349
Rp2350
(dp2351
g1457
g1465
sg1458
g1487
sg329
S'c:/marmalade/7.4/s3e/h/std/termios.h'
p2352
sbsS'iw2dscenegraph.mkf'
p2353
g303
(g1453
g305
Ntp2354
Rp2355
(dp2356
g1457
g1112
sg1458
g1715
sg329
g1110
sbsS'slist'
p2357
g303
(g1453
g305
Ntp2358
Rp2359
(dp2360
g1457
g1465
sg1458
g1466
sg329
S'c:/marmalade/7.4/s3e/h/std/c++/slist'
p2361
sbsS'cstdlib'
p2362
g303
(g1453
g305
Ntp2363
Rp2364
(dp2365
g1457
g1465
sg1458
g1466
sg329
S'c:/marmalade/7.4/s3e/h/std/c++/cstdlib'
p2366
sbsS's3eLocation.h'
p2367
g303
(g1453
g305
Ntp2368
Rp2369
(dp2370
g1457
g1465
sg1458
g1481
sg329
S'c:/marmalade/7.4/s3e/h/s3eLocation.h'
p2371
sbsS'IwMemBucketHelpers.h'
p2372
g303
(g1453
g305
Ntp2373
Rp2374
(dp2375
g1457
g1329
sg1458
g1494
sg329
g1376
sbsS's3eHash.h'
p2376
g303
(g1453
g305
Ntp2377
Rp2378
(dp2379
g1457
g1465
sg1458
g1481
sg329
S'c:/marmalade/7.4/s3e/h/s3eHash.h'
p2380
sbsS'IwGeomFMat.h'
p2381
g303
(g1453
g305
Ntp2382
Rp2383
(dp2384
g1457
g1165
sg1458
g1515
sg329
g1233
sbsS'type_traits.h'
p2385
g303
(g1453
g305
Ntp2386
Rp2387
(dp2388
g1457
g1465
sg1458
g1466
sg329
S'c:/marmalade/7.4/s3e/h/std/c++/type_traits.h'
p2389
sbsS'IwMenu.h'
p2390
g303
(g1453
g305
Ntp2391
Rp2392
(dp2393
g1457
g1329
sg1458
g1494
sg329
g1330
sbsS'IwResHandlerITX.h'
p2394
g303
(g1453
g305
Ntp2395
Rp2396
(dp2397
g1457
g1241
sg1458
g2001
sg329
g1244
sbsS'IwArray.h'
p2398
g303
(g1453
g305
Ntp2399
Rp2400
(dp2401
g1457
g1329
sg1458
g1494
sg329
g1394
sbsS'IwUTF8.h'
p2402
g303
(g1453
g305
Ntp2403
Rp2404
(dp2405
g1457
g1329
sg1458
g1494
sg329
g1398
sbsS'math_rvct.h'
p2406
g303
(g1453
g305
Ntp2407
Rp2408
(dp2409
g1457
g1465
sg1458
g1487
sg329
S'c:/marmalade/7.4/s3e/h/std/math_rvct.h'
p2410
sbsS'IwUtil.h'
p2411
g303
(g1453
g305
Ntp2412
Rp2413
(dp2414
g1457
g1329
sg1458
g1494
sg329
g1419
sbsS'IwFColour.h'
p2415
g303
(g1453
g305
Ntp2416
Rp2417
(dp2418
g1457
g1265
sg1458
g1592
sg329
g1276
sbsS'wctype.h'
p2419
g303
(g1453
g305
Ntp2420
Rp2421
(dp2422
g1457
g1465
sg1458
g1487
sg329
S'c:/marmalade/7.4/s3e/h/std/wctype.h'
p2423
sbsS'cstddef'
p2424
g303
(g1453
g305
Ntp2425
Rp2426
(dp2427
g1457
g1465
sg1458
g1466
sg329
S'c:/marmalade/7.4/s3e/h/std/c++/cstddef'
p2428
sbsS'assert.h'
p2429
g303
(g1453
g305
Ntp2430
Rp2431
(dp2432
g1457
g1465
sg1458
g1487
sg329
S'c:/marmalade/7.4/s3e/h/std/assert.h'
p2433
sbsS'mman.h'
p2434
g303
(g1453
g305
Ntp2435
Rp2436
(dp2437
g1457
g1465
sg1458
g1606
sg329
S'c:/marmalade/7.4/s3e/h/std/sys/mman.h'
p2438
sbsS'IwRandom.h'
p2439
g303
(g1453
g305
Ntp2440
Rp2441
(dp2442
g1457
g1329
sg1458
g1494
sg329
g1342
sbsS'libgen.h'
p2443
g303
(g1453
g305
Ntp2444
Rp2445
(dp2446
g1457
g1465
sg1458
g1487
sg329
S'c:/marmalade/7.4/s3e/h/std/libgen.h'
p2447
sbsS'utsname.h'
p2448
g303
(g1453
g305
Ntp2449
Rp2450
(dp2451
g1457
g1465
sg1458
g1606
sg329
S'c:/marmalade/7.4/s3e/h/std/sys/utsname.h'
p2452
sbsS'wait.h'
p2453
g303
(g1453
g305
Ntp2454
Rp2455
(dp2456
g1457
g1465
sg1458
g1606
sg329
S'c:/marmalade/7.4/s3e/h/std/sys/wait.h'
p2457
sbsS'param.h'
p2458
g303
(g1453
g305
Ntp2459
Rp2460
(dp2461
g1457
g1465
sg1458
g1606
sg329
S'c:/marmalade/7.4/s3e/h/std/sys/param.h'
p2462
sbsS'IwDivide.h'
p2463
g303
(g1453
g305
Ntp2464
Rp2465
(dp2466
g1457
g1329
sg1458
g1494
sg329
g1390
sbsS'Iw2DSceneGraphCore.cpp'
p2467
g303
(g1453
g305
Ntp2468
Rp2469
(dp2470
g1457
g1322
sg1458
(lp2471
S"'Marmalade Studio'"
p2472
ag1315
asg329
g1320
sbsS'IwResManager.h'
p2473
g303
(g1453
g305
Ntp2474
Rp2475
(dp2476
g1457
g1241
sg1458
g2001
sg329
g1242
sbsS'ostream'
p2477
g303
(g1453
g305
Ntp2478
Rp2479
(dp2480
g1457
g1465
sg1458
g1466
sg329
S'c:/marmalade/7.4/s3e/h/std/c++/ostream'
p2481
sbsS'cwctype'
p2482
g303
(g1453
g305
Ntp2483
Rp2484
(dp2485
g1457
g1465
sg1458
g1466
sg329
S'c:/marmalade/7.4/s3e/h/std/c++/cwctype'
p2486
sbsS'set'
p2487
g303
(g1453
g305
Ntp2488
Rp2489
(dp2490
g1457
g1465
sg1458
g1466
sg329
S'c:/marmalade/7.4/s3e/h/std/c++/set'
p2491
sbsS'IwGeomSQuat.h'
p2492
g303
(g1453
g305
Ntp2493
Rp2494
(dp2495
g1457
g1165
sg1458
g1515
sg329
g1209
sbsS'locale'
p2496
g303
(g1453
g305
Ntp2497
Rp2498
(dp2499
g1457
g1465
sg1458
g1466
sg329
S'c:/marmalade/7.4/s3e/h/std/c++/locale'
p2500
sbsS'cstdio'
p2501
g303
(g1453
g305
Ntp2502
Rp2503
(dp2504
g1457
g1465
sg1458
g1466
sg329
S'c:/marmalade/7.4/s3e/h/std/c++/cstdio'
p2505
sbsS'cdjpeg.h'
p2506
g303
(g1453
g305
Ntp2507
Rp2508
(dp2509
g1457
g1042
sg1458
g1550
sg329
g1049
sbsS'IwList.h'
p2510
g303
(g1453
g305
Ntp2511
Rp2512
(dp2513
g1457
g1329
sg1458
g1494
sg329
g1358
sbsS'inttypes.h'
p2514
g303
(g1453
g305
Ntp2515
Rp2516
(dp2517
g1457
g1465
sg1458
g1487
sg329
S'c:/marmalade/7.4/s3e/h/std/inttypes.h'
p2518
sbsS'dirent.h'
p2519
g303
(g1453
g305
Ntp2520
Rp2521
(dp2522
g1457
g1465
sg1458
g1487
sg329
S'c:/marmalade/7.4/s3e/h/std/dirent.h'
p2523
sbsS'IwGeomVec3.h'
p2524
g303
(g1453
g305
Ntp2525
Rp2526
(dp2527
g1457
g1165
sg1458
g1515
sg329
g1203
sbsS'transupp.h'
p2528
g303
(g1453
g305
Ntp2529
Rp2530
(dp2531
g1457
g1042
sg1458
g1550
sg329
g1061
sbsS'IwMath.h'
p2532
g303
(g1453
g305
Ntp2533
Rp2534
(dp2535
g1457
g1329
sg1458
g1494
sg329
g1402
sbsS'IwGeomQuat.h'
p2536
g303
(g1453
g305
Ntp2537
Rp2538
(dp2539
g1457
g1165
sg1458
g1515
sg329
g1185
sbsS'glplatform.h'
p2540
g303
(g1453
g305
Ntp2541
Rp2542
(dp2543
g1457
g1465
sg1458
g2016
sg329
S'c:/marmalade/7.4/s3e/h/GLES/glplatform.h'
p2544
sbsS'bitset'
p2545
g303
(g1453
g305
Ntp2546
Rp2547
(dp2548
g1457
g1465
sg1458
g1466
sg329
S'c:/marmalade/7.4/s3e/h/std/c++/bitset'
p2549
sbsS'alloca.h'
p2550
g303
(g1453
g305
Ntp2551
Rp2552
(dp2553
g1457
g1465
sg1458
g1487
sg329
S'c:/marmalade/7.4/s3e/h/std/alloca.h'
p2554
sbsS'IwResHandler.h'
p2555
g303
(g1453
g305
Ntp2556
Rp2557
(dp2558
g1457
g1241
sg1458
g2001
sg329
g1255
sbsS'IwResHandlerMTL.h'
p2559
g303
(g1453
g305
Ntp2560
Rp2561
(dp2562
g1457
g1265
sg1458
g1592
sg329
g1294
sbsS'IwRuntime.h'
p2563
g303
(g1453
g305
Ntp2564
Rp2565
(dp2566
g1457
g1329
sg1458
g1494
sg329
g1374
sbsS'limits'
p2567
g303
(g1453
g305
Ntp2568
Rp2569
(dp2570
g1457
g1465
sg1458
g1466
sg329
S'c:/marmalade/7.4/s3e/h/std/c++/limits'
p2571
sbsS'IwGeomBBox.h'
p2572
g303
(g1453
g305
Ntp2573
Rp2574
(dp2575
g1457
g1165
sg1458
g1515
sg329
g1215
sbsS's3eContacts.h'
p2576
g303
(g1453
g305
Ntp2577
Rp2578
(dp2579
g1457
g1465
sg1458
g1481
sg329
S'c:/marmalade/7.4/s3e/h/s3eContacts.h'
p2580
sbsS's3eLicense.h'
p2581
g303
(g1453
g305
Ntp2582
Rp2583
(dp2584
g1457
g1465
sg1458
g1481
sg329
S'c:/marmalade/7.4/s3e/h/s3eLicense.h'
p2585
sbsS'iwgx.config.txt'
p2586
g303
(g1453
g305
Ntp2587
Rp2588
(dp2589
g1457
g1265
sg1458
g1592
sg329
g1300
sbsS'IwTextParser.h'
p2590
g303
(g1453
g305
Ntp2591
Rp2592
(dp2593
g1457
g1329
sg1458
g1494
sg329
g1327
sbsS's3eTimer.h'
p2594
g303
(g1453
g305
Ntp2595
Rp2596
(dp2597
g1457
g1465
sg1458
g1481
sg329
S'c:/marmalade/7.4/s3e/h/s3eTimer.h'
p2598
sbsS'IwGeomVec.h'
p2599
g303
(g1453
g305
Ntp2600
Rp2601
(dp2602
g1457
g1165
sg1458
g1515
sg329
g1193
sbsS'IwSerialise.h'
p2603
g303
(g1453
g305
Ntp2604
Rp2605
(dp2606
g1457
g1329
sg1458
g1494
sg329
g1360
sbsS'cstdarg'
p2607
g303
(g1453
g305
Ntp2608
Rp2609
(dp2610
g1457
g1465
sg1458
g1466
sg329
S'c:/marmalade/7.4/s3e/h/std/c++/cstdarg'
p2611
sbsS'gl2ext.h'
p2612
g303
(g1453
g305
Ntp2613
Rp2614
(dp2615
g1457
g1465
sg1458
g1707
sg329
S'c:/marmalade/7.4/s3e/h/GLES2/gl2ext.h'
p2616
sbsS'IwChar.h'
p2617
g303
(g1453
g305
Ntp2618
Rp2619
(dp2620
g1457
g1329
sg1458
g1494
sg329
g1380
sbsS's3eSound.h'
p2621
g303
(g1453
g305
Ntp2622
Rp2623
(dp2624
g1457
g1465
sg1458
g1481
sg329
S'c:/marmalade/7.4/s3e/h/s3eSound.h'
p2625
sbsS'IwOptimiseThumb.h'
p2626
g303
(g1453
g305
Ntp2627
Rp2628
(dp2629
g1457
g1329
sg1458
g1494
sg329
g1417
sbsS'exception.h'
p2630
g303
(g1453
g305
Ntp2631
Rp2632
(dp2633
g1457
g1465
sg1458
g1466
sg329
S'c:/marmalade/7.4/s3e/h/std/c++/exception.h'
p2634
sbsS'iwgeom.config.txt'
p2635
g303
(g1453
g305
Ntp2636
Rp2637
(dp2638
g1457
g1165
sg1458
g1515
sg329
g1163
sbsS'iwgx.mkf'
p2639
g303
(g1453
g305
Ntp2640
Rp2641
(dp2642
g1457
g1306
sg1458
g1592
sg329
g1304
sbsS'gl.h'
p2643
g303
(g1453
g305
Ntp2644
Rp2645
(dp2646
g1457
g1465
sg1458
g2016
sg329
S'c:/marmalade/7.4/s3e/h/GLES/gl.h'
p2647
sbsS'zlib.h'
p2648
g303
(g1453
g305
Ntp2649
Rp2650
(dp2651
g1457
g1434
sg1458
g2117
sg329
g1435
sbsS'temp_defines_release.h'
p2652
g303
(g1453
g305
Ntp2653
Rp2654
(dp2655
g1457
(lp2656
sg1458
(lp2657
S"'generated files'"
p2658
asg329
S'c:/Users/lab422/Desktop/FYP/Learning Resources/Sprint 1 Minimal Example/FinalYearProject/build_finalyearproject_vc12/temp_defines_release.h'
p2659
sbsS'iwgl.mkf'
p2660
g303
(g1453
g305
Ntp2661
Rp2662
(dp2663
g1457
g1119
sg1458
g1475
sg329
g1117
sbsS'IwColour.h'
p2664
g303
(g1453
g305
Ntp2665
Rp2666
(dp2667
g1457
g1265
sg1458
g1592
sg329
g1278
sbsS's3eLibrary.h'
p2668
g303
(g1453
g305
Ntp2669
Rp2670
(dp2671
g1457
g1465
sg1458
g1675
sg329
S'c:/marmalade/7.4/s3e/h/ext/s3eLibrary.h'
p2672
sbsS'types.h'
p2673
g303
(g1453
g305
Ntp2674
Rp2675
(dp2676
g1457
g1465
sg1458
g1606
sg329
S'c:/marmalade/7.4/s3e/h/std/sys/types.h'
p2677
sbsS'ifaddrs.h'
p2678
g303
(g1453
g305
Ntp2679
Rp2680
(dp2681
g1457
g1465
sg1458
g1487
sg329
S'c:/marmalade/7.4/s3e/h/std/ifaddrs.h'
p2682
sbsS'strstream'
p2683
g303
(g1453
g305
Ntp2684
Rp2685
(dp2686
g1457
g1465
sg1458
g1466
sg329
S'c:/marmalade/7.4/s3e/h/std/c++/strstream'
p2687
sbsS'IwTween.cpp'
p2688
g303
(g1453
g305
Ntp2689
Rp2690
(dp2691
g1457
g1444
sg1458
g1953
sg329
g1442
sbsS'exception'
p2692
g303
(g1453
g305
Ntp2693
Rp2694
(dp2695
g1457
g1465
sg1458
g1466
sg329
S'c:/marmalade/7.4/s3e/h/std/c++/exception'
p2696
sbsS'rlocks.h'
p2697
g303
(g1453
g305
Ntp2698
Rp2699
(dp2700
g1457
g1465
sg1458
g1466
sg329
S'c:/marmalade/7.4/s3e/h/std/c++/rlocks.h'
p2701
sbsS'ioctl.h'
p2702
g303
(g1453
g305
Ntp2703
Rp2704
(dp2705
g1457
g1465
sg1458
g1606
sg329
S'c:/marmalade/7.4/s3e/h/std/sys/ioctl.h'
p2706
sbsS'rope'
p2707
g303
(g1453
g305
Ntp2708
Rp2709
(dp2710
g1457
g1465
sg1458
g1466
sg329
S'c:/marmalade/7.4/s3e/h/std/c++/rope'
p2711
sbsS'jinclude.h'
p2712
g303
(g1453
g305
Ntp2713
Rp2714
(dp2715
g1457
g1042
sg1458
g1550
sg329
g1051
sbsS'IwEvent.h'
p2716
g303
(g1453
g305
Ntp2717
Rp2718
(dp2719
g1457
g1329
sg1458
g1494
sg329
g1400
sbsS'IwOptimiseSize.h'
p2720
g303
(g1453
g305
Ntp2721
Rp2722
(dp2723
g1457
g1329
sg1458
g1494
sg329
g1427
sbsS'iwgxfont_public.defines.txt'
p2724
g303
(g1453
g305
Ntp2725
Rp2726
(dp2727
g1457
g1143
sg1458
g1459
sg329
g1141
sbsS'iconv.h'
p2728
g303
(g1453
g305
Ntp2729
Rp2730
(dp2731
g1457
g1465
sg1458
g1487
sg329
S'c:/marmalade/7.4/s3e/h/std/iconv.h'
p2732
sbsS'sendfile.h'
p2733
g303
(g1453
g305
Ntp2734
Rp2735
(dp2736
g1457
g1465
sg1458
g1606
sg329
S'c:/marmalade/7.4/s3e/h/std/sys/sendfile.h'
p2737
sbsS'IwGeomSphere.h'
p2738
g303
(g1453
g305
Ntp2739
Rp2740
(dp2741
g1457
g1165
sg1458
g1515
sg329
g1223
sbsS'tiniconv.mkf'
p2742
g303
(g1453
g305
Ntp2743
Rp2744
(dp2745
g1457
g1079
sg1458
g1910
sg329
g1077
sbsS'IwResManagerClass.h'
p2746
g303
(g1453
g305
Ntp2747
Rp2748
(dp2749
g1457
g1241
sg1458
g2001
sg329
g1259
sbsS'jdct.h'
p2750
g303
(g1453
g305
Ntp2751
Rp2752
(dp2753
g1457
g1042
sg1458
g1550
sg329
g1057
sbsS'cctype'
p2754
g303
(g1453
g305
Ntp2755
Rp2756
(dp2757
g1457
g1465
sg1458
g1466
sg329
S'c:/marmalade/7.4/s3e/h/std/c++/cctype'
p2758
sbsS's3eConfig.h'
p2759
g303
(g1453
g305
Ntp2760
Rp2761
(dp2762
g1457
g1465
sg1458
g1481
sg329
S'c:/marmalade/7.4/s3e/h/s3eConfig.h'
p2763
sbsS'IwHashString.h'
p2764
g303
(g1453
g305
Ntp2765
Rp2766
(dp2767
g1457
g1329
sg1458
g1494
sg329
g1352
sbsS'stat.h'
p2768
g303
(g1453
g305
Ntp2769
Rp2770
(dp2771
g1457
g1465
sg1458
g1606
sg329
S'c:/marmalade/7.4/s3e/h/std/sys/stat.h'
p2772
sbsS'byteswap.h'
p2773
g303
(g1453
g305
Ntp2774
Rp2775
(dp2776
g1457
g1465
sg1458
g1487
sg329
S'c:/marmalade/7.4/s3e/h/std/byteswap.h'
p2777
sbsS'iwresmanager.mkf'
p2778
g303
(g1453
g305
Ntp2779
Rp2780
(dp2781
g1457
g1252
sg1458
g2001
sg329
g1250
sbsS'IwUtilInitTerm.h'
p2782
g303
(g1453
g305
Ntp2783
Rp2784
(dp2785
g1457
g1329
sg1458
g1494
sg329
g1332
sbsS'pthread_1.h'
p2786
g303
(g1453
g305
Ntp2787
Rp2788
(dp2789
g1457
g1465
sg1458
g1466
sg329
S'c:/marmalade/7.4/s3e/h/std/c++/pthread.h'
p2790
sbsS'iw2d.mkf'
p2791
g303
(g1453
g305
Ntp2792
Rp2793
(dp2794
g1457
g1138
sg1458
g1555
sg329
g1136
sbsS'complex'
p2795
g303
(g1453
g305
Ntp2796
Rp2797
(dp2798
g1457
g1465
sg1458
g1466
sg329
S'c:/marmalade/7.4/s3e/h/std/c++/complex'
p2799
sbsS's3e.icf'
p2800
g303
(g1453
g305
Ntp2801
Rp2802
(dp2803
g1457
g1465
sg1458
g1481
sg329
S'c:/marmalade/7.4/s3e/s3e.icf'
p2804
sbsS'IwVariableBitField.h'
p2805
g303
(g1453
g305
Ntp2806
Rp2807
(dp2808
g1457
g1329
sg1458
g1494
sg329
g1338
sbsS'sem.h'
p2809
g303
(g1453
g305
Ntp2810
Rp2811
(dp2812
g1457
g1465
sg1458
g1606
sg329
S'c:/marmalade/7.4/s3e/h/std/sys/sem.h'
p2813
sbsS'IwGxFontState.h'
p2814
g303
(g1453
g305
Ntp2815
Rp2816
(dp2817
g1457
g1143
sg1458
g1459
sg329
g1154
sbsS'stdio.h'
p2818
g303
(g1453
g305
Ntp2819
Rp2820
(dp2821
g1457
g1465
sg1458
g1487
sg329
S'c:/marmalade/7.4/s3e/h/std/stdio.h'
p2822
sbsS'jmemsys.h'
p2823
g303
(g1453
g305
Ntp2824
Rp2825
(dp2826
g1457
g1042
sg1458
g1550
sg329
g1043
sbsS'ios'
p2827
g303
(g1453
g305
Ntp2828
Rp2829
(dp2830
g1457
g1465
sg1458
g1466
sg329
S'c:/marmalade/7.4/s3e/h/std/c++/ios'
p2831
sbsS'IwTween.h'
p2832
g303
(g1453
g305
Ntp2833
Rp2834
(dp2835
g1457
g1444
sg1458
g1953
sg329
g1445
sbsS'IwGeomFVec4.h'
p2836
g303
(g1453
g305
Ntp2837
Rp2838
(dp2839
g1457
g1165
sg1458
g1515
sg329
g1183
sbsS'stack'
p2840
g303
(g1453
g305
Ntp2841
Rp2842
(dp2843
g1457
g1465
sg1458
g1466
sg329
S'c:/marmalade/7.4/s3e/h/std/c++/stack'
p2844
sbsS'new.h'
p2845
g303
(g1453
g305
Ntp2846
Rp2847
(dp2848
g1457
g1465
sg1458
g1466
sg329
S'c:/marmalade/7.4/s3e/h/std/c++/new.h'
p2849
sbsS's3eEMail.h'
p2850
g303
(g1453
g305
Ntp2851
Rp2852
(dp2853
g1457
g1465
sg1458
g1675
sg329
S'c:/marmalade/7.4/s3e/h/ext/s3eEMail.h'
p2854
sbsS's3eVideo.h'
p2855
g303
(g1453
g305
Ntp2856
Rp2857
(dp2858
g1457
g1465
sg1458
g1481
sg329
S'c:/marmalade/7.4/s3e/h/s3eVideo.h'
p2859
sbsS'pngconf.h'
p2860
g303
(g1453
g305
Ntp2861
Rp2862
(dp2863
g1457
g1031
sg1458
g2172
sg329
g1032
sbsS'pwd.h'
p2864
g303
(g1453
g305
Ntp2865
Rp2866
(dp2867
g1457
g1465
sg1458
g1487
sg329
S'c:/marmalade/7.4/s3e/h/std/pwd.h'
p2868
sbsS'gl3.h'
p2869
g303
(g1453
g305
Ntp2870
Rp2871
(dp2872
g1457
g1465
sg1458
g1767
sg329
S'c:/marmalade/7.4/s3e/h/GLES3/gl3.h'
p2873
sbsS'IwClip.h'
p2874
g303
(g1453
g305
Ntp2875
Rp2876
(dp2877
g1457
g1265
sg1458
g1592
sg329
g1282
sbsS'iwresmanager.config.txt'
p2878
g303
(g1453
g305
Ntp2879
Rp2880
(dp2881
g1457
g1241
sg1458
g2001
sg329
g1257
sbsS'IwGxShaderTechnique.h'
p2882
g303
(g1453
g305
Ntp2883
Rp2884
(dp2885
g1457
g1265
sg1458
g1592
sg329
g1309
sbsS'IwCore.h'
p2886
g303
(g1453
g305
Ntp2887
Rp2888
(dp2889
g1457
g1329
sg1458
g1494
sg329
g1346
sbsS'cfloat'
p2890
g303
(g1453
g305
Ntp2891
Rp2892
(dp2893
g1457
g1465
sg1458
g1466
sg329
S'c:/marmalade/7.4/s3e/h/std/c++/cfloat'
p2894
sbsS'IwGeomMat2D.h'
p2895
g303
(g1453
g305
Ntp2896
Rp2897
(dp2898
g1457
g1165
sg1458
g1515
sg329
g1221
sbsS'IwAllocator.h'
p2899
g303
(g1453
g305
Ntp2900
Rp2901
(dp2902
g1457
g1329
sg1458
g1494
sg329
g1366
sbsS'IwPath.h'
p2903
g303
(g1453
g305
Ntp2904
Rp2905
(dp2906
g1457
g1329
sg1458
g1494
sg329
g1421
sbsS'iwgxfont.mkf'
p2907
g303
(g1453
g305
Ntp2908
Rp2909
(dp2910
g1457
g1160
sg1458
g1459
sg329
g1158
sbsS'IwTexture.h'
p2911
g303
(g1453
g305
Ntp2912
Rp2913
(dp2914
g1457
g1265
sg1458
g1592
sg329
g1274
sbsS'IwGeomVec.h.tpl'
p2915
g303
(g1453
g305
Ntp2916
Rp2917
(dp2918
g1457
g1165
sg1458
g1515
sg329
g1173
sbsS's3eAccelerometer.h'
p2919
g303
(g1453
g305
Ntp2920
Rp2921
(dp2922
g1457
g1465
sg1458
g1481
sg329
S'c:/marmalade/7.4/s3e/h/s3eAccelerometer.h'
p2923
sbsS'setjmp.h'
p2924
g303
(g1453
g305
Ntp2925
Rp2926
(dp2927
g1457
g1465
sg1458
g1487
sg329
S'c:/marmalade/7.4/s3e/h/std/setjmp.h'
p2928
sbsS'IwFile.h'
p2929
g303
(g1453
g305
Ntp2930
Rp2931
(dp2932
g1457
g1329
sg1458
g1494
sg329
g1372
sbsS'IwTextParseable.h'
p2933
g303
(g1453
g305
Ntp2934
Rp2935
(dp2936
g1457
g1329
sg1458
g1494
sg329
g1370
sbsS'istream.h'
p2937
g303
(g1453
g305
Ntp2938
Rp2939
(dp2940
g1457
g1465
sg1458
g1466
sg329
S'c:/marmalade/7.4/s3e/h/std/c++/istream.h'
p2941
sbsS'stdint.h'
p2942
g303
(g1453
g305
Ntp2943
Rp2944
(dp2945
g1457
g1465
sg1458
g1487
sg329
S'c:/marmalade/7.4/s3e/h/std/stdint.h'
p2946
sbsS'semaphore.h'
p2947
g303
(g1453
g305
Ntp2948
Rp2949
(dp2950
g1457
g1465
sg1458
g1487
sg329
S'c:/marmalade/7.4/s3e/h/std/semaphore.h'
p2951
sbsS'ctime'
p2952
g303
(g1453
g305
Ntp2953
Rp2954
(dp2955
g1457
g1465
sg1458
g1466
sg329
S'c:/marmalade/7.4/s3e/h/std/c++/ctime'
p2956
sbsS'sstream'
p2957
g303
(g1453
g305
Ntp2958
Rp2959
(dp2960
g1457
g1465
sg1458
g1466
sg329
S'c:/marmalade/7.4/s3e/h/std/c++/sstream'
p2961
sbsS'IwGeomFBBox.h'
p2962
g303
(g1453
g305
Ntp2963
Rp2964
(dp2965
g1457
g1165
sg1458
g1515
sg329
g1187
sbsS'IwDebugPrim.h'
p2966
g303
(g1453
g305
Ntp2967
Rp2968
(dp2969
g1457
g1265
sg1458
g1592
sg329
g1263
sbsS'IwGxFontContainer.h'
p2970
g303
(g1453
g305
Ntp2971
Rp2972
(dp2973
g1457
g1143
sg1458
g1459
sg329
g1156
sbsS'IwGeomSVec3.h'
p2974
g303
(g1453
g305
Ntp2975
Rp2976
(dp2977
g1457
g1165
sg1458
g1515
sg329
g1199
sbsS'iw2dscenegraphcore.mkf'
p2978
g303
(g1453
g305
Ntp2979
Rp2980
(dp2981
g1457
g1319
sg1458
g2471
sg329
g1317
sbsS'cassert'
p2982
g303
(g1453
g305
Ntp2983
Rp2984
(dp2985
g1457
g1465
sg1458
g1466
sg329
S'c:/marmalade/7.4/s3e/h/std/c++/cassert'
p2986
sbsS'IwGeomFVec3.h'
p2987
g303
(g1453
g305
Ntp2988
Rp2989
(dp2990
g1457
g1165
sg1458
g1515
sg329
g1225
sbsS'streambuf'
p2991
g303
(g1453
g305
Ntp2992
Rp2993
(dp2994
g1457
g1465
sg1458
g1466
sg329
S'c:/marmalade/7.4/s3e/h/std/c++/streambuf'
p2995
sbsS's3eMetrics.h'
p2996
g303
(g1453
g305
Ntp2997
Rp2998
(dp2999
g1457
g1465
sg1458
g1675
sg329
S'c:/marmalade/7.4/s3e/h/ext/s3eMetrics.h'
p3000
sbsS'IwGxFont.h'
p3001
g303
(g1453
g305
Ntp3002
Rp3003
(dp3004
g1457
g1143
sg1458
g1459
sg329
g1148
sbsS's3eSecureStorage.h'
p3005
g303
(g1453
g305
Ntp3006
Rp3007
(dp3008
g1457
g1465
sg1458
g1481
sg329
S'c:/marmalade/7.4/s3e/h/s3eSecureStorage.h'
p3009
sbsS'string.h'
p3010
g303
(g1453
g305
Ntp3011
Rp3012
(dp3013
g1457
g1465
sg1458
g1487
sg329
S'c:/marmalade/7.4/s3e/h/std/string.h'
p3014
sbsS'IwResource.h'
p3015
g303
(g1453
g305
Ntp3016
Rp3017
(dp3018
g1457
g1329
sg1458
g1494
sg329
g1344
sbsS'IwGeomSVec2.h'
p3019
g303
(g1453
g305
Ntp3020
Rp3021
(dp3022
g1457
g1165
sg1458
g1515
sg329
g1219
sbsS'libjpeg.mkf'
p3023
g303
(g1453
g305
Ntp3024
Rp3025
(dp3026
g1457
g1071
sg1458
(lp3027
g1037
asg329
g1069
sbsS'IwGxDebug.h'
p3028
g303
(g1453
g305
Ntp3029
Rp3030
(dp3031
g1457
g1265
sg1458
g1592
sg329
g1288
sbsS'pthread_types.h'
p3032
g303
(g1453
g305
Ntp3033
Rp3034
(dp3035
g1457
g1465
sg1458
g1487
sg329
S'c:/marmalade/7.4/s3e/h/std/pthread_types.h'
p3036
sbsS'iomanip.h'
p3037
g303
(g1453
g305
Ntp3038
Rp3039
(dp3040
g1457
g1465
sg1458
g1466
sg329
S'c:/marmalade/7.4/s3e/h/std/c++/iomanip.h'
p3041
sbsS'IwKeymap.h'
p3042
g303
(g1453
g305
Ntp3043
Rp3044
(dp3045
g1457
g1329
sg1458
g1494
sg329
g1408
sbsS'IwDebug.h'
p3046
g303
(g1453
g305
Ntp3047
Rp3048
(dp3049
g1457
g1329
sg1458
g1494
sg329
g1336
sbsS's3eIOSBackgroundAudio.h'
p3050
g303
(g1453
g305
Ntp3051
Rp3052
(dp3053
g1457
g1465
sg1458
g1675
sg329
S'c:/marmalade/7.4/s3e/h/ext/s3eIOSBackgroundAudio.h'
p3054
sbsS'IwGeomMenu.h'
p3055
g303
(g1453
g305
Ntp3056
Rp3057
(dp3058
g1457
g1165
sg1458
g1515
sg329
g1179
sbsS'IwDivTable.h'
p3059
g303
(g1453
g305
Ntp3060
Rp3061
(dp3062
g1457
g1329
sg1458
g1494
sg329
g1425
sbsS'ctype.h'
p3063
g303
(g1453
g305
Ntp3064
Rp3065
(dp3066
g1457
g1465
sg1458
g1487
sg329
S'c:/marmalade/7.4/s3e/h/std/ctype.h'
p3067
sbsS'IwGeomMat.h'
p3068
g303
(g1453
g305
Ntp3069
Rp3070
(dp3071
g1457
g1165
sg1458
g1515
sg329
g1201
sbsS'IwResGroup.h'
p3072
g303
(g1453
g305
Ntp3073
Rp3074
(dp3075
g1457
g1241
sg1458
g2001
sg329
g1239
sbsS'signal_1.h'
p3076
g303
(g1453
g305
Ntp3077
Rp3078
(dp3079
g1457
g1465
sg1458
g1606
sg329
S'c:/marmalade/7.4/s3e/h/std/sys/signal.h'
p3080
sbsS'functional'
p3081
g303
(g1453
g305
Ntp3082
Rp3083
(dp3084
g1457
g1465
sg1458
g1466
sg329
S'c:/marmalade/7.4/s3e/h/std/c++/functional'
p3085
sbsS'shm.h'
p3086
g303
(g1453
g305
Ntp3087
Rp3088
(dp3089
g1457
g1465
sg1458
g1606
sg329
S'c:/marmalade/7.4/s3e/h/std/sys/shm.h'
p3090
sbsS'IwManagedList.h'
p3091
g303
(g1453
g305
Ntp3092
Rp3093
(dp3094
g1457
g1329
sg1458
g1494
sg329
g1356
sbsS'prctl.h'
p3095
g303
(g1453
g305
Ntp3096
Rp3097
(dp3098
g1457
g1465
sg1458
g1606
sg329
S'c:/marmalade/7.4/s3e/h/std/sys/prctl.h'
p3099
sbsS'un.h'
p3100
g303
(g1453
g305
Ntp3101
Rp3102
(dp3103
g1457
g1465
sg1458
g1606
sg329
S'c:/marmalade/7.4/s3e/h/std/sys/un.h'
p3104
sbsS'temp_defines_debug.h'
p3105
g303
(g1453
g305
Ntp3106
Rp3107
(dp3108
g1457
(lp3109
sg1458
(lp3110
g2658
asg329
S'c:/Users/lab422/Desktop/FYP/Learning Resources/Sprint 1 Minimal Example/FinalYearProject/build_finalyearproject_vc12/temp_defines_debug.h'
p3111
sbsS'utility'
p3112
g303
(g1453
g305
Ntp3113
Rp3114
(dp3115
g1457
g1465
sg1458
g1466
sg329
S'c:/marmalade/7.4/s3e/h/std/c++/utility'
p3116
sbsS'IwGeomLegacy.h'
p3117
g303
(g1453
g305
Ntp3118
Rp3119
(dp3120
g1457
g1165
sg1458
g1515
sg329
g1207
sbsS'IwTPage.h'
p3121
g303
(g1453
g305
Ntp3122
Rp3123
(dp3124
g1457
g1265
sg1458
g1592
sg329
g1284
sbsS'IwResSerialise.h'
p3125
g303
(g1453
g305
Ntp3126
Rp3127
(dp3128
g1457
g1241
sg1458
g2001
sg329
g1246
sbsS's3eCrypto.h'
p3129
g303
(g1453
g305
Ntp3130
Rp3131
(dp3132
g1457
g1465
sg1458
g1481
sg329
S'c:/marmalade/7.4/s3e/h/s3eCrypto.h'
p3133
sbsS's3eKeyboard.h'
p3134
g303
(g1453
g305
Ntp3135
Rp3136
(dp3137
g1457
g1465
sg1458
g1481
sg329
S'c:/marmalade/7.4/s3e/h/s3eKeyboard.h'
p3138
sbsS'fcntl.h'
p3139
g303
(g1453
g305
Ntp3140
Rp3141
(dp3142
g1457
g1465
sg1458
g1487
sg329
S'c:/marmalade/7.4/s3e/h/std/fcntl.h'
p3143
sbsS'Iw2DSceneGraphCore.h'
p3144
g303
(g1453
g305
Ntp3145
Rp3146
(dp3147
g1457
g1322
sg1458
g2471
sg329
g1323
sbsS'memory.h'
p3148
g303
(g1453
g305
Ntp3149
Rp3150
(dp3151
g1457
g1465
sg1458
g1487
sg329
S'c:/marmalade/7.4/s3e/h/std/memory.h'
p3152
sbsS'pthread.h'
p3153
g303
(g1453
g305
Ntp3154
Rp3155
(dp3156
g1457
g1465
sg1458
g1487
sg329
S'c:/marmalade/7.4/s3e/h/std/pthread.h'
p3157
sbsS'IwGeomIntersect.h'
p3158
g303
(g1453
g305
Ntp3159
Rp3160
(dp3161
g1457
g1165
sg1458
g1515
sg329
g1217
sbsS'algorithm'
p3162
g303
(g1453
g305
Ntp3163
Rp3164
(dp3165
g1457
g1465
sg1458
g1466
sg329
S'c:/marmalade/7.4/s3e/h/std/c++/algorithm'
p3166
sbsS'egl_1.h'
p3167
g303
(g1453
g305
Ntp3168
Rp3169
(dp3170
g1457
g1465
sg1458
g2016
sg329
S'c:/marmalade/7.4/s3e/h/GLES/egl.h'
p3171
sbsS'Iw2DSceneGraph.cpp'
p3172
g303
(g1453
g305
Ntp3173
Rp3174
(dp3175
g1457
g1107
sg1458
g1715
sg329
g1108
sbsS'ostream.h'
p3176
g303
(g1453
g305
Ntp3177
Rp3178
(dp3179
g1457
g1465
sg1458
g1466
sg329
S'c:/marmalade/7.4/s3e/h/std/c++/ostream.h'
p3180
sbsS'stl_user_config.h'
p3181
g303
(g1453
g305
Ntp3182
Rp3183
(dp3184
g1457
g1465
sg1458
g1466
sg329
S'c:/marmalade/7.4/s3e/h/std/c++/stl_user_config.h'
p3185
sbsS'IwProfileMenu.h'
p3186
g303
(g1453
g305
Ntp3187
Rp3188
(dp3189
g1457
g1329
sg1458
g1494
sg329
g1354
sbsS'MarmaladeVersion.h'
p3190
g303
(g1453
g305
Ntp3191
Rp3192
(dp3193
g1457
g1465
sg1458
g1481
sg329
S'c:/marmalade/7.4/s3e/h/MarmaladeVersion.h'
p3194
sbsS'gl3platform.h'
p3195
g303
(g1453
g305
Ntp3196
Rp3197
(dp3198
g1457
g1465
sg1458
g1767
sg329
S'c:/marmalade/7.4/s3e/h/GLES3/gl3platform.h'
p3199
sbsS'ios.h'
p3200
g303
(g1453
g305
Ntp3201
Rp3202
(dp3203
g1457
g1465
sg1458
g1466
sg329
S'c:/marmalade/7.4/s3e/h/std/c++/ios.h'
p3204
sbsS'IwImageHelper.h'
p3205
g303
(g1453
g305
Ntp3206
Rp3207
(dp3208
g1457
g1329
sg1458
g1494
sg329
g1386
sbsS'hash_set'
p3209
g303
(g1453
g305
Ntp3210
Rp3211
(dp3212
g1457
g1465
sg1458
g1466
sg329
S'c:/marmalade/7.4/s3e/h/std/c++/hash_set'
p3213
sbsS'IwGeomFQuat.h'
p3214
g303
(g1453
g305
Ntp3215
Rp3216
(dp3217
g1457
g1165
sg1458
g1515
sg329
g1177
sbsS'jmorecfg.h'
p3218
g303
(g1453
g305
Ntp3219
Rp3220
(dp3221
g1457
g1042
sg1458
g1550
sg329
g1067
sbsS'eglplatform.h'
p3222
g303
(g1453
g305
Ntp3223
Rp3224
(dp3225
g1457
g1465
sg1458
g1799
sg329
S'c:/marmalade/7.4/s3e/h/EGL/eglplatform.h'
p3226
sbsS'cmath'
p3227
g303
(g1453
g305
Ntp3228
Rp3229
(dp3230
g1457
g1465
sg1458
g1466
sg329
S'c:/marmalade/7.4/s3e/h/std/c++/cmath'
p3231
sbsS'math_gcc.h'
p3232
g303
(g1453
g305
Ntp3233
Rp3234
(dp3235
g1457
g1465
sg1458
g1487
sg329
S'c:/marmalade/7.4/s3e/h/std/math_gcc.h'
p3236
sbsS's3eMemory.h'
p3237
g303
(g1453
g305
Ntp3238
Rp3239
(dp3240
g1457
g1465
sg1458
g1481
sg329
S'c:/marmalade/7.4/s3e/h/s3eMemory.h'
p3241
sbsS'strings.h'
p3242
g303
(g1453
g305
Ntp3243
Rp3244
(dp3245
g1457
g1465
sg1458
g1487
sg329
S'c:/marmalade/7.4/s3e/h/std/strings.h'
p3246
sbsS's3eFile.h'
p3247
g303
(g1453
g305
Ntp3248
Rp3249
(dp3250
g1457
g1465
sg1458
g1481
sg329
S'c:/marmalade/7.4/s3e/h/s3eFile.h'
p3251
sbsS'IwGxTypes.h'
p3252
g303
(g1453
g305
Ntp3253
Rp3254
(dp3255
g1457
g1265
sg1458
g1592
sg329
g1311
sbsS'cerrno'
p3256
g303
(g1453
g305
Ntp3257
Rp3258
(dp3259
g1457
g1465
sg1458
g1466
sg329
S'c:/marmalade/7.4/s3e/h/std/c++/cerrno'
p3260
sbsS'resource.h'
p3261
g303
(g1453
g305
Ntp3262
Rp3263
(dp3264
g1457
g1465
sg1458
g1606
sg329
S'c:/marmalade/7.4/s3e/h/std/sys/resource.h'
p3265
sbsS'clocale'
p3266
g303
(g1453
g305
Ntp3267
Rp3268
(dp3269
g1457
g1465
sg1458
g1466
sg329
S'c:/marmalade/7.4/s3e/h/std/c++/clocale'
p3270
sbsS'pvrtextool.mkf'
p3271
g303
(g1453
g305
Ntp3272
Rp3273
(dp3274
g1457
g1095
sg1458
g2048
sg329
g1093
sbsS'csetjmp'
p3275
g303
(g1453
g305
Ntp3276
Rp3277
(dp3278
g1457
g1465
sg1458
g1466
sg329
S'c:/marmalade/7.4/s3e/h/std/c++/csetjmp'
p3279
sbsS'netdb.h'
p3280
g303
(g1453
g305
Ntp3281
Rp3282
(dp3283
g1457
g1465
sg1458
g1487
sg329
S'c:/marmalade/7.4/s3e/h/std/netdb.h'
p3284
sbsS's3eAndroidJNI.h'
p3285
g303
(g1453
g305
Ntp3286
Rp3287
(dp3288
g1457
g1465
sg1458
g1675
sg329
S'c:/marmalade/7.4/s3e/h/ext/s3eAndroidJNI.h'
p3289
sbsS'stdexcept'
p3290
g303
(g1453
g305
Ntp3291
Rp3292
(dp3293
g1457
g1465
sg1458
g1466
sg329
S'c:/marmalade/7.4/s3e/h/std/c++/stdexcept'
p3294
sbsS'math.h'
p3295
g303
(g1453
g305
Ntp3296
Rp3297
(dp3298
g1457
g1465
sg1458
g1487
sg329
S'c:/marmalade/7.4/s3e/h/std/math.h'
p3299
sbsS'stdbool.h'
p3300
g303
(g1453
g305
Ntp3301
Rp3302
(dp3303
g1457
g1465
sg1458
g1487
sg329
S'c:/marmalade/7.4/s3e/h/std/stdbool.h'
p3304
sbsS'uio.h'
p3305
g303
(g1453
g305
Ntp3306
Rp3307
(dp3308
g1457
g1465
sg1458
g1606
sg329
S'c:/marmalade/7.4/s3e/h/std/sys/uio.h'
p3309
sbsS'IwUncopyable.h'
p3310
g303
(g1453
g305
Ntp3311
Rp3312
(dp3313
g1457
g1329
sg1458
g1494
sg329
g1378
sbssS'juice_build_type'
p3314
g4
sS'tests'
p3315
(lp3316
sS'project_name'
p3317
g311
sS'root_file'
p3318
g120
sS'current_root'
p3319
S'c:/Users/lab422/Desktop/FYP/Learning Resources/Sprint 1 Minimal Example/FinalYearProject'
p3320
sS'dependencies'
p3321
(lp3322
sS'include_paths'
p3323
(lp3324
S'c:/marmalade/7.4/modules/iwutil/h'
p3325
aS'c:/marmalade/7.4/modules/third_party/libjpeg/h'
p3326
aS'c:/marmalade/7.4/modules/third_party/zlib/h'
p3327
aS'c:/marmalade/7.4/modules/third_party/libpng/h'
p3328
aS'c:/marmalade/7.4/modules/iw2dscenegraphcore/h'
p3329
aS'c:/marmalade/7.4/modules/iw2dscenegraph/h'
p3330
aS'c:/marmalade/7.4/modules/iw2d/h'
p3331
aS'c:/marmalade/7.4/modules/iwgx/h'
p3332
aS'c:/marmalade/7.4/modules/iwgl/h'
p3333
aS'c:/marmalade/7.4/modules/iwgeom/h'
p3334
aS'c:/marmalade/7.4/modules/iwresmanager/h'
p3335
aS'c:/marmalade/7.4/extensions/pvrtextool/h'
p3336
aS'c:/marmalade/7.4/modules/iwgxfont/h'
p3337
aS'c:/marmalade/7.4/modules/third_party/tiniconv/source'
p3338
aS'c:/marmalade/7.4/modules/iwtween/h'
p3339
aS'c:/marmalade/7.4/s3e/h'
p3340
aS'c:/marmalade/7.4/s3e/h/ext'
p3341
aS'c:/marmalade/7.4/s3e/h/std'
p3342
aS'c:/marmalade/7.4/s3e/h/std/c++'
p3343
aS'c:/marmalade/7.4/s3e/h/ext_legacy'
p3344
aS'c:/marmalade/7.4/s3e/h/legacy'
p3345
asS'weak_frameworks'
p3346
(lp3347
sS'extprojects'
p3348
(dp3349
sg567
(dp3350
g561
(lp3351
(g78
S'.'
p3352
I0
tp3353
assS'macro_types'
p3354
(dp3355
g502
I1
sg503
I0
sg504
I0
sg505
I0
sg506
I0
sg507
I0
sg508
I0
sg509
I0
sg510
I0
sg512
I0
sg513
I0
sg514
I0
sg515
I0
sg516
I0
sg518
I0
sg520
I0
sg521
I0
sg522
I0
sg523
I0
sg524
I0
sg525
I1
sg526
I0
sg527
I0
sg528
I0
sg529
I0
sg530
I01
sg531
I1
sg532
I0
sg533
I0
sg534
I0
sg535
I0
sg536
I0
sg538
I0
sg539
I0
ssS'commands'
p3356
(lp3357
sg569
(g1018
S'VC12'
p3358
S'X86ARM'
p3359
tp3360
sS'build_libs'
p3361
(dp3362
sg571
g0
sS'frameworks'
p3363
(lp3364
sS'environ'
p3365
(dp3366
sS'target_name_debug'
p3367
g311
sS'builders'
p3368
(dp3369
g561
(dp3370
S'.S'
p3371
(dp3372
S'rvct'
p3373
(lp3374
S'.obj'
p3375
aS'echo ARM Assembling(RVCT) ${SOURCE}...'
p3376
aS'c:/marmalade/7.4/s3e\\rvct\\bin\\armasm -o ${TARGET} ${SOURCE}'
p3377
asg425
(lp3378
g3375
aS'echo ARM Assembling(GCC) ${SOURCE}...'
p3379
aS'c:/marmalade/7.4/s3e\\gcc\\bin\\arm-none-eabi-gcc -c -o ${TARGET} ${SOURCE}'
p3380
asS'ppu'
p3381
(lp3382
S'.a'
p3383
aS'echo PPU Assembling(SNC) ${SOURCE}...'
p3384
aS'c:/marmalade/7.4/s3e\\rvct\\bin\\armasm -o ${TARGET} ${SOURCE}'
p3385
assS'.s'
p3386
g3372
sS'.vp'
p3387
(lp3388
NaS'"C:/Marmalade/7.4/s3e/python/python.exe" "c:/marmalade/7.4/modules/iwgx/tools/compile_shaders.py" ${SOURCE}'
p3389
asssS'extproject_names'
p3390
(lp3391
sbtp3392
.