((dp0
S'arm_dbg_args'
p1
S'-via:"c:\\Users\\lab422\\Desktop\\FYP\\Learning Resources\\Sprint 4 Minimal Example\\FinalYearProject\\build_finalyearproject_vc11\\FinalYearProject_vc11_arm_debug.via" -qemu'
p2
sS'game-icf'
p3
S''
p4
sS'dist'
p5
NsS'csproj'
p6
g4
sS'module_path_append'
p7
NsS'global_path'
p8
S'c:\\users\\lab422\\desktop\\fyp\\learning resources\\sprint 4 minimal example'
p9
sS'system_path'
p10
S'c:\\marmalade\\7.4\\s3e\\makefile_builder'
p11
sS'android_x86_dbg_args'
p12
S'../../tools/DeployTool/DeployTool.exe --dir "c:\\Users\\lab422\\Desktop\\FYP\\Learning Resources\\Sprint 4 Minimal Example\\FinalYearProject\\build_finalyearproject_vc11"'
p13
sS'no-emit'
p14
NsS'arm-float-abi'
p15
g4
sS'arm_rel_rtsm_args'
p16
S'-via:"c:\\Users\\lab422\\Desktop\\FYP\\Learning Resources\\Sprint 4 Minimal Example\\FinalYearProject\\build_finalyearproject_vc11\\FinalYearProject_vc11_arm_release.via" -qemu'
p17
sS'amd64'
p18
NsS'line-width'
p19
I80
sS'gcc_dbg_args'
p20
S'-via:"c:\\Users\\lab422\\Desktop\\FYP\\Learning Resources\\Sprint 4 Minimal Example\\FinalYearProject\\build_finalyearproject_vc11\\FinalYearProject_vc11_gcc_debug.via" -qemu'
p21
sS'android-x86'
p22
NsS'x86_dbg_exe'
p23
S'c:/marmalade/7.4/s3e\\win32\\s3e_simulator_debug.exe'
p24
sS'disable-runtime-checks'
p25
NsS'release'
p26
NsS'no-make'
p27
NsS'xcode-x86-build-settings'
p28
g4
sS'optimise-size'
p29
NsS'output-name-debug'
p30
g4
sS'arm-fpu'
p31
g4
sS'proj_name'
p32
S'FinalYearProject_vc11'
p33
sS'rvct-version'
p34
S'none'
p35
sS'compiler'
p36
g4
sS'execute'
p37
NsS'compile-static'
p38
NsS'msvc-project'
p39
NsS'buildenv'
p40
g4
sS'quick'
p41
NsS'module_path'
p42
NsS'use-release-std-libs'
p43
NsS'using_perforce'
p44
I00
sS'tizen-x86'
p45
NsS'mips-s3e'
p46
NsS's3e-api-lib-name'
p47
S's3e_api_iwgl'
p48
sS'ios-no-pic'
p49
NsS'shared-arm-lib'
p50
NsS'arm-cpu'
p51
g4
sS'compile-thumb'
p52
NsS'no-ide'
p53
NsS'msvc-version'
p54
S'6.0'
p55
sS'arm'
p56
NsS'builddir'
p57
g4
sS'compile-debug-as-release'
p58
I0
sS'arm-arch'
p59
g4
sS'brief'
p60
NsS'dll'
p61
NsS'buildenv-toolset'
p62
g4
sS'version'
p63
NsS'ccache'
p64
I0
sS'offline'
p65
NsS'ios-version'
p66
g4
sS'hub_data'
p67
g4
sS'fake_vc_call'
p68
NsS'jobs'
p69
I0
sS'linkflags'
p70
NsS'debug'
p71
NsS'xcode-build-order'
p72
g4
sS'gcc_rel_rtsm_args'
p73
S'-via:"c:\\Users\\lab422\\Desktop\\FYP\\Learning Resources\\Sprint 4 Minimal Example\\FinalYearProject\\build_finalyearproject_vc11\\FinalYearProject_vc11_gcc_release.via" -qemu'
p74
sS'done_defaults'
p75
I1
sS'path'
p76
NsS's3e-data-dir'
p77
S'c:/Users/lab422/Desktop/FYP/Learning Resources/Sprint 4 Minimal Example/FinalYearProject\\data'
p78
sS'enable-exceptions'
p79
NsS'osx-dll'
p80
NsS'extension'
p81
g4
sS'no-vc6'
p82
NsS'non-interactive'
p83
NsS'win32-console'
p84
NsS'dist-format'
p85
g4
sS's3e-force-arch'
p86
NsS'dump_defines'
p87
NsS'use_prebuilt'
p88
NsS'gcc-version'
p89
g4
sS'x86_dbg_args'
p90
S'-via:"c:\\Users\\lab422\\Desktop\\FYP\\Learning Resources\\Sprint 4 Minimal Example\\FinalYearProject\\build_finalyearproject_vc11\\FinalYearProject_vc11_debug.via"'
p91
sS'tizen_x86_dbg_args'
p92
g13
sS'arm-debugger'
p93
g4
sS'use_temp_extension'
p94
NsS'verbose'
p95
I0
sS'log'
p96
NsS'no-strip'
p97
NsS'rebuild'
p98
NsS'win32-simulator-dll'
p99
NsS'strict'
p100
NsS'mips_dbg_args'
p101
g13
sS'enable-global-path'
p102
NsS'cflags'
p103
NsS'dist-dir'
p104
g4
sS'xcode-arm-build-settings'
p105
g4
sS'jflags'
p106
NsS'csprojSDKRefs'
p107
g4
sS'tizen_x86_rel_exe'
p108
S'c:\\marmalade\\7.4\\s3e\\makefile_builder\\tool_launcher.exe'
p109
sS'test-assets'
p110
g4
sS'distcc'
p111
NsS'external-compiler'
p112
NsS'no-distcc'
p113
NsS'preinclude'
p114
NsS'using_sdk'
p115
I01
sS'nologo'
p116
NsS'warn-level'
p117
I2
sS'mips_dbg_exe'
p118
g109
sS'mkb_in'
p119
S'c:/Users/lab422/Desktop/FYP/Learning Resources/Sprint 4 Minimal Example/FinalYearProject/FinalYearProject.mkb'
p120
sS'tizen_x86_dbg_exe'
p121
g109
sS'arm_dbg_exe'
p122
S'c:/marmalade/7.4/s3e\\bin\\armdebug.exe'
p123
sS'csprojDLLRef'
p124
NsS'tizen_x86_rel_args'
p125
g13
sS'android_x86_dbg_exe'
p126
g109
sS'test-config'
p127
g4
sS'list-targets'
p128
NsS'arm_rel_exe'
p129
g109
sS'arm_rel_args'
p130
g13
sS'makedeps'
p131
NsS'android_x86_rel_exe'
p132
g109
sS'default-buildenv'
p133
S'VC11'
p134
sS'x86_rel_exe'
p135
g24
sS'preprocess-java'
p136
NsS'mips_rel_args'
p137
g13
sS'defines'
p138
NsS'lib'
p139
NsS'global_argv'
p140
(lp141
S'C:\\Marmalade\\7.4\\s3e\\makefile_builder\\mkb.py'
p142
aS'C:\\Users\\lab422\\Desktop\\FYP\\Learning Resources\\Sprint 4 Minimal Example\\FinalYearProject\\FinalYearProject.mkb'
p143
asS'make'
p144
NsS'optimise-speed'
p145
NsS'internal'
p146
NsS'enable-stdinc'
p147
NsS'deploy-only'
p148
NsS'x86'
p149
NsS'deploy'
p150
g4
sS'x86_run_exe'
p151
S'c:/marmalade/7.4/s3e\\win32\\s3e_console.exe'
p152
sS'x86_rel_args'
p153
S'-via:"c:\\Users\\lab422\\Desktop\\FYP\\Learning Resources\\Sprint 4 Minimal Example\\FinalYearProject\\build_finalyearproject_vc11\\FinalYearProject_vc11_release.via"'
p154
sS'gcc_rel_args'
p155
g13
sS'mips'
p156
NsS'xcode-build-settings'
p157
g4
sS'incredibuild'
p158
NsS'strict-compile'
p159
NsS'use-auto-subdirs'
p160
NsS'mips_rel_exe'
p161
g109
sS'android_x86_rel_args'
p162
g13
sS'app-icf'
p163
g4
sS'deployargs'
p164
NsS'iosnativedebug'
p165
NsS'mkf_in'
p166
(lp167
S'c:\\marmalade\\7.4\\modules\\iwutil\\iwutil.mkf'
p168
aS'c:\\marmalade\\7.4\\modules\\third_party\\libjpeg\\libjpeg.mkf'
p169
aS'c:\\marmalade\\7.4\\modules\\third_party\\libpng\\libpng.mkf'
p170
aS'c:\\marmalade\\7.4\\modules\\third_party\\zlib\\zlib.mkf'
p171
aS'c:\\marmalade\\7.4\\modules\\iw2dscenegraphcore\\iw2dscenegraphcore.mkf'
p172
aS'c:\\marmalade\\7.4\\modules\\iw2dscenegraph\\iw2dscenegraph.mkf'
p173
aS'c:\\marmalade\\7.4\\modules\\iw2d\\iw2d.mkf'
p174
aS'c:\\marmalade\\7.4\\modules\\iwgx\\iwgx.mkf'
p175
aS'c:\\marmalade\\7.4\\modules\\iwgl\\iwgl.mkf'
p176
aS'c:\\marmalade\\7.4\\modules\\iwgeom\\iwgeom.mkf'
p177
aS'c:\\marmalade\\7.4\\modules\\iwresmanager\\iwresmanager.mkf'
p178
aS'c:\\marmalade\\7.4\\extensions\\pvrtextool\\pvrtextool.mkf'
p179
aS'c:\\marmalade\\7.4\\modules\\iwgxfont\\iwgxfont.mkf'
p180
aS'c:\\marmalade\\7.4\\modules\\third_party\\tiniconv\\tiniconv.mkf'
p181
aS'c:\\users\\lab422\\desktop\\fyp\\learning resources\\sprint 4 minimal example\\finalyearproject\\soundengine\\soundengine.mkf'
p182
aS'c:\\marmalade\\7.4\\modules\\iwtween\\iwtween.mkf'
p183
asS'strict-mkb'
p184
NsS'executeargs'
p185
NsS'clean'
p186
NsS'no-asm'
p187
NsS'output-name'
p188
g4
sS'no-modules'
p189
NsS'find_define'
p190
g4
s(dp191
S'c:\\marmalade\\7.4\\s3e\\makefile_builder\\plugins\\Emitter.pyc'
p192
F1409106506.0
sS'c:\\marmalade\\7.4\\s3e\\makefile_builder\\templates\\ws8_ext_sln.pyc'
p193
F1409106508.0
sS'c:\\marmalade\\7.4\\s3e\\makefile_builder\\templates\\MainWindow.xib'
p194
F1409103204.0
sS'c:\\marmalade\\7.4\\s3e\\makefile_builder\\templates\\template.suo'
p195
F1409103204.0
sS'c:\\marmalade\\7.4\\s3e\\makefile_builder\\plugins\\xcode4_schememanagement.py'
p196
F1409103204.0
sS'c:\\marmalade\\7.4\\s3e\\makefile_builder\\templates\\ws81_sln.pyc'
p197
F1409106508.0
sS'c:\\marmalade\\7.4\\s3e\\makefile_builder\\templates\\win8_ext_csproj.pyc'
p198
F1409106508.0
sS'c:\\marmalade\\7.4\\s3e\\makefile_builder\\mkb_option.pyc'
p199
F1409106506.0
sS'c:\\marmalade\\7.4\\s3e\\makefile_builder\\plugins\\s3e_xcode.py'
p200
F1409103204.0
sS'c:\\marmalade\\7.4\\s3e\\makefile_builder\\plugins\\s3e_scons.pyc'
p201
F1409106506.0
sS'c:\\marmalade\\7.4\\s3e\\makefile_builder\\templates\\win8_vcxproj.pyc'
p202
F1409106508.0
sS'c:\\marmalade\\7.4\\s3e\\makefile_builder\\plugins\\null.pyc'
p203
F1409106506.0
sS'c:\\marmalade\\7.4\\s3e\\makefile_builder\\templates\\vc8_user.pyc'
p204
F1409106506.0
sS'c:\\marmalade\\7.4\\s3e\\makefile_builder\\templates\\wp81_ext_sln.pyc'
p205
F1409106508.0
sS'c:\\marmalade\\7.4\\s3e\\makefile_builder\\templates\\scons.pyc'
p206
F1409106506.0
sS'c:\\marmalade\\7.4\\s3e\\makefile_builder\\templates\\wp8_ext_csproj.pyc'
p207
F1409106508.0
sS'c:\\marmalade\\7.4\\s3e\\makefile_builder\\templates\\xcode_pbxuser.py'
p208
F1409103204.0
sS'c:\\marmalade\\7.4\\s3e\\makefile_builder\\plugins\\s3e_qmake.py'
p209
F1409103204.0
sS'c:\\marmalade\\7.4\\s3e\\makefile_builder\\plugins\\iphone.pyc'
p210
F1409106506.0
sS'c:\\marmalade\\7.4\\s3e\\makefile_builder\\templates\\ws81_ext_csproj.pyc'
p211
F1409106508.0
sS'c:\\marmalade\\7.4\\s3e\\makefile_builder\\templates\\vc6_opt.pyc'
p212
F1409106506.0
sS'c:\\marmalade\\7.4\\s3e\\makefile_builder\\plugins\\s3e_win8.pyc'
p213
F1409106506.0
sS'c:\\marmalade\\7.4\\s3e\\makefile_builder\\mkb_main.pyc'
p214
F1409106506.0
sS'c:\\marmalade\\7.4\\s3e\\makefile_builder\\templates\\wp8_csproj.pyc'
p215
F1409106508.0
sS'c:\\marmalade\\7.4\\s3e\\makefile_builder\\templates\\win32_vcproj.pyc'
p216
F1409106506.0
sS'c:\\marmalade\\7.4\\s3e\\makefile_builder\\templates\\win8_sln.pyc'
p217
F1409106508.0
sS'c:\\marmalade\\7.4\\s3e\\makefile_builder\\mkb_launcher.exe'
p218
F1409103760.0
sS'c:\\marmalade\\7.4\\s3e\\makefile_builder\\plugins\\osx_xcode.pyc'
p219
F1409106506.0
sS'c:\\marmalade\\7.4\\s3e\\makefile_builder\\plugins'
p220
F1411126710.2346628
sS'c:\\marmalade\\7.4\\s3e\\makefile_builder\\templates\\wp8_csproj_user.pyc'
p221
F1409106508.0
sS'c:\\marmalade\\7.4\\s3e\\makefile_builder\\plugins\\win32_vc6.pyc'
p222
F1409106506.0
sS'c:\\marmalade\\7.4\\s3e\\makefile_builder\\plugins\\s3e_vc6.pyc'
p223
F1409106506.0
sS'c:\\marmalade\\7.4\\s3e\\makefile_builder\\templates\\vc10_user.pyc'
p224
F1409106506.0
sS'c:\\marmalade\\7.4\\s3e\\makefile_builder\\docs\\deprecated.defines.txt'
p225
F1409103204.0
sS'c:\\marmalade\\7.4\\s3e\\makefile_builder\\templates\\wp81_csproj_user.pyc'
p226
F1409106508.0
sS'c:\\marmalade\\7.4\\s3e\\makefile_builder\\templates\\ws81_ext_sln.pyc'
p227
F1409106508.0
sS'c:\\marmalade\\7.4\\s3e\\makefile_builder\\templates\\make.py'
p228
F1409103204.0
sS'c:\\marmalade\\7.4\\s3e\\makefile_builder\\plugins\\wp81_wp81.pyc'
p229
F1409106506.0
sS'c:\\marmalade\\7.4\\s3e\\makefile_builder\\plugins\\s3e_qmake.pyc'
p230
F1411126710.1536582
sS'c:\\marmalade\\7.4\\s3e\\makefile_builder\\templates\\mips_linker_script'
p231
F1409103204.0
sS'c:\\marmalade\\7.4\\s3e\\makefile_builder\\plugins\\deploy.pyc'
p232
F1409106506.0
sS'c:\\marmalade\\7.4\\s3e\\makefile_builder\\plugins\\ws81_ws81.pyc'
p233
F1409106506.0
sS'c:\\marmalade\\7.4\\s3e\\makefile_builder\\mkb.py'
p234
F1409103204.0
sS'c:\\marmalade\\7.4\\s3e\\makefile_builder\\docs\\options.txt'
p235
F1409103204.0
sS'c:\\marmalade\\7.4\\s3e\\makefile_builder\\mkb_parser.pyc'
p236
F1409106506.0
sS'c:\\marmalade\\7.4\\s3e\\makefile_builder\\templates\\qmake_user.py'
p237
F1409103204.0
sS'c:\\marmalade\\7.4\\s3e\\makefile_builder\\docs\\mkb.defines.txt'
p238
F1409103204.0
sS'c:\\marmalade\\7.4\\s3e\\makefile_builder\\deployment.pyc'
p239
F1409106506.0
sS'c:\\marmalade\\7.4\\s3e\\makefile_builder\\plugins\\wp8_wp8.pyc'
p240
F1409106506.0
sS'c:\\marmalade\\7.4\\s3e\\makefile_builder\\plugins\\linux_scons.pyc'
p241
F1409106506.0
sS'c:\\marmalade\\7.4\\s3e\\makefile_builder\\plugins\\s3e_web.pyc'
p242
F1409106506.0
sS'c:\\marmalade\\7.4\\s3e\\makefile_builder\\plugins\\S3EEmitter.pyc'
p243
F1409106506.0
sS'c:\\marmalade\\7.4\\s3e\\makefile_builder\\plugins\\Win8Emitter.pyc'
p244
F1409106506.0
sS'c:\\marmalade\\7.4\\s3e\\makefile_builder\\templates\\xcode4_arm.xcscheme'
p245
F1409103204.0
sS'c:\\marmalade\\7.4\\s3e\\makefile_builder\\plugins\\vc6_utils.pyc'
p246
F1409106506.0
sS'c:\\marmalade\\7.4\\s3e\\makefile_builder\\templates\\wp8_vcxproj.pyc'
p247
F1409106508.0
sS'c:\\marmalade\\7.4\\s3e\\makefile_builder\\templates\\xcode4.xcscheme'
p248
F1409103204.0
sS'c:\\marmalade\\7.4\\s3e\\makefile_builder\\plugins\\MakeEmitter.pyc'
p249
F1409106506.0
sS'c:\\marmalade\\7.4\\s3e\\makefile_builder\\plugins\\java.pyc'
p250
F1409106506.0
sS'c:\\marmalade\\7.4\\s3e\\makefile_builder\\plugins\\XcodeEmitter.pyc'
p251
F1411126709.9866486
sS'c:\\marmalade\\7.4\\s3e\\makefile_builder\\plugins\\XcodeEmitter.py'
p252
F1409103204.0
sS'c:\\marmalade\\7.4\\s3e\\makefile_builder\\mkb_globals.pyc'
p253
F1409106506.0
sS'c:\\marmalade\\7.4\\s3e\\makefile_builder\\tool_launcher.exe'
p254
F1409103760.0
sS'c:\\marmalade\\7.4\\s3e\\makefile_builder\\mkb_util.pyc'
p255
F1409106506.0
sS'c:\\marmalade\\7.4\\s3e\\makefile_builder\\plugins\\xcode4_schememanagement.pyc'
p256
F1411126709.995649
sS'c:\\marmalade\\7.4\\s3e\\makefile_builder\\templates\\ws8_sln.pyc'
p257
F1409106508.0
sS'c:\\marmalade\\7.4\\s3e\\makefile_builder\\templates\\win32_sln.pyc'
p258
F1409106506.0
sS'c:\\marmalade\\7.4\\s3e\\makefile_builder\\templates\\wp81_ext_csproj.pyc'
p259
F1409106508.0
sS'c:\\marmalade\\7.4\\s3e\\makefile_builder\\plugins\\s3e_wp81.pyc'
p260
F1409106506.0
sS'c:\\marmalade\\7.4\\s3e\\makefile_builder\\plugins\\s3e_wp8.pyc'
p261
F1409106506.0
sS'c:\\marmalade\\7.4\\s3e\\makefile_builder\\templates\\qmake.py'
p262
F1409103204.0
sS'c:\\marmalade\\7.4\\s3e\\makefile_builder\\templates\\gdb_start.txt'
p263
F1409103204.0
sS'c:\\marmalade\\7.4\\s3e\\makefile_builder\\templates'
p264
F1411126377.7216442
sS'c:\\marmalade\\7.4\\s3e\\makefile_builder\\templates\\ws8_ext_csproj.pyc'
p265
F1409106508.0
sS'c:\\marmalade\\7.4\\s3e\\makefile_builder\\templates\\win8_csproj_user.pyc'
p266
F1409106508.0
sS'c:\\marmalade\\7.4\\s3e\\makefile_builder\\templates\\vc7_suo.pyc'
p267
F1409106506.0
sS'c:\\marmalade\\7.4\\s3e\\makefile_builder\\plugins\\VisualStudioEmitter.pyc'
p268
F1409106506.0
sS'c:\\marmalade\\7.4\\s3e\\makefile_builder\\templates\\linker_script'
p269
F1409103204.0
sS'c:\\marmalade\\7.4\\s3e\\makefile_builder\\docs\\deprecated.options.txt'
p270
F1409103204.0
sS'c:\\marmalade\\7.4\\s3e\\makefile_builder\\plugins\\s3e_xcode.pyc'
p271
F1411126710.2356627
sS'c:\\marmalade\\7.4\\s3e\\makefile_builder\\plugins\\s3e_ws8.pyc'
p272
F1409106506.0
sS'c:\\marmalade\\7.4\\s3e\\makefile_builder\\templates\\xcode4_DeployTool.xcscheme'
p273
F1409103204.0
sS'c:\\marmalade\\7.4\\s3e\\makefile_builder\\templates\\ws8_csproj_user.pyc'
p274
F1409106508.0
sS'c:\\marmalade\\7.4\\s3e\\makefile_builder\\plugins\\osx_scons.pyc'
p275
F1409106506.0
sS'c:\\marmalade\\7.4\\s3e\\makefile_builder\\templates\\ws81_csproj.pyc'
p276
F1409106508.0
sS'c:\\marmalade\\7.4\\s3e\\makefile_builder\\templates\\wp8_sln.pyc'
p277
F1409106508.0
sS'c:\\marmalade\\7.4\\s3e\\makefile_builder\\docs'
p278
F1411126377.7456455
sS'c:\\marmalade\\7.4\\s3e\\makefile_builder\\plugins\\ws8_ws8.pyc'
p279
F1409106506.0
sS'c:\\marmalade\\7.4\\s3e\\makefile_builder\\docs\\deployment_options.txt'
p280
F1409103204.0
sS'c:\\marmalade\\7.4\\s3e\\makefile_builder\\templates\\win32_vcxproj_filters.pyc'
p281
F1409106506.0
sS'c:\\marmalade\\7.4\\s3e\\makefile_builder\\templates\\win32_dsw.pyc'
p282
F1409106506.0
sS'c:\\marmalade\\7.4\\s3e\\makefile_builder\\plugins\\s3e_ws81.pyc'
p283
F1409106506.0
sS'c:\\marmalade\\7.4\\s3e\\makefile_builder\\plugins\\SConsEmitter.pyc'
p284
F1409106506.0
sS'c:\\marmalade\\7.4\\s3e\\makefile_builder\\templates\\wp81_vcxproj.pyc'
p285
F1409106508.0
sS'c:\\marmalade\\7.4\\s3e\\makefile_builder\\plugins\\win8_utils.pyc'
p286
F1409106506.0
sS'c:\\marmalade\\7.4\\s3e\\makefile_builder\\templates\\template.opt'
p287
F1409103204.0
sS'c:\\marmalade\\7.4\\s3e\\makefile_builder\\plugins\\vc7_utils.pyc'
p288
F1409106506.0
sS'c:\\marmalade\\7.4\\s3e\\makefile_builder\\templates\\win32_dsp.pyc'
p289
F1409106506.0
sS'c:\\marmalade\\7.4\\s3e\\makefile_builder\\plugins\\s3e_make.pyc'
p290
F1409106506.0
sS'c:\\marmalade\\7.4\\s3e\\makefile_builder\\templates\\rvct_linker_script'
p291
F1409103204.0
sS'c:\\marmalade\\7.4\\s3e\\makefile_builder\\templates\\win8_csproj.pyc'
p292
F1409106508.0
sS'c:\\marmalade\\7.4\\s3e\\makefile_builder\\templates\\xcode.py'
p293
F1409103204.0
sS'c:\\marmalade\\7.4\\s3e\\makefile_builder\\templates\\ws8_vcxproj.pyc'
p294
F1409106508.0
sS'c:\\marmalade\\7.4\\s3e\\makefile_builder\\templates\\wp81_csproj.pyc'
p295
F1409106508.0
sS'c:\\marmalade\\7.4\\s3e\\makefile_builder\\mkb_upstream.pyc'
p296
F1409106506.0
sS'c:\\marmalade\\7.4\\s3e\\makefile_builder\\templates\\win32_vcxproj.pyc'
p297
F1409106506.0
sS'c:\\marmalade\\7.4\\s3e\\makefile_builder\\templates\\ws8_csproj.pyc'
p298
F1409106508.0
sS'c:\\marmalade\\7.4\\s3e\\makefile_builder\\docs\\parse_options.pyc'
p299
F1409106508.0
sS'c:\\marmalade\\7.4\\s3e\\makefile_builder\\templates\\Info.plist'
p300
F1409103204.0
sS'c:\\marmalade\\7.4\\s3e\\makefile_builder\\templates\\wp81_sln.pyc'
p301
F1409106508.0
sS'c:\\marmalade\\7.4\\s3e\\makefile_builder\\templates\\ws81_csproj_user.pyc'
p302
F1409106508.0
sS'c:\\marmalade\\7.4\\s3e\\makefile_builder\\templates\\ws81_vcxproj.pyc'
p303
F1409106508.0
sccopy_reg
_reconstructor
p304
(cmkb_main
MkbFile
p305
c__builtin__
object
p306
Ntp307
Rp308
(dp309
g5
(lp310
sS'target_name'
p311
S'FinalYearProject'
p312
sS'current_file'
p313
g120
sS'package_path'
p314
(lp315
sS'post_build'
p316
(lp317
(lp318
S'c:/marmalade/7.4/s3e/tools'
p319
aS'C:\\Marmalade\\7.4\\s3e\\python\\python.exe .\\process_map.py "$(TargetPath)"'
p320
aa(S'c:\\marmalade\\7.4\\s3e\\bin'
p321
S'"s3e_plink" -l "$(TargetPath)" '
p322
g149
tp323
asS'librarys'
p324
(lp325
g304
(cmkb_main
Library
p326
g306
Ntp327
Rp328
(dp329
S'name'
p330
S'vc6_compat.lib'
p331
sS'expand_name'
p332
I00
sS'include_spec_rvct_objs'
p333
(lp334
sS'include_all_objs'
p335
I00
sS'share_arm'
p336
I00
sS'arch'
p337
S'x86'
p338
sS'nodebug'
p339
I00
sg36
Nsbag304
(g326
g306
Ntp340
Rp341
(dp342
g330
S'iwutil'
p343
sg332
I01
sg333
(lp344
sg335
Nsg336
Nsg337
Nsg339
I00
sg36
Nsbag304
(g326
g306
Ntp345
Rp346
(dp347
g330
S'jpeg'
p348
sg332
I01
sg333
g344
sg335
Nsg336
Nsg337
Nsg339
I00
sg36
Nsbag304
(g326
g306
Ntp349
Rp350
(dp351
g330
S'z'
p352
sg332
I01
sg333
g344
sg335
Nsg336
Nsg337
Nsg339
I00
sg36
Nsbag304
(g326
g306
Ntp353
Rp354
(dp355
g330
S'png'
p356
sg332
I01
sg333
g344
sg335
Nsg336
Nsg337
Nsg339
I00
sg36
Nsbag304
(g326
g306
Ntp357
Rp358
(dp359
g330
S'iw2d'
p360
sg332
I01
sg333
g344
sg335
Nsg336
Nsg337
Nsg339
I00
sg36
Nsbag304
(g326
g306
Ntp361
Rp362
(dp363
g330
S'ATI_Compress_MT_VC7.lib'
p364
sg332
I00
sg333
g344
sg335
Nsg336
Nsg337
S'x86'
p365
sg339
I00
sg36
Nsbag304
(g326
g306
Ntp366
Rp367
(dp368
g330
S'iwgx'
p369
sg332
I01
sg333
g344
sg335
Nsg336
Nsg337
Nsg339
I00
sg36
Nsbag304
(g326
g306
Ntp370
Rp371
(dp372
g330
S'iwgl'
p373
sg332
I01
sg333
g344
sg335
Nsg336
Nsg337
Nsg339
I00
sg36
Nsbag304
(g326
g306
Ntp374
Rp375
(dp376
g330
S'iwgeom'
p377
sg332
I01
sg333
g344
sg335
Nsg336
Nsg337
Nsg339
I00
sg36
Nsbag304
(g326
g306
Ntp378
Rp379
(dp380
g330
S'iwresmanager'
p381
sg332
I01
sg333
g344
sg335
Nsg336
Nsg337
Nsg339
I00
sg36
Nsbag304
(g326
g306
Ntp382
Rp383
(dp384
g330
S'iwgxfont'
p385
sg332
I01
sg333
g344
sg335
Nsg336
Nsg337
Nsg339
I00
sg36
Nsbag304
(g326
g306
Ntp386
Rp387
(dp388
g330
S'tiniconv'
p389
sg332
I01
sg333
g344
sg335
Nsg336
Nsg337
Nsg339
I00
sg36
Nsbag304
(g326
g306
Ntp390
Rp391
(dp392
g330
S's3e_cpp'
p393
sg332
I01
sg333
g334
sg335
I00
sg336
I00
sg337
Nsg339
I00
sg36
Nsbag304
(g326
g306
Ntp394
Rp395
(dp396
g330
S's3e'
p397
sg332
I01
sg333
(lp398
S'iwcrt.o'
p399
asg335
I00
sg336
I00
sg337
Nsg339
I00
sg36
Nsbag304
(g326
g306
Ntp400
Rp401
(dp402
g330
g48
sg332
I01
sg333
g334
sg335
I00
sg336
I00
sg337
S'x86'
p403
sg339
I01
sg36
Nsbag304
(g326
g306
Ntp404
Rp405
(dp406
g330
g48
sg332
I01
sg333
g334
sg335
I00
sg336
I00
sg337
S'!x86'
p407
sg339
I01
sg36
Nsbag304
(g326
g306
Ntp408
Rp409
(dp410
g330
S'stdc++'
p411
sg332
I00
sg333
g334
sg335
I00
sg336
I00
sg337
S'mips'
p412
sg339
I00
sg36
Nsbag304
(g326
g306
Ntp413
Rp414
(dp415
g330
S'c'
p416
sg332
I00
sg333
g334
sg335
I00
sg336
I00
sg337
S'mips'
p417
sg339
I00
sg36
Nsbag304
(g326
g306
Ntp418
Rp419
(dp420
g330
S'm'
p421
sg332
I00
sg333
g334
sg335
I00
sg336
I00
sg337
S'mips'
p422
sg339
I00
sg36
Nsbag304
(g326
g306
Ntp423
Rp424
(dp425
g330
S'gcc'
p426
sg332
I00
sg333
g334
sg335
I00
sg336
I00
sg337
S'mips'
p427
sg339
I00
sg36
Nsbag304
(g326
g306
Ntp428
Rp429
(dp430
g330
S'stdc++'
p431
sg332
I00
sg333
g334
sg335
I00
sg336
I00
sg337
S'gcc_x86_android'
p432
sg339
I00
sg36
Nsbag304
(g326
g306
Ntp433
Rp434
(dp435
g330
g416
sg332
I00
sg333
g334
sg335
I00
sg336
I00
sg337
S'gcc_x86_android'
p436
sg339
I00
sg36
Nsbag304
(g326
g306
Ntp437
Rp438
(dp439
g330
g421
sg332
I00
sg333
g334
sg335
I00
sg336
I00
sg337
S'gcc_x86_android'
p440
sg339
I00
sg36
Nsbag304
(g326
g306
Ntp441
Rp442
(dp443
g330
g426
sg332
I00
sg333
g334
sg335
I00
sg336
I00
sg337
S'gcc_x86_android'
p444
sg339
I00
sg36
NsbasS'library_paths'
p445
(lp446
g304
(cmkb_main
LibraryPath
p447
g306
Ntp448
Rp449
(dp450
S'expand_path'
p451
I01
sg330
S'c:/marmalade/7.4/modules/iwutil'
p452
sbag304
(g447
g306
Ntp453
Rp454
(dp455
g451
I01
sg330
S'c:/marmalade/7.4/modules/third_party/libjpeg'
p456
sbag304
(g447
g306
Ntp457
Rp458
(dp459
g451
I01
sg330
S'c:/marmalade/7.4/modules/third_party/zlib'
p460
sbag304
(g447
g306
Ntp461
Rp462
(dp463
g451
I01
sg330
S'c:/marmalade/7.4/modules/third_party/libpng'
p464
sbag304
(g447
g306
Ntp465
Rp466
(dp467
g451
I01
sg330
S'c:/marmalade/7.4/modules/iw2d'
p468
sbag304
(g447
g306
Ntp469
Rp470
(dp471
g451
I00
sg330
S'c:/marmalade/7.4/modules/iwgx/atitools'
p472
sbag304
(g447
g306
Ntp473
Rp474
(dp475
g451
I01
sg330
S'c:/marmalade/7.4/modules/iwgx'
p476
sbag304
(g447
g306
Ntp477
Rp478
(dp479
g451
I01
sg330
S'c:/marmalade/7.4/modules/iwgl'
p480
sbag304
(g447
g306
Ntp481
Rp482
(dp483
g451
I01
sg330
S'c:/marmalade/7.4/modules/iwgeom'
p484
sbag304
(g447
g306
Ntp485
Rp486
(dp487
g451
I01
sg330
S'c:/marmalade/7.4/modules/iwresmanager'
p488
sbag304
(g447
g306
Ntp489
Rp490
(dp491
g451
I01
sg330
S'c:/marmalade/7.4/modules/iwgxfont'
p492
sbag304
(g447
g306
Ntp493
Rp494
(dp495
g451
I01
sg330
S'c:/marmalade/7.4/modules/third_party/tiniconv'
p496
sbag304
(g447
g306
Ntp497
Rp498
(dp499
g451
I01
sg330
S'c:/marmalade/7.4/s3e'
p500
sbasS'macros'
p501
(dp502
S'IW_USE_CALLSTACK'
p503
NsS'IW_MKF_IWGEOM'
p504
NsS'I3D_PLATFORM_S3E'
p505
NsS'IW_MKF_IW2DSCENEGRAPHCORE'
p506
NsS'IW_MKF_LIBJPEG'
p507
NsS'I3D_OS_S3E'
p508
NsS'IW_MKF_PVRTEXTOOL'
p509
NsS'IW_MKF_TINICONV'
p510
NsS'IW_APP_VERSION'
p511
S'"1.0"'
p512
sS'__S3E__'
p513
NsS'IW_MKF_IWRESMANAGER'
p514
NsS'IW_MKF_IWUTIL'
p515
NsS'IW_PLATFORM_S3E'
p516
NsS'IW_ASSERTION_CHANNEL_2D'
p517
S'1'
p518
sS'IW_APP_NAME'
p519
S'"FinalYearProject"'
p520
sS'IW_MKF_IWGXFONT'
p521
NsS'IW_MKF_IWTWEEN'
p522
NsS'IW_MKF_ZLIB'
p523
NsS'IW_MKF_IWGX'
p524
NsS'IW_MKF_IW2DSCENEGRAPH'
p525
NsS'IW_MKF_SOUNDENGINE'
p526
NsS'IW_USE_ASSERTIONS'
p527
NsS'_CRT_SECURE_NO_DEPRECATE'
p528
NsS'IW_MKF_IWGL'
p529
NsS'IW_MKF_LIBPNG'
p530
NsS'IW_TRACE_CHANNEL_IW_2DSCENEGRAPH'
p531
g518
sS'IW_DEBUG'
p532
NsS'IW_USE_TRACING'
p533
NsS'IW_ASSERTION_CHANNEL_IW_2DSCENEGRAPH'
p534
g518
sS'IW_TRACE_CHANNEL_PVRTEXTOOL'
p535
g518
sS'IW_SDK'
p536
NsS'S3E_INCLUDE_LEGACY'
p537
NsS'IW_TRACE_CHANNEL_PVRTEXTOOL_VERBOSE'
p538
S'2'
p539
sS'IW_MKF_IW2D'
p540
NsS'IW_ASSERTION_CHANNEL_PVRTEXTOOL'
p541
g518
ssS'done_warnings'
p542
(dp543
sS'subprojects'
p544
(dp545
g171
S'zlib'
p546
sg176
S'iwgl'
p547
sg169
S'libjpeg'
p548
sg172
S'iw2dscenegraphcore'
p549
sg175
S'iwgx'
p550
sg177
S'iwgeom'
p551
sg168
S'iwutil'
p552
sg173
S'iw2dscenegraph'
p553
sg181
S'tiniconv'
p554
sg182
S'SoundEngine'
p555
sg174
S'iw2d'
p556
sg180
S'iwgxfont'
p557
sg178
S'iwresmanager'
p558
sg170
S'libpng'
p559
sg183
S'iwtween'
p560
sg179
S'PVRTexTool'
p561
ssS'deployments'
p562
(dp563
S'Default'
p564
g304
(cdeployment
Deployment
p565
g306
Ntp566
Rp567
(dp568
S'got_version'
p569
I0
sS'assets'
p570
g564
sS'mkb'
p571
g308
sS'target'
p572
Nsg337
(lp573
sS'options'
p574
(dp575
S'iphone-link-lib'
p576
(lp577
sS'game-icf'
p578
NsS'android-tm'
p579
NsS'winmobile-icon32'
p580
NsS'ws8-logo-image150x150'
p581
NsS'wp81-logo-image150x150'
p582
NsS'ws81-product-version'
p583
NsS'osx-ext-dll'
p584
(lp585
S'c:/marmalade/7.4/extensions/pvrtextool/lib/osx/libPVRTexTool.dylib'
p586
asS'iphone-provisioning-profile'
p587
NsS'ws8-splash-screen-image620x300'
p588
NsS'wp81-extra-pri'
p589
(lp590
sS'ws8-ext-capabilities'
p591
(lp592
sS'android-icon-hdpi'
p593
NsS'brew-icon-large'
p594
NsS'iphone-splash-full-orient'
p595
NsS'wp8-tile-fliptemplate-supports-large'
p596
NsS'iphone-show-status-bar'
p597
NsS'roku-requires-mkv'
p598
NsS'long-caption'
p599
NsS'android-pkgname'
p600
NsS'wp81-publisher-display-name'
p601
NsS'blackberry-permissions-read-device-identifying-information'
p602
NsS'ws81-certificate-end-date'
p603
NsS'psp-dlgcontentid'
p604
NsS'iphone-minimum-ios-version'
p605
NsS'target-folder'
p606
NsS'tizen-dist1-CA-path'
p607
NsS'symbian-icon2-format'
p608
NsS'tizen-author-key'
p609
NsS'firefoxos-icon-128X128'
p610
NsS'iphone-region'
p611
NsS'uiq3-icon3-mask'
p612
NsS'brew-encoding'
p613
NsS'android-x86'
p614
NsS'nds-initialcode'
p615
NsS'iphone-persistent-wifi'
p616
NsS'psp-snd0'
p617
NsS'roku-icon-focus-hd'
p618
NsS'winmobile-install-folder'
p619
NsS'android-external-res'
p620
(lp621
sS'ws8-product-version'
p622
NsS'brew-priviledges'
p623
NsS'iphone-icon-ipad-search'
p624
NsS'iphone-icon-ipad'
p625
NsS'roku-hidden'
p626
NsS'psp-titlename'
p627
NsS'wp81-product-version'
p628
NsS'symbian-icon1-mask'
p629
NsS'psp-parentallevel'
p630
NsS'splashscreen-use-all'
p631
NsS'wp8-author'
p632
NsS'symbian-disable-ecompxl'
p633
NsS'splashscreen-auto-onblack'
p634
NsS'win32-ext-dll'
p635
(lp636
S'c:/marmalade/7.4/extensions/pvrtextool/lib/win32/PVRTexTool.dll'
p637
asS'iphone-development-key'
p638
NsS'winmobile-icon48'
p639
NsS'android-unsigned'
p640
NsS'osx-appstore-category'
p641
NsS'version-revision'
p642
NsS'roku-icon-focus-sd'
p643
NsS'android-keystore'
p644
NsS'winmobile-png90'
p645
NsS'iphone-icon-ipad-high-res'
p646
NsS'iphone-disable-ipad'
p647
NsS'wp8-product-id'
p648
NsS'ws81-splash-screen-background'
p649
NsS'wp8-ext-capabilities'
p650
(lp651
sS'iphone-ipad-only'
p652
NsS'symbian-icon1-mask-black'
p653
NsS'iphone-nosign'
p654
NsS'iphone-bundle-localisations'
p655
NsS'winmobile-png60'
p656
NsS'blackberry-permissions-access-shared'
p657
NsS'blackberry-author'
p658
NsS'android-icon-xxxhdpi'
p659
NsS'olddeploytoolstyle'
p660
NsS'android_icon_gallery'
p661
NsS'wp81-splash-screen-background'
p662
NsS'winmobile-cab-compress'
p663
NsS'iphone-info-plist'
p664
NsS'ws81-ext-managed-dll'
p665
(lp666
sS'playbook-cskpass'
p667
NsS'ws8-distribution-pfx-password'
p668
NsS'symbian-key'
p669
NsS'app-icf'
p670
NsS'blackberry-storepass'
p671
NsS'wp8-tile-fliptemplate-back-title'
p672
NsS'brew-compress-loader'
p673
NsS'win32-pref-windowposy'
p674
NsS'win32-pref-windowposx'
p675
NsS'roku-requires-audiometadata'
p676
NsS'wp8-exclude-low-mem'
p677
NsS'iphone-icon-ipad-search-high-res'
p678
NsS'iphone-link-libdir'
p679
(lp680
sS'wp81-ext-capabilities'
p681
(lp682
sS'blackberry-permissions-read-geolocation'
p683
NsS'ws81-ext-device-capabilities'
p684
(lp685
sS'tizen-signed'
p686
NsS'android-extra-application-manifest'
p687
(lp688
sS'ws8-ext-native-dll'
p689
(lp690
sS'symbian-icon2-mask'
p691
NsS'iphone-backgroundmode-audio'
p692
NsS'webos-memory'
p693
NsS'android-keypass'
p694
NsS'name'
p695
NsS'uiq3-icon2-format'
p696
NsS'roku-splash-screen-sd'
p697
NsS'auto-derbh'
p698
NsS'roku-icon-side-sd'
p699
NsS'android-external-assets'
p700
(lp701
sS'nds-publicsavedatasize'
p702
NsS'splashscreen'
p703
NsS'brew-mif'
p704
NsS'iphone-icon-settings-high-res'
p705
NsS'android-manifest'
p706
NsS'ws81-splash-screen-image620x300'
p707
NsS'wp81-product-name'
p708
NsS's3e-compression'
p709
NsS'tizen-author-password'
p710
NsS'wp8-tile-fliptemplate-back-content'
p711
NsS'blackberry-extra-descriptor'
p712
(lp713
sS'symbian-icon1'
p714
NsS'symbian-icon2'
p715
NsS'android-extra-styles-file'
p716
NsS'wp81-publisher-id'
p717
NsS'nds-bannertitle-jp'
p718
NsS'wp81-logo-image44x44'
p719
NsS'osx-sign-for-store'
p720
NsS'symbian7-uid'
p721
NsS'wp8-tile-fliptemplate-large-back-content'
p722
NsS'wp81-phone-publisher-id'
p723
NsS'nds-bannertitle-cn'
p724
NsS'iphone-distribution-key'
p725
NsS'android-icon-gallery'
p726
NsS'blackberry-keystore'
p727
NsS'ws8-extra-res'
p728
(lp729
sS'caption'
p730
NsS'android-extra-manifest'
p731
(lp732
sS'wp81-ext-sdk-ref'
p733
(lp734
sS'android-icon-xxhdpi'
p735
NsS'version-minor'
p736
NsS'iphone-link-libdirs'
p737
(lp738
sS'iphone-icon-large'
p739
NsS'symbian-keypwd'
p740
NsS'symbian8-uid'
p741
NsS'symbian-cert-key'
p742
NsS'winmobile-ampd-part-number'
p743
NsS'arch'
p744
NsS'nds-romheadertemplate'
p745
NsS'webos-icon'
p746
NsS'wp81-ext-device-capabilities'
p747
(lp748
sS'psp-dlgprotectdocument'
p749
NsS'ws8-splash-screen-background'
p750
NsS'android-icon-mdpi'
p751
NsS'nds-icon'
p752
NsS'ws8-custom-manifest-fill'
p753
NsS'iphone-development-cert'
p754
NsS'blackberry-phone-icon'
p755
NsS'iphone-enable-4inch-retina'
p756
NsS'ws8-custom-manifest'
p757
NsS'version-major'
p758
NsS'wp8-genre-isgame'
p759
NsS'uiq3-uid'
p760
NsS'iphone-splash-retina-generate'
p761
NsS'tizen-hw-acceleration'
p762
NsS'iphone_bundle_localisations'
p763
NsS'tizen-dist1-key'
p764
NsS'wp81-custom-manifest-fill'
p765
NsS'wp8-custom-manifest'
p766
NsS'nds-bannertitle-ge'
p767
NsS'iphone-sign-for-distribution'
p768
NsS'wp8-tile-fliptemplate-medium-back-image'
p769
NsS'wp8-publisher-id'
p770
NsS'icon'
p771
NsS'wp8-exclude-wxga'
p772
NsS'wp81-identity-name'
p773
NsS'uiq3-icon2-mask'
p774
NsS'iphone-splashscreen-portrait'
p775
NsS'iphone-icon-high-res'
p776
NsS'ws81-distribution-pfx-password'
p777
NsS'playbook-author'
p778
NsS'android-icon-xhdpi'
p779
NsS'linux-ext-lib'
p780
(lp781
sS'blackberry-permissions-access-internet'
p782
NsS'wp8-exclude-720p'
p783
NsS'lgtv-use-drm'
p784
NsS'symbian-platsecflags'
p785
NsS'ws8-description'
p786
NsS'blackberry-playbook-icon'
p787
NsS'copyright'
p788
NsS'win32-gles-directory'
p789
NsS'version'
p790
NsS'ws81-logo-image150x150'
p791
NsS'osx-signing-identity-app'
p792
NsS'tizen-project-url'
p793
NsS'symbian-icon-svg'
p794
NsS'android-aliasname'
p795
NsS'psp-dlgmanual'
p796
NsS'brew-uid'
p797
NsS'symbian-locationsupport'
p798
NsS'wp81-logo-image50x50'
p799
NsS'ws8-ext-managed-dll'
p800
(lp801
sS'nds-bannertitle-it'
p802
NsS'ws81-custom-manifest-fill'
p803
NsS'ws8-ext-sdk-manifest-part'
p804
(lp805
sS'uiq3-icon1-mask'
p806
NsS'winmobile-icon16'
p807
NsS'ws8-product-name'
p808
NsS'blackberry-cskpass'
p809
NsS'winmobile-start-menu-folder'
p810
NsS'brew-clsid'
p811
NsS'roku-requires-bluetooth'
p812
NsS'ws8-ext-device-capabilities'
p813
(lp814
sS'blackberry-permissions-use-camera'
p815
NsS'ws81-extra-pri'
p816
(lp817
sS'iphone-prerendered-icon'
p818
NsS'iphone-appid'
p819
NsS'ws8-identity-name'
p820
NsS'tizen-dist2-CA-path'
p821
NsS'android-external-jars'
p822
(lp823
sS'winmobile-icon64'
p824
NsS'blackberry-permissions-post-notification'
p825
NsS'winmobile-setup-dll'
p826
NsS'firefoxos-manifest'
p827
NsS'win8-winrt-extra-res'
p828
(lp829
sS'wp81-ext-sdk-manifest-part'
p830
(lp831
sS'symbian9-uid'
p832
NsS'iphone-icon-ipad-ios7'
p833
NsS'winmobile-trace-file'
p834
NsS'roku-splash-color'
p835
NsS'psp-appversion'
p836
NsS'ws8-publisher-id'
p837
NsS'android-supports-gl-texture'
p838
(lp839
sS'winmobile-png45'
p840
NsS'wp81-extra-res'
p841
(lp842
sS'android-storepass'
p843
NsS'osx-signing-identity-inst'
p844
NsS'android-custom-activity'
p845
NsS'psp-discversion'
p846
NsS'wp81-ext-managed-dll'
p847
(lp848
sS'psp-copyright'
p849
NsS'embed-icf'
p850
NsS'tizen-manifest'
p851
NsS'osx-icon'
p852
NsS'webos-appinfo'
p853
NsS'psp-dlghealthwarning'
p854
NsS'webos-appid'
p855
NsS'roku-icon-side-hd'
p856
NsS'iphone-icon-ipad-search-high-res-ios7'
p857
NsS'ws81-ext-sdk-manifest-part'
p858
(lp859
sS'loader_name_prefix'
p860
NsS'nds-titlename'
p861
NsS'ws81-logo-image50x50'
p862
NsS'wp81-custom-manifest'
p863
NsS'osx-entitlements-plist'
p864
NsS'psp-dlgicon0'
p865
NsS'winmobile-nouninstall'
p866
NsS'psp-discid'
p867
NsS'tizen-dist2-password'
p868
NsS'ws8-ext-sdk-ref'
p869
(lp870
sS'iphone-extra-string'
p871
(lp872
sS'version-string'
p873
NsS'iphone-icon-high-res-ios7'
p874
NsS'blackberry-permissions-record-audio'
p875
NsS'ws8-certificate-end-date'
p876
NsS'tizen-so'
p877
(lp878
sS'wp8-tile-fliptemplate-small-image'
p879
NsS'playbook-authorid'
p880
NsS'iphone-signing-identity'
p881
NsS'roku-persist-quota'
p882
NsS'nds-bannertitle-fr'
p883
NsS'ws8-distribution-pfx'
p884
NsS'ws8-publisher-display-name'
p885
NsS'brew-icon-small'
p886
NsS'psp-dlgpic2'
p887
NsS'psp-dlgpic0'
p888
NsS'psp-pic0'
p889
NsS'psp-pic1'
p890
NsS'win32-pref-windowtitle'
p891
NsS'psp-icon0'
p892
NsS'psp-icon1'
p893
NsS'ws81-identity-name'
p894
NsS'winmobile-icon'
p895
NsS'iphone-no-splash'
p896
NsS'iphone-splash'
p897
NsS'iphone-app-fonts'
p898
NsS'wp8-ext-native-dll'
p899
(lp900
sS'wp81-splash-screen-image480x800'
p901
NsS'ws81-distribution-cer'
p902
NsS'uiq3-icon2'
p903
NsS'uiq3-icon3'
p904
NsS'uiq3-icon1'
p905
NsS'uiq3-icon1-format'
p906
NsS'ws8-logo-image50x50'
p907
NsS'symbian-icon2-mask-black'
p908
NsS'symbian-run-on-install'
p909
NsS'wp81-description'
p910
NsS'ws81-publisher-display-name'
p911
NsS'firefoxos-xulrunner'
p912
NsS'symbian-soundrecordsupport'
p913
NsS'nds-bannertitle-sp'
p914
NsS'psp-producer'
p915
NsS'iphone-apple-wwdr-cert'
p916
NsS'android-icon-nonstandard'
p917
NsS'win32-pref-processtitle'
p918
NsS'nds-bannertitle-hn'
p919
NsS'tizen-dist2-key'
p920
NsS'brew-depends'
p921
NsS'ws81-custom-manifest'
p922
NsS'iphone-icon-ipad-search-ios7'
p923
NsS'brew-icon-medium'
p924
NsS'iphone-bundle-url-name'
p925
NsS'wp8-tile-fliptemplate-large-front-image'
p926
NsS'tizen-dist2-CA-root-path'
p927
NsS'ws81-description'
p928
NsS'uiq3-icon3-format'
p929
NsS'ws81-logo-image30x30'
p930
NsS'win8-phone-extra-res'
p931
(lp932
sS'iphone-signing-host'
p933
NsS'tizen-icon'
p934
NsS'osx-info-plist'
p935
NsS'symbian-icon1-format'
p936
NsS'win8-store-extra-res'
p937
(lp938
sS'blackberry-authorid'
p939
NsS'ws81-publisher-id'
p940
NsS'ws81-distribution-pfx'
p941
NsS'wp8-description'
p942
NsS'iphone-link-opts'
p943
(lp944
sS'ws81-ext-sdk-ref'
p945
(lp946
sS'roku-splash-min-time'
p947
NsS'wp8-tile-fliptemplate-medium-front-image'
p948
NsS'provider'
p949
NsS'playbook-keystore'
p950
NsS'tizen-appid'
p951
NsS'wp8-extra-res'
p952
(lp953
sS'symbian-osexecsupport'
p954
NsS'android-install-location'
p955
NsS'nds-privatesavedatasize'
p956
NsS'playbook-storepass'
p957
NsS'android-icon-ldpi'
p958
NsS'manufacturer'
p959
NsS'itunes-artwork'
p960
NsS'iphone-extra-sections'
p961
NsS'ws81-product-name'
p962
NsS'ws81-ext-native-dll'
p963
(lp964
sS'ws8-extra-pri'
p965
(lp966
sS'win32-icon'
p967
NsS'ws8-logo-image30x30'
p968
NsS'wp8-ext-managed-dll'
p969
(lp970
sS'iphone-splashscreen-landscape'
p971
NsS'symbian-maxheapsize'
p972
NsS'nds-makercode'
p973
NsS'priv-sign-key'
p974
NsS'networking'
p975
NsS'android-icon'
p976
NsS'iphone-icon-settings'
p977
NsS'wp81-phone-product-id'
p978
NsS'firefoxos-icon-60X60'
p979
NsS'iphone-distribution-cert'
p980
NsS'android_extra_strings'
p981
NsS'nds-bannertitle-en'
p982
NsS'wp8-tile-fliptemplate-title'
p983
NsS'android-so'
p984
(lp985
sS'wp8-higher-mem'
p986
NsS'wp8-ext-sdk-ref'
p987
(lp988
sS'roku-splash-screen-hd'
p989
NsS'iphone-bundle-url-schemes'
p990
NsS'roku-screensaver-private'
p991
NsS'osx-extra-res'
p992
(lp993
sS'ws81-extra-res'
p994
(lp995
sS'playbook-icon'
p996
NsS'uid'
p997
NsS'pkguid-as-uid'
p998
NsS'wp81-ext-native-dll'
p999
(lp1000
sS'tizen-dist1-password'
p1001
NsS'roku-screensaver-title'
p1002
NsS'osx-minimum-osx-version'
p1003
NsS'symbian-cert'
p1004
NsS'iphone-icon'
p1005
NsS'ws81-ext-capabilities'
p1006
(lp1007
sS'ws8-distribution-cer'
p1008
NsS'playbook-access-shared'
p1009
NsS'iphone-icon-ipad-high-res-ios7'
p1010
NsS'iphone-link-libs'
p1011
(lp1012
sS'wp8-exclude-wvga'
p1013
NsS'assets'
p1014
NsS'wp8-tile-fliptemplate-large-back-image'
p1015
NsS'wp8-custom-manifest-fill'
p1016
NsS'pub-sign-key'
p1017
NsS'android-extra-strings'
p1018
NsS'tizen-author-CA-path'
p1019
Nssg330
g564
sbssS'platform'
p1020
S'S3E'
p1021
sg63
S'1.0'
p1022
sS'arcade_platform'
p1023
g4
sS'extensions'
p1024
(dp1025
sS'source_groups_tree'
p1026
(dp1027
S'(libpng)'
p1028
(dp1029
S'h'
p1030
(dp1031
S'c:/marmalade/7.4/modules/third_party/libpng/h/png.h'
p1032
(lp1033
I1
a(dp1034
asS'c:/marmalade/7.4/modules/third_party/libpng/h/pngconf.h'
p1035
(lp1036
I1
ag1034
assS'c:/marmalade/7.4/modules/third_party/libpng/libpng.mkf'
p1037
(lp1038
I1
a(dp1039
assS'(libjpeg)'
p1040
(dp1041
g1030
(dp1042
S'c:/marmalade/7.4/modules/third_party/libjpeg/h/jerror.h'
p1043
(lp1044
I1
a(dp1045
asS'c:/marmalade/7.4/modules/third_party/libjpeg/h/jmemsys.h'
p1046
(lp1047
I1
ag1045
asS'c:/marmalade/7.4/modules/third_party/libjpeg/h/jchuff.h'
p1048
(lp1049
I1
ag1045
asS'c:/marmalade/7.4/modules/third_party/libjpeg/h/jpeglib.h'
p1050
(lp1051
I1
ag1045
asS'c:/marmalade/7.4/modules/third_party/libjpeg/h/cdjpeg.h'
p1052
(lp1053
I1
ag1045
asS'c:/marmalade/7.4/modules/third_party/libjpeg/h/jinclude.h'
p1054
(lp1055
I1
ag1045
asS'c:/marmalade/7.4/modules/third_party/libjpeg/h/jconfig.h'
p1056
(lp1057
I1
ag1045
asS'c:/marmalade/7.4/modules/third_party/libjpeg/h/cderror.h'
p1058
(lp1059
I1
ag1045
asS'c:/marmalade/7.4/modules/third_party/libjpeg/h/jdct.h'
p1060
(lp1061
I1
ag1045
asS'c:/marmalade/7.4/modules/third_party/libjpeg/h/jversion.h'
p1062
(lp1063
I1
ag1045
asS'c:/marmalade/7.4/modules/third_party/libjpeg/h/transupp.h'
p1064
(lp1065
I1
ag1045
asS'c:/marmalade/7.4/modules/third_party/libjpeg/h/jdhuff.h'
p1066
(lp1067
I1
ag1045
asS'c:/marmalade/7.4/modules/third_party/libjpeg/h/jpegint.h'
p1068
(lp1069
I1
ag1045
asS'c:/marmalade/7.4/modules/third_party/libjpeg/h/jmorecfg.h'
p1070
(lp1071
I1
ag1045
assS'c:/marmalade/7.4/modules/third_party/libjpeg/libjpeg.mkf'
p1072
(lp1073
I1
a(dp1074
assS'(tiniconv)'
p1075
(dp1076
S'c:/marmalade/7.4/modules/third_party/tiniconv/source/tiniconv_int.h'
p1077
(lp1078
I1
a(dp1079
asS'c:/marmalade/7.4/modules/third_party/tiniconv/tiniconv.mkf'
p1080
(lp1081
I1
a(dp1082
asS'c:/marmalade/7.4/modules/third_party/tiniconv/source/tiniconv.h'
p1083
(lp1084
I1
ag1079
assS'(SoundEngine)'
p1085
(dp1086
S'c:/users/lab422/desktop/fyp/learning resources/sprint 4 minimal example/finalyearproject/soundengine/soundengine.mkf'
p1087
(lp1088
I1
a(dp1089
asS'c:/users/lab422/desktop/fyp/learning resources/sprint 4 minimal example/finalyearproject/soundengine/source/IwSoundPCM.cpp'
p1090
(lp1091
I1
a(dp1092
asS'c:/users/lab422/desktop/fyp/learning resources/sprint 4 minimal example/finalyearproject/soundengine/h/IwSoundPCM.h'
p1093
(lp1094
I1
ag1092
asS'c:/users/lab422/desktop/fyp/learning resources/sprint 4 minimal example/finalyearproject/soundengine/source/IwSoundSpec.cpp'
p1095
(lp1096
I1
ag1092
asS'c:/users/lab422/desktop/fyp/learning resources/sprint 4 minimal example/finalyearproject/soundengine/h/IwSoundManager.h'
p1097
(lp1098
I1
ag1092
asS'c:/users/lab422/desktop/fyp/learning resources/sprint 4 minimal example/finalyearproject/soundengine/source/IwSoundParams.cpp'
p1099
(lp1100
I1
ag1092
asS'c:/users/lab422/desktop/fyp/learning resources/sprint 4 minimal example/finalyearproject/soundengine/source/IwSoundGroup.cpp'
p1101
(lp1102
I1
ag1092
asS'c:/users/lab422/desktop/fyp/learning resources/sprint 4 minimal example/finalyearproject/soundengine/h/IwSoundSpec.h'
p1103
(lp1104
I1
ag1092
asS'Docs'
p1105
(dp1106
S'c:/users/lab422/desktop/fyp/learning resources/sprint 4 minimal example/finalyearproject/soundengine/docs/iwsound.config.txt'
p1107
(lp1108
I1
ag1092
assS'c:/users/lab422/desktop/fyp/learning resources/sprint 4 minimal example/finalyearproject/soundengine/h/IwResHandlerWAV.h'
p1109
(lp1110
I1
ag1092
asS'c:/users/lab422/desktop/fyp/learning resources/sprint 4 minimal example/finalyearproject/soundengine/source/IwSoundInst.cpp'
p1111
(lp1112
I1
ag1092
asS'c:/users/lab422/desktop/fyp/learning resources/sprint 4 minimal example/finalyearproject/soundengine/h/IwSound.h'
p1113
(lp1114
I1
ag1092
asS'c:/users/lab422/desktop/fyp/learning resources/sprint 4 minimal example/finalyearproject/soundengine/h/IwSoundGroup.h'
p1115
(lp1116
I1
ag1092
asS'c:/users/lab422/desktop/fyp/learning resources/sprint 4 minimal example/finalyearproject/soundengine/source/IwSoundData.cpp'
p1117
(lp1118
I1
ag1092
asS'c:/users/lab422/desktop/fyp/learning resources/sprint 4 minimal example/finalyearproject/soundengine/h/IwSoundInst.h'
p1119
(lp1120
I1
ag1092
asS'c:/users/lab422/desktop/fyp/learning resources/sprint 4 minimal example/finalyearproject/soundengine/source/IwResHandlerWAV.cpp'
p1121
(lp1122
I1
ag1092
asS'c:/users/lab422/desktop/fyp/learning resources/sprint 4 minimal example/finalyearproject/soundengine/source/IwSoundADPCM.cpp'
p1123
(lp1124
I1
ag1092
asS'c:/users/lab422/desktop/fyp/learning resources/sprint 4 minimal example/finalyearproject/soundengine/h/IwSoundADPCM.h'
p1125
(lp1126
I1
ag1092
asS'c:/users/lab422/desktop/fyp/learning resources/sprint 4 minimal example/finalyearproject/soundengine/h/IwSoundWAV.h'
p1127
(lp1128
I1
ag1092
asS'c:/users/lab422/desktop/fyp/learning resources/sprint 4 minimal example/finalyearproject/soundengine/source/IwSoundManager.cpp'
p1129
(lp1130
I1
ag1092
asS'c:/users/lab422/desktop/fyp/learning resources/sprint 4 minimal example/finalyearproject/soundengine/h/IwSoundData.h'
p1131
(lp1132
I1
ag1092
asS'c:/users/lab422/desktop/fyp/learning resources/sprint 4 minimal example/finalyearproject/soundengine/source/IwSoundWAV.cpp'
p1133
(lp1134
I1
ag1092
asS'c:/users/lab422/desktop/fyp/learning resources/sprint 4 minimal example/finalyearproject/soundengine/h/IwSoundParams.h'
p1135
(lp1136
I1
ag1092
assS'source'
p1137
(dp1138
S'c:/Users/lab422/Desktop/FYP/Learning Resources/Sprint 4 Minimal Example/FinalYearProject/source/audio.h'
p1139
(lp1140
I1
a(dp1141
asS'c:/Users/lab422/Desktop/FYP/Learning Resources/Sprint 4 Minimal Example/FinalYearProject/source/scene.cpp'
p1142
(lp1143
I1
ag1141
asS'c:/Users/lab422/Desktop/FYP/Learning Resources/Sprint 4 Minimal Example/FinalYearProject/source/audio.cpp'
p1144
(lp1145
I1
ag1141
asS'c:/Users/lab422/Desktop/FYP/Learning Resources/Sprint 4 Minimal Example/FinalYearProject/source/Game.cpp'
p1146
(lp1147
I1
ag1141
asS'c:/Users/lab422/Desktop/FYP/Learning Resources/Sprint 4 Minimal Example/FinalYearProject/source/resources.h'
p1148
(lp1149
I1
ag1141
asS'c:/Users/lab422/Desktop/FYP/Learning Resources/Sprint 4 Minimal Example/FinalYearProject/source/resources.cpp'
p1150
(lp1151
I1
ag1141
asS'c:/Users/lab422/Desktop/FYP/Learning Resources/Sprint 4 Minimal Example/FinalYearProject/source/scene.h'
p1152
(lp1153
I1
ag1141
asS'c:/Users/lab422/Desktop/FYP/Learning Resources/Sprint 4 Minimal Example/FinalYearProject/source/FinalYearProject.cpp'
p1154
(lp1155
I1
ag1141
asS'c:/Users/lab422/Desktop/FYP/Learning Resources/Sprint 4 Minimal Example/FinalYearProject/source/Game.h'
p1156
(lp1157
I1
ag1141
assS'Extensions'
p1158
(dp1159
S'PVRTexTool'
p1160
(dp1161
S'interface'
p1162
(dp1163
S'c:/marmalade/7.4/extensions/pvrtextool/interface/PVRTexTool_interface.cpp'
p1164
(lp1165
I1
a(dp1166
asS'c:/marmalade/7.4/extensions/pvrtextool/interface/PVRTexTool.defines.txt'
p1167
(lp1168
I1
ag1166
assS'c:/marmalade/7.4/extensions/pvrtextool/pvrtextool.mkf'
p1169
(lp1170
I1
a(dp1171
asS'c:/marmalade/7.4/extensions/pvrtextool/h/PVRTexTool.h'
p1172
(lp1173
I1
ag1166
asssS"'Marmalade Studio'"
p1174
(dp1175
S'iw2dscenegraph'
p1176
(dp1177
S'c:/marmalade/7.4/modules/iw2dscenegraph/docs/iw2dscenegraph.defines.txt'
p1178
(lp1179
I1
a(dp1180
asS'c:/marmalade/7.4/modules/iw2dscenegraph/source/Iw2DSceneGraph.cpp'
p1181
(lp1182
I1
ag1180
asS'c:/marmalade/7.4/modules/iw2dscenegraph/iw2dscenegraph.mkf'
p1183
(lp1184
I1
a(dp1185
asS'c:/marmalade/7.4/modules/iw2dscenegraph/h/Iw2DSceneGraph.h'
p1186
(lp1187
I1
ag1180
assS'iwgl'
p1188
(dp1189
S'c:/marmalade/7.4/modules/iwgl/iwgl.mkf'
p1190
(lp1191
I1
a(dp1192
asS'c:/marmalade/7.4/modules/iwgl/docs/iwgl.config.txt'
p1193
(lp1194
I1
a(dp1195
asS'c:/marmalade/7.4/modules/iwgl/h/IwGL.h'
p1196
(lp1197
I1
ag1195
asS'c:/marmalade/7.4/modules/iwgl/h/IwGLExt.h'
p1198
(lp1199
I1
ag1195
assS'iw2d'
p1200
(dp1201
S'c:/marmalade/7.4/modules/iw2d/docs/iw2d.config.txt'
p1202
(lp1203
I1
a(dp1204
asS'c:/marmalade/7.4/modules/iw2d/iw2d.mkf'
p1205
(lp1206
I1
a(dp1207
asS'c:/marmalade/7.4/modules/iw2d/h/Iw2D.h'
p1208
(lp1209
I1
ag1204
asS'c:/marmalade/7.4/modules/iw2d/docs/iw2d_public.defines.txt'
p1210
(lp1211
I1
ag1204
assS'iwgxfont'
p1212
(dp1213
S'c:/marmalade/7.4/modules/iwgxfont/docs/iwgxfont_public.defines.txt'
p1214
(lp1215
I1
a(dp1216
asS'c:/marmalade/7.4/modules/iwgxfont/h/IwGxFontGlyph.h'
p1217
(lp1218
I1
ag1216
asS'c:/marmalade/7.4/modules/iwgxfont/docs/iwgxfont.config.txt'
p1219
(lp1220
I1
ag1216
asS'c:/marmalade/7.4/modules/iwgxfont/h/IwGxFont.h'
p1221
(lp1222
I1
ag1216
asS'c:/marmalade/7.4/modules/iwgxfont/h/IwGxFontTypes.h'
p1223
(lp1224
I1
ag1216
asS'c:/marmalade/7.4/modules/iwgxfont/h/IwGxFontPreparedData.h'
p1225
(lp1226
I1
ag1216
asS'c:/marmalade/7.4/modules/iwgxfont/h/IwGxFontState.h'
p1227
(lp1228
I1
ag1216
asS'c:/marmalade/7.4/modules/iwgxfont/h/IwGxFontContainer.h'
p1229
(lp1230
I1
ag1216
asS'c:/marmalade/7.4/modules/iwgxfont/iwgxfont.mkf'
p1231
(lp1232
I1
a(dp1233
assS'iwgeom'
p1234
(dp1235
S'c:/marmalade/7.4/modules/iwgeom/docs/iwgeom.config.txt'
p1236
(lp1237
I1
a(dp1238
asS'c:/marmalade/7.4/modules/iwgeom/h/IwGeomFIntersect.h'
p1239
(lp1240
I1
ag1238
asS'c:/marmalade/7.4/modules/iwgeom/h/IwGeomMat2D.h.tpl'
p1241
(lp1242
I1
ag1238
asS'c:/marmalade/7.4/modules/iwgeom/iwgeom.mkf'
p1243
(lp1244
I1
a(dp1245
asS'c:/marmalade/7.4/modules/iwgeom/h/IwGeomVec.h.tpl'
p1246
(lp1247
I1
ag1238
asS'c:/marmalade/7.4/modules/iwgeom/h/IwGeomFSphere.h'
p1248
(lp1249
I1
ag1238
asS'c:/marmalade/7.4/modules/iwgeom/h/IwGeomFQuat.h'
p1250
(lp1251
I1
ag1238
asS'c:/marmalade/7.4/modules/iwgeom/h/IwGeomMenu.h'
p1252
(lp1253
I1
ag1238
asS'c:/marmalade/7.4/modules/iwgeom/h/IwGeomFMat2D.h'
p1254
(lp1255
I1
ag1238
asS'c:/marmalade/7.4/modules/iwgeom/h/IwGeomFVec4.h'
p1256
(lp1257
I1
ag1238
asS'c:/marmalade/7.4/modules/iwgeom/h/IwGeomQuat.h'
p1258
(lp1259
I1
ag1238
asS'c:/marmalade/7.4/modules/iwgeom/h/IwGeomFBBox.h'
p1260
(lp1261
I1
ag1238
asS'c:/marmalade/7.4/modules/iwgeom/h/IwGeomSVec4.h'
p1262
(lp1263
I1
ag1238
asS'c:/marmalade/7.4/modules/iwgeom/h/IwGeomFVec2.h'
p1264
(lp1265
I1
ag1238
asS'c:/marmalade/7.4/modules/iwgeom/h/IwGeomVec.h'
p1266
(lp1267
I1
ag1238
asS'c:/marmalade/7.4/modules/iwgeom/h/IwGeomPlane.h'
p1268
(lp1269
I1
ag1238
asS'c:/marmalade/7.4/modules/iwgeom/h/IwGeomQuat.h.tpl'
p1270
(lp1271
I1
ag1238
asS'c:/marmalade/7.4/modules/iwgeom/h/IwGeomSVec3.h'
p1272
(lp1273
I1
ag1238
asS'c:/marmalade/7.4/modules/iwgeom/h/IwGeomMat.h'
p1274
(lp1275
I1
ag1238
asS'c:/marmalade/7.4/modules/iwgeom/h/IwGeomVec3.h'
p1276
(lp1277
I1
ag1238
asS'c:/marmalade/7.4/modules/iwgeom/h/IwGeomVec2.h'
p1278
(lp1279
I1
ag1238
asS'c:/marmalade/7.4/modules/iwgeom/h/IwGeomLegacy.h'
p1280
(lp1281
I1
ag1238
asS'c:/marmalade/7.4/modules/iwgeom/h/IwGeomSQuat.h'
p1282
(lp1283
I1
ag1238
asS'c:/marmalade/7.4/modules/iwgeom/h/IwGeomCore.h'
p1284
(lp1285
I1
ag1238
asS'c:/marmalade/7.4/modules/iwgeom/h/IwGeomVec4.h'
p1286
(lp1287
I1
ag1238
asS'c:/marmalade/7.4/modules/iwgeom/h/IwGeomBBox.h'
p1288
(lp1289
I1
ag1238
asS'c:/marmalade/7.4/modules/iwgeom/h/IwGeomIntersect.h'
p1290
(lp1291
I1
ag1238
asS'c:/marmalade/7.4/modules/iwgeom/h/IwGeomSVec2.h'
p1292
(lp1293
I1
ag1238
asS'c:/marmalade/7.4/modules/iwgeom/h/IwGeomMat2D.h'
p1294
(lp1295
I1
ag1238
asS'c:/marmalade/7.4/modules/iwgeom/h/IwGeomSphere.h'
p1296
(lp1297
I1
ag1238
asS'c:/marmalade/7.4/modules/iwgeom/h/IwGeomFVec3.h'
p1298
(lp1299
I1
ag1238
asS'c:/marmalade/7.4/modules/iwgeom/h/IwGeom.h'
p1300
(lp1301
I1
ag1238
asS'c:/marmalade/7.4/modules/iwgeom/h/IwGeomMat.h.tpl'
p1302
(lp1303
I1
ag1238
asS'c:/marmalade/7.4/modules/iwgeom/h/IwGeomFPlane.h'
p1304
(lp1305
I1
ag1238
asS'c:/marmalade/7.4/modules/iwgeom/h/IwGeomFMat.h'
p1306
(lp1307
I1
ag1238
asS'c:/marmalade/7.4/modules/iwgeom/h/IwGeomSqrt.h'
p1308
(lp1309
I1
ag1238
assS'iwresmanager'
p1310
(dp1311
S'c:/marmalade/7.4/modules/iwresmanager/h/IwResGroup.h'
p1312
(lp1313
I1
a(dp1314
asS'c:/marmalade/7.4/modules/iwresmanager/h/IwResManager.h'
p1315
(lp1316
I1
ag1314
asS'c:/marmalade/7.4/modules/iwresmanager/h/IwResHandlerITX.h'
p1317
(lp1318
I1
ag1314
asS'c:/marmalade/7.4/modules/iwresmanager/h/IwResSerialise.h'
p1319
(lp1320
I1
ag1314
asS'c:/marmalade/7.4/modules/iwresmanager/h/IwResHandlerGROUP.h'
p1321
(lp1322
I1
ag1314
asS'c:/marmalade/7.4/modules/iwresmanager/iwresmanager.mkf'
p1323
(lp1324
I1
a(dp1325
asS'c:/marmalade/7.4/modules/iwresmanager/h/IwResHandlerImage.h'
p1326
(lp1327
I1
ag1314
asS'c:/marmalade/7.4/modules/iwresmanager/h/IwResHandler.h'
p1328
(lp1329
I1
ag1314
asS'c:/marmalade/7.4/modules/iwresmanager/docs/iwresmanager.config.txt'
p1330
(lp1331
I1
ag1314
asS'c:/marmalade/7.4/modules/iwresmanager/h/IwResManagerClass.h'
p1332
(lp1333
I1
ag1314
assS'iwgx'
p1334
(dp1335
S'c:/marmalade/7.4/modules/iwgx/h/IwDebugPrim.h'
p1336
(lp1337
I1
a(dp1338
asS'c:/marmalade/7.4/modules/iwgx/h/IwGxFuncTable.h'
p1339
(lp1340
I1
ag1338
asS'c:/marmalade/7.4/modules/iwgx/h/IwClip.inl'
p1341
(lp1342
I1
ag1338
asS'c:/marmalade/7.4/modules/iwgx/h/IwGxPrint.h'
p1343
(lp1344
I1
ag1338
asS'c:/marmalade/7.4/modules/iwgx/h/IwGx.h'
p1345
(lp1346
I1
ag1338
asS'c:/marmalade/7.4/modules/iwgx/h/IwTexture.h'
p1347
(lp1348
I1
ag1338
asS'c:/marmalade/7.4/modules/iwgx/h/IwFColour.h'
p1349
(lp1350
I1
ag1338
asS'c:/marmalade/7.4/modules/iwgx/h/IwColour.h'
p1351
(lp1352
I1
ag1338
asS'c:/marmalade/7.4/modules/iwgx/h/IwGxState.h'
p1353
(lp1354
I1
ag1338
asS'c:/marmalade/7.4/modules/iwgx/h/IwClip.h'
p1355
(lp1356
I1
ag1338
asS'c:/marmalade/7.4/modules/iwgx/h/IwTPage.h'
p1357
(lp1358
I1
ag1338
asS'c:/marmalade/7.4/modules/iwgx/h/IwMaterial.h'
p1359
(lp1360
I1
ag1338
asS'c:/marmalade/7.4/modules/iwgx/h/IwGxDebug.h'
p1361
(lp1362
I1
ag1338
asS'c:/marmalade/7.4/modules/iwgx/h/IwMatAnim.h'
p1363
(lp1364
I1
ag1338
asS'c:/marmalade/7.4/modules/iwgx/h/IwGxStream.h'
p1365
(lp1366
I1
ag1338
asS'c:/marmalade/7.4/modules/iwgx/h/IwResHandlerMTL.h'
p1367
(lp1368
I1
ag1338
asS'c:/marmalade/7.4/modules/iwgx/h/IwGxMetrics.h'
p1369
(lp1370
I1
ag1338
asS'c:/marmalade/7.4/modules/iwgx/h/IwGxError.h'
p1371
(lp1372
I1
ag1338
asS'c:/marmalade/7.4/modules/iwgx/docs/iwgx.config.txt'
p1373
(lp1374
I1
ag1338
asS'c:/marmalade/7.4/modules/iwgx/h/IwGxTransformSW.h'
p1375
(lp1376
I1
ag1338
asS'c:/marmalade/7.4/modules/iwgx/iwgx.mkf'
p1377
(lp1378
I1
a(dp1379
asS'c:/marmalade/7.4/modules/iwgx/docs/iwgx_public.defines.txt'
p1380
(lp1381
I1
ag1338
asS'c:/marmalade/7.4/modules/iwgx/h/IwGxShaderTechnique.h'
p1382
(lp1383
I1
ag1338
asS'c:/marmalade/7.4/modules/iwgx/h/IwGxTypes.h'
p1384
(lp1385
I1
ag1338
asS'c:/marmalade/7.4/modules/iwgx/h/IwGxSurface.h'
p1386
(lp1387
I1
ag1338
assS'iw2dscenegraphcore'
p1388
(dp1389
S'c:/marmalade/7.4/modules/iw2dscenegraphcore/iw2dscenegraphcore.mkf'
p1390
(lp1391
I1
a(dp1392
asS'c:/marmalade/7.4/modules/iw2dscenegraphcore/source/Iw2DSceneGraphCore.cpp'
p1393
(lp1394
I1
a(dp1395
asS'c:/marmalade/7.4/modules/iw2dscenegraphcore/h/Iw2DSceneGraphCore.h'
p1396
(lp1397
I1
ag1395
assS'iwutil'
p1398
(dp1399
S'c:/marmalade/7.4/modules/iwutil/h/IwTextParser.h'
p1400
(lp1401
I1
a(dp1402
asS'c:/marmalade/7.4/modules/iwutil/h/IwMenu.h'
p1403
(lp1404
I1
ag1402
asS'c:/marmalade/7.4/modules/iwutil/h/IwUtilInitTerm.h'
p1405
(lp1406
I1
ag1402
asS'c:/marmalade/7.4/modules/iwutil/h/IwCopyingPtr.h'
p1407
(lp1408
I1
ag1402
asS'c:/marmalade/7.4/modules/iwutil/h/IwDebug.h'
p1409
(lp1410
I1
ag1402
asS'c:/marmalade/7.4/modules/iwutil/h/IwVariableBitField.h'
p1411
(lp1412
I1
ag1402
asS'c:/marmalade/7.4/modules/iwutil/h/IwBuffer.h'
p1413
(lp1414
I1
ag1402
asS'c:/marmalade/7.4/modules/iwutil/h/IwRandom.h'
p1415
(lp1416
I1
ag1402
asS'c:/marmalade/7.4/modules/iwutil/h/IwKeymap.h'
p1417
(lp1418
I1
ag1402
asS'c:/marmalade/7.4/modules/iwutil/h/IwResource.h'
p1419
(lp1420
I1
ag1402
asS'c:/marmalade/7.4/modules/iwutil/h/IwCore.h'
p1421
(lp1422
I1
ag1402
asS'c:/marmalade/7.4/modules/iwutil/h/IwTextParserITX.h'
p1423
(lp1424
I1
ag1402
asS'c:/marmalade/7.4/modules/iwutil/h/IwManaged.h'
p1425
(lp1426
I1
ag1402
asS'c:/marmalade/7.4/modules/iwutil/h/IwHashString.h'
p1427
(lp1428
I1
ag1402
asS'c:/marmalade/7.4/modules/iwutil/h/IwProfileMenu.h'
p1429
(lp1430
I1
ag1402
asS'c:/marmalade/7.4/modules/iwutil/h/IwManagedList.h'
p1431
(lp1432
I1
ag1402
asS'c:/marmalade/7.4/modules/iwutil/h/IwList.h'
p1433
(lp1434
I1
ag1402
asS'c:/marmalade/7.4/modules/iwutil/h/IwSerialise.h'
p1435
(lp1436
I1
ag1402
asS'c:/marmalade/7.4/modules/iwutil/h/IwClassFactory.h'
p1437
(lp1438
I1
ag1402
asS'c:/marmalade/7.4/modules/iwutil/h/IwTypes.h'
p1439
(lp1440
I1
ag1402
asS'c:/marmalade/7.4/modules/iwutil/h/IwAllocator.h'
p1441
(lp1442
I1
ag1402
asS'c:/marmalade/7.4/modules/iwutil/h/IwMemory.h'
p1443
(lp1444
I1
ag1402
asS'c:/marmalade/7.4/modules/iwutil/h/IwTextParseable.h'
p1445
(lp1446
I1
ag1402
asS'c:/marmalade/7.4/modules/iwutil/h/IwFile.h'
p1447
(lp1448
I1
ag1402
asS'c:/marmalade/7.4/modules/iwutil/h/IwRuntime.h'
p1449
(lp1450
I1
ag1402
asS'c:/marmalade/7.4/modules/iwutil/h/IwMemBucketHelpers.h'
p1451
(lp1452
I1
ag1402
asS'c:/marmalade/7.4/modules/iwutil/h/IwUncopyable.h'
p1453
(lp1454
I1
ag1402
asS'c:/marmalade/7.4/modules/iwutil/h/IwChar.h'
p1455
(lp1456
I1
ag1402
asS'c:/marmalade/7.4/modules/iwutil/h/IwOptimiseARM.h'
p1457
(lp1458
I1
ag1402
asS'c:/marmalade/7.4/modules/iwutil/h/IwImage.h'
p1459
(lp1460
I1
ag1402
asS'c:/marmalade/7.4/modules/iwutil/h/IwImageHelper.h'
p1461
(lp1462
I1
ag1402
asS'c:/marmalade/7.4/modules/iwutil/h/IwMemBucket.h'
p1463
(lp1464
I1
ag1402
asS'c:/marmalade/7.4/modules/iwutil/h/IwDivide.h'
p1465
(lp1466
I1
ag1402
asS'c:/marmalade/7.4/modules/iwutil/h/IwOptimiseSpeed.h'
p1467
(lp1468
I1
ag1402
asS'c:/marmalade/7.4/modules/iwutil/h/IwArray.h'
p1469
(lp1470
I1
ag1402
asS'c:/marmalade/7.4/modules/iwutil/docs/iwutil.config.txt'
p1471
(lp1472
I1
ag1402
asS'c:/marmalade/7.4/modules/iwutil/h/IwUTF8.h'
p1473
(lp1474
I1
ag1402
asS'c:/marmalade/7.4/modules/iwutil/h/IwEvent.h'
p1475
(lp1476
I1
ag1402
asS'c:/marmalade/7.4/modules/iwutil/h/IwMath.h'
p1477
(lp1478
I1
ag1402
asS'c:/marmalade/7.4/modules/iwutil/h/IwFibre.h'
p1479
(lp1480
I1
ag1402
asS'c:/marmalade/7.4/modules/iwutil/h/IwString.h'
p1481
(lp1482
I1
ag1402
asS'c:/marmalade/7.4/modules/iwutil/iwutil.mkf'
p1483
(lp1484
I1
a(dp1485
asS'c:/marmalade/7.4/modules/iwutil/h/IwSingleton.h'
p1486
(lp1487
I1
ag1402
asS'c:/marmalade/7.4/modules/iwutil/h/IwAutoFile.h'
p1488
(lp1489
I1
ag1402
asS'c:/marmalade/7.4/modules/iwutil/h/IwOptimiseThumb.h'
p1490
(lp1491
I1
ag1402
asS'c:/marmalade/7.4/modules/iwutil/h/IwUtil.h'
p1492
(lp1493
I1
ag1402
asS'c:/marmalade/7.4/modules/iwutil/h/IwPath.h'
p1494
(lp1495
I1
ag1402
asS'c:/marmalade/7.4/modules/iwutil/h/IwMemManagerDL.h'
p1496
(lp1497
I1
ag1402
asS'c:/marmalade/7.4/modules/iwutil/h/IwDivTable.h'
p1498
(lp1499
I1
ag1402
asS'c:/marmalade/7.4/modules/iwutil/h/IwOptimiseSize.h'
p1500
(lp1501
I1
ag1402
asssS'(zlib)'
p1502
(dp1503
g1030
(dp1504
S'c:/marmalade/7.4/modules/third_party/zlib/h/zconf.h'
p1505
(lp1506
I1
a(dp1507
asS'c:/marmalade/7.4/modules/third_party/zlib/h/zlib.h'
p1508
(lp1509
I1
ag1507
assS'c:/marmalade/7.4/modules/third_party/zlib/zlib.mkf'
p1510
(lp1511
I1
a(dp1512
assS'(iwtween)'
p1513
(dp1514
S'c:/marmalade/7.4/modules/iwtween/source/IwTween.cpp'
p1515
(lp1516
I1
a(dp1517
asS'c:/marmalade/7.4/modules/iwtween/h/IwTween.h'
p1518
(lp1519
I1
ag1517
asS'c:/marmalade/7.4/modules/iwtween/iwtween.mkf'
p1520
(lp1521
I1
a(dp1522
asssS'files'
p1523
(dp1524
S'IwGxFontPreparedData.h'
p1525
g304
(cmkb_main
File
p1526
g306
Ntp1527
Rp1528
(dp1529
S'flags'
p1530
g1216
sS'group'
p1531
(lp1532
S"'Marmalade Studio'"
p1533
ag1212
asg330
g1225
sbsS'iterator'
p1534
g304
(g1526
g306
Ntp1535
Rp1536
(dp1537
g1530
(dp1538
sg1531
(lp1539
S"'Marmalade System (S3E)'"
p1540
aS'stdc headers'
p1541
aS'c++'
p1542
asg330
S'c:/marmalade/7.4/s3e/h/std/c++/iterator'
p1543
sbsS'IwGL.h'
p1544
g304
(g1526
g306
Ntp1545
Rp1546
(dp1547
g1530
g1195
sg1531
(lp1548
S"'Marmalade Studio'"
p1549
ag1188
asg330
g1196
sbsS's3e.h'
p1550
g304
(g1526
g306
Ntp1551
Rp1552
(dp1553
g1530
g1538
sg1531
(lp1554
g1540
asg330
S'c:/marmalade/7.4/s3e/h/s3e.h'
p1555
sbsS'errno.h'
p1556
g304
(g1526
g306
Ntp1557
Rp1558
(dp1559
g1530
g1538
sg1531
(lp1560
g1540
aS'stdc headers'
p1561
asg330
S'c:/marmalade/7.4/s3e/h/std/errno.h'
p1562
sbsS'IwSingleton.h'
p1563
g304
(g1526
g306
Ntp1564
Rp1565
(dp1566
g1530
g1402
sg1531
(lp1567
S"'Marmalade Studio'"
p1568
ag1398
asg330
g1486
sbsS'dlfcn.h'
p1569
g304
(g1526
g306
Ntp1570
Rp1571
(dp1572
g1530
g1538
sg1531
g1560
sg330
S'c:/marmalade/7.4/s3e/h/std/dlfcn.h'
p1573
sbsS'IwSoundWAV.cpp'
p1574
g304
(g1526
g306
Ntp1575
Rp1576
(dp1577
g1530
g1092
sg1531
(lp1578
g1085
asg330
g1133
sbsS'sched.h'
p1579
g304
(g1526
g306
Ntp1580
Rp1581
(dp1582
g1530
g1538
sg1531
g1560
sg330
S'c:/marmalade/7.4/s3e/h/std/sched.h'
p1583
sbsS'IwSoundPCM.h'
p1584
g304
(g1526
g306
Ntp1585
Rp1586
(dp1587
g1530
g1092
sg1531
g1578
sg330
g1093
sbsS'IwGeomFMat2D.h'
p1588
g304
(g1526
g306
Ntp1589
Rp1590
(dp1591
g1530
g1238
sg1531
(lp1592
S"'Marmalade Studio'"
p1593
ag1234
asg330
g1254
sbsS'cassert'
p1594
g304
(g1526
g306
Ntp1595
Rp1596
(dp1597
g1530
g1538
sg1531
g1539
sg330
S'c:/marmalade/7.4/s3e/h/std/c++/cassert'
p1598
sbsS'grp.h'
p1599
g304
(g1526
g306
Ntp1600
Rp1601
(dp1602
g1530
g1538
sg1531
g1560
sg330
S'c:/marmalade/7.4/s3e/h/std/grp.h'
p1603
sbsS'list'
p1604
g304
(g1526
g306
Ntp1605
Rp1606
(dp1607
g1530
g1538
sg1531
g1539
sg330
S'c:/marmalade/7.4/s3e/h/std/c++/list'
p1608
sbsS'IwSoundSpec.cpp'
p1609
g304
(g1526
g306
Ntp1610
Rp1611
(dp1612
g1530
g1092
sg1531
g1578
sg330
g1095
sbsS'FinalYearProject.cpp'
p1613
g304
(g1526
g306
Ntp1614
Rp1615
(dp1616
g1530
g1141
sg1531
(lp1617
g1137
asg330
g1154
sbsS'IwGeomMat.h.tpl'
p1618
g304
(g1526
g306
Ntp1619
Rp1620
(dp1621
g1530
g1238
sg1531
g1592
sg330
g1302
sbsS'istream'
p1622
g304
(g1526
g306
Ntp1623
Rp1624
(dp1625
g1530
g1538
sg1531
g1539
sg330
S'c:/marmalade/7.4/s3e/h/std/c++/istream'
p1626
sbsS'jpeglib.h'
p1627
g304
(g1526
g306
Ntp1628
Rp1629
(dp1630
g1530
g1045
sg1531
(lp1631
g1040
ag1030
asg330
g1050
sbsS'iw2d_public.defines.txt'
p1632
g304
(g1526
g306
Ntp1633
Rp1634
(dp1635
g1530
g1204
sg1531
(lp1636
S"'Marmalade Studio'"
p1637
ag1200
asg330
g1210
sbsS'iostream.h'
p1638
g304
(g1526
g306
Ntp1639
Rp1640
(dp1641
g1530
g1538
sg1531
g1539
sg330
S'c:/marmalade/7.4/s3e/h/std/c++/iostream.h'
p1642
sbsS'IwSoundADPCM.h'
p1643
g304
(g1526
g306
Ntp1644
Rp1645
(dp1646
g1530
g1092
sg1531
g1578
sg330
g1125
sbsS'string'
p1647
g304
(g1526
g306
Ntp1648
Rp1649
(dp1650
g1530
g1538
sg1531
g1539
sg330
S'c:/marmalade/7.4/s3e/h/std/c++/string'
p1651
sbsS'IwMemory.h'
p1652
g304
(g1526
g306
Ntp1653
Rp1654
(dp1655
g1530
g1402
sg1531
g1567
sg330
g1443
sbsS'IwGeomPlane.h'
p1656
g304
(g1526
g306
Ntp1657
Rp1658
(dp1659
g1530
g1238
sg1531
g1592
sg330
g1268
sbsS'iw2d.config.txt'
p1660
g304
(g1526
g306
Ntp1661
Rp1662
(dp1663
g1530
g1204
sg1531
g1636
sg330
g1202
sbsS'iomanip'
p1664
g304
(g1526
g306
Ntp1665
Rp1666
(dp1667
g1530
g1538
sg1531
g1539
sg330
S'c:/marmalade/7.4/s3e/h/std/c++/iomanip'
p1668
sbsS'iwgeom.mkf'
p1669
g304
(g1526
g306
Ntp1670
Rp1671
(dp1672
g1530
g1245
sg1531
g1592
sg330
g1243
sbsS'IwGxError.h'
p1673
g304
(g1526
g306
Ntp1674
Rp1675
(dp1676
g1530
g1338
sg1531
(lp1677
S"'Marmalade Studio'"
p1678
ag1334
asg330
g1371
sbsS'IwGeom.h'
p1679
g304
(g1526
g306
Ntp1680
Rp1681
(dp1682
g1530
g1238
sg1531
g1592
sg330
g1300
sbsS'scene.cpp'
p1683
g304
(g1526
g306
Ntp1684
Rp1685
(dp1686
g1530
g1141
sg1531
g1617
sg330
g1142
sbsS'IwGeomVec4.h'
p1687
g304
(g1526
g306
Ntp1688
Rp1689
(dp1690
g1530
g1238
sg1531
g1592
sg330
g1286
sbsS'dir.h'
p1691
g304
(g1526
g306
Ntp1692
Rp1693
(dp1694
g1530
g1538
sg1531
(lp1695
g1540
aS'stdc headers'
p1696
aS'sys'
p1697
asg330
S'c:/marmalade/7.4/s3e/h/std/sys/dir.h'
p1698
sbsS'locale.h'
p1699
g304
(g1526
g306
Ntp1700
Rp1701
(dp1702
g1530
g1538
sg1531
g1560
sg330
S'c:/marmalade/7.4/s3e/h/std/locale.h'
p1703
sbsS'vector'
p1704
g304
(g1526
g306
Ntp1705
Rp1706
(dp1707
g1530
g1538
sg1531
g1539
sg330
S'c:/marmalade/7.4/s3e/h/std/c++/vector'
p1708
sbsS'IwManaged.h'
p1709
g304
(g1526
g306
Ntp1710
Rp1711
(dp1712
g1530
g1402
sg1531
g1567
sg330
g1425
sbsS's3eCompass.h'
p1713
g304
(g1526
g306
Ntp1714
Rp1715
(dp1716
g1530
g1538
sg1531
g1554
sg330
S'c:/marmalade/7.4/s3e/h/s3eCompass.h'
p1717
sbsS'cderror.h'
p1718
g304
(g1526
g306
Ntp1719
Rp1720
(dp1721
g1530
g1045
sg1531
g1631
sg330
g1058
sbsS'climits'
p1722
g304
(g1526
g306
Ntp1723
Rp1724
(dp1725
g1530
g1538
sg1531
g1539
sg330
S'c:/marmalade/7.4/s3e/h/std/c++/climits'
p1726
sbsS'ipc.h'
p1727
g304
(g1526
g306
Ntp1728
Rp1729
(dp1730
g1530
g1538
sg1531
g1695
sg330
S'c:/marmalade/7.4/s3e/h/std/sys/ipc.h'
p1731
sbsS'jversion.h'
p1732
g304
(g1526
g306
Ntp1733
Rp1734
(dp1735
g1530
g1045
sg1531
g1631
sg330
g1062
sbsS'fnmatch.h'
p1736
g304
(g1526
g306
Ntp1737
Rp1738
(dp1739
g1530
g1538
sg1531
g1560
sg330
S'c:/marmalade/7.4/s3e/h/std/fnmatch.h'
p1740
sbsS'IwGxState.h'
p1741
g304
(g1526
g306
Ntp1742
Rp1743
(dp1744
g1530
g1338
sg1531
g1677
sg330
g1353
sbsS'rope'
p1745
g304
(g1526
g306
Ntp1746
Rp1747
(dp1748
g1530
g1538
sg1531
g1539
sg330
S'c:/marmalade/7.4/s3e/h/std/c++/rope'
p1749
sbsS's3eAudio.h'
p1750
g304
(g1526
g306
Ntp1751
Rp1752
(dp1753
g1530
g1538
sg1531
g1554
sg330
S'c:/marmalade/7.4/s3e/h/s3eAudio.h'
p1754
sbsS's3eSurface.h'
p1755
g304
(g1526
g306
Ntp1756
Rp1757
(dp1758
g1530
g1538
sg1531
g1554
sg330
S'c:/marmalade/7.4/s3e/h/s3eSurface.h'
p1759
sbsS'new'
p1760
g304
(g1526
g306
Ntp1761
Rp1762
(dp1763
g1530
g1538
sg1531
g1539
sg330
S'c:/marmalade/7.4/s3e/h/std/c++/new'
p1764
sbsS's3eWindow.h'
p1765
g304
(g1526
g306
Ntp1766
Rp1767
(dp1768
g1530
g1538
sg1531
(lp1769
g1540
aS'Extensions'
p1770
asg330
S'c:/marmalade/7.4/s3e/h/ext/s3eWindow.h'
p1771
sbsS'IwBuffer.h'
p1772
g304
(g1526
g306
Ntp1773
Rp1774
(dp1775
g1530
g1402
sg1531
g1567
sg330
g1413
sbsS'stdio_streambuf'
p1776
g304
(g1526
g306
Ntp1777
Rp1778
(dp1779
g1530
g1538
sg1531
g1539
sg330
S'c:/marmalade/7.4/s3e/h/std/c++/stdio_streambuf'
p1780
sbsS'IwGeomQuat.h.tpl'
p1781
g304
(g1526
g306
Ntp1782
Rp1783
(dp1784
g1530
g1238
sg1531
g1592
sg330
g1270
sbsS's3eOSExec.h'
p1785
g304
(g1526
g306
Ntp1786
Rp1787
(dp1788
g1530
g1538
sg1531
g1769
sg330
S'c:/marmalade/7.4/s3e/h/ext/s3eOSExec.h'
p1789
sbsS'IwGxTransformSW.h'
p1790
g304
(g1526
g306
Ntp1791
Rp1792
(dp1793
g1530
g1338
sg1531
g1677
sg330
g1375
sbsS'IwGxMetrics.h'
p1794
g304
(g1526
g306
Ntp1795
Rp1796
(dp1797
g1530
g1338
sg1531
g1677
sg330
g1369
sbsS'iwgxfont.config.txt'
p1798
g304
(g1526
g306
Ntp1799
Rp1800
(dp1801
g1530
g1216
sg1531
g1532
sg330
g1219
sbsS'gl2platform.h'
p1802
g304
(g1526
g306
Ntp1803
Rp1804
(dp1805
g1530
g1538
sg1531
(lp1806
g1540
aS'GL'
p1807
aS'GLES 2.0'
p1808
asg330
S'c:/marmalade/7.4/s3e/h/GLES2/gl2platform.h'
p1809
sbsS'iw2dscenegraph.defines.txt'
p1810
g304
(g1526
g306
Ntp1811
Rp1812
(dp1813
g1530
g1180
sg1531
(lp1814
S"'Marmalade Studio'"
p1815
ag1176
asg330
g1178
sbsS'queue'
p1816
g304
(g1526
g306
Ntp1817
Rp1818
(dp1819
g1530
g1538
sg1531
g1539
sg330
S'c:/marmalade/7.4/s3e/h/std/c++/queue'
p1820
sbsS'time_1.h'
p1821
g304
(g1526
g306
Ntp1822
Rp1823
(dp1824
g1530
g1538
sg1531
g1695
sg330
S'c:/marmalade/7.4/s3e/h/std/sys/time.h'
p1825
sbsS'Iw2D.h'
p1826
g304
(g1526
g306
Ntp1827
Rp1828
(dp1829
g1530
g1204
sg1531
g1636
sg330
g1208
sbsS'IwGeomVec2.h'
p1830
g304
(g1526
g306
Ntp1831
Rp1832
(dp1833
g1530
g1238
sg1531
g1592
sg330
g1278
sbsS's3eDevice.h'
p1834
g304
(g1526
g306
Ntp1835
Rp1836
(dp1837
g1530
g1538
sg1531
g1554
sg330
S'c:/marmalade/7.4/s3e/h/s3eDevice.h'
p1838
sbsS'malloc.h'
p1839
g304
(g1526
g306
Ntp1840
Rp1841
(dp1842
g1530
g1538
sg1531
g1560
sg330
S'c:/marmalade/7.4/s3e/h/std/malloc.h'
p1843
sbsS'stdarg.h'
p1844
g304
(g1526
g306
Ntp1845
Rp1846
(dp1847
g1530
g1538
sg1531
g1560
sg330
S'c:/marmalade/7.4/s3e/h/std/stdarg.h'
p1848
sbsS'IwGeomCore.h'
p1849
g304
(g1526
g306
Ntp1850
Rp1851
(dp1852
g1530
g1238
sg1531
g1592
sg330
g1284
sbsS'Iw2DSceneGraph.h'
p1853
g304
(g1526
g306
Ntp1854
Rp1855
(dp1856
g1530
g1180
sg1531
g1814
sg330
g1186
sbsS'endian.h'
p1857
g304
(g1526
g306
Ntp1858
Rp1859
(dp1860
g1530
g1538
sg1531
g1560
sg330
S'c:/marmalade/7.4/s3e/h/std/endian.h'
p1861
sbsS'gl3ext.h'
p1862
g304
(g1526
g306
Ntp1863
Rp1864
(dp1865
g1530
g1538
sg1531
(lp1866
g1540
aS'GL'
p1867
aS'GLES 3.0'
p1868
asg330
S'c:/marmalade/7.4/s3e/h/GLES3/gl3ext.h'
p1869
sbsS'glob.h'
p1870
g304
(g1526
g306
Ntp1871
Rp1872
(dp1873
g1530
g1538
sg1531
g1560
sg330
S'c:/marmalade/7.4/s3e/h/std/glob.h'
p1874
sbsS'fstream'
p1875
g304
(g1526
g306
Ntp1876
Rp1877
(dp1878
g1530
g1538
sg1531
g1539
sg330
S'c:/marmalade/7.4/s3e/h/std/c++/fstream'
p1879
sbsS's3eCamera.h'
p1880
g304
(g1526
g306
Ntp1881
Rp1882
(dp1883
g1530
g1538
sg1531
g1554
sg330
S'c:/marmalade/7.4/s3e/h/s3eCamera.h'
p1884
sbsS'jconfig.h'
p1885
g304
(g1526
g306
Ntp1886
Rp1887
(dp1888
g1530
g1045
sg1531
g1631
sg330
g1056
sbsS'memory'
p1889
g304
(g1526
g306
Ntp1890
Rp1891
(dp1892
g1530
g1538
sg1531
g1539
sg330
S'c:/marmalade/7.4/s3e/h/std/c++/memory'
p1893
sbsS'egl.h'
p1894
g304
(g1526
g306
Ntp1895
Rp1896
(dp1897
g1530
g1538
sg1531
(lp1898
g1540
aS'GL'
p1899
aS'EGL'
p1900
asg330
S'c:/marmalade/7.4/s3e/h/EGL/egl.h'
p1901
sbsS'IwClip.inl'
p1902
g304
(g1526
g306
Ntp1903
Rp1904
(dp1905
g1530
g1338
sg1531
g1677
sg330
g1341
sbsS'IwMemManagerDL.h'
p1906
g304
(g1526
g306
Ntp1907
Rp1908
(dp1909
g1530
g1402
sg1531
g1567
sg330
g1496
sbsS'deque'
p1910
g304
(g1526
g306
Ntp1911
Rp1912
(dp1913
g1530
g1538
sg1531
g1539
sg330
S'c:/marmalade/7.4/s3e/h/std/c++/deque'
p1914
sbsS'IwString.h'
p1915
g304
(g1526
g306
Ntp1916
Rp1917
(dp1918
g1530
g1402
sg1531
g1567
sg330
g1481
sbsS'cwchar'
p1919
g304
(g1526
g306
Ntp1920
Rp1921
(dp1922
g1530
g1538
sg1531
g1539
sg330
S'c:/marmalade/7.4/s3e/h/std/c++/cwchar'
p1923
sbsS'iwutil.mkf'
p1924
g304
(g1526
g306
Ntp1925
Rp1926
(dp1927
g1530
g1485
sg1531
g1567
sg330
g1483
sbsS'csignal'
p1928
g304
(g1526
g306
Ntp1929
Rp1930
(dp1931
g1530
g1538
sg1531
g1539
sg330
S'c:/marmalade/7.4/s3e/h/std/c++/csignal'
p1932
sbsS'pthread_types.h'
p1933
g304
(g1526
g306
Ntp1934
Rp1935
(dp1936
g1530
g1538
sg1531
g1560
sg330
S'c:/marmalade/7.4/s3e/h/std/pthread_types.h'
p1937
sbsS'pthread_alloc'
p1938
g304
(g1526
g306
Ntp1939
Rp1940
(dp1941
g1530
g1538
sg1531
g1539
sg330
S'c:/marmalade/7.4/s3e/h/std/c++/pthread_alloc'
p1942
sbsS'getopt.h'
p1943
g304
(g1526
g306
Ntp1944
Rp1945
(dp1946
g1530
g1538
sg1531
g1560
sg330
S'c:/marmalade/7.4/s3e/h/std/getopt.h'
p1947
sbsS'IwOptimiseARM.h'
p1948
g304
(g1526
g306
Ntp1949
Rp1950
(dp1951
g1530
g1402
sg1531
g1567
sg330
g1457
sbsS'times.h'
p1952
g304
(g1526
g306
Ntp1953
Rp1954
(dp1955
g1530
g1538
sg1531
g1695
sg330
S'c:/marmalade/7.4/s3e/h/std/sys/times.h'
p1956
sbsS'IwGeomFSphere.h'
p1957
g304
(g1526
g306
Ntp1958
Rp1959
(dp1960
g1530
g1238
sg1531
g1592
sg330
g1248
sbsS'IwTypes.h'
p1961
g304
(g1526
g306
Ntp1962
Rp1963
(dp1964
g1530
g1402
sg1531
g1567
sg330
g1439
sbsS'unistd.h'
p1965
g304
(g1526
g306
Ntp1966
Rp1967
(dp1968
g1530
g1538
sg1531
g1560
sg330
S'c:/marmalade/7.4/s3e/h/std/unistd.h'
p1969
sbsS'audio.cpp'
p1970
g304
(g1526
g306
Ntp1971
Rp1972
(dp1973
g1530
g1141
sg1531
g1617
sg330
g1144
sbsS's3eCompression.h'
p1974
g304
(g1526
g306
Ntp1975
Rp1976
(dp1977
g1530
g1538
sg1531
g1554
sg330
S'c:/marmalade/7.4/s3e/h/s3eCompression.h'
p1978
sbsS'langinfo.h'
p1979
g304
(g1526
g306
Ntp1980
Rp1981
(dp1982
g1530
g1538
sg1531
g1560
sg330
S'c:/marmalade/7.4/s3e/h/std/langinfo.h'
p1983
sbsS's3edebugHeap.h'
p1984
g304
(g1526
g306
Ntp1985
Rp1986
(dp1987
g1530
g1538
sg1531
g1769
sg330
S'c:/marmalade/7.4/s3e/h/ext/s3edebugHeap.h'
p1988
sbsS'AirplayVersion.h'
p1989
g304
(g1526
g306
Ntp1990
Rp1991
(dp1992
g1530
g1538
sg1531
g1554
sg330
S'c:/marmalade/7.4/s3e/h/AirplayVersion.h'
p1993
sbsS'gl2extimg.h'
p1994
g304
(g1526
g306
Ntp1995
Rp1996
(dp1997
g1530
g1538
sg1531
g1806
sg330
S'c:/marmalade/7.4/s3e/h/GLES2/gl2extimg.h'
p1998
sbsS'app.config.txt'
p1999
g304
(g1526
g306
Ntp2000
Rp2001
(dp2002
g1530
(dp2003
sg1531
g4
sg330
S'c:/Users/lab422/Desktop/FYP/Learning Resources/Sprint 4 Minimal Example/FinalYearProject/data/app.config.txt'
p2004
sbsS'IwGeomSqrt.h'
p2005
g304
(g1526
g306
Ntp2006
Rp2007
(dp2008
g1530
g1238
sg1531
g1592
sg330
g1308
sbsS'tiniconv_int.h'
p2009
g304
(g1526
g306
Ntp2010
Rp2011
(dp2012
g1530
g1079
sg1531
(lp2013
g1075
asg330
g1077
sbsS'syslog.h'
p2014
g304
(g1526
g306
Ntp2015
Rp2016
(dp2017
g1530
g1538
sg1531
g1560
sg330
S'c:/marmalade/7.4/s3e/h/std/syslog.h'
p2018
sbsS'IwGxFontTypes.h'
p2019
g304
(g1526
g306
Ntp2020
Rp2021
(dp2022
g1530
g1216
sg1531
g1532
sg330
g1223
sbsS'IwGeomFIntersect.h'
p2023
g304
(g1526
g306
Ntp2024
Rp2025
(dp2026
g1530
g1238
sg1531
g1592
sg330
g1239
sbsS'hash_map'
p2027
g304
(g1526
g306
Ntp2028
Rp2029
(dp2030
g1530
g1538
sg1531
g1539
sg330
S'c:/marmalade/7.4/s3e/h/std/c++/hash_map'
p2031
sbsS's3e.mkf'
p2032
g304
(g1526
g306
Ntp2033
Rp2034
(dp2035
g1530
(dp2036
sg1531
g1554
sg330
S'c:/marmalade/7.4/s3e/s3e.mkf'
p2037
sbsS'IwGeomMat2D.h.tpl'
p2038
g304
(g1526
g306
Ntp2039
Rp2040
(dp2041
g1530
g1238
sg1531
g1592
sg330
g1241
sbsS's3eOSReadString.h'
p2042
g304
(g1526
g306
Ntp2043
Rp2044
(dp2045
g1530
g1538
sg1531
g1769
sg330
S'c:/marmalade/7.4/s3e/h/ext/s3eOSReadString.h'
p2046
sbsS'IwSound.h'
p2047
g304
(g1526
g306
Ntp2048
Rp2049
(dp2050
g1530
g1092
sg1531
g1578
sg330
g1113
sbsS'map'
p2051
g304
(g1526
g306
Ntp2052
Rp2053
(dp2054
g1530
g1538
sg1531
g1539
sg330
S'c:/marmalade/7.4/s3e/h/std/c++/map'
p2055
sbsS'iwtween.mkf'
p2056
g304
(g1526
g306
Ntp2057
Rp2058
(dp2059
g1530
g1522
sg1531
(lp2060
g1513
asg330
g1520
sbsS'IwOptimiseSpeed.h'
p2061
g304
(g1526
g306
Ntp2062
Rp2063
(dp2064
g1530
g1402
sg1531
g1567
sg330
g1467
sbsS'ostream'
p2065
g304
(g1526
g306
Ntp2066
Rp2067
(dp2068
g1530
g1538
sg1531
g1539
sg330
S'c:/marmalade/7.4/s3e/h/std/c++/ostream'
p2069
sbsS'msl_string.h'
p2070
g304
(g1526
g306
Ntp2071
Rp2072
(dp2073
g1530
g1538
sg1531
g1539
sg330
S'c:/marmalade/7.4/s3e/h/std/c++/msl_string.h'
p2074
sbsS'select.h'
p2075
g304
(g1526
g306
Ntp2076
Rp2077
(dp2078
g1530
g1538
sg1531
g1695
sg330
S'c:/marmalade/7.4/s3e/h/std/sys/select.h'
p2079
sbsS'zlib.mkf'
p2080
g304
(g1526
g306
Ntp2081
Rp2082
(dp2083
g1530
g1512
sg1531
(lp2084
g1502
asg330
g1510
sbsS'signal.h'
p2085
g304
(g1526
g306
Ntp2086
Rp2087
(dp2088
g1530
g1538
sg1531
g1560
sg330
S'c:/marmalade/7.4/s3e/h/std/signal.h'
p2089
sbsS'sigcontext.h'
p2090
g304
(g1526
g306
Ntp2091
Rp2092
(dp2093
g1530
g1538
sg1531
g1560
sg330
S'c:/marmalade/7.4/s3e/h/std/sigcontext.h'
p2094
sbsS'libpng.mkf'
p2095
g304
(g1526
g306
Ntp2096
Rp2097
(dp2098
g1530
g1039
sg1531
(lp2099
g1028
asg330
g1037
sbsS's3eClipboard.h'
p2100
g304
(g1526
g306
Ntp2101
Rp2102
(dp2103
g1530
g1538
sg1531
g1554
sg330
S'c:/marmalade/7.4/s3e/h/s3eClipboard.h'
p2104
sbsS'IwGxFuncTable.h'
p2105
g304
(g1526
g306
Ntp2106
Rp2107
(dp2108
g1530
g1338
sg1531
g1677
sg330
g1339
sbsS'IwResHandlerGROUP.h'
p2109
g304
(g1526
g306
Ntp2110
Rp2111
(dp2112
g1530
g1314
sg1531
(lp2113
g1174
ag1310
asg330
g1321
sbsS's3eDebug.h'
p2114
g304
(g1526
g306
Ntp2115
Rp2116
(dp2117
g1530
g1538
sg1531
g1554
sg330
S'c:/marmalade/7.4/s3e/h/s3eDebug.h'
p2118
sbsS'socket.h'
p2119
g304
(g1526
g306
Ntp2120
Rp2121
(dp2122
g1530
g1538
sg1531
g1695
sg330
S'c:/marmalade/7.4/s3e/h/std/sys/socket.h'
p2123
sbsS'glext.h'
p2124
g304
(g1526
g306
Ntp2125
Rp2126
(dp2127
g1530
g1538
sg1531
(lp2128
g1540
aS'GL'
p2129
aS'GLES 1.x'
p2130
asg330
S'c:/marmalade/7.4/s3e/h/GLES/glext.h'
p2131
sbsS'typeinfo.h'
p2132
g304
(g1526
g306
Ntp2133
Rp2134
(dp2135
g1530
g1538
sg1531
g1539
sg330
S'c:/marmalade/7.4/s3e/h/std/c++/typeinfo.h'
p2136
sbsS'typeinfo'
p2137
g304
(g1526
g306
Ntp2138
Rp2139
(dp2140
g1530
g1538
sg1531
g1539
sg330
S'c:/marmalade/7.4/s3e/h/std/c++/typeinfo'
p2141
sbsS'iwsound.config.txt'
p2142
g304
(g1526
g306
Ntp2143
Rp2144
(dp2145
g1530
g1092
sg1531
(lp2146
g1085
ag1105
asg330
g1107
sbsS'fstream.h'
p2147
g304
(g1526
g306
Ntp2148
Rp2149
(dp2150
g1530
g1538
sg1531
g1539
sg330
S'c:/marmalade/7.4/s3e/h/std/c++/fstream.h'
p2151
sbsS's3ePointer.h'
p2152
g304
(g1526
g306
Ntp2153
Rp2154
(dp2155
g1530
g1538
sg1531
g1554
sg330
S'c:/marmalade/7.4/s3e/h/s3ePointer.h'
p2156
sbsS'iw2d.mkf'
p2157
g304
(g1526
g306
Ntp2158
Rp2159
(dp2160
g1530
g1207
sg1531
g1636
sg330
g1205
sbsS'PVRTexTool.h'
p2161
g304
(g1526
g306
Ntp2162
Rp2163
(dp2164
g1530
g1166
sg1531
(lp2165
g1158
ag1160
asg330
g1172
sbsS's3eGL.h'
p2166
g304
(g1526
g306
Ntp2167
Rp2168
(dp2169
g1530
g1538
sg1531
g1554
sg330
S'c:/marmalade/7.4/s3e/h/s3eGL.h'
p2170
sbsS'IwGeomFVec2.h'
p2171
g304
(g1526
g306
Ntp2172
Rp2173
(dp2174
g1530
g1238
sg1531
g1592
sg330
g1264
sbsS'IwGeomSVec4.h'
p2175
g304
(g1526
g306
Ntp2176
Rp2177
(dp2178
g1530
g1238
sg1531
g1592
sg330
g1262
sbsS'poll.h'
p2179
g304
(g1526
g306
Ntp2180
Rp2181
(dp2182
g1530
g1538
sg1531
g1560
sg330
S'c:/marmalade/7.4/s3e/h/std/poll.h'
p2183
sbsS'IwMatAnim.h'
p2184
g304
(g1526
g306
Ntp2185
Rp2186
(dp2187
g1530
g1338
sg1531
g1677
sg330
g1363
sbsS'IwGeomFVec4.h'
p2188
g304
(g1526
g306
Ntp2189
Rp2190
(dp2191
g1530
g1238
sg1531
g1592
sg330
g1256
sbsS'IwGx.h'
p2192
g304
(g1526
g306
Ntp2193
Rp2194
(dp2195
g1530
g1338
sg1531
g1677
sg330
g1345
sbsS'valarray'
p2196
g304
(g1526
g306
Ntp2197
Rp2198
(dp2199
g1530
g1538
sg1531
g1539
sg330
S'c:/marmalade/7.4/s3e/h/std/c++/valarray'
p2200
sbsS'iosfwd'
p2201
g304
(g1526
g306
Ntp2202
Rp2203
(dp2204
g1530
g1538
sg1531
g1539
sg330
S'c:/marmalade/7.4/s3e/h/std/c++/iosfwd'
p2205
sbsS'gl2.h'
p2206
g304
(g1526
g306
Ntp2207
Rp2208
(dp2209
g1530
g1538
sg1531
g1806
sg330
S'c:/marmalade/7.4/s3e/h/GLES2/gl2.h'
p2210
sbsS'jpegint.h'
p2211
g304
(g1526
g306
Ntp2212
Rp2213
(dp2214
g1530
g1045
sg1531
g1631
sg330
g1068
sbsS'stdiostream.h'
p2215
g304
(g1526
g306
Ntp2216
Rp2217
(dp2218
g1530
g1538
sg1531
g1539
sg330
S'c:/marmalade/7.4/s3e/h/std/c++/stdiostream.h'
p2219
sbsS'mem.h'
p2220
g304
(g1526
g306
Ntp2221
Rp2222
(dp2223
g1530
g1538
sg1531
g1539
sg330
S'c:/marmalade/7.4/s3e/h/std/c++/mem.h'
p2224
sbsS'jerror.h'
p2225
g304
(g1526
g306
Ntp2226
Rp2227
(dp2228
g1530
g1045
sg1531
g1631
sg330
g1043
sbsS'zconf.h'
p2229
g304
(g1526
g306
Ntp2230
Rp2231
(dp2232
g1530
g1507
sg1531
(lp2233
g1502
ag1030
asg330
g1505
sbsS's3e.config.txt'
p2234
g304
(g1526
g306
Ntp2235
Rp2236
(dp2237
g1530
g1538
sg1531
g1554
sg330
S'c:/marmalade/7.4/s3e/s3e.config.txt'
p2238
sbsS'numeric'
p2239
g304
(g1526
g306
Ntp2240
Rp2241
(dp2242
g1530
g1538
sg1531
g1539
sg330
S'c:/marmalade/7.4/s3e/h/std/c++/numeric'
p2243
sbsS'utime.h'
p2244
g304
(g1526
g306
Ntp2245
Rp2246
(dp2247
g1530
g1538
sg1531
g1560
sg330
S'c:/marmalade/7.4/s3e/h/std/utime.h'
p2248
sbsS'jdhuff.h'
p2249
g304
(g1526
g306
Ntp2250
Rp2251
(dp2252
g1530
g1045
sg1531
g1631
sg330
g1066
sbsS'IwResHandlerWAV.cpp'
p2253
g304
(g1526
g306
Ntp2254
Rp2255
(dp2256
g1530
g1092
sg1531
g1578
sg330
g1121
sbsS'un.h'
p2257
g304
(g1526
g306
Ntp2258
Rp2259
(dp2260
g1530
g1538
sg1531
g1695
sg330
S'c:/marmalade/7.4/s3e/h/std/sys/un.h'
p2261
sbsS'IwImage.h'
p2262
g304
(g1526
g306
Ntp2263
Rp2264
(dp2265
g1530
g1402
sg1531
g1567
sg330
g1459
sbsS's3eImagePicker.h'
p2266
g304
(g1526
g306
Ntp2267
Rp2268
(dp2269
g1530
g1538
sg1531
g1769
sg330
S'c:/marmalade/7.4/s3e/h/ext/s3eImagePicker.h'
p2270
sbsS'stdlib.h'
p2271
g304
(g1526
g306
Ntp2272
Rp2273
(dp2274
g1530
g1538
sg1531
g1560
sg330
S'c:/marmalade/7.4/s3e/h/std/stdlib.h'
p2275
sbsS'IwCopyingPtr.h'
p2276
g304
(g1526
g306
Ntp2277
Rp2278
(dp2279
g1530
g1402
sg1531
g1567
sg330
g1407
sbsS'iostream'
p2280
g304
(g1526
g306
Ntp2281
Rp2282
(dp2283
g1530
g1538
sg1531
g1539
sg330
S'c:/marmalade/7.4/s3e/h/std/c++/iostream'
p2284
sbsS'png.h'
p2285
g304
(g1526
g306
Ntp2286
Rp2287
(dp2288
g1530
g1034
sg1531
(lp2289
g1028
ag1030
asg330
g1032
sbsS'stddef.h'
p2290
g304
(g1526
g306
Ntp2291
Rp2292
(dp2293
g1530
g1538
sg1531
g1560
sg330
S'c:/marmalade/7.4/s3e/h/std/stddef.h'
p2294
sbsS'setjmp_win32.h'
p2295
g304
(g1526
g306
Ntp2296
Rp2297
(dp2298
g1530
g1538
sg1531
g1560
sg330
S'c:/marmalade/7.4/s3e/h/std/setjmp_win32.h'
p2299
sbsS'IwGxPrint.h'
p2300
g304
(g1526
g306
Ntp2301
Rp2302
(dp2303
g1530
g1338
sg1531
g1677
sg330
g1343
sbsS'iwgx_public.defines.txt'
p2304
g304
(g1526
g306
Ntp2305
Rp2306
(dp2307
g1530
g1338
sg1531
g1677
sg330
g1380
sbsS'streambuf.h'
p2308
g304
(g1526
g306
Ntp2309
Rp2310
(dp2311
g1530
g1538
sg1531
g1539
sg330
S'c:/marmalade/7.4/s3e/h/std/c++/streambuf.h'
p2312
sbsS'resources.cpp'
p2313
g304
(g1526
g306
Ntp2314
Rp2315
(dp2316
g1530
g1141
sg1531
g1617
sg330
g1150
sbsS'IwGeomFPlane.h'
p2317
g304
(g1526
g306
Ntp2318
Rp2319
(dp2320
g1530
g1238
sg1531
g1592
sg330
g1304
sbsS'wchar.h'
p2321
g304
(g1526
g306
Ntp2322
Rp2323
(dp2324
g1530
g1538
sg1531
g1560
sg330
S'c:/marmalade/7.4/s3e/h/std/wchar.h'
p2325
sbsS's3eCameraCapture.h'
p2326
g304
(g1526
g306
Ntp2327
Rp2328
(dp2329
g1530
g1538
sg1531
g1769
sg330
S'c:/marmalade/7.4/s3e/h/ext/s3eCameraCapture.h'
p2330
sbsS'eglext.h'
p2331
g304
(g1526
g306
Ntp2332
Rp2333
(dp2334
g1530
g1538
sg1531
g1898
sg330
S'c:/marmalade/7.4/s3e/h/EGL/eglext.h'
p2335
sbsS'IwResHandlerImage.h'
p2336
g304
(g1526
g306
Ntp2337
Rp2338
(dp2339
g1530
g1314
sg1531
g2113
sg330
g1326
sbsS'strstream.h'
p2340
g304
(g1526
g306
Ntp2341
Rp2342
(dp2343
g1530
g1538
sg1531
g1539
sg330
S'c:/marmalade/7.4/s3e/h/std/c++/strstream.h'
p2344
sbsS'tiniconv.h'
p2345
g304
(g1526
g306
Ntp2346
Rp2347
(dp2348
g1530
g1079
sg1531
g2013
sg330
g1083
sbsS'IwGLExt.h'
p2349
g304
(g1526
g306
Ntp2350
Rp2351
(dp2352
g1530
g1195
sg1531
g1548
sg330
g1198
sbsS'app.icf'
p2353
g304
(g1526
g306
Ntp2354
Rp2355
(dp2356
g1530
(dp2357
sg1531
g4
sg330
S'c:/Users/lab422/Desktop/FYP/Learning Resources/Sprint 4 Minimal Example/FinalYearProject/data/app.icf'
p2358
sbsS'IwClassFactory.h'
p2359
g304
(g1526
g306
Ntp2360
Rp2361
(dp2362
g1530
g1402
sg1531
g1567
sg330
g1437
sbsS'file.h'
p2363
g304
(g1526
g306
Ntp2364
Rp2365
(dp2366
g1530
g1538
sg1531
g1695
sg330
S'c:/marmalade/7.4/s3e/h/std/sys/file.h'
p2367
sbsS'cstring'
p2368
g304
(g1526
g306
Ntp2369
Rp2370
(dp2371
g1530
g1538
sg1531
g1539
sg330
S'c:/marmalade/7.4/s3e/h/std/c++/cstring'
p2372
sbsS'IwSoundInst.cpp'
p2373
g304
(g1526
g306
Ntp2374
Rp2375
(dp2376
g1530
g1092
sg1531
g1578
sg330
g1111
sbsS'iwutil.config.txt'
p2377
g304
(g1526
g306
Ntp2378
Rp2379
(dp2380
g1530
g1402
sg1531
g1567
sg330
g1471
sbsS's3eSMS.h'
p2381
g304
(g1526
g306
Ntp2382
Rp2383
(dp2384
g1530
g1538
sg1531
g1769
sg330
S'c:/marmalade/7.4/s3e/h/ext/s3eSMS.h'
p2385
sbsS'limits.h'
p2386
g304
(g1526
g306
Ntp2387
Rp2388
(dp2389
g1530
g1538
sg1531
g1560
sg330
S'c:/marmalade/7.4/s3e/h/std/limits.h'
p2390
sbsS'scene.h'
p2391
g304
(g1526
g306
Ntp2392
Rp2393
(dp2394
g1530
g1141
sg1531
g1617
sg330
g1152
sbsS'IwMaterial.h'
p2395
g304
(g1526
g306
Ntp2396
Rp2397
(dp2398
g1530
g1338
sg1531
g1677
sg330
g1359
sbsS'PVRTexTool_interface.cpp'
p2399
g304
(g1526
g306
Ntp2400
Rp2401
(dp2402
g1530
g1166
sg1531
(lp2403
g1158
ag1160
ag1162
asg330
g1164
sbsS'IwGxSurface.h'
p2404
g304
(g1526
g306
Ntp2405
Rp2406
(dp2407
g1530
g1338
sg1531
g1677
sg330
g1386
sbsS's3eSocket.h'
p2408
g304
(g1526
g306
Ntp2409
Rp2410
(dp2411
g1530
g1538
sg1531
g1554
sg330
S'c:/marmalade/7.4/s3e/h/s3eSocket.h'
p2412
sbsS'IwAutoFile.h'
p2413
g304
(g1526
g306
Ntp2414
Rp2415
(dp2416
g1530
g1402
sg1531
g1567
sg330
g1488
sbsS's3eVibra.h'
p2417
g304
(g1526
g306
Ntp2418
Rp2419
(dp2420
g1530
g1538
sg1531
g1554
sg330
S'c:/marmalade/7.4/s3e/h/s3eVibra.h'
p2421
sbsS'poll_1.h'
p2422
g304
(g1526
g306
Ntp2423
Rp2424
(dp2425
g1530
g1538
sg1531
g1695
sg330
S'c:/marmalade/7.4/s3e/h/std/sys/poll.h'
p2426
sbsS's3eThread.h'
p2427
g304
(g1526
g306
Ntp2428
Rp2429
(dp2430
g1530
g1538
sg1531
g1554
sg330
S'c:/marmalade/7.4/s3e/h/s3eThread.h'
p2431
sbsS'ucontext.h'
p2432
g304
(g1526
g306
Ntp2433
Rp2434
(dp2435
g1530
g1538
sg1531
g1560
sg330
S'c:/marmalade/7.4/s3e/h/std/ucontext.h'
p2436
sbsS'time.h'
p2437
g304
(g1526
g306
Ntp2438
Rp2439
(dp2440
g1530
g1538
sg1531
g1560
sg330
S'c:/marmalade/7.4/s3e/h/std/time.h'
p2441
sbsS'jchuff.h'
p2442
g304
(g1526
g306
Ntp2443
Rp2444
(dp2445
g1530
g1045
sg1531
g1631
sg330
g1048
sbsS'IwSoundPCM.cpp'
p2446
g304
(g1526
g306
Ntp2447
Rp2448
(dp2449
g1530
g1092
sg1531
g1578
sg330
g1090
sbsS's3eSoundRecord.h'
p2450
g304
(g1526
g306
Ntp2451
Rp2452
(dp2453
g1530
g1538
sg1531
g1554
sg330
S'c:/marmalade/7.4/s3e/h/s3eSoundRecord.h'
p2454
sbsS'IwFibre.h'
p2455
g304
(g1526
g306
Ntp2456
Rp2457
(dp2458
g1530
g1402
sg1531
g1567
sg330
g1479
sbsS's3eVersion.h'
p2459
g304
(g1526
g306
Ntp2460
Rp2461
(dp2462
g1530
g1538
sg1531
g1554
sg330
S'c:/marmalade/7.4/s3e/h/s3eVersion.h'
p2463
sbsS'IwSoundGroup.h'
p2464
g304
(g1526
g306
Ntp2465
Rp2466
(dp2467
g1530
g1092
sg1531
g1578
sg330
g1115
sbsS'IwSoundWAV.h'
p2468
g304
(g1526
g306
Ntp2469
Rp2470
(dp2471
g1530
g1092
sg1531
g1578
sg330
g1127
sbsS'IwGxFontGlyph.h'
p2472
g304
(g1526
g306
Ntp2473
Rp2474
(dp2475
g1530
g1216
sg1531
g1532
sg330
g1217
sbsS's3eTypes.h'
p2476
g304
(g1526
g306
Ntp2477
Rp2478
(dp2479
g1530
g1538
sg1531
g1554
sg330
S'c:/marmalade/7.4/s3e/h/s3eTypes.h'
p2480
sbsS'IwSoundSpec.h'
p2481
g304
(g1526
g306
Ntp2482
Rp2483
(dp2484
g1530
g1092
sg1531
g1578
sg330
g1103
sbsS'signal_2.h'
p2485
g304
(g1526
g306
Ntp2486
Rp2487
(dp2488
g1530
g1538
sg1531
g1539
sg330
S'c:/marmalade/7.4/s3e/h/std/c++/signal.h'
p2489
sbsS'termios.h'
p2490
g304
(g1526
g306
Ntp2491
Rp2492
(dp2493
g1530
g1538
sg1531
g1560
sg330
S'c:/marmalade/7.4/s3e/h/std/termios.h'
p2494
sbsS'iw2dscenegraph.mkf'
p2495
g304
(g1526
g306
Ntp2496
Rp2497
(dp2498
g1530
g1185
sg1531
g1814
sg330
g1183
sbsS'slist'
p2499
g304
(g1526
g306
Ntp2500
Rp2501
(dp2502
g1530
g1538
sg1531
g1539
sg330
S'c:/marmalade/7.4/s3e/h/std/c++/slist'
p2503
sbsS'cstdlib'
p2504
g304
(g1526
g306
Ntp2505
Rp2506
(dp2507
g1530
g1538
sg1531
g1539
sg330
S'c:/marmalade/7.4/s3e/h/std/c++/cstdlib'
p2508
sbsS's3eLocation.h'
p2509
g304
(g1526
g306
Ntp2510
Rp2511
(dp2512
g1530
g1538
sg1531
g1554
sg330
S'c:/marmalade/7.4/s3e/h/s3eLocation.h'
p2513
sbsS'IwMemBucketHelpers.h'
p2514
g304
(g1526
g306
Ntp2515
Rp2516
(dp2517
g1530
g1402
sg1531
g1567
sg330
g1451
sbsS's3eHash.h'
p2518
g304
(g1526
g306
Ntp2519
Rp2520
(dp2521
g1530
g1538
sg1531
g1554
sg330
S'c:/marmalade/7.4/s3e/h/s3eHash.h'
p2522
sbsS'IwSoundGroup.cpp'
p2523
g304
(g1526
g306
Ntp2524
Rp2525
(dp2526
g1530
g1092
sg1531
g1578
sg330
g1101
sbsS'IwGeomFMat.h'
p2527
g304
(g1526
g306
Ntp2528
Rp2529
(dp2530
g1530
g1238
sg1531
g1592
sg330
g1306
sbsS'type_traits.h'
p2531
g304
(g1526
g306
Ntp2532
Rp2533
(dp2534
g1530
g1538
sg1531
g1539
sg330
S'c:/marmalade/7.4/s3e/h/std/c++/type_traits.h'
p2535
sbsS'IwMenu.h'
p2536
g304
(g1526
g306
Ntp2537
Rp2538
(dp2539
g1530
g1402
sg1531
g1567
sg330
g1403
sbsS'IwResHandlerITX.h'
p2540
g304
(g1526
g306
Ntp2541
Rp2542
(dp2543
g1530
g1314
sg1531
g2113
sg330
g1317
sbsS'IwSoundData.h'
p2544
g304
(g1526
g306
Ntp2545
Rp2546
(dp2547
g1530
g1092
sg1531
g1578
sg330
g1131
sbsS'IwArray.h'
p2548
g304
(g1526
g306
Ntp2549
Rp2550
(dp2551
g1530
g1402
sg1531
g1567
sg330
g1469
sbsS'IwUTF8.h'
p2552
g304
(g1526
g306
Ntp2553
Rp2554
(dp2555
g1530
g1402
sg1531
g1567
sg330
g1473
sbsS'math_rvct.h'
p2556
g304
(g1526
g306
Ntp2557
Rp2558
(dp2559
g1530
g1538
sg1531
g1560
sg330
S'c:/marmalade/7.4/s3e/h/std/math_rvct.h'
p2560
sbsS'IwUtil.h'
p2561
g304
(g1526
g306
Ntp2562
Rp2563
(dp2564
g1530
g1402
sg1531
g1567
sg330
g1492
sbsS'IwFColour.h'
p2565
g304
(g1526
g306
Ntp2566
Rp2567
(dp2568
g1530
g1338
sg1531
g1677
sg330
g1349
sbsS'wctype.h'
p2569
g304
(g1526
g306
Ntp2570
Rp2571
(dp2572
g1530
g1538
sg1531
g1560
sg330
S'c:/marmalade/7.4/s3e/h/std/wctype.h'
p2573
sbsS'cstddef'
p2574
g304
(g1526
g306
Ntp2575
Rp2576
(dp2577
g1530
g1538
sg1531
g1539
sg330
S'c:/marmalade/7.4/s3e/h/std/c++/cstddef'
p2578
sbsS'assert.h'
p2579
g304
(g1526
g306
Ntp2580
Rp2581
(dp2582
g1530
g1538
sg1531
g1560
sg330
S'c:/marmalade/7.4/s3e/h/std/assert.h'
p2583
sbsS'mman.h'
p2584
g304
(g1526
g306
Ntp2585
Rp2586
(dp2587
g1530
g1538
sg1531
g1695
sg330
S'c:/marmalade/7.4/s3e/h/std/sys/mman.h'
p2588
sbsS'IwRandom.h'
p2589
g304
(g1526
g306
Ntp2590
Rp2591
(dp2592
g1530
g1402
sg1531
g1567
sg330
g1415
sbsS'libgen.h'
p2593
g304
(g1526
g306
Ntp2594
Rp2595
(dp2596
g1530
g1538
sg1531
g1560
sg330
S'c:/marmalade/7.4/s3e/h/std/libgen.h'
p2597
sbsS'utsname.h'
p2598
g304
(g1526
g306
Ntp2599
Rp2600
(dp2601
g1530
g1538
sg1531
g1695
sg330
S'c:/marmalade/7.4/s3e/h/std/sys/utsname.h'
p2602
sbsS'wait.h'
p2603
g304
(g1526
g306
Ntp2604
Rp2605
(dp2606
g1530
g1538
sg1531
g1695
sg330
S'c:/marmalade/7.4/s3e/h/std/sys/wait.h'
p2607
sbsS'param.h'
p2608
g304
(g1526
g306
Ntp2609
Rp2610
(dp2611
g1530
g1538
sg1531
g1695
sg330
S'c:/marmalade/7.4/s3e/h/std/sys/param.h'
p2612
sbsS'IwDivide.h'
p2613
g304
(g1526
g306
Ntp2614
Rp2615
(dp2616
g1530
g1402
sg1531
g1567
sg330
g1465
sbsS'Iw2DSceneGraphCore.cpp'
p2617
g304
(g1526
g306
Ntp2618
Rp2619
(dp2620
g1530
g1395
sg1531
(lp2621
S"'Marmalade Studio'"
p2622
ag1388
asg330
g1393
sbsS'IwResManager.h'
p2623
g304
(g1526
g306
Ntp2624
Rp2625
(dp2626
g1530
g1314
sg1531
g2113
sg330
g1315
sbsS'IwSoundManager.h'
p2627
g304
(g1526
g306
Ntp2628
Rp2629
(dp2630
g1530
g1092
sg1531
g1578
sg330
g1097
sbsS'cwctype'
p2631
g304
(g1526
g306
Ntp2632
Rp2633
(dp2634
g1530
g1538
sg1531
g1539
sg330
S'c:/marmalade/7.4/s3e/h/std/c++/cwctype'
p2635
sbsS'set'
p2636
g304
(g1526
g306
Ntp2637
Rp2638
(dp2639
g1530
g1538
sg1531
g1539
sg330
S'c:/marmalade/7.4/s3e/h/std/c++/set'
p2640
sbsS'IwGeomSQuat.h'
p2641
g304
(g1526
g306
Ntp2642
Rp2643
(dp2644
g1530
g1238
sg1531
g1592
sg330
g1282
sbsS'locale'
p2645
g304
(g1526
g306
Ntp2646
Rp2647
(dp2648
g1530
g1538
sg1531
g1539
sg330
S'c:/marmalade/7.4/s3e/h/std/c++/locale'
p2649
sbsS'cstdio'
p2650
g304
(g1526
g306
Ntp2651
Rp2652
(dp2653
g1530
g1538
sg1531
g1539
sg330
S'c:/marmalade/7.4/s3e/h/std/c++/cstdio'
p2654
sbsS'cdjpeg.h'
p2655
g304
(g1526
g306
Ntp2656
Rp2657
(dp2658
g1530
g1045
sg1531
g1631
sg330
g1052
sbsS'audio.h'
p2659
g304
(g1526
g306
Ntp2660
Rp2661
(dp2662
g1530
g1141
sg1531
g1617
sg330
g1139
sbsS'IwList.h'
p2663
g304
(g1526
g306
Ntp2664
Rp2665
(dp2666
g1530
g1402
sg1531
g1567
sg330
g1433
sbsS'inttypes.h'
p2667
g304
(g1526
g306
Ntp2668
Rp2669
(dp2670
g1530
g1538
sg1531
g1560
sg330
S'c:/marmalade/7.4/s3e/h/std/inttypes.h'
p2671
sbsS'dirent.h'
p2672
g304
(g1526
g306
Ntp2673
Rp2674
(dp2675
g1530
g1538
sg1531
g1560
sg330
S'c:/marmalade/7.4/s3e/h/std/dirent.h'
p2676
sbsS'IwGeomVec3.h'
p2677
g304
(g1526
g306
Ntp2678
Rp2679
(dp2680
g1530
g1238
sg1531
g1592
sg330
g1276
sbsS'transupp.h'
p2681
g304
(g1526
g306
Ntp2682
Rp2683
(dp2684
g1530
g1045
sg1531
g1631
sg330
g1064
sbsS'IwMath.h'
p2685
g304
(g1526
g306
Ntp2686
Rp2687
(dp2688
g1530
g1402
sg1531
g1567
sg330
g1477
sbsS'IwGeomQuat.h'
p2689
g304
(g1526
g306
Ntp2690
Rp2691
(dp2692
g1530
g1238
sg1531
g1592
sg330
g1258
sbsS'glplatform.h'
p2693
g304
(g1526
g306
Ntp2694
Rp2695
(dp2696
g1530
g1538
sg1531
g2128
sg330
S'c:/marmalade/7.4/s3e/h/GLES/glplatform.h'
p2697
sbsS'iwgl.config.txt'
p2698
g304
(g1526
g306
Ntp2699
Rp2700
(dp2701
g1530
g1195
sg1531
g1548
sg330
g1193
sbsS'bitset'
p2702
g304
(g1526
g306
Ntp2703
Rp2704
(dp2705
g1530
g1538
sg1531
g1539
sg330
S'c:/marmalade/7.4/s3e/h/std/c++/bitset'
p2706
sbsS'alloca.h'
p2707
g304
(g1526
g306
Ntp2708
Rp2709
(dp2710
g1530
g1538
sg1531
g1560
sg330
S'c:/marmalade/7.4/s3e/h/std/alloca.h'
p2711
sbsS'IwResHandler.h'
p2712
g304
(g1526
g306
Ntp2713
Rp2714
(dp2715
g1530
g1314
sg1531
g2113
sg330
g1328
sbsS'IwResHandlerMTL.h'
p2716
g304
(g1526
g306
Ntp2717
Rp2718
(dp2719
g1530
g1338
sg1531
g1677
sg330
g1367
sbsS'IwRuntime.h'
p2720
g304
(g1526
g306
Ntp2721
Rp2722
(dp2723
g1530
g1402
sg1531
g1567
sg330
g1449
sbsS'limits'
p2724
g304
(g1526
g306
Ntp2725
Rp2726
(dp2727
g1530
g1538
sg1531
g1539
sg330
S'c:/marmalade/7.4/s3e/h/std/c++/limits'
p2728
sbsS'IwGeomBBox.h'
p2729
g304
(g1526
g306
Ntp2730
Rp2731
(dp2732
g1530
g1238
sg1531
g1592
sg330
g1288
sbsS's3eContacts.h'
p2733
g304
(g1526
g306
Ntp2734
Rp2735
(dp2736
g1530
g1538
sg1531
g1554
sg330
S'c:/marmalade/7.4/s3e/h/s3eContacts.h'
p2737
sbsS's3eLicense.h'
p2738
g304
(g1526
g306
Ntp2739
Rp2740
(dp2741
g1530
g1538
sg1531
g1554
sg330
S'c:/marmalade/7.4/s3e/h/s3eLicense.h'
p2742
sbsS'iwgx.config.txt'
p2743
g304
(g1526
g306
Ntp2744
Rp2745
(dp2746
g1530
g1338
sg1531
g1677
sg330
g1373
sbsS'IwTextParser.h'
p2747
g304
(g1526
g306
Ntp2748
Rp2749
(dp2750
g1530
g1402
sg1531
g1567
sg330
g1400
sbsS's3eTimer.h'
p2751
g304
(g1526
g306
Ntp2752
Rp2753
(dp2754
g1530
g1538
sg1531
g1554
sg330
S'c:/marmalade/7.4/s3e/h/s3eTimer.h'
p2755
sbsS'IwGeomVec.h'
p2756
g304
(g1526
g306
Ntp2757
Rp2758
(dp2759
g1530
g1238
sg1531
g1592
sg330
g1266
sbsS'IwSerialise.h'
p2760
g304
(g1526
g306
Ntp2761
Rp2762
(dp2763
g1530
g1402
sg1531
g1567
sg330
g1435
sbsS'cstdarg'
p2764
g304
(g1526
g306
Ntp2765
Rp2766
(dp2767
g1530
g1538
sg1531
g1539
sg330
S'c:/marmalade/7.4/s3e/h/std/c++/cstdarg'
p2768
sbsS'gl2ext.h'
p2769
g304
(g1526
g306
Ntp2770
Rp2771
(dp2772
g1530
g1538
sg1531
g1806
sg330
S'c:/marmalade/7.4/s3e/h/GLES2/gl2ext.h'
p2773
sbsS'IwChar.h'
p2774
g304
(g1526
g306
Ntp2775
Rp2776
(dp2777
g1530
g1402
sg1531
g1567
sg330
g1455
sbsS's3eSound.h'
p2778
g304
(g1526
g306
Ntp2779
Rp2780
(dp2781
g1530
g1538
sg1531
g1554
sg330
S'c:/marmalade/7.4/s3e/h/s3eSound.h'
p2782
sbsS'IwOptimiseThumb.h'
p2783
g304
(g1526
g306
Ntp2784
Rp2785
(dp2786
g1530
g1402
sg1531
g1567
sg330
g1490
sbsS'exception.h'
p2787
g304
(g1526
g306
Ntp2788
Rp2789
(dp2790
g1530
g1538
sg1531
g1539
sg330
S'c:/marmalade/7.4/s3e/h/std/c++/exception.h'
p2791
sbsS'iwgeom.config.txt'
p2792
g304
(g1526
g306
Ntp2793
Rp2794
(dp2795
g1530
g1238
sg1531
g1592
sg330
g1236
sbsS'iwgx.mkf'
p2796
g304
(g1526
g306
Ntp2797
Rp2798
(dp2799
g1530
g1379
sg1531
g1677
sg330
g1377
sbsS'gl.h'
p2800
g304
(g1526
g306
Ntp2801
Rp2802
(dp2803
g1530
g1538
sg1531
g2128
sg330
S'c:/marmalade/7.4/s3e/h/GLES/gl.h'
p2804
sbsS'zlib.h'
p2805
g304
(g1526
g306
Ntp2806
Rp2807
(dp2808
g1530
g1507
sg1531
g2233
sg330
g1508
sbsS'temp_defines_release.h'
p2809
g304
(g1526
g306
Ntp2810
Rp2811
(dp2812
g1530
(lp2813
sg1531
(lp2814
S"'generated files'"
p2815
asg330
S'c:/Users/lab422/Desktop/FYP/Learning Resources/Sprint 4 Minimal Example/FinalYearProject/build_finalyearproject_vc11/temp_defines_release.h'
p2816
sbsS'iwgl.mkf'
p2817
g304
(g1526
g306
Ntp2818
Rp2819
(dp2820
g1530
g1192
sg1531
g1548
sg330
g1190
sbsS'IwColour.h'
p2821
g304
(g1526
g306
Ntp2822
Rp2823
(dp2824
g1530
g1338
sg1531
g1677
sg330
g1351
sbsS's3eLibrary.h'
p2825
g304
(g1526
g306
Ntp2826
Rp2827
(dp2828
g1530
g1538
sg1531
g1769
sg330
S'c:/marmalade/7.4/s3e/h/ext/s3eLibrary.h'
p2829
sbsS'types.h'
p2830
g304
(g1526
g306
Ntp2831
Rp2832
(dp2833
g1530
g1538
sg1531
g1695
sg330
S'c:/marmalade/7.4/s3e/h/std/sys/types.h'
p2834
sbsS'ifaddrs.h'
p2835
g304
(g1526
g306
Ntp2836
Rp2837
(dp2838
g1530
g1538
sg1531
g1560
sg330
S'c:/marmalade/7.4/s3e/h/std/ifaddrs.h'
p2839
sbsS'strstream'
p2840
g304
(g1526
g306
Ntp2841
Rp2842
(dp2843
g1530
g1538
sg1531
g1539
sg330
S'c:/marmalade/7.4/s3e/h/std/c++/strstream'
p2844
sbsS'IwTween.cpp'
p2845
g304
(g1526
g306
Ntp2846
Rp2847
(dp2848
g1530
g1517
sg1531
g2060
sg330
g1515
sbsS'exception'
p2849
g304
(g1526
g306
Ntp2850
Rp2851
(dp2852
g1530
g1538
sg1531
g1539
sg330
S'c:/marmalade/7.4/s3e/h/std/c++/exception'
p2853
sbsS'rlocks.h'
p2854
g304
(g1526
g306
Ntp2855
Rp2856
(dp2857
g1530
g1538
sg1531
g1539
sg330
S'c:/marmalade/7.4/s3e/h/std/c++/rlocks.h'
p2858
sbsS'ioctl.h'
p2859
g304
(g1526
g306
Ntp2860
Rp2861
(dp2862
g1530
g1538
sg1531
g1695
sg330
S'c:/marmalade/7.4/s3e/h/std/sys/ioctl.h'
p2863
sbsS'sem.h'
p2864
g304
(g1526
g306
Ntp2865
Rp2866
(dp2867
g1530
g1538
sg1531
g1695
sg330
S'c:/marmalade/7.4/s3e/h/std/sys/sem.h'
p2868
sbsS'jinclude.h'
p2869
g304
(g1526
g306
Ntp2870
Rp2871
(dp2872
g1530
g1045
sg1531
g1631
sg330
g1054
sbsS'IwEvent.h'
p2873
g304
(g1526
g306
Ntp2874
Rp2875
(dp2876
g1530
g1402
sg1531
g1567
sg330
g1475
sbsS'IwOptimiseSize.h'
p2877
g304
(g1526
g306
Ntp2878
Rp2879
(dp2880
g1530
g1402
sg1531
g1567
sg330
g1500
sbsS'iwgxfont_public.defines.txt'
p2881
g304
(g1526
g306
Ntp2882
Rp2883
(dp2884
g1530
g1216
sg1531
g1532
sg330
g1214
sbsS'iconv.h'
p2885
g304
(g1526
g306
Ntp2886
Rp2887
(dp2888
g1530
g1538
sg1531
g1560
sg330
S'c:/marmalade/7.4/s3e/h/std/iconv.h'
p2889
sbsS'sendfile.h'
p2890
g304
(g1526
g306
Ntp2891
Rp2892
(dp2893
g1530
g1538
sg1531
g1695
sg330
S'c:/marmalade/7.4/s3e/h/std/sys/sendfile.h'
p2894
sbsS'IwGeomSphere.h'
p2895
g304
(g1526
g306
Ntp2896
Rp2897
(dp2898
g1530
g1238
sg1531
g1592
sg330
g1296
sbsS'tiniconv.mkf'
p2899
g304
(g1526
g306
Ntp2900
Rp2901
(dp2902
g1530
g1082
sg1531
g2013
sg330
g1080
sbsS'IwResManagerClass.h'
p2903
g304
(g1526
g306
Ntp2904
Rp2905
(dp2906
g1530
g1314
sg1531
g2113
sg330
g1332
sbsS'jdct.h'
p2907
g304
(g1526
g306
Ntp2908
Rp2909
(dp2910
g1530
g1045
sg1531
g1631
sg330
g1060
sbsS'cctype'
p2911
g304
(g1526
g306
Ntp2912
Rp2913
(dp2914
g1530
g1538
sg1531
g1539
sg330
S'c:/marmalade/7.4/s3e/h/std/c++/cctype'
p2915
sbsS'IwSoundADPCM.cpp'
p2916
g304
(g1526
g306
Ntp2917
Rp2918
(dp2919
g1530
g1092
sg1531
g1578
sg330
g1123
sbsS's3eConfig.h'
p2920
g304
(g1526
g306
Ntp2921
Rp2922
(dp2923
g1530
g1538
sg1531
g1554
sg330
S'c:/marmalade/7.4/s3e/h/s3eConfig.h'
p2924
sbsS'IwHashString.h'
p2925
g304
(g1526
g306
Ntp2926
Rp2927
(dp2928
g1530
g1402
sg1531
g1567
sg330
g1427
sbsS'stat.h'
p2929
g304
(g1526
g306
Ntp2930
Rp2931
(dp2932
g1530
g1538
sg1531
g1695
sg330
S'c:/marmalade/7.4/s3e/h/std/sys/stat.h'
p2933
sbsS'byteswap.h'
p2934
g304
(g1526
g306
Ntp2935
Rp2936
(dp2937
g1530
g1538
sg1531
g1560
sg330
S'c:/marmalade/7.4/s3e/h/std/byteswap.h'
p2938
sbsS'iwresmanager.mkf'
p2939
g304
(g1526
g306
Ntp2940
Rp2941
(dp2942
g1530
g1325
sg1531
g2113
sg330
g1323
sbsS'IwUtilInitTerm.h'
p2943
g304
(g1526
g306
Ntp2944
Rp2945
(dp2946
g1530
g1402
sg1531
g1567
sg330
g1405
sbsS'pthread_1.h'
p2947
g304
(g1526
g306
Ntp2948
Rp2949
(dp2950
g1530
g1538
sg1531
g1539
sg330
S'c:/marmalade/7.4/s3e/h/std/c++/pthread.h'
p2951
sbsS'IwMemBucket.h'
p2952
g304
(g1526
g306
Ntp2953
Rp2954
(dp2955
g1530
g1402
sg1531
g1567
sg330
g1463
sbsS'complex'
p2956
g304
(g1526
g306
Ntp2957
Rp2958
(dp2959
g1530
g1538
sg1531
g1539
sg330
S'c:/marmalade/7.4/s3e/h/std/c++/complex'
p2960
sbsS'algorithm'
p2961
g304
(g1526
g306
Ntp2962
Rp2963
(dp2964
g1530
g1538
sg1531
g1539
sg330
S'c:/marmalade/7.4/s3e/h/std/c++/algorithm'
p2965
sbsS's3e.icf'
p2966
g304
(g1526
g306
Ntp2967
Rp2968
(dp2969
g1530
g1538
sg1531
g1554
sg330
S'c:/marmalade/7.4/s3e/s3e.icf'
p2970
sbsS'IwVariableBitField.h'
p2971
g304
(g1526
g306
Ntp2972
Rp2973
(dp2974
g1530
g1402
sg1531
g1567
sg330
g1411
sbsS'resources.h'
p2975
g304
(g1526
g306
Ntp2976
Rp2977
(dp2978
g1530
g1141
sg1531
g1617
sg330
g1148
sbsS'IwGxFontState.h'
p2979
g304
(g1526
g306
Ntp2980
Rp2981
(dp2982
g1530
g1216
sg1531
g1532
sg330
g1227
sbsS'stdio.h'
p2983
g304
(g1526
g306
Ntp2984
Rp2985
(dp2986
g1530
g1538
sg1531
g1560
sg330
S'c:/marmalade/7.4/s3e/h/std/stdio.h'
p2987
sbsS'Game.h'
p2988
g304
(g1526
g306
Ntp2989
Rp2990
(dp2991
g1530
g1141
sg1531
g1617
sg330
g1156
sbsS'jmemsys.h'
p2992
g304
(g1526
g306
Ntp2993
Rp2994
(dp2995
g1530
g1045
sg1531
g1631
sg330
g1046
sbsS'ios'
p2996
g304
(g1526
g306
Ntp2997
Rp2998
(dp2999
g1530
g1538
sg1531
g1539
sg330
S'c:/marmalade/7.4/s3e/h/std/c++/ios'
p3000
sbsS'IwTween.h'
p3001
g304
(g1526
g306
Ntp3002
Rp3003
(dp3004
g1530
g1517
sg1531
g2060
sg330
g1518
sbsS'PVRTexTool.defines.txt'
p3005
g304
(g1526
g306
Ntp3006
Rp3007
(dp3008
g1530
g1166
sg1531
g2403
sg330
g1167
sbsS'stack'
p3009
g304
(g1526
g306
Ntp3010
Rp3011
(dp3012
g1530
g1538
sg1531
g1539
sg330
S'c:/marmalade/7.4/s3e/h/std/c++/stack'
p3013
sbsS'IwSoundParams.h'
p3014
g304
(g1526
g306
Ntp3015
Rp3016
(dp3017
g1530
g1092
sg1531
g1578
sg330
g1135
sbsS'new.h'
p3018
g304
(g1526
g306
Ntp3019
Rp3020
(dp3021
g1530
g1538
sg1531
g1539
sg330
S'c:/marmalade/7.4/s3e/h/std/c++/new.h'
p3022
sbsS's3eEMail.h'
p3023
g304
(g1526
g306
Ntp3024
Rp3025
(dp3026
g1530
g1538
sg1531
g1769
sg330
S'c:/marmalade/7.4/s3e/h/ext/s3eEMail.h'
p3027
sbsS's3eVideo.h'
p3028
g304
(g1526
g306
Ntp3029
Rp3030
(dp3031
g1530
g1538
sg1531
g1554
sg330
S'c:/marmalade/7.4/s3e/h/s3eVideo.h'
p3032
sbsS'pngconf.h'
p3033
g304
(g1526
g306
Ntp3034
Rp3035
(dp3036
g1530
g1034
sg1531
g2289
sg330
g1035
sbsS'pwd.h'
p3037
g304
(g1526
g306
Ntp3038
Rp3039
(dp3040
g1530
g1538
sg1531
g1560
sg330
S'c:/marmalade/7.4/s3e/h/std/pwd.h'
p3041
sbsS'gl3.h'
p3042
g304
(g1526
g306
Ntp3043
Rp3044
(dp3045
g1530
g1538
sg1531
g1866
sg330
S'c:/marmalade/7.4/s3e/h/GLES3/gl3.h'
p3046
sbsS'IwClip.h'
p3047
g304
(g1526
g306
Ntp3048
Rp3049
(dp3050
g1530
g1338
sg1531
g1677
sg330
g1355
sbsS'IwSoundInst.h'
p3051
g304
(g1526
g306
Ntp3052
Rp3053
(dp3054
g1530
g1092
sg1531
g1578
sg330
g1119
sbsS'iwresmanager.config.txt'
p3055
g304
(g1526
g306
Ntp3056
Rp3057
(dp3058
g1530
g1314
sg1531
g2113
sg330
g1330
sbsS'IwGxShaderTechnique.h'
p3059
g304
(g1526
g306
Ntp3060
Rp3061
(dp3062
g1530
g1338
sg1531
g1677
sg330
g1382
sbsS'IwCore.h'
p3063
g304
(g1526
g306
Ntp3064
Rp3065
(dp3066
g1530
g1402
sg1531
g1567
sg330
g1421
sbsS'cfloat'
p3067
g304
(g1526
g306
Ntp3068
Rp3069
(dp3070
g1530
g1538
sg1531
g1539
sg330
S'c:/marmalade/7.4/s3e/h/std/c++/cfloat'
p3071
sbsS'IwGeomMat2D.h'
p3072
g304
(g1526
g306
Ntp3073
Rp3074
(dp3075
g1530
g1238
sg1531
g1592
sg330
g1294
sbsS'IwAllocator.h'
p3076
g304
(g1526
g306
Ntp3077
Rp3078
(dp3079
g1530
g1402
sg1531
g1567
sg330
g1441
sbsS'IwPath.h'
p3080
g304
(g1526
g306
Ntp3081
Rp3082
(dp3083
g1530
g1402
sg1531
g1567
sg330
g1494
sbsS'iwgxfont.mkf'
p3084
g304
(g1526
g306
Ntp3085
Rp3086
(dp3087
g1530
g1233
sg1531
g1532
sg330
g1231
sbsS'IwTexture.h'
p3088
g304
(g1526
g306
Ntp3089
Rp3090
(dp3091
g1530
g1338
sg1531
g1677
sg330
g1347
sbsS'IwGeomVec.h.tpl'
p3092
g304
(g1526
g306
Ntp3093
Rp3094
(dp3095
g1530
g1238
sg1531
g1592
sg330
g1246
sbsS's3eAccelerometer.h'
p3096
g304
(g1526
g306
Ntp3097
Rp3098
(dp3099
g1530
g1538
sg1531
g1554
sg330
S'c:/marmalade/7.4/s3e/h/s3eAccelerometer.h'
p3100
sbsS'setjmp.h'
p3101
g304
(g1526
g306
Ntp3102
Rp3103
(dp3104
g1530
g1538
sg1531
g1560
sg330
S'c:/marmalade/7.4/s3e/h/std/setjmp.h'
p3105
sbsS'IwSoundParams.cpp'
p3106
g304
(g1526
g306
Ntp3107
Rp3108
(dp3109
g1530
g1092
sg1531
g1578
sg330
g1099
sbsS'IwFile.h'
p3110
g304
(g1526
g306
Ntp3111
Rp3112
(dp3113
g1530
g1402
sg1531
g1567
sg330
g1447
sbsS'IwTextParseable.h'
p3114
g304
(g1526
g306
Ntp3115
Rp3116
(dp3117
g1530
g1402
sg1531
g1567
sg330
g1445
sbsS'istream.h'
p3118
g304
(g1526
g306
Ntp3119
Rp3120
(dp3121
g1530
g1538
sg1531
g1539
sg330
S'c:/marmalade/7.4/s3e/h/std/c++/istream.h'
p3122
sbsS'stdint.h'
p3123
g304
(g1526
g306
Ntp3124
Rp3125
(dp3126
g1530
g1538
sg1531
g1560
sg330
S'c:/marmalade/7.4/s3e/h/std/stdint.h'
p3127
sbsS'semaphore.h'
p3128
g304
(g1526
g306
Ntp3129
Rp3130
(dp3131
g1530
g1538
sg1531
g1560
sg330
S'c:/marmalade/7.4/s3e/h/std/semaphore.h'
p3132
sbsS'ctime'
p3133
g304
(g1526
g306
Ntp3134
Rp3135
(dp3136
g1530
g1538
sg1531
g1539
sg330
S'c:/marmalade/7.4/s3e/h/std/c++/ctime'
p3137
sbsS'sstream'
p3138
g304
(g1526
g306
Ntp3139
Rp3140
(dp3141
g1530
g1538
sg1531
g1539
sg330
S'c:/marmalade/7.4/s3e/h/std/c++/sstream'
p3142
sbsS'IwGeomFBBox.h'
p3143
g304
(g1526
g306
Ntp3144
Rp3145
(dp3146
g1530
g1238
sg1531
g1592
sg330
g1260
sbsS'IwDebugPrim.h'
p3147
g304
(g1526
g306
Ntp3148
Rp3149
(dp3150
g1530
g1338
sg1531
g1677
sg330
g1336
sbsS'IwGxFontContainer.h'
p3151
g304
(g1526
g306
Ntp3152
Rp3153
(dp3154
g1530
g1216
sg1531
g1532
sg330
g1229
sbsS'IwGeomSVec3.h'
p3155
g304
(g1526
g306
Ntp3156
Rp3157
(dp3158
g1530
g1238
sg1531
g1592
sg330
g1272
sbsS'iw2dscenegraphcore.mkf'
p3159
g304
(g1526
g306
Ntp3160
Rp3161
(dp3162
g1530
g1392
sg1531
g2621
sg330
g1390
sbsS's3eExt.h'
p3163
g304
(g1526
g306
Ntp3164
Rp3165
(dp3166
g1530
g1538
sg1531
g1554
sg330
S'c:/marmalade/7.4/s3e/h/s3eExt.h'
p3167
sbsS'IwGeomFVec3.h'
p3168
g304
(g1526
g306
Ntp3169
Rp3170
(dp3171
g1530
g1238
sg1531
g1592
sg330
g1298
sbsS'streambuf'
p3172
g304
(g1526
g306
Ntp3173
Rp3174
(dp3175
g1530
g1538
sg1531
g1539
sg330
S'c:/marmalade/7.4/s3e/h/std/c++/streambuf'
p3176
sbsS's3eMetrics.h'
p3177
g304
(g1526
g306
Ntp3178
Rp3179
(dp3180
g1530
g1538
sg1531
g1769
sg330
S'c:/marmalade/7.4/s3e/h/ext/s3eMetrics.h'
p3181
sbsS'IwGxFont.h'
p3182
g304
(g1526
g306
Ntp3183
Rp3184
(dp3185
g1530
g1216
sg1531
g1532
sg330
g1221
sbsS's3eSecureStorage.h'
p3186
g304
(g1526
g306
Ntp3187
Rp3188
(dp3189
g1530
g1538
sg1531
g1554
sg330
S'c:/marmalade/7.4/s3e/h/s3eSecureStorage.h'
p3190
sbsS'string.h'
p3191
g304
(g1526
g306
Ntp3192
Rp3193
(dp3194
g1530
g1538
sg1531
g1560
sg330
S'c:/marmalade/7.4/s3e/h/std/string.h'
p3195
sbsS'IwResource.h'
p3196
g304
(g1526
g306
Ntp3197
Rp3198
(dp3199
g1530
g1402
sg1531
g1567
sg330
g1419
sbsS'IwGeomSVec2.h'
p3200
g304
(g1526
g306
Ntp3201
Rp3202
(dp3203
g1530
g1238
sg1531
g1592
sg330
g1292
sbsS'libjpeg.mkf'
p3204
g304
(g1526
g306
Ntp3205
Rp3206
(dp3207
g1530
g1074
sg1531
(lp3208
g1040
asg330
g1072
sbsS'IwGxDebug.h'
p3209
g304
(g1526
g306
Ntp3210
Rp3211
(dp3212
g1530
g1338
sg1531
g1677
sg330
g1361
sbsS'float.h'
p3213
g304
(g1526
g306
Ntp3214
Rp3215
(dp3216
g1530
g1538
sg1531
g1560
sg330
S'c:/marmalade/7.4/s3e/h/std/float.h'
p3217
sbsS'iomanip.h'
p3218
g304
(g1526
g306
Ntp3219
Rp3220
(dp3221
g1530
g1538
sg1531
g1539
sg330
S'c:/marmalade/7.4/s3e/h/std/c++/iomanip.h'
p3222
sbsS'IwKeymap.h'
p3223
g304
(g1526
g306
Ntp3224
Rp3225
(dp3226
g1530
g1402
sg1531
g1567
sg330
g1417
sbsS'IwDebug.h'
p3227
g304
(g1526
g306
Ntp3228
Rp3229
(dp3230
g1530
g1402
sg1531
g1567
sg330
g1409
sbsS's3eIOSBackgroundAudio.h'
p3231
g304
(g1526
g306
Ntp3232
Rp3233
(dp3234
g1530
g1538
sg1531
g1769
sg330
S'c:/marmalade/7.4/s3e/h/ext/s3eIOSBackgroundAudio.h'
p3235
sbsS'IwGeomMenu.h'
p3236
g304
(g1526
g306
Ntp3237
Rp3238
(dp3239
g1530
g1238
sg1531
g1592
sg330
g1252
sbsS'IwDivTable.h'
p3240
g304
(g1526
g306
Ntp3241
Rp3242
(dp3243
g1530
g1402
sg1531
g1567
sg330
g1498
sbsS'ctype.h'
p3244
g304
(g1526
g306
Ntp3245
Rp3246
(dp3247
g1530
g1538
sg1531
g1560
sg330
S'c:/marmalade/7.4/s3e/h/std/ctype.h'
p3248
sbsS'IwGeomMat.h'
p3249
g304
(g1526
g306
Ntp3250
Rp3251
(dp3252
g1530
g1238
sg1531
g1592
sg330
g1274
sbsS'IwResGroup.h'
p3253
g304
(g1526
g306
Ntp3254
Rp3255
(dp3256
g1530
g1314
sg1531
g2113
sg330
g1312
sbsS'signal_1.h'
p3257
g304
(g1526
g306
Ntp3258
Rp3259
(dp3260
g1530
g1538
sg1531
g1695
sg330
S'c:/marmalade/7.4/s3e/h/std/sys/signal.h'
p3261
sbsS'IwSoundData.cpp'
p3262
g304
(g1526
g306
Ntp3263
Rp3264
(dp3265
g1530
g1092
sg1531
g1578
sg330
g1117
sbsS'functional'
p3266
g304
(g1526
g306
Ntp3267
Rp3268
(dp3269
g1530
g1538
sg1531
g1539
sg330
S'c:/marmalade/7.4/s3e/h/std/c++/functional'
p3270
sbsS'shm.h'
p3271
g304
(g1526
g306
Ntp3272
Rp3273
(dp3274
g1530
g1538
sg1531
g1695
sg330
S'c:/marmalade/7.4/s3e/h/std/sys/shm.h'
p3275
sbsS'IwManagedList.h'
p3276
g304
(g1526
g306
Ntp3277
Rp3278
(dp3279
g1530
g1402
sg1531
g1567
sg330
g1431
sbsS'Game.cpp'
p3280
g304
(g1526
g306
Ntp3281
Rp3282
(dp3283
g1530
g1141
sg1531
g1617
sg330
g1146
sbsS'prctl.h'
p3284
g304
(g1526
g306
Ntp3285
Rp3286
(dp3287
g1530
g1538
sg1531
g1695
sg330
S'c:/marmalade/7.4/s3e/h/std/sys/prctl.h'
p3288
sbsS'IwGxStream.h'
p3289
g304
(g1526
g306
Ntp3290
Rp3291
(dp3292
g1530
g1338
sg1531
g1677
sg330
g1365
sbsS'temp_defines_debug.h'
p3293
g304
(g1526
g306
Ntp3294
Rp3295
(dp3296
g1530
(lp3297
sg1531
(lp3298
g2815
asg330
S'c:/Users/lab422/Desktop/FYP/Learning Resources/Sprint 4 Minimal Example/FinalYearProject/build_finalyearproject_vc11/temp_defines_debug.h'
p3299
sbsS'utility'
p3300
g304
(g1526
g306
Ntp3301
Rp3302
(dp3303
g1530
g1538
sg1531
g1539
sg330
S'c:/marmalade/7.4/s3e/h/std/c++/utility'
p3304
sbsS'IwGeomLegacy.h'
p3305
g304
(g1526
g306
Ntp3306
Rp3307
(dp3308
g1530
g1238
sg1531
g1592
sg330
g1280
sbsS'IwTPage.h'
p3309
g304
(g1526
g306
Ntp3310
Rp3311
(dp3312
g1530
g1338
sg1531
g1677
sg330
g1357
sbsS'IwResSerialise.h'
p3313
g304
(g1526
g306
Ntp3314
Rp3315
(dp3316
g1530
g1314
sg1531
g2113
sg330
g1319
sbsS's3eCrypto.h'
p3317
g304
(g1526
g306
Ntp3318
Rp3319
(dp3320
g1530
g1538
sg1531
g1554
sg330
S'c:/marmalade/7.4/s3e/h/s3eCrypto.h'
p3321
sbsS's3eKeyboard.h'
p3322
g304
(g1526
g306
Ntp3323
Rp3324
(dp3325
g1530
g1538
sg1531
g1554
sg330
S'c:/marmalade/7.4/s3e/h/s3eKeyboard.h'
p3326
sbsS'fcntl.h'
p3327
g304
(g1526
g306
Ntp3328
Rp3329
(dp3330
g1530
g1538
sg1531
g1560
sg330
S'c:/marmalade/7.4/s3e/h/std/fcntl.h'
p3331
sbsS'Iw2DSceneGraphCore.h'
p3332
g304
(g1526
g306
Ntp3333
Rp3334
(dp3335
g1530
g1395
sg1531
g2621
sg330
g1396
sbsS'memory.h'
p3336
g304
(g1526
g306
Ntp3337
Rp3338
(dp3339
g1530
g1538
sg1531
g1560
sg330
S'c:/marmalade/7.4/s3e/h/std/memory.h'
p3340
sbsS'pthread.h'
p3341
g304
(g1526
g306
Ntp3342
Rp3343
(dp3344
g1530
g1538
sg1531
g1560
sg330
S'c:/marmalade/7.4/s3e/h/std/pthread.h'
p3345
sbsS'IwGeomIntersect.h'
p3346
g304
(g1526
g306
Ntp3347
Rp3348
(dp3349
g1530
g1238
sg1531
g1592
sg330
g1290
sbsS'IwTextParserITX.h'
p3350
g304
(g1526
g306
Ntp3351
Rp3352
(dp3353
g1530
g1402
sg1531
g1567
sg330
g1423
sbsS'egl_1.h'
p3354
g304
(g1526
g306
Ntp3355
Rp3356
(dp3357
g1530
g1538
sg1531
g2128
sg330
S'c:/marmalade/7.4/s3e/h/GLES/egl.h'
p3358
sbsS'Iw2DSceneGraph.cpp'
p3359
g304
(g1526
g306
Ntp3360
Rp3361
(dp3362
g1530
g1180
sg1531
g1814
sg330
g1181
sbsS'ostream.h'
p3363
g304
(g1526
g306
Ntp3364
Rp3365
(dp3366
g1530
g1538
sg1531
g1539
sg330
S'c:/marmalade/7.4/s3e/h/std/c++/ostream.h'
p3367
sbsS'stl_user_config.h'
p3368
g304
(g1526
g306
Ntp3369
Rp3370
(dp3371
g1530
g1538
sg1531
g1539
sg330
S'c:/marmalade/7.4/s3e/h/std/c++/stl_user_config.h'
p3372
sbsS'IwProfileMenu.h'
p3373
g304
(g1526
g306
Ntp3374
Rp3375
(dp3376
g1530
g1402
sg1531
g1567
sg330
g1429
sbsS'MarmaladeVersion.h'
p3377
g304
(g1526
g306
Ntp3378
Rp3379
(dp3380
g1530
g1538
sg1531
g1554
sg330
S'c:/marmalade/7.4/s3e/h/MarmaladeVersion.h'
p3381
sbsS'IwResHandlerWAV.h'
p3382
g304
(g1526
g306
Ntp3383
Rp3384
(dp3385
g1530
g1092
sg1531
g1578
sg330
g1109
sbsS'gl3platform.h'
p3386
g304
(g1526
g306
Ntp3387
Rp3388
(dp3389
g1530
g1538
sg1531
g1866
sg330
S'c:/marmalade/7.4/s3e/h/GLES3/gl3platform.h'
p3390
sbsS'ios.h'
p3391
g304
(g1526
g306
Ntp3392
Rp3393
(dp3394
g1530
g1538
sg1531
g1539
sg330
S'c:/marmalade/7.4/s3e/h/std/c++/ios.h'
p3395
sbsS'IwImageHelper.h'
p3396
g304
(g1526
g306
Ntp3397
Rp3398
(dp3399
g1530
g1402
sg1531
g1567
sg330
g1461
sbsS'hash_set'
p3400
g304
(g1526
g306
Ntp3401
Rp3402
(dp3403
g1530
g1538
sg1531
g1539
sg330
S'c:/marmalade/7.4/s3e/h/std/c++/hash_set'
p3404
sbsS'IwGeomFQuat.h'
p3405
g304
(g1526
g306
Ntp3406
Rp3407
(dp3408
g1530
g1238
sg1531
g1592
sg330
g1250
sbsS'jmorecfg.h'
p3409
g304
(g1526
g306
Ntp3410
Rp3411
(dp3412
g1530
g1045
sg1531
g1631
sg330
g1070
sbsS'eglplatform.h'
p3413
g304
(g1526
g306
Ntp3414
Rp3415
(dp3416
g1530
g1538
sg1531
g1898
sg330
S'c:/marmalade/7.4/s3e/h/EGL/eglplatform.h'
p3417
sbsS'cmath'
p3418
g304
(g1526
g306
Ntp3419
Rp3420
(dp3421
g1530
g1538
sg1531
g1539
sg330
S'c:/marmalade/7.4/s3e/h/std/c++/cmath'
p3422
sbsS'math_gcc.h'
p3423
g304
(g1526
g306
Ntp3424
Rp3425
(dp3426
g1530
g1538
sg1531
g1560
sg330
S'c:/marmalade/7.4/s3e/h/std/math_gcc.h'
p3427
sbsS's3eMemory.h'
p3428
g304
(g1526
g306
Ntp3429
Rp3430
(dp3431
g1530
g1538
sg1531
g1554
sg330
S'c:/marmalade/7.4/s3e/h/s3eMemory.h'
p3432
sbsS'strings.h'
p3433
g304
(g1526
g306
Ntp3434
Rp3435
(dp3436
g1530
g1538
sg1531
g1560
sg330
S'c:/marmalade/7.4/s3e/h/std/strings.h'
p3437
sbsS's3eFile.h'
p3438
g304
(g1526
g306
Ntp3439
Rp3440
(dp3441
g1530
g1538
sg1531
g1554
sg330
S'c:/marmalade/7.4/s3e/h/s3eFile.h'
p3442
sbsS'IwGxTypes.h'
p3443
g304
(g1526
g306
Ntp3444
Rp3445
(dp3446
g1530
g1338
sg1531
g1677
sg330
g1384
sbsS'cerrno'
p3447
g304
(g1526
g306
Ntp3448
Rp3449
(dp3450
g1530
g1538
sg1531
g1539
sg330
S'c:/marmalade/7.4/s3e/h/std/c++/cerrno'
p3451
sbsS'IwSoundManager.cpp'
p3452
g304
(g1526
g306
Ntp3453
Rp3454
(dp3455
g1530
g1092
sg1531
g1578
sg330
g1129
sbsS'soundengine.mkf'
p3456
g304
(g1526
g306
Ntp3457
Rp3458
(dp3459
g1530
g1089
sg1531
g1578
sg330
g1087
sbsS'resource.h'
p3460
g304
(g1526
g306
Ntp3461
Rp3462
(dp3463
g1530
g1538
sg1531
g1695
sg330
S'c:/marmalade/7.4/s3e/h/std/sys/resource.h'
p3464
sbsS'clocale'
p3465
g304
(g1526
g306
Ntp3466
Rp3467
(dp3468
g1530
g1538
sg1531
g1539
sg330
S'c:/marmalade/7.4/s3e/h/std/c++/clocale'
p3469
sbsS'pvrtextool.mkf'
p3470
g304
(g1526
g306
Ntp3471
Rp3472
(dp3473
g1530
g1171
sg1531
g2165
sg330
g1169
sbsS'csetjmp'
p3474
g304
(g1526
g306
Ntp3475
Rp3476
(dp3477
g1530
g1538
sg1531
g1539
sg330
S'c:/marmalade/7.4/s3e/h/std/c++/csetjmp'
p3478
sbsS'netdb.h'
p3479
g304
(g1526
g306
Ntp3480
Rp3481
(dp3482
g1530
g1538
sg1531
g1560
sg330
S'c:/marmalade/7.4/s3e/h/std/netdb.h'
p3483
sbsS's3eAndroidJNI.h'
p3484
g304
(g1526
g306
Ntp3485
Rp3486
(dp3487
g1530
g1538
sg1531
g1769
sg330
S'c:/marmalade/7.4/s3e/h/ext/s3eAndroidJNI.h'
p3488
sbsS'stdexcept'
p3489
g304
(g1526
g306
Ntp3490
Rp3491
(dp3492
g1530
g1538
sg1531
g1539
sg330
S'c:/marmalade/7.4/s3e/h/std/c++/stdexcept'
p3493
sbsS'math.h'
p3494
g304
(g1526
g306
Ntp3495
Rp3496
(dp3497
g1530
g1538
sg1531
g1560
sg330
S'c:/marmalade/7.4/s3e/h/std/math.h'
p3498
sbsS'stdbool.h'
p3499
g304
(g1526
g306
Ntp3500
Rp3501
(dp3502
g1530
g1538
sg1531
g1560
sg330
S'c:/marmalade/7.4/s3e/h/std/stdbool.h'
p3503
sbsS'uio.h'
p3504
g304
(g1526
g306
Ntp3505
Rp3506
(dp3507
g1530
g1538
sg1531
g1695
sg330
S'c:/marmalade/7.4/s3e/h/std/sys/uio.h'
p3508
sbsS'IwUncopyable.h'
p3509
g304
(g1526
g306
Ntp3510
Rp3511
(dp3512
g1530
g1402
sg1531
g1567
sg330
g1453
sbssS'juice_build_type'
p3513
g4
sS'tests'
p3514
(lp3515
sS'project_name'
p3516
g312
sS'root_file'
p3517
g120
sS'current_root'
p3518
S'c:/Users/lab422/Desktop/FYP/Learning Resources/Sprint 4 Minimal Example/FinalYearProject'
p3519
sS'dependencies'
p3520
(lp3521
sS'include_paths'
p3522
(lp3523
S'c:/marmalade/7.4/modules/iwutil/h'
p3524
aS'c:/marmalade/7.4/modules/third_party/libjpeg/h'
p3525
aS'c:/marmalade/7.4/modules/third_party/zlib/h'
p3526
aS'c:/marmalade/7.4/modules/third_party/libpng/h'
p3527
aS'c:/marmalade/7.4/modules/iw2dscenegraphcore/h'
p3528
aS'c:/marmalade/7.4/modules/iw2dscenegraph/h'
p3529
aS'c:/marmalade/7.4/modules/iw2d/h'
p3530
aS'c:/marmalade/7.4/modules/iwgx/h'
p3531
aS'c:/marmalade/7.4/modules/iwgl/h'
p3532
aS'c:/marmalade/7.4/modules/iwgeom/h'
p3533
aS'c:/marmalade/7.4/modules/iwresmanager/h'
p3534
aS'c:/marmalade/7.4/extensions/pvrtextool/h'
p3535
aS'c:/marmalade/7.4/modules/iwgxfont/h'
p3536
aS'c:/marmalade/7.4/modules/third_party/tiniconv/source'
p3537
aS'c:/users/lab422/desktop/fyp/learning resources/sprint 4 minimal example/finalyearproject/soundengine/h'
p3538
aS'c:/users/lab422/desktop/fyp/learning resources/sprint 4 minimal example/finalyearproject/soundengine/source'
p3539
aS'c:/marmalade/7.4/modules/iwtween/h'
p3540
aS'c:/marmalade/7.4/s3e/h'
p3541
aS'c:/marmalade/7.4/s3e/h/ext'
p3542
aS'c:/marmalade/7.4/s3e/h/std'
p3543
aS'c:/marmalade/7.4/s3e/h/std/c++'
p3544
aS'c:/marmalade/7.4/s3e/h/ext_legacy'
p3545
aS'c:/marmalade/7.4/s3e/h/legacy'
p3546
asS'weak_frameworks'
p3547
(lp3548
sS'extprojects'
p3549
(dp3550
sg570
(dp3551
g564
(lp3552
(g78
S'.'
p3553
I0
tp3554
assS'macro_types'
p3555
(dp3556
g503
I1
sg504
I0
sg505
I0
sg506
I0
sg507
I0
sg508
I0
sg509
I0
sg510
I0
sg511
I0
sg513
I0
sg514
I0
sg515
I0
sg516
I0
sg517
I0
sg519
I0
sg521
I0
sg522
I0
sg523
I0
sg524
I0
sg525
I0
sg526
I0
sg527
I1
sg528
I0
sg529
I0
sg530
I0
sg531
I0
sg532
I01
sg533
I1
sg534
I0
sg535
I0
sg536
I0
sg537
I0
sg538
I0
sg540
I0
sg541
I0
ssS'commands'
p3557
(lp3558
sg572
(g1021
S'VC11'
p3559
S'X86ARM'
p3560
tp3561
sS'build_libs'
p3562
(dp3563
sg574
g0
sS'frameworks'
p3564
(lp3565
sS'environ'
p3566
(dp3567
sS'target_name_debug'
p3568
g312
sS'builders'
p3569
(dp3570
g564
(dp3571
S'.S'
p3572
(dp3573
S'rvct'
p3574
(lp3575
S'.obj'
p3576
aS'echo ARM Assembling(RVCT) ${SOURCE}...'
p3577
aS'c:/marmalade/7.4/s3e\\rvct\\bin\\armasm -o ${TARGET} ${SOURCE}'
p3578
asg426
(lp3579
g3576
aS'echo ARM Assembling(GCC) ${SOURCE}...'
p3580
aS'c:/marmalade/7.4/s3e\\gcc\\bin\\arm-none-eabi-gcc -c -o ${TARGET} ${SOURCE}'
p3581
asS'ppu'
p3582
(lp3583
S'.a'
p3584
aS'echo PPU Assembling(SNC) ${SOURCE}...'
p3585
aS'c:/marmalade/7.4/s3e\\rvct\\bin\\armasm -o ${TARGET} ${SOURCE}'
p3586
assS'.s'
p3587
g3573
sS'.vp'
p3588
(lp3589
NaS'"C:/Marmalade/7.4/s3e/python/python.exe" "c:/marmalade/7.4/modules/iwgx/tools/compile_shaders.py" ${SOURCE}'
p3590
asssS'extproject_names'
p3591
(lp3592
sbtp3593
.