((dp0
S'arm_dbg_args'
p1
S'-via:"c:\\Users\\lab422\\Desktop\\Sprint 1 Minimal Example\\FinalYearProject\\build_finalyearproject_vc12\\FinalYearProject_vc12_arm_debug.via" -qemu'
p2
sS'game-icf'
p3
S''
p4
sS'dist'
p5
NsS'csproj'
p6
g4
sS'module_path_append'
p7
NsS'global_path'
p8
S'c:\\users\\lab422\\desktop\\sprint 1 minimal example'
p9
sS'system_path'
p10
S'c:\\marmalade\\7.4\\s3e\\makefile_builder'
p11
sS'android_x86_dbg_args'
p12
S'../../tools/DeployTool/DeployTool.exe --dir "c:\\Users\\lab422\\Desktop\\Sprint 1 Minimal Example\\FinalYearProject\\build_finalyearproject_vc12"'
p13
sS'no-emit'
p14
NsS'arm-float-abi'
p15
g4
sS'arm_rel_rtsm_args'
p16
S'-via:"c:\\Users\\lab422\\Desktop\\Sprint 1 Minimal Example\\FinalYearProject\\build_finalyearproject_vc12\\FinalYearProject_vc12_arm_release.via" -qemu'
p17
sS'amd64'
p18
NsS'line-width'
p19
I80
sS'gcc_dbg_args'
p20
S'-via:"c:\\Users\\lab422\\Desktop\\Sprint 1 Minimal Example\\FinalYearProject\\build_finalyearproject_vc12\\FinalYearProject_vc12_gcc_debug.via" -qemu'
p21
sS'android-x86'
p22
NsS'x86_dbg_exe'
p23
S'c:/marmalade/7.4/s3e\\win32\\s3e_simulator_debug.exe'
p24
sS'disable-runtime-checks'
p25
NsS'release'
p26
NsS'no-make'
p27
NsS'xcode-x86-build-settings'
p28
g4
sS'optimise-size'
p29
NsS'output-name-debug'
p30
g4
sS'arm-fpu'
p31
g4
sS'proj_name'
p32
S'FinalYearProject_vc12'
p33
sS'rvct-version'
p34
S'none'
p35
sS'compiler'
p36
g4
sS'execute'
p37
NsS'compile-static'
p38
NsS'msvc-project'
p39
I01
sS'buildenv'
p40
g4
sS'quick'
p41
NsS'module_path'
p42
NsS'use-release-std-libs'
p43
NsS'using_perforce'
p44
I00
sS'tizen-x86'
p45
NsS'mips-s3e'
p46
NsS's3e-api-lib-name'
p47
S's3e_api_iwgl'
p48
sS'ios-no-pic'
p49
NsS'shared-arm-lib'
p50
NsS'arm-cpu'
p51
g4
sS'compile-thumb'
p52
NsS'no-ide'
p53
NsS'msvc-version'
p54
S'6.0'
p55
sS'arm'
p56
NsS'builddir'
p57
g4
sS'compile-debug-as-release'
p58
I0
sS'arm-arch'
p59
g4
sS'brief'
p60
NsS'dll'
p61
NsS'buildenv-toolset'
p62
g4
sS'version'
p63
NsS'ccache'
p64
I0
sS'offline'
p65
NsS'ios-version'
p66
g4
sS'hub_data'
p67
g4
sS'fake_vc_call'
p68
NsS'jobs'
p69
I0
sS'linkflags'
p70
NsS'debug'
p71
NsS'xcode-build-order'
p72
g4
sS'gcc_rel_rtsm_args'
p73
S'-via:"c:\\Users\\lab422\\Desktop\\Sprint 1 Minimal Example\\FinalYearProject\\build_finalyearproject_vc12\\FinalYearProject_vc12_gcc_release.via" -qemu'
p74
sS'done_defaults'
p75
I1
sS'path'
p76
NsS's3e-data-dir'
p77
S'c:/Users/lab422/Desktop/Sprint 1 Minimal Example/FinalYearProject\\data'
p78
sS'enable-exceptions'
p79
NsS'osx-dll'
p80
NsS'extension'
p81
g4
sS'no-vc6'
p82
NsS'non-interactive'
p83
NsS'win32-console'
p84
NsS'dist-format'
p85
g4
sS's3e-force-arch'
p86
NsS'dump_defines'
p87
NsS'use_prebuilt'
p88
NsS'gcc-version'
p89
g4
sS'x86_dbg_args'
p90
S'-via:"c:\\Users\\lab422\\Desktop\\Sprint 1 Minimal Example\\FinalYearProject\\build_finalyearproject_vc12\\FinalYearProject_vc12_debug.via"'
p91
sS'tizen_x86_dbg_args'
p92
g13
sS'arm-debugger'
p93
g4
sS'use_temp_extension'
p94
NsS'verbose'
p95
I0
sS'log'
p96
NsS'no-strip'
p97
NsS'rebuild'
p98
NsS'win32-simulator-dll'
p99
NsS'strict'
p100
NsS'mips_dbg_args'
p101
g13
sS'enable-global-path'
p102
NsS'cflags'
p103
NsS'dist-dir'
p104
g4
sS'xcode-arm-build-settings'
p105
g4
sS'jflags'
p106
NsS'csprojSDKRefs'
p107
g4
sS'tizen_x86_rel_exe'
p108
S'c:\\marmalade\\7.4\\s3e\\makefile_builder\\tool_launcher.exe'
p109
sS'test-assets'
p110
g4
sS'distcc'
p111
NsS'external-compiler'
p112
NsS'no-distcc'
p113
NsS'preinclude'
p114
NsS'using_sdk'
p115
I01
sS'nologo'
p116
NsS'warn-level'
p117
I2
sS'mips_dbg_exe'
p118
g109
sS'mkb_in'
p119
S'c:/Users/lab422/Desktop/Sprint 1 Minimal Example/FinalYearProject/FinalYearProject.mkb'
p120
sS'tizen_x86_dbg_exe'
p121
g109
sS'arm_dbg_exe'
p122
S'c:/marmalade/7.4/s3e\\bin\\armdebug.exe'
p123
sS'csprojDLLRef'
p124
NsS'tizen_x86_rel_args'
p125
g13
sS'android_x86_dbg_exe'
p126
g109
sS'test-config'
p127
g4
sS'list-targets'
p128
NsS'arm_rel_exe'
p129
g109
sS'arm_rel_args'
p130
g13
sS'makedeps'
p131
NsS'android_x86_rel_exe'
p132
g109
sS'default-buildenv'
p133
S'vc12'
p134
sS'x86_rel_exe'
p135
g24
sS'preprocess-java'
p136
NsS'mips_rel_args'
p137
g13
sS'defines'
p138
NsS'lib'
p139
NsS'global_argv'
p140
(lp141
S'C:\\Marmalade\\7.4\\s3e\\makefile_builder\\mkb.py'
p142
aS'c:/Users/lab422/Desktop/Sprint 1 Minimal Example/FinalYearProject/FinalYearProject.mkb'
p143
aS'--default-buildenv=vc12'
p144
aS'--msvc-project'
p145
asS'make'
p146
NsS'optimise-speed'
p147
NsS'internal'
p148
NsS'enable-stdinc'
p149
NsS'deploy-only'
p150
NsS'x86'
p151
NsS'deploy'
p152
g4
sS'x86_run_exe'
p153
S'c:/marmalade/7.4/s3e\\win32\\s3e_console.exe'
p154
sS'x86_rel_args'
p155
S'-via:"c:\\Users\\lab422\\Desktop\\Sprint 1 Minimal Example\\FinalYearProject\\build_finalyearproject_vc12\\FinalYearProject_vc12_release.via"'
p156
sS'gcc_rel_args'
p157
g13
sS'mips'
p158
NsS'xcode-build-settings'
p159
g4
sS'incredibuild'
p160
NsS'strict-compile'
p161
NsS'use-auto-subdirs'
p162
NsS'mips_rel_exe'
p163
g109
sS'android_x86_rel_args'
p164
g13
sS'app-icf'
p165
g4
sS'deployargs'
p166
NsS'iosnativedebug'
p167
NsS'mkf_in'
p168
(lp169
S'c:\\marmalade\\7.4\\modules\\iwutil\\iwutil.mkf'
p170
aS'c:\\marmalade\\7.4\\modules\\third_party\\libjpeg\\libjpeg.mkf'
p171
aS'c:\\marmalade\\7.4\\modules\\third_party\\libpng\\libpng.mkf'
p172
aS'c:\\marmalade\\7.4\\modules\\third_party\\zlib\\zlib.mkf'
p173
aS'c:\\marmalade\\7.4\\modules\\iw2dscenegraphcore\\iw2dscenegraphcore.mkf'
p174
aS'c:\\marmalade\\7.4\\modules\\iw2dscenegraph\\iw2dscenegraph.mkf'
p175
aS'c:\\marmalade\\7.4\\modules\\iw2d\\iw2d.mkf'
p176
aS'c:\\marmalade\\7.4\\modules\\iwgx\\iwgx.mkf'
p177
aS'c:\\marmalade\\7.4\\modules\\iwgl\\iwgl.mkf'
p178
aS'c:\\marmalade\\7.4\\modules\\iwgeom\\iwgeom.mkf'
p179
aS'c:\\marmalade\\7.4\\modules\\iwresmanager\\iwresmanager.mkf'
p180
aS'c:\\marmalade\\7.4\\extensions\\pvrtextool\\pvrtextool.mkf'
p181
aS'c:\\marmalade\\7.4\\modules\\iwgxfont\\iwgxfont.mkf'
p182
aS'c:\\marmalade\\7.4\\modules\\third_party\\tiniconv\\tiniconv.mkf'
p183
aS'c:\\marmalade\\7.4\\modules\\iwtween\\iwtween.mkf'
p184
asS'strict-mkb'
p185
NsS'executeargs'
p186
NsS'clean'
p187
NsS'no-asm'
p188
NsS'output-name'
p189
g4
sS'no-modules'
p190
NsS'find_define'
p191
g4
s(dp192
S'c:\\marmalade\\7.4\\s3e\\makefile_builder\\plugins\\Emitter.pyc'
p193
F1409106506.0
sS'c:\\marmalade\\7.4\\s3e\\makefile_builder\\templates\\ws8_ext_sln.pyc'
p194
F1409106508.0
sS'c:\\marmalade\\7.4\\s3e\\makefile_builder\\templates\\MainWindow.xib'
p195
F1409103204.0
sS'c:\\marmalade\\7.4\\s3e\\makefile_builder\\templates\\template.suo'
p196
F1409103204.0
sS'c:\\marmalade\\7.4\\s3e\\makefile_builder\\plugins\\xcode4_schememanagement.py'
p197
F1409103204.0
sS'c:\\marmalade\\7.4\\s3e\\makefile_builder\\templates\\ws81_sln.pyc'
p198
F1409106508.0
sS'c:\\marmalade\\7.4\\s3e\\makefile_builder\\templates\\win8_ext_csproj.pyc'
p199
F1409106508.0
sS'c:\\marmalade\\7.4\\s3e\\makefile_builder\\mkb_option.pyc'
p200
F1409106506.0
sS'c:\\marmalade\\7.4\\s3e\\makefile_builder\\plugins\\s3e_xcode.py'
p201
F1409103204.0
sS'c:\\marmalade\\7.4\\s3e\\makefile_builder\\plugins\\s3e_scons.pyc'
p202
F1409106506.0
sS'c:\\marmalade\\7.4\\s3e\\makefile_builder\\templates\\win8_vcxproj.pyc'
p203
F1409106508.0
sS'c:\\marmalade\\7.4\\s3e\\makefile_builder\\plugins\\null.pyc'
p204
F1409106506.0
sS'c:\\marmalade\\7.4\\s3e\\makefile_builder\\templates\\vc8_user.pyc'
p205
F1409106506.0
sS'c:\\marmalade\\7.4\\s3e\\makefile_builder\\templates\\wp81_ext_sln.pyc'
p206
F1409106508.0
sS'c:\\marmalade\\7.4\\s3e\\makefile_builder\\templates\\scons.pyc'
p207
F1409106506.0
sS'c:\\marmalade\\7.4\\s3e\\makefile_builder\\templates\\wp8_ext_csproj.pyc'
p208
F1409106508.0
sS'c:\\marmalade\\7.4\\s3e\\makefile_builder\\templates\\xcode_pbxuser.py'
p209
F1409103204.0
sS'c:\\marmalade\\7.4\\s3e\\makefile_builder\\plugins\\s3e_qmake.py'
p210
F1409103204.0
sS'c:\\marmalade\\7.4\\s3e\\makefile_builder\\plugins\\iphone.pyc'
p211
F1409106506.0
sS'c:\\marmalade\\7.4\\s3e\\makefile_builder\\templates\\ws81_ext_csproj.pyc'
p212
F1409106508.0
sS'c:\\marmalade\\7.4\\s3e\\makefile_builder\\templates\\vc6_opt.pyc'
p213
F1409106506.0
sS'c:\\marmalade\\7.4\\s3e\\makefile_builder\\plugins\\s3e_win8.pyc'
p214
F1409106506.0
sS'c:\\marmalade\\7.4\\s3e\\makefile_builder\\mkb_main.pyc'
p215
F1409106506.0
sS'c:\\marmalade\\7.4\\s3e\\makefile_builder\\templates\\wp8_csproj.pyc'
p216
F1409106508.0
sS'c:\\marmalade\\7.4\\s3e\\makefile_builder\\templates\\win32_vcproj.pyc'
p217
F1409106506.0
sS'c:\\marmalade\\7.4\\s3e\\makefile_builder\\templates\\win8_sln.pyc'
p218
F1409106508.0
sS'c:\\marmalade\\7.4\\s3e\\makefile_builder\\mkb_launcher.exe'
p219
F1409103760.0
sS'c:\\marmalade\\7.4\\s3e\\makefile_builder\\plugins\\osx_xcode.pyc'
p220
F1409106506.0
sS'c:\\marmalade\\7.4\\s3e\\makefile_builder\\plugins'
p221
F1411126710.2346628
sS'c:\\marmalade\\7.4\\s3e\\makefile_builder\\templates\\wp8_csproj_user.pyc'
p222
F1409106508.0
sS'c:\\marmalade\\7.4\\s3e\\makefile_builder\\plugins\\win32_vc6.pyc'
p223
F1409106506.0
sS'c:\\marmalade\\7.4\\s3e\\makefile_builder\\plugins\\s3e_vc6.pyc'
p224
F1409106506.0
sS'c:\\marmalade\\7.4\\s3e\\makefile_builder\\templates\\vc10_user.pyc'
p225
F1409106506.0
sS'c:\\marmalade\\7.4\\s3e\\makefile_builder\\docs\\deprecated.defines.txt'
p226
F1409103204.0
sS'c:\\marmalade\\7.4\\s3e\\makefile_builder\\templates\\wp81_csproj_user.pyc'
p227
F1409106508.0
sS'c:\\marmalade\\7.4\\s3e\\makefile_builder\\templates\\ws81_ext_sln.pyc'
p228
F1409106508.0
sS'c:\\marmalade\\7.4\\s3e\\makefile_builder\\templates\\make.py'
p229
F1409103204.0
sS'c:\\marmalade\\7.4\\s3e\\makefile_builder\\plugins\\wp81_wp81.pyc'
p230
F1409106506.0
sS'c:\\marmalade\\7.4\\s3e\\makefile_builder\\plugins\\s3e_qmake.pyc'
p231
F1411126710.1536582
sS'c:\\marmalade\\7.4\\s3e\\makefile_builder\\templates\\mips_linker_script'
p232
F1409103204.0
sS'c:\\marmalade\\7.4\\s3e\\makefile_builder\\plugins\\deploy.pyc'
p233
F1409106506.0
sS'c:\\marmalade\\7.4\\s3e\\makefile_builder\\plugins\\ws81_ws81.pyc'
p234
F1409106506.0
sS'c:\\marmalade\\7.4\\s3e\\makefile_builder\\mkb.py'
p235
F1409103204.0
sS'c:\\marmalade\\7.4\\s3e\\makefile_builder\\docs\\options.txt'
p236
F1409103204.0
sS'c:\\marmalade\\7.4\\s3e\\makefile_builder\\mkb_parser.pyc'
p237
F1409106506.0
sS'c:\\marmalade\\7.4\\s3e\\makefile_builder\\templates\\qmake_user.py'
p238
F1409103204.0
sS'c:\\marmalade\\7.4\\s3e\\makefile_builder\\docs\\mkb.defines.txt'
p239
F1409103204.0
sS'c:\\marmalade\\7.4\\s3e\\makefile_builder\\deployment.pyc'
p240
F1409106506.0
sS'c:\\marmalade\\7.4\\s3e\\makefile_builder\\plugins\\wp8_wp8.pyc'
p241
F1409106506.0
sS'c:\\marmalade\\7.4\\s3e\\makefile_builder\\plugins\\linux_scons.pyc'
p242
F1409106506.0
sS'c:\\marmalade\\7.4\\s3e\\makefile_builder\\plugins\\s3e_web.pyc'
p243
F1409106506.0
sS'c:\\marmalade\\7.4\\s3e\\makefile_builder\\plugins\\S3EEmitter.pyc'
p244
F1409106506.0
sS'c:\\marmalade\\7.4\\s3e\\makefile_builder\\plugins\\Win8Emitter.pyc'
p245
F1409106506.0
sS'c:\\marmalade\\7.4\\s3e\\makefile_builder\\templates\\xcode4_arm.xcscheme'
p246
F1409103204.0
sS'c:\\marmalade\\7.4\\s3e\\makefile_builder\\plugins\\vc6_utils.pyc'
p247
F1409106506.0
sS'c:\\marmalade\\7.4\\s3e\\makefile_builder\\templates\\wp8_vcxproj.pyc'
p248
F1409106508.0
sS'c:\\marmalade\\7.4\\s3e\\makefile_builder\\templates\\xcode4.xcscheme'
p249
F1409103204.0
sS'c:\\marmalade\\7.4\\s3e\\makefile_builder\\plugins\\MakeEmitter.pyc'
p250
F1409106506.0
sS'c:\\marmalade\\7.4\\s3e\\makefile_builder\\plugins\\java.pyc'
p251
F1409106506.0
sS'c:\\marmalade\\7.4\\s3e\\makefile_builder\\plugins\\XcodeEmitter.pyc'
p252
F1411126709.9866486
sS'c:\\marmalade\\7.4\\s3e\\makefile_builder\\plugins\\XcodeEmitter.py'
p253
F1409103204.0
sS'c:\\marmalade\\7.4\\s3e\\makefile_builder\\mkb_globals.pyc'
p254
F1409106506.0
sS'c:\\marmalade\\7.4\\s3e\\makefile_builder\\tool_launcher.exe'
p255
F1409103760.0
sS'c:\\marmalade\\7.4\\s3e\\makefile_builder\\mkb_util.pyc'
p256
F1409106506.0
sS'c:\\marmalade\\7.4\\s3e\\makefile_builder\\plugins\\xcode4_schememanagement.pyc'
p257
F1411126709.995649
sS'c:\\marmalade\\7.4\\s3e\\makefile_builder\\templates\\ws8_sln.pyc'
p258
F1409106508.0
sS'c:\\marmalade\\7.4\\s3e\\makefile_builder\\templates\\win32_sln.pyc'
p259
F1409106506.0
sS'c:\\marmalade\\7.4\\s3e\\makefile_builder\\templates\\wp81_ext_csproj.pyc'
p260
F1409106508.0
sS'c:\\marmalade\\7.4\\s3e\\makefile_builder\\plugins\\s3e_wp81.pyc'
p261
F1409106506.0
sS'c:\\marmalade\\7.4\\s3e\\makefile_builder\\plugins\\s3e_wp8.pyc'
p262
F1409106506.0
sS'c:\\marmalade\\7.4\\s3e\\makefile_builder\\templates\\qmake.py'
p263
F1409103204.0
sS'c:\\marmalade\\7.4\\s3e\\makefile_builder\\templates\\gdb_start.txt'
p264
F1409103204.0
sS'c:\\marmalade\\7.4\\s3e\\makefile_builder\\templates'
p265
F1411126377.7216442
sS'c:\\marmalade\\7.4\\s3e\\makefile_builder\\templates\\ws8_ext_csproj.pyc'
p266
F1409106508.0
sS'c:\\marmalade\\7.4\\s3e\\makefile_builder\\templates\\win8_csproj_user.pyc'
p267
F1409106508.0
sS'c:\\marmalade\\7.4\\s3e\\makefile_builder\\templates\\vc7_suo.pyc'
p268
F1409106506.0
sS'c:\\marmalade\\7.4\\s3e\\makefile_builder\\plugins\\VisualStudioEmitter.pyc'
p269
F1409106506.0
sS'c:\\marmalade\\7.4\\s3e\\makefile_builder\\templates\\linker_script'
p270
F1409103204.0
sS'c:\\marmalade\\7.4\\s3e\\makefile_builder\\docs\\deprecated.options.txt'
p271
F1409103204.0
sS'c:\\marmalade\\7.4\\s3e\\makefile_builder\\plugins\\s3e_xcode.pyc'
p272
F1411126710.2356627
sS'c:\\marmalade\\7.4\\s3e\\makefile_builder\\plugins\\s3e_ws8.pyc'
p273
F1409106506.0
sS'c:\\marmalade\\7.4\\s3e\\makefile_builder\\templates\\xcode4_DeployTool.xcscheme'
p274
F1409103204.0
sS'c:\\marmalade\\7.4\\s3e\\makefile_builder\\templates\\ws8_csproj_user.pyc'
p275
F1409106508.0
sS'c:\\marmalade\\7.4\\s3e\\makefile_builder\\plugins\\osx_scons.pyc'
p276
F1409106506.0
sS'c:\\marmalade\\7.4\\s3e\\makefile_builder\\templates\\ws81_csproj.pyc'
p277
F1409106508.0
sS'c:\\marmalade\\7.4\\s3e\\makefile_builder\\templates\\wp8_sln.pyc'
p278
F1409106508.0
sS'c:\\marmalade\\7.4\\s3e\\makefile_builder\\docs'
p279
F1411126377.7456455
sS'c:\\marmalade\\7.4\\s3e\\makefile_builder\\plugins\\ws8_ws8.pyc'
p280
F1409106506.0
sS'c:\\marmalade\\7.4\\s3e\\makefile_builder\\docs\\deployment_options.txt'
p281
F1409103204.0
sS'c:\\marmalade\\7.4\\s3e\\makefile_builder\\templates\\win32_vcxproj_filters.pyc'
p282
F1409106506.0
sS'c:\\marmalade\\7.4\\s3e\\makefile_builder\\templates\\win32_dsw.pyc'
p283
F1409106506.0
sS'c:\\marmalade\\7.4\\s3e\\makefile_builder\\plugins\\s3e_ws81.pyc'
p284
F1409106506.0
sS'c:\\marmalade\\7.4\\s3e\\makefile_builder\\plugins\\SConsEmitter.pyc'
p285
F1409106506.0
sS'c:\\marmalade\\7.4\\s3e\\makefile_builder\\templates\\wp81_vcxproj.pyc'
p286
F1409106508.0
sS'c:\\marmalade\\7.4\\s3e\\makefile_builder\\plugins\\win8_utils.pyc'
p287
F1409106506.0
sS'c:\\marmalade\\7.4\\s3e\\makefile_builder\\templates\\template.opt'
p288
F1409103204.0
sS'c:\\marmalade\\7.4\\s3e\\makefile_builder\\plugins\\vc7_utils.pyc'
p289
F1409106506.0
sS'c:\\marmalade\\7.4\\s3e\\makefile_builder\\templates\\win32_dsp.pyc'
p290
F1409106506.0
sS'c:\\marmalade\\7.4\\s3e\\makefile_builder\\plugins\\s3e_make.pyc'
p291
F1409106506.0
sS'c:\\marmalade\\7.4\\s3e\\makefile_builder\\templates\\rvct_linker_script'
p292
F1409103204.0
sS'c:\\marmalade\\7.4\\s3e\\makefile_builder\\templates\\win8_csproj.pyc'
p293
F1409106508.0
sS'c:\\marmalade\\7.4\\s3e\\makefile_builder\\templates\\xcode.py'
p294
F1409103204.0
sS'c:\\marmalade\\7.4\\s3e\\makefile_builder\\templates\\ws8_vcxproj.pyc'
p295
F1409106508.0
sS'c:\\marmalade\\7.4\\s3e\\makefile_builder\\templates\\wp81_csproj.pyc'
p296
F1409106508.0
sS'c:\\marmalade\\7.4\\s3e\\makefile_builder\\mkb_upstream.pyc'
p297
F1409106506.0
sS'c:\\marmalade\\7.4\\s3e\\makefile_builder\\templates\\win32_vcxproj.pyc'
p298
F1409106506.0
sS'c:\\marmalade\\7.4\\s3e\\makefile_builder\\templates\\ws8_csproj.pyc'
p299
F1409106508.0
sS'c:\\marmalade\\7.4\\s3e\\makefile_builder\\docs\\parse_options.pyc'
p300
F1409106508.0
sS'c:\\marmalade\\7.4\\s3e\\makefile_builder\\templates\\Info.plist'
p301
F1409103204.0
sS'c:\\marmalade\\7.4\\s3e\\makefile_builder\\templates\\wp81_sln.pyc'
p302
F1409106508.0
sS'c:\\marmalade\\7.4\\s3e\\makefile_builder\\templates\\ws81_csproj_user.pyc'
p303
F1409106508.0
sS'c:\\marmalade\\7.4\\s3e\\makefile_builder\\templates\\ws81_vcxproj.pyc'
p304
F1409106508.0
sccopy_reg
_reconstructor
p305
(cmkb_main
MkbFile
p306
c__builtin__
object
p307
Ntp308
Rp309
(dp310
g5
(lp311
sS'target_name'
p312
S'FinalYearProject'
p313
sS'current_file'
p314
g120
sS'package_path'
p315
(lp316
sS'post_build'
p317
(lp318
(lp319
S'c:/marmalade/7.4/s3e/tools'
p320
aS'C:\\Marmalade\\7.4\\s3e\\python\\python.exe .\\process_map.py "$(TargetPath)"'
p321
aa(S'c:\\marmalade\\7.4\\s3e\\bin'
p322
S'"s3e_plink" -l "$(TargetPath)" '
p323
g151
tp324
asS'librarys'
p325
(lp326
g305
(cmkb_main
Library
p327
g307
Ntp328
Rp329
(dp330
S'name'
p331
S'vc6_compat.lib'
p332
sS'expand_name'
p333
I00
sS'include_spec_rvct_objs'
p334
(lp335
sS'include_all_objs'
p336
I00
sS'share_arm'
p337
I00
sS'arch'
p338
S'x86'
p339
sS'nodebug'
p340
I00
sg36
Nsbag305
(g327
g307
Ntp341
Rp342
(dp343
g331
S'iwutil'
p344
sg333
I01
sg334
(lp345
sg336
Nsg337
Nsg338
Nsg340
I00
sg36
Nsbag305
(g327
g307
Ntp346
Rp347
(dp348
g331
S'jpeg'
p349
sg333
I01
sg334
g345
sg336
Nsg337
Nsg338
Nsg340
I00
sg36
Nsbag305
(g327
g307
Ntp350
Rp351
(dp352
g331
S'z'
p353
sg333
I01
sg334
g345
sg336
Nsg337
Nsg338
Nsg340
I00
sg36
Nsbag305
(g327
g307
Ntp354
Rp355
(dp356
g331
S'png'
p357
sg333
I01
sg334
g345
sg336
Nsg337
Nsg338
Nsg340
I00
sg36
Nsbag305
(g327
g307
Ntp358
Rp359
(dp360
g331
S'iw2d'
p361
sg333
I01
sg334
g345
sg336
Nsg337
Nsg338
Nsg340
I00
sg36
Nsbag305
(g327
g307
Ntp362
Rp363
(dp364
g331
S'ATI_Compress_MT_VC7.lib'
p365
sg333
I00
sg334
g345
sg336
Nsg337
Nsg338
S'x86'
p366
sg340
I00
sg36
Nsbag305
(g327
g307
Ntp367
Rp368
(dp369
g331
S'iwgx'
p370
sg333
I01
sg334
g345
sg336
Nsg337
Nsg338
Nsg340
I00
sg36
Nsbag305
(g327
g307
Ntp371
Rp372
(dp373
g331
S'iwgl'
p374
sg333
I01
sg334
g345
sg336
Nsg337
Nsg338
Nsg340
I00
sg36
Nsbag305
(g327
g307
Ntp375
Rp376
(dp377
g331
S'iwgeom'
p378
sg333
I01
sg334
g345
sg336
Nsg337
Nsg338
Nsg340
I00
sg36
Nsbag305
(g327
g307
Ntp379
Rp380
(dp381
g331
S'iwresmanager'
p382
sg333
I01
sg334
g345
sg336
Nsg337
Nsg338
Nsg340
I00
sg36
Nsbag305
(g327
g307
Ntp383
Rp384
(dp385
g331
S'iwgxfont'
p386
sg333
I01
sg334
g345
sg336
Nsg337
Nsg338
Nsg340
I00
sg36
Nsbag305
(g327
g307
Ntp387
Rp388
(dp389
g331
S'tiniconv'
p390
sg333
I01
sg334
g345
sg336
Nsg337
Nsg338
Nsg340
I00
sg36
Nsbag305
(g327
g307
Ntp391
Rp392
(dp393
g331
S's3e_cpp'
p394
sg333
I01
sg334
g335
sg336
I00
sg337
I00
sg338
Nsg340
I00
sg36
Nsbag305
(g327
g307
Ntp395
Rp396
(dp397
g331
S's3e'
p398
sg333
I01
sg334
(lp399
S'iwcrt.o'
p400
asg336
I00
sg337
I00
sg338
Nsg340
I00
sg36
Nsbag305
(g327
g307
Ntp401
Rp402
(dp403
g331
g48
sg333
I01
sg334
g335
sg336
I00
sg337
I00
sg338
S'x86'
p404
sg340
I01
sg36
Nsbag305
(g327
g307
Ntp405
Rp406
(dp407
g331
g48
sg333
I01
sg334
g335
sg336
I00
sg337
I00
sg338
S'!x86'
p408
sg340
I01
sg36
Nsbag305
(g327
g307
Ntp409
Rp410
(dp411
g331
S'stdc++'
p412
sg333
I00
sg334
g335
sg336
I00
sg337
I00
sg338
S'mips'
p413
sg340
I00
sg36
Nsbag305
(g327
g307
Ntp414
Rp415
(dp416
g331
S'c'
p417
sg333
I00
sg334
g335
sg336
I00
sg337
I00
sg338
S'mips'
p418
sg340
I00
sg36
Nsbag305
(g327
g307
Ntp419
Rp420
(dp421
g331
S'm'
p422
sg333
I00
sg334
g335
sg336
I00
sg337
I00
sg338
S'mips'
p423
sg340
I00
sg36
Nsbag305
(g327
g307
Ntp424
Rp425
(dp426
g331
S'gcc'
p427
sg333
I00
sg334
g335
sg336
I00
sg337
I00
sg338
S'mips'
p428
sg340
I00
sg36
Nsbag305
(g327
g307
Ntp429
Rp430
(dp431
g331
S'stdc++'
p432
sg333
I00
sg334
g335
sg336
I00
sg337
I00
sg338
S'gcc_x86_android'
p433
sg340
I00
sg36
Nsbag305
(g327
g307
Ntp434
Rp435
(dp436
g331
g417
sg333
I00
sg334
g335
sg336
I00
sg337
I00
sg338
S'gcc_x86_android'
p437
sg340
I00
sg36
Nsbag305
(g327
g307
Ntp438
Rp439
(dp440
g331
g422
sg333
I00
sg334
g335
sg336
I00
sg337
I00
sg338
S'gcc_x86_android'
p441
sg340
I00
sg36
Nsbag305
(g327
g307
Ntp442
Rp443
(dp444
g331
g427
sg333
I00
sg334
g335
sg336
I00
sg337
I00
sg338
S'gcc_x86_android'
p445
sg340
I00
sg36
NsbasS'library_paths'
p446
(lp447
g305
(cmkb_main
LibraryPath
p448
g307
Ntp449
Rp450
(dp451
S'expand_path'
p452
I01
sg331
S'c:/marmalade/7.4/modules/iwutil'
p453
sbag305
(g448
g307
Ntp454
Rp455
(dp456
g452
I01
sg331
S'c:/marmalade/7.4/modules/third_party/libjpeg'
p457
sbag305
(g448
g307
Ntp458
Rp459
(dp460
g452
I01
sg331
S'c:/marmalade/7.4/modules/third_party/zlib'
p461
sbag305
(g448
g307
Ntp462
Rp463
(dp464
g452
I01
sg331
S'c:/marmalade/7.4/modules/third_party/libpng'
p465
sbag305
(g448
g307
Ntp466
Rp467
(dp468
g452
I01
sg331
S'c:/marmalade/7.4/modules/iw2d'
p469
sbag305
(g448
g307
Ntp470
Rp471
(dp472
g452
I00
sg331
S'c:/marmalade/7.4/modules/iwgx/atitools'
p473
sbag305
(g448
g307
Ntp474
Rp475
(dp476
g452
I01
sg331
S'c:/marmalade/7.4/modules/iwgx'
p477
sbag305
(g448
g307
Ntp478
Rp479
(dp480
g452
I01
sg331
S'c:/marmalade/7.4/modules/iwgl'
p481
sbag305
(g448
g307
Ntp482
Rp483
(dp484
g452
I01
sg331
S'c:/marmalade/7.4/modules/iwgeom'
p485
sbag305
(g448
g307
Ntp486
Rp487
(dp488
g452
I01
sg331
S'c:/marmalade/7.4/modules/iwresmanager'
p489
sbag305
(g448
g307
Ntp490
Rp491
(dp492
g452
I01
sg331
S'c:/marmalade/7.4/modules/iwgxfont'
p493
sbag305
(g448
g307
Ntp494
Rp495
(dp496
g452
I01
sg331
S'c:/marmalade/7.4/modules/third_party/tiniconv'
p497
sbag305
(g448
g307
Ntp498
Rp499
(dp500
g452
I01
sg331
S'c:/marmalade/7.4/s3e'
p501
sbasS'macros'
p502
(dp503
S'IW_USE_CALLSTACK'
p504
NsS'IW_MKF_IWGEOM'
p505
NsS'I3D_PLATFORM_S3E'
p506
NsS'IW_MKF_IW2DSCENEGRAPHCORE'
p507
NsS'IW_MKF_LIBJPEG'
p508
NsS'I3D_OS_S3E'
p509
NsS'IW_MKF_PVRTEXTOOL'
p510
NsS'IW_MKF_TINICONV'
p511
NsS'IW_APP_VERSION'
p512
S'"1.0"'
p513
sS'__S3E__'
p514
NsS'IW_MKF_IWRESMANAGER'
p515
NsS'IW_MKF_IWUTIL'
p516
NsS'IW_PLATFORM_S3E'
p517
NsS'IW_ASSERTION_CHANNEL_2D'
p518
S'1'
p519
sS'IW_APP_NAME'
p520
S'"FinalYearProject"'
p521
sS'IW_MKF_IWGXFONT'
p522
NsS'IW_MKF_IWTWEEN'
p523
NsS'IW_MKF_ZLIB'
p524
NsS'IW_MKF_IWGX'
p525
NsS'IW_MKF_IW2DSCENEGRAPH'
p526
NsS'IW_USE_ASSERTIONS'
p527
NsS'_CRT_SECURE_NO_DEPRECATE'
p528
NsS'IW_MKF_IWGL'
p529
NsS'IW_MKF_LIBPNG'
p530
NsS'IW_TRACE_CHANNEL_IW_2DSCENEGRAPH'
p531
g519
sS'IW_DEBUG'
p532
NsS'IW_USE_TRACING'
p533
NsS'IW_ASSERTION_CHANNEL_IW_2DSCENEGRAPH'
p534
g519
sS'IW_TRACE_CHANNEL_PVRTEXTOOL'
p535
g519
sS'IW_SDK'
p536
NsS'S3E_INCLUDE_LEGACY'
p537
NsS'IW_TRACE_CHANNEL_PVRTEXTOOL_VERBOSE'
p538
S'2'
p539
sS'IW_MKF_IW2D'
p540
NsS'IW_ASSERTION_CHANNEL_PVRTEXTOOL'
p541
g519
ssS'done_warnings'
p542
(dp543
sS'subprojects'
p544
(dp545
g173
S'zlib'
p546
sg171
S'libjpeg'
p547
sg174
S'iw2dscenegraphcore'
p548
sg177
S'iwgx'
p549
sg179
S'iwgeom'
p550
sg170
S'iwutil'
p551
sg175
S'iw2dscenegraph'
p552
sg183
S'tiniconv'
p553
sg178
S'iwgl'
p554
sg176
S'iw2d'
p555
sg182
S'iwgxfont'
p556
sg180
S'iwresmanager'
p557
sg172
S'libpng'
p558
sg184
S'iwtween'
p559
sg181
S'PVRTexTool'
p560
ssS'deployments'
p561
(dp562
S'Default'
p563
g305
(cdeployment
Deployment
p564
g307
Ntp565
Rp566
(dp567
S'got_version'
p568
I0
sS'assets'
p569
g563
sS'mkb'
p570
g309
sS'target'
p571
Nsg338
(lp572
sS'options'
p573
(dp574
S'iphone-link-lib'
p575
(lp576
sS'game-icf'
p577
NsS'android-tm'
p578
NsS'winmobile-icon32'
p579
NsS'ws8-logo-image150x150'
p580
NsS'wp81-logo-image150x150'
p581
NsS'ws81-product-version'
p582
NsS'osx-ext-dll'
p583
(lp584
S'c:/marmalade/7.4/extensions/pvrtextool/lib/osx/libPVRTexTool.dylib'
p585
asS'iphone-provisioning-profile'
p586
NsS'ws8-splash-screen-image620x300'
p587
NsS'wp81-extra-pri'
p588
(lp589
sS'ws8-ext-capabilities'
p590
(lp591
sS'android-icon-hdpi'
p592
NsS'brew-icon-large'
p593
NsS'iphone-splash-full-orient'
p594
NsS'wp8-tile-fliptemplate-supports-large'
p595
NsS'iphone-show-status-bar'
p596
NsS'roku-requires-mkv'
p597
NsS'long-caption'
p598
NsS'android-pkgname'
p599
NsS'wp81-publisher-display-name'
p600
NsS'blackberry-permissions-read-device-identifying-information'
p601
NsS'ws81-certificate-end-date'
p602
NsS'psp-dlgcontentid'
p603
NsS'iphone-minimum-ios-version'
p604
NsS'target-folder'
p605
NsS'tizen-dist1-CA-path'
p606
NsS'symbian-icon2-format'
p607
NsS'tizen-author-key'
p608
NsS'firefoxos-icon-128X128'
p609
NsS'iphone-region'
p610
NsS'uiq3-icon3-mask'
p611
NsS'brew-encoding'
p612
NsS'android-x86'
p613
NsS'nds-initialcode'
p614
NsS'iphone-persistent-wifi'
p615
NsS'psp-snd0'
p616
NsS'roku-icon-focus-hd'
p617
NsS'winmobile-install-folder'
p618
NsS'android-external-res'
p619
(lp620
sS'ws8-product-version'
p621
NsS'brew-priviledges'
p622
NsS'iphone-icon-ipad-search'
p623
NsS'iphone-icon-ipad'
p624
NsS'roku-hidden'
p625
NsS'psp-titlename'
p626
NsS'wp81-product-version'
p627
NsS'symbian-icon1-mask'
p628
NsS'psp-parentallevel'
p629
NsS'splashscreen-use-all'
p630
NsS'wp8-author'
p631
NsS'symbian-disable-ecompxl'
p632
NsS'splashscreen-auto-onblack'
p633
NsS'win32-ext-dll'
p634
(lp635
S'c:/marmalade/7.4/extensions/pvrtextool/lib/win32/PVRTexTool.dll'
p636
asS'iphone-development-key'
p637
NsS'winmobile-icon48'
p638
NsS'android-unsigned'
p639
NsS'osx-appstore-category'
p640
NsS'version-revision'
p641
NsS'roku-icon-focus-sd'
p642
NsS'android-keystore'
p643
NsS'winmobile-png90'
p644
NsS'iphone-icon-ipad-high-res'
p645
NsS'iphone-disable-ipad'
p646
NsS'wp8-product-id'
p647
NsS'ws81-splash-screen-background'
p648
NsS'wp8-ext-capabilities'
p649
(lp650
sS'iphone-ipad-only'
p651
NsS'symbian-icon1-mask-black'
p652
NsS'iphone-nosign'
p653
NsS'iphone-bundle-localisations'
p654
NsS'winmobile-png60'
p655
NsS'blackberry-permissions-access-shared'
p656
NsS'blackberry-author'
p657
NsS'android-icon-xxxhdpi'
p658
NsS'olddeploytoolstyle'
p659
NsS'android_icon_gallery'
p660
NsS'wp81-splash-screen-background'
p661
NsS'winmobile-cab-compress'
p662
NsS'iphone-info-plist'
p663
NsS'ws81-ext-managed-dll'
p664
(lp665
sS'playbook-cskpass'
p666
NsS'ws8-distribution-pfx-password'
p667
NsS'symbian-key'
p668
NsS'app-icf'
p669
NsS'blackberry-storepass'
p670
NsS'wp8-tile-fliptemplate-back-title'
p671
NsS'brew-compress-loader'
p672
NsS'win32-pref-windowposy'
p673
NsS'win32-pref-windowposx'
p674
NsS'roku-requires-audiometadata'
p675
NsS'wp8-exclude-low-mem'
p676
NsS'iphone-icon-ipad-search-high-res'
p677
NsS'iphone-link-libdir'
p678
(lp679
sS'wp81-ext-capabilities'
p680
(lp681
sS'blackberry-permissions-read-geolocation'
p682
NsS'ws81-ext-device-capabilities'
p683
(lp684
sS'tizen-signed'
p685
NsS'android-extra-application-manifest'
p686
(lp687
sS'ws8-ext-native-dll'
p688
(lp689
sS'symbian-icon2-mask'
p690
NsS'iphone-backgroundmode-audio'
p691
NsS'webos-memory'
p692
NsS'android-keypass'
p693
NsS'name'
p694
NsS'uiq3-icon2-format'
p695
NsS'roku-splash-screen-sd'
p696
NsS'auto-derbh'
p697
NsS'roku-icon-side-sd'
p698
NsS'android-external-assets'
p699
(lp700
sS'nds-publicsavedatasize'
p701
NsS'splashscreen'
p702
NsS'brew-mif'
p703
NsS'iphone-icon-settings-high-res'
p704
NsS'android-manifest'
p705
NsS'ws81-splash-screen-image620x300'
p706
NsS'wp81-product-name'
p707
NsS's3e-compression'
p708
NsS'tizen-author-password'
p709
NsS'wp8-tile-fliptemplate-back-content'
p710
NsS'blackberry-extra-descriptor'
p711
(lp712
sS'symbian-icon1'
p713
NsS'symbian-icon2'
p714
NsS'android-extra-styles-file'
p715
NsS'wp81-publisher-id'
p716
NsS'nds-bannertitle-jp'
p717
NsS'wp81-logo-image44x44'
p718
NsS'osx-sign-for-store'
p719
NsS'symbian7-uid'
p720
NsS'wp8-tile-fliptemplate-large-back-content'
p721
NsS'wp81-phone-publisher-id'
p722
NsS'nds-bannertitle-cn'
p723
NsS'iphone-distribution-key'
p724
NsS'android-icon-gallery'
p725
NsS'blackberry-keystore'
p726
NsS'ws8-extra-res'
p727
(lp728
sS'caption'
p729
NsS'android-extra-manifest'
p730
(lp731
sS'wp81-ext-sdk-ref'
p732
(lp733
sS'android-icon-xxhdpi'
p734
NsS'version-minor'
p735
NsS'iphone-link-libdirs'
p736
(lp737
sS'iphone-icon-large'
p738
NsS'symbian-keypwd'
p739
NsS'symbian8-uid'
p740
NsS'symbian-cert-key'
p741
NsS'winmobile-ampd-part-number'
p742
NsS'arch'
p743
NsS'nds-romheadertemplate'
p744
NsS'webos-icon'
p745
NsS'wp81-ext-device-capabilities'
p746
(lp747
sS'psp-dlgprotectdocument'
p748
NsS'ws8-splash-screen-background'
p749
NsS'android-icon-mdpi'
p750
NsS'nds-icon'
p751
NsS'ws8-custom-manifest-fill'
p752
NsS'iphone-development-cert'
p753
NsS'blackberry-phone-icon'
p754
NsS'iphone-enable-4inch-retina'
p755
NsS'ws8-custom-manifest'
p756
NsS'version-major'
p757
NsS'wp8-genre-isgame'
p758
NsS'uiq3-uid'
p759
NsS'iphone-splash-retina-generate'
p760
NsS'tizen-hw-acceleration'
p761
NsS'iphone_bundle_localisations'
p762
NsS'tizen-dist1-key'
p763
NsS'wp81-custom-manifest-fill'
p764
NsS'wp8-custom-manifest'
p765
NsS'nds-bannertitle-ge'
p766
NsS'iphone-sign-for-distribution'
p767
NsS'wp8-tile-fliptemplate-medium-back-image'
p768
NsS'wp8-publisher-id'
p769
NsS'icon'
p770
NsS'wp8-exclude-wxga'
p771
NsS'wp81-identity-name'
p772
NsS'uiq3-icon2-mask'
p773
NsS'iphone-splashscreen-portrait'
p774
NsS'iphone-icon-high-res'
p775
NsS'ws81-distribution-pfx-password'
p776
NsS'playbook-author'
p777
NsS'android-icon-xhdpi'
p778
NsS'linux-ext-lib'
p779
(lp780
sS'blackberry-permissions-access-internet'
p781
NsS'wp8-exclude-720p'
p782
NsS'lgtv-use-drm'
p783
NsS'symbian-platsecflags'
p784
NsS'ws8-description'
p785
NsS'blackberry-playbook-icon'
p786
NsS'copyright'
p787
NsS'win32-gles-directory'
p788
NsS'version'
p789
NsS'ws81-logo-image150x150'
p790
NsS'osx-signing-identity-app'
p791
NsS'tizen-project-url'
p792
NsS'symbian-icon-svg'
p793
NsS'android-aliasname'
p794
NsS'psp-dlgmanual'
p795
NsS'brew-uid'
p796
NsS'symbian-locationsupport'
p797
NsS'wp81-logo-image50x50'
p798
NsS'ws8-ext-managed-dll'
p799
(lp800
sS'nds-bannertitle-it'
p801
NsS'ws81-custom-manifest-fill'
p802
NsS'ws8-ext-sdk-manifest-part'
p803
(lp804
sS'uiq3-icon1-mask'
p805
NsS'winmobile-icon16'
p806
NsS'ws8-product-name'
p807
NsS'blackberry-cskpass'
p808
NsS'winmobile-start-menu-folder'
p809
NsS'brew-clsid'
p810
NsS'roku-requires-bluetooth'
p811
NsS'ws8-ext-device-capabilities'
p812
(lp813
sS'blackberry-permissions-use-camera'
p814
NsS'ws81-extra-pri'
p815
(lp816
sS'iphone-prerendered-icon'
p817
NsS'iphone-appid'
p818
NsS'ws8-identity-name'
p819
NsS'tizen-dist2-CA-path'
p820
NsS'android-external-jars'
p821
(lp822
sS'winmobile-icon64'
p823
NsS'blackberry-permissions-post-notification'
p824
NsS'winmobile-setup-dll'
p825
NsS'firefoxos-manifest'
p826
NsS'win8-winrt-extra-res'
p827
(lp828
sS'wp81-ext-sdk-manifest-part'
p829
(lp830
sS'symbian9-uid'
p831
NsS'iphone-icon-ipad-ios7'
p832
NsS'winmobile-trace-file'
p833
NsS'roku-splash-color'
p834
NsS'psp-appversion'
p835
NsS'ws8-publisher-id'
p836
NsS'android-supports-gl-texture'
p837
(lp838
sS'winmobile-png45'
p839
NsS'wp81-extra-res'
p840
(lp841
sS'android-storepass'
p842
NsS'osx-signing-identity-inst'
p843
NsS'android-custom-activity'
p844
NsS'psp-discversion'
p845
NsS'wp81-ext-managed-dll'
p846
(lp847
sS'psp-copyright'
p848
NsS'embed-icf'
p849
NsS'tizen-manifest'
p850
NsS'osx-icon'
p851
NsS'webos-appinfo'
p852
NsS'psp-dlghealthwarning'
p853
NsS'webos-appid'
p854
NsS'roku-icon-side-hd'
p855
NsS'iphone-icon-ipad-search-high-res-ios7'
p856
NsS'ws81-ext-sdk-manifest-part'
p857
(lp858
sS'loader_name_prefix'
p859
NsS'nds-titlename'
p860
NsS'ws81-logo-image50x50'
p861
NsS'wp81-custom-manifest'
p862
NsS'osx-entitlements-plist'
p863
NsS'psp-dlgicon0'
p864
NsS'winmobile-nouninstall'
p865
NsS'psp-discid'
p866
NsS'tizen-dist2-password'
p867
NsS'ws8-ext-sdk-ref'
p868
(lp869
sS'iphone-extra-string'
p870
(lp871
sS'version-string'
p872
NsS'iphone-icon-high-res-ios7'
p873
NsS'blackberry-permissions-record-audio'
p874
NsS'ws8-certificate-end-date'
p875
NsS'tizen-so'
p876
(lp877
sS'wp8-tile-fliptemplate-small-image'
p878
NsS'playbook-authorid'
p879
NsS'iphone-signing-identity'
p880
NsS'roku-persist-quota'
p881
NsS'nds-bannertitle-fr'
p882
NsS'ws8-distribution-pfx'
p883
NsS'ws8-publisher-display-name'
p884
NsS'brew-icon-small'
p885
NsS'psp-dlgpic2'
p886
NsS'psp-dlgpic0'
p887
NsS'psp-pic0'
p888
NsS'psp-pic1'
p889
NsS'win32-pref-windowtitle'
p890
NsS'psp-icon0'
p891
NsS'psp-icon1'
p892
NsS'ws81-identity-name'
p893
NsS'winmobile-icon'
p894
NsS'iphone-no-splash'
p895
NsS'iphone-splash'
p896
NsS'iphone-app-fonts'
p897
NsS'wp8-ext-native-dll'
p898
(lp899
sS'wp81-splash-screen-image480x800'
p900
NsS'ws81-distribution-cer'
p901
NsS'uiq3-icon2'
p902
NsS'uiq3-icon3'
p903
NsS'uiq3-icon1'
p904
NsS'uiq3-icon1-format'
p905
NsS'ws8-logo-image50x50'
p906
NsS'symbian-icon2-mask-black'
p907
NsS'symbian-run-on-install'
p908
NsS'wp81-description'
p909
NsS'ws81-publisher-display-name'
p910
NsS'firefoxos-xulrunner'
p911
NsS'symbian-soundrecordsupport'
p912
NsS'nds-bannertitle-sp'
p913
NsS'psp-producer'
p914
NsS'iphone-apple-wwdr-cert'
p915
NsS'android-icon-nonstandard'
p916
NsS'win32-pref-processtitle'
p917
NsS'nds-bannertitle-hn'
p918
NsS'tizen-dist2-key'
p919
NsS'brew-depends'
p920
NsS'ws81-custom-manifest'
p921
NsS'iphone-icon-ipad-search-ios7'
p922
NsS'brew-icon-medium'
p923
NsS'iphone-bundle-url-name'
p924
NsS'wp8-tile-fliptemplate-large-front-image'
p925
NsS'tizen-dist2-CA-root-path'
p926
NsS'ws81-description'
p927
NsS'uiq3-icon3-format'
p928
NsS'ws81-logo-image30x30'
p929
NsS'win8-phone-extra-res'
p930
(lp931
sS'iphone-signing-host'
p932
NsS'tizen-icon'
p933
NsS'osx-info-plist'
p934
NsS'symbian-icon1-format'
p935
NsS'win8-store-extra-res'
p936
(lp937
sS'blackberry-authorid'
p938
NsS'ws81-publisher-id'
p939
NsS'ws81-distribution-pfx'
p940
NsS'wp8-description'
p941
NsS'iphone-link-opts'
p942
(lp943
sS'ws81-ext-sdk-ref'
p944
(lp945
sS'roku-splash-min-time'
p946
NsS'wp8-tile-fliptemplate-medium-front-image'
p947
NsS'provider'
p948
NsS'playbook-keystore'
p949
NsS'tizen-appid'
p950
NsS'wp8-extra-res'
p951
(lp952
sS'symbian-osexecsupport'
p953
NsS'android-install-location'
p954
NsS'nds-privatesavedatasize'
p955
NsS'playbook-storepass'
p956
NsS'android-icon-ldpi'
p957
NsS'manufacturer'
p958
NsS'itunes-artwork'
p959
NsS'iphone-extra-sections'
p960
NsS'ws81-product-name'
p961
NsS'ws81-ext-native-dll'
p962
(lp963
sS'ws8-extra-pri'
p964
(lp965
sS'win32-icon'
p966
NsS'ws8-logo-image30x30'
p967
NsS'wp8-ext-managed-dll'
p968
(lp969
sS'iphone-splashscreen-landscape'
p970
NsS'symbian-maxheapsize'
p971
NsS'nds-makercode'
p972
NsS'priv-sign-key'
p973
NsS'networking'
p974
NsS'android-icon'
p975
NsS'iphone-icon-settings'
p976
NsS'wp81-phone-product-id'
p977
NsS'firefoxos-icon-60X60'
p978
NsS'iphone-distribution-cert'
p979
NsS'android_extra_strings'
p980
NsS'nds-bannertitle-en'
p981
NsS'wp8-tile-fliptemplate-title'
p982
NsS'android-so'
p983
(lp984
sS'wp8-higher-mem'
p985
NsS'wp8-ext-sdk-ref'
p986
(lp987
sS'roku-splash-screen-hd'
p988
NsS'iphone-bundle-url-schemes'
p989
NsS'roku-screensaver-private'
p990
NsS'osx-extra-res'
p991
(lp992
sS'ws81-extra-res'
p993
(lp994
sS'playbook-icon'
p995
NsS'uid'
p996
NsS'pkguid-as-uid'
p997
NsS'wp81-ext-native-dll'
p998
(lp999
sS'tizen-dist1-password'
p1000
NsS'roku-screensaver-title'
p1001
NsS'osx-minimum-osx-version'
p1002
NsS'symbian-cert'
p1003
NsS'iphone-icon'
p1004
NsS'ws81-ext-capabilities'
p1005
(lp1006
sS'ws8-distribution-cer'
p1007
NsS'playbook-access-shared'
p1008
NsS'iphone-icon-ipad-high-res-ios7'
p1009
NsS'iphone-link-libs'
p1010
(lp1011
sS'wp8-exclude-wvga'
p1012
NsS'assets'
p1013
NsS'wp8-tile-fliptemplate-large-back-image'
p1014
NsS'wp8-custom-manifest-fill'
p1015
NsS'pub-sign-key'
p1016
NsS'android-extra-strings'
p1017
NsS'tizen-author-CA-path'
p1018
Nssg331
g563
sbssS'platform'
p1019
S'S3E'
p1020
sg63
S'1.0'
p1021
sS'arcade_platform'
p1022
g4
sS'extensions'
p1023
(dp1024
sS'source_groups_tree'
p1025
(dp1026
S'(libpng)'
p1027
(dp1028
S'h'
p1029
(dp1030
S'c:/marmalade/7.4/modules/third_party/libpng/h/png.h'
p1031
(lp1032
I1
a(dp1033
asS'c:/marmalade/7.4/modules/third_party/libpng/h/pngconf.h'
p1034
(lp1035
I1
ag1033
assS'c:/marmalade/7.4/modules/third_party/libpng/libpng.mkf'
p1036
(lp1037
I1
a(dp1038
assS'(libjpeg)'
p1039
(dp1040
g1029
(dp1041
S'c:/marmalade/7.4/modules/third_party/libjpeg/h/jerror.h'
p1042
(lp1043
I1
a(dp1044
asS'c:/marmalade/7.4/modules/third_party/libjpeg/h/jmemsys.h'
p1045
(lp1046
I1
ag1044
asS'c:/marmalade/7.4/modules/third_party/libjpeg/h/jchuff.h'
p1047
(lp1048
I1
ag1044
asS'c:/marmalade/7.4/modules/third_party/libjpeg/h/jpeglib.h'
p1049
(lp1050
I1
ag1044
asS'c:/marmalade/7.4/modules/third_party/libjpeg/h/cdjpeg.h'
p1051
(lp1052
I1
ag1044
asS'c:/marmalade/7.4/modules/third_party/libjpeg/h/jinclude.h'
p1053
(lp1054
I1
ag1044
asS'c:/marmalade/7.4/modules/third_party/libjpeg/h/jconfig.h'
p1055
(lp1056
I1
ag1044
asS'c:/marmalade/7.4/modules/third_party/libjpeg/h/cderror.h'
p1057
(lp1058
I1
ag1044
asS'c:/marmalade/7.4/modules/third_party/libjpeg/h/jdct.h'
p1059
(lp1060
I1
ag1044
asS'c:/marmalade/7.4/modules/third_party/libjpeg/h/jversion.h'
p1061
(lp1062
I1
ag1044
asS'c:/marmalade/7.4/modules/third_party/libjpeg/h/transupp.h'
p1063
(lp1064
I1
ag1044
asS'c:/marmalade/7.4/modules/third_party/libjpeg/h/jdhuff.h'
p1065
(lp1066
I1
ag1044
asS'c:/marmalade/7.4/modules/third_party/libjpeg/h/jpegint.h'
p1067
(lp1068
I1
ag1044
asS'c:/marmalade/7.4/modules/third_party/libjpeg/h/jmorecfg.h'
p1069
(lp1070
I1
ag1044
assS'c:/marmalade/7.4/modules/third_party/libjpeg/libjpeg.mkf'
p1071
(lp1072
I1
a(dp1073
assS'(tiniconv)'
p1074
(dp1075
S'c:/marmalade/7.4/modules/third_party/tiniconv/source/tiniconv_int.h'
p1076
(lp1077
I1
a(dp1078
asS'c:/marmalade/7.4/modules/third_party/tiniconv/tiniconv.mkf'
p1079
(lp1080
I1
a(dp1081
asS'c:/marmalade/7.4/modules/third_party/tiniconv/source/tiniconv.h'
p1082
(lp1083
I1
ag1078
assS'c:/Users/lab422/Desktop/Sprint 1 Minimal Example/FinalYearProject/FinalYearProject.cpp'
p1084
(lp1085
I1
a(dp1086
asS'Extensions'
p1087
(dp1088
S'PVRTexTool'
p1089
(dp1090
S'interface'
p1091
(dp1092
S'c:/marmalade/7.4/extensions/pvrtextool/interface/PVRTexTool_interface.cpp'
p1093
(lp1094
I1
a(dp1095
asS'c:/marmalade/7.4/extensions/pvrtextool/interface/PVRTexTool.defines.txt'
p1096
(lp1097
I1
ag1095
assS'c:/marmalade/7.4/extensions/pvrtextool/pvrtextool.mkf'
p1098
(lp1099
I1
a(dp1100
asS'c:/marmalade/7.4/extensions/pvrtextool/h/PVRTexTool.h'
p1101
(lp1102
I1
ag1095
asssS"'Marmalade Studio'"
p1103
(dp1104
S'iw2dscenegraph'
p1105
(dp1106
S'c:/marmalade/7.4/modules/iw2dscenegraph/docs/iw2dscenegraph.defines.txt'
p1107
(lp1108
I1
a(dp1109
asS'c:/marmalade/7.4/modules/iw2dscenegraph/source/Iw2DSceneGraph.cpp'
p1110
(lp1111
I1
ag1109
asS'c:/marmalade/7.4/modules/iw2dscenegraph/iw2dscenegraph.mkf'
p1112
(lp1113
I1
a(dp1114
asS'c:/marmalade/7.4/modules/iw2dscenegraph/h/Iw2DSceneGraph.h'
p1115
(lp1116
I1
ag1109
assS'iwgl'
p1117
(dp1118
S'c:/marmalade/7.4/modules/iwgl/iwgl.mkf'
p1119
(lp1120
I1
a(dp1121
asS'c:/marmalade/7.4/modules/iwgl/docs/iwgl.config.txt'
p1122
(lp1123
I1
a(dp1124
asS'c:/marmalade/7.4/modules/iwgl/h/IwGL.h'
p1125
(lp1126
I1
ag1124
asS'c:/marmalade/7.4/modules/iwgl/h/IwGLExt.h'
p1127
(lp1128
I1
ag1124
assS'iw2d'
p1129
(dp1130
S'c:/marmalade/7.4/modules/iw2d/docs/iw2d.config.txt'
p1131
(lp1132
I1
a(dp1133
asS'c:/marmalade/7.4/modules/iw2d/docs/iw2d_public.defines.txt'
p1134
(lp1135
I1
ag1133
asS'c:/marmalade/7.4/modules/iw2d/h/Iw2D.h'
p1136
(lp1137
I1
ag1133
asS'c:/marmalade/7.4/modules/iw2d/iw2d.mkf'
p1138
(lp1139
I1
a(dp1140
assS'iwgxfont'
p1141
(dp1142
S'c:/marmalade/7.4/modules/iwgxfont/docs/iwgxfont_public.defines.txt'
p1143
(lp1144
I1
a(dp1145
asS'c:/marmalade/7.4/modules/iwgxfont/h/IwGxFontGlyph.h'
p1146
(lp1147
I1
ag1145
asS'c:/marmalade/7.4/modules/iwgxfont/docs/iwgxfont.config.txt'
p1148
(lp1149
I1
ag1145
asS'c:/marmalade/7.4/modules/iwgxfont/h/IwGxFont.h'
p1150
(lp1151
I1
ag1145
asS'c:/marmalade/7.4/modules/iwgxfont/h/IwGxFontTypes.h'
p1152
(lp1153
I1
ag1145
asS'c:/marmalade/7.4/modules/iwgxfont/h/IwGxFontPreparedData.h'
p1154
(lp1155
I1
ag1145
asS'c:/marmalade/7.4/modules/iwgxfont/h/IwGxFontState.h'
p1156
(lp1157
I1
ag1145
asS'c:/marmalade/7.4/modules/iwgxfont/h/IwGxFontContainer.h'
p1158
(lp1159
I1
ag1145
asS'c:/marmalade/7.4/modules/iwgxfont/iwgxfont.mkf'
p1160
(lp1161
I1
a(dp1162
assS'iwgeom'
p1163
(dp1164
S'c:/marmalade/7.4/modules/iwgeom/docs/iwgeom.config.txt'
p1165
(lp1166
I1
a(dp1167
asS'c:/marmalade/7.4/modules/iwgeom/h/IwGeomFIntersect.h'
p1168
(lp1169
I1
ag1167
asS'c:/marmalade/7.4/modules/iwgeom/h/IwGeomMat2D.h.tpl'
p1170
(lp1171
I1
ag1167
asS'c:/marmalade/7.4/modules/iwgeom/iwgeom.mkf'
p1172
(lp1173
I1
a(dp1174
asS'c:/marmalade/7.4/modules/iwgeom/h/IwGeomVec.h.tpl'
p1175
(lp1176
I1
ag1167
asS'c:/marmalade/7.4/modules/iwgeom/h/IwGeomFSphere.h'
p1177
(lp1178
I1
ag1167
asS'c:/marmalade/7.4/modules/iwgeom/h/IwGeomFQuat.h'
p1179
(lp1180
I1
ag1167
asS'c:/marmalade/7.4/modules/iwgeom/h/IwGeomMenu.h'
p1181
(lp1182
I1
ag1167
asS'c:/marmalade/7.4/modules/iwgeom/h/IwGeomFMat2D.h'
p1183
(lp1184
I1
ag1167
asS'c:/marmalade/7.4/modules/iwgeom/h/IwGeomFVec4.h'
p1185
(lp1186
I1
ag1167
asS'c:/marmalade/7.4/modules/iwgeom/h/IwGeomQuat.h'
p1187
(lp1188
I1
ag1167
asS'c:/marmalade/7.4/modules/iwgeom/h/IwGeomFBBox.h'
p1189
(lp1190
I1
ag1167
asS'c:/marmalade/7.4/modules/iwgeom/h/IwGeomSVec4.h'
p1191
(lp1192
I1
ag1167
asS'c:/marmalade/7.4/modules/iwgeom/h/IwGeomFVec2.h'
p1193
(lp1194
I1
ag1167
asS'c:/marmalade/7.4/modules/iwgeom/h/IwGeomVec.h'
p1195
(lp1196
I1
ag1167
asS'c:/marmalade/7.4/modules/iwgeom/h/IwGeomPlane.h'
p1197
(lp1198
I1
ag1167
asS'c:/marmalade/7.4/modules/iwgeom/h/IwGeomQuat.h.tpl'
p1199
(lp1200
I1
ag1167
asS'c:/marmalade/7.4/modules/iwgeom/h/IwGeomSVec3.h'
p1201
(lp1202
I1
ag1167
asS'c:/marmalade/7.4/modules/iwgeom/h/IwGeomMat.h'
p1203
(lp1204
I1
ag1167
asS'c:/marmalade/7.4/modules/iwgeom/h/IwGeomVec3.h'
p1205
(lp1206
I1
ag1167
asS'c:/marmalade/7.4/modules/iwgeom/h/IwGeomVec2.h'
p1207
(lp1208
I1
ag1167
asS'c:/marmalade/7.4/modules/iwgeom/h/IwGeomLegacy.h'
p1209
(lp1210
I1
ag1167
asS'c:/marmalade/7.4/modules/iwgeom/h/IwGeomSQuat.h'
p1211
(lp1212
I1
ag1167
asS'c:/marmalade/7.4/modules/iwgeom/h/IwGeomCore.h'
p1213
(lp1214
I1
ag1167
asS'c:/marmalade/7.4/modules/iwgeom/h/IwGeomVec4.h'
p1215
(lp1216
I1
ag1167
asS'c:/marmalade/7.4/modules/iwgeom/h/IwGeomBBox.h'
p1217
(lp1218
I1
ag1167
asS'c:/marmalade/7.4/modules/iwgeom/h/IwGeomIntersect.h'
p1219
(lp1220
I1
ag1167
asS'c:/marmalade/7.4/modules/iwgeom/h/IwGeomSVec2.h'
p1221
(lp1222
I1
ag1167
asS'c:/marmalade/7.4/modules/iwgeom/h/IwGeomMat2D.h'
p1223
(lp1224
I1
ag1167
asS'c:/marmalade/7.4/modules/iwgeom/h/IwGeomSphere.h'
p1225
(lp1226
I1
ag1167
asS'c:/marmalade/7.4/modules/iwgeom/h/IwGeomFVec3.h'
p1227
(lp1228
I1
ag1167
asS'c:/marmalade/7.4/modules/iwgeom/h/IwGeom.h'
p1229
(lp1230
I1
ag1167
asS'c:/marmalade/7.4/modules/iwgeom/h/IwGeomMat.h.tpl'
p1231
(lp1232
I1
ag1167
asS'c:/marmalade/7.4/modules/iwgeom/h/IwGeomFPlane.h'
p1233
(lp1234
I1
ag1167
asS'c:/marmalade/7.4/modules/iwgeom/h/IwGeomFMat.h'
p1235
(lp1236
I1
ag1167
asS'c:/marmalade/7.4/modules/iwgeom/h/IwGeomSqrt.h'
p1237
(lp1238
I1
ag1167
assS'iwresmanager'
p1239
(dp1240
S'c:/marmalade/7.4/modules/iwresmanager/h/IwResGroup.h'
p1241
(lp1242
I1
a(dp1243
asS'c:/marmalade/7.4/modules/iwresmanager/h/IwResManager.h'
p1244
(lp1245
I1
ag1243
asS'c:/marmalade/7.4/modules/iwresmanager/h/IwResHandlerITX.h'
p1246
(lp1247
I1
ag1243
asS'c:/marmalade/7.4/modules/iwresmanager/h/IwResSerialise.h'
p1248
(lp1249
I1
ag1243
asS'c:/marmalade/7.4/modules/iwresmanager/h/IwResHandlerGROUP.h'
p1250
(lp1251
I1
ag1243
asS'c:/marmalade/7.4/modules/iwresmanager/iwresmanager.mkf'
p1252
(lp1253
I1
a(dp1254
asS'c:/marmalade/7.4/modules/iwresmanager/h/IwResHandlerImage.h'
p1255
(lp1256
I1
ag1243
asS'c:/marmalade/7.4/modules/iwresmanager/h/IwResHandler.h'
p1257
(lp1258
I1
ag1243
asS'c:/marmalade/7.4/modules/iwresmanager/docs/iwresmanager.config.txt'
p1259
(lp1260
I1
ag1243
asS'c:/marmalade/7.4/modules/iwresmanager/h/IwResManagerClass.h'
p1261
(lp1262
I1
ag1243
assS'iwgx'
p1263
(dp1264
S'c:/marmalade/7.4/modules/iwgx/h/IwDebugPrim.h'
p1265
(lp1266
I1
a(dp1267
asS'c:/marmalade/7.4/modules/iwgx/h/IwGxFuncTable.h'
p1268
(lp1269
I1
ag1267
asS'c:/marmalade/7.4/modules/iwgx/h/IwClip.inl'
p1270
(lp1271
I1
ag1267
asS'c:/marmalade/7.4/modules/iwgx/h/IwGxPrint.h'
p1272
(lp1273
I1
ag1267
asS'c:/marmalade/7.4/modules/iwgx/h/IwGx.h'
p1274
(lp1275
I1
ag1267
asS'c:/marmalade/7.4/modules/iwgx/h/IwTexture.h'
p1276
(lp1277
I1
ag1267
asS'c:/marmalade/7.4/modules/iwgx/h/IwFColour.h'
p1278
(lp1279
I1
ag1267
asS'c:/marmalade/7.4/modules/iwgx/h/IwColour.h'
p1280
(lp1281
I1
ag1267
asS'c:/marmalade/7.4/modules/iwgx/h/IwGxState.h'
p1282
(lp1283
I1
ag1267
asS'c:/marmalade/7.4/modules/iwgx/h/IwClip.h'
p1284
(lp1285
I1
ag1267
asS'c:/marmalade/7.4/modules/iwgx/h/IwTPage.h'
p1286
(lp1287
I1
ag1267
asS'c:/marmalade/7.4/modules/iwgx/h/IwMaterial.h'
p1288
(lp1289
I1
ag1267
asS'c:/marmalade/7.4/modules/iwgx/h/IwGxDebug.h'
p1290
(lp1291
I1
ag1267
asS'c:/marmalade/7.4/modules/iwgx/h/IwMatAnim.h'
p1292
(lp1293
I1
ag1267
asS'c:/marmalade/7.4/modules/iwgx/h/IwGxStream.h'
p1294
(lp1295
I1
ag1267
asS'c:/marmalade/7.4/modules/iwgx/h/IwResHandlerMTL.h'
p1296
(lp1297
I1
ag1267
asS'c:/marmalade/7.4/modules/iwgx/h/IwGxMetrics.h'
p1298
(lp1299
I1
ag1267
asS'c:/marmalade/7.4/modules/iwgx/h/IwGxError.h'
p1300
(lp1301
I1
ag1267
asS'c:/marmalade/7.4/modules/iwgx/docs/iwgx.config.txt'
p1302
(lp1303
I1
ag1267
asS'c:/marmalade/7.4/modules/iwgx/h/IwGxTransformSW.h'
p1304
(lp1305
I1
ag1267
asS'c:/marmalade/7.4/modules/iwgx/iwgx.mkf'
p1306
(lp1307
I1
a(dp1308
asS'c:/marmalade/7.4/modules/iwgx/docs/iwgx_public.defines.txt'
p1309
(lp1310
I1
ag1267
asS'c:/marmalade/7.4/modules/iwgx/h/IwGxShaderTechnique.h'
p1311
(lp1312
I1
ag1267
asS'c:/marmalade/7.4/modules/iwgx/h/IwGxTypes.h'
p1313
(lp1314
I1
ag1267
asS'c:/marmalade/7.4/modules/iwgx/h/IwGxSurface.h'
p1315
(lp1316
I1
ag1267
assS'iw2dscenegraphcore'
p1317
(dp1318
S'c:/marmalade/7.4/modules/iw2dscenegraphcore/iw2dscenegraphcore.mkf'
p1319
(lp1320
I1
a(dp1321
asS'c:/marmalade/7.4/modules/iw2dscenegraphcore/source/Iw2DSceneGraphCore.cpp'
p1322
(lp1323
I1
a(dp1324
asS'c:/marmalade/7.4/modules/iw2dscenegraphcore/h/Iw2DSceneGraphCore.h'
p1325
(lp1326
I1
ag1324
assS'iwutil'
p1327
(dp1328
S'c:/marmalade/7.4/modules/iwutil/h/IwTextParser.h'
p1329
(lp1330
I1
a(dp1331
asS'c:/marmalade/7.4/modules/iwutil/h/IwMenu.h'
p1332
(lp1333
I1
ag1331
asS'c:/marmalade/7.4/modules/iwutil/h/IwUtilInitTerm.h'
p1334
(lp1335
I1
ag1331
asS'c:/marmalade/7.4/modules/iwutil/h/IwCopyingPtr.h'
p1336
(lp1337
I1
ag1331
asS'c:/marmalade/7.4/modules/iwutil/h/IwDebug.h'
p1338
(lp1339
I1
ag1331
asS'c:/marmalade/7.4/modules/iwutil/h/IwVariableBitField.h'
p1340
(lp1341
I1
ag1331
asS'c:/marmalade/7.4/modules/iwutil/h/IwBuffer.h'
p1342
(lp1343
I1
ag1331
asS'c:/marmalade/7.4/modules/iwutil/h/IwRandom.h'
p1344
(lp1345
I1
ag1331
asS'c:/marmalade/7.4/modules/iwutil/h/IwResource.h'
p1346
(lp1347
I1
ag1331
asS'c:/marmalade/7.4/modules/iwutil/h/IwCore.h'
p1348
(lp1349
I1
ag1331
asS'c:/marmalade/7.4/modules/iwutil/h/IwTextParserITX.h'
p1350
(lp1351
I1
ag1331
asS'c:/marmalade/7.4/modules/iwutil/h/IwManaged.h'
p1352
(lp1353
I1
ag1331
asS'c:/marmalade/7.4/modules/iwutil/h/IwHashString.h'
p1354
(lp1355
I1
ag1331
asS'c:/marmalade/7.4/modules/iwutil/h/IwProfileMenu.h'
p1356
(lp1357
I1
ag1331
asS'c:/marmalade/7.4/modules/iwutil/h/IwManagedList.h'
p1358
(lp1359
I1
ag1331
asS'c:/marmalade/7.4/modules/iwutil/h/IwList.h'
p1360
(lp1361
I1
ag1331
asS'c:/marmalade/7.4/modules/iwutil/h/IwSerialise.h'
p1362
(lp1363
I1
ag1331
asS'c:/marmalade/7.4/modules/iwutil/h/IwClassFactory.h'
p1364
(lp1365
I1
ag1331
asS'c:/marmalade/7.4/modules/iwutil/h/IwTypes.h'
p1366
(lp1367
I1
ag1331
asS'c:/marmalade/7.4/modules/iwutil/h/IwAllocator.h'
p1368
(lp1369
I1
ag1331
asS'c:/marmalade/7.4/modules/iwutil/h/IwMemory.h'
p1370
(lp1371
I1
ag1331
asS'c:/marmalade/7.4/modules/iwutil/h/IwTextParseable.h'
p1372
(lp1373
I1
ag1331
asS'c:/marmalade/7.4/modules/iwutil/h/IwFile.h'
p1374
(lp1375
I1
ag1331
asS'c:/marmalade/7.4/modules/iwutil/h/IwRuntime.h'
p1376
(lp1377
I1
ag1331
asS'c:/marmalade/7.4/modules/iwutil/h/IwMemBucketHelpers.h'
p1378
(lp1379
I1
ag1331
asS'c:/marmalade/7.4/modules/iwutil/h/IwUncopyable.h'
p1380
(lp1381
I1
ag1331
asS'c:/marmalade/7.4/modules/iwutil/h/IwChar.h'
p1382
(lp1383
I1
ag1331
asS'c:/marmalade/7.4/modules/iwutil/h/IwOptimiseARM.h'
p1384
(lp1385
I1
ag1331
asS'c:/marmalade/7.4/modules/iwutil/h/IwImage.h'
p1386
(lp1387
I1
ag1331
asS'c:/marmalade/7.4/modules/iwutil/h/IwImageHelper.h'
p1388
(lp1389
I1
ag1331
asS'c:/marmalade/7.4/modules/iwutil/h/IwMemBucket.h'
p1390
(lp1391
I1
ag1331
asS'c:/marmalade/7.4/modules/iwutil/h/IwDivide.h'
p1392
(lp1393
I1
ag1331
asS'c:/marmalade/7.4/modules/iwutil/h/IwOptimiseSpeed.h'
p1394
(lp1395
I1
ag1331
asS'c:/marmalade/7.4/modules/iwutil/h/IwArray.h'
p1396
(lp1397
I1
ag1331
asS'c:/marmalade/7.4/modules/iwutil/docs/iwutil.config.txt'
p1398
(lp1399
I1
ag1331
asS'c:/marmalade/7.4/modules/iwutil/h/IwUTF8.h'
p1400
(lp1401
I1
ag1331
asS'c:/marmalade/7.4/modules/iwutil/h/IwEvent.h'
p1402
(lp1403
I1
ag1331
asS'c:/marmalade/7.4/modules/iwutil/h/IwMath.h'
p1404
(lp1405
I1
ag1331
asS'c:/marmalade/7.4/modules/iwutil/h/IwFibre.h'
p1406
(lp1407
I1
ag1331
asS'c:/marmalade/7.4/modules/iwutil/h/IwString.h'
p1408
(lp1409
I1
ag1331
asS'c:/marmalade/7.4/modules/iwutil/h/IwKeymap.h'
p1410
(lp1411
I1
ag1331
asS'c:/marmalade/7.4/modules/iwutil/iwutil.mkf'
p1412
(lp1413
I1
a(dp1414
asS'c:/marmalade/7.4/modules/iwutil/h/IwSingleton.h'
p1415
(lp1416
I1
ag1331
asS'c:/marmalade/7.4/modules/iwutil/h/IwAutoFile.h'
p1417
(lp1418
I1
ag1331
asS'c:/marmalade/7.4/modules/iwutil/h/IwOptimiseThumb.h'
p1419
(lp1420
I1
ag1331
asS'c:/marmalade/7.4/modules/iwutil/h/IwUtil.h'
p1421
(lp1422
I1
ag1331
asS'c:/marmalade/7.4/modules/iwutil/h/IwPath.h'
p1423
(lp1424
I1
ag1331
asS'c:/marmalade/7.4/modules/iwutil/h/IwMemManagerDL.h'
p1425
(lp1426
I1
ag1331
asS'c:/marmalade/7.4/modules/iwutil/h/IwDivTable.h'
p1427
(lp1428
I1
ag1331
asS'c:/marmalade/7.4/modules/iwutil/h/IwOptimiseSize.h'
p1429
(lp1430
I1
ag1331
asssS'(zlib)'
p1431
(dp1432
g1029
(dp1433
S'c:/marmalade/7.4/modules/third_party/zlib/h/zconf.h'
p1434
(lp1435
I1
a(dp1436
asS'c:/marmalade/7.4/modules/third_party/zlib/h/zlib.h'
p1437
(lp1438
I1
ag1436
assS'c:/marmalade/7.4/modules/third_party/zlib/zlib.mkf'
p1439
(lp1440
I1
a(dp1441
assS'(iwtween)'
p1442
(dp1443
S'c:/marmalade/7.4/modules/iwtween/source/IwTween.cpp'
p1444
(lp1445
I1
a(dp1446
asS'c:/marmalade/7.4/modules/iwtween/h/IwTween.h'
p1447
(lp1448
I1
ag1446
asS'c:/marmalade/7.4/modules/iwtween/iwtween.mkf'
p1449
(lp1450
I1
a(dp1451
asssS'files'
p1452
(dp1453
S'IwGxFontPreparedData.h'
p1454
g305
(cmkb_main
File
p1455
g307
Ntp1456
Rp1457
(dp1458
S'flags'
p1459
g1145
sS'group'
p1460
(lp1461
S"'Marmalade Studio'"
p1462
ag1141
asg331
g1154
sbsS'iterator'
p1463
g305
(g1455
g307
Ntp1464
Rp1465
(dp1466
g1459
(dp1467
sg1460
(lp1468
S"'Marmalade System (S3E)'"
p1469
aS'stdc headers'
p1470
aS'c++'
p1471
asg331
S'c:/marmalade/7.4/s3e/h/std/c++/iterator'
p1472
sbsS'IwGL.h'
p1473
g305
(g1455
g307
Ntp1474
Rp1475
(dp1476
g1459
g1124
sg1460
(lp1477
S"'Marmalade Studio'"
p1478
ag1117
asg331
g1125
sbsS's3e.h'
p1479
g305
(g1455
g307
Ntp1480
Rp1481
(dp1482
g1459
g1467
sg1460
(lp1483
g1469
asg331
S'c:/marmalade/7.4/s3e/h/s3e.h'
p1484
sbsS'errno.h'
p1485
g305
(g1455
g307
Ntp1486
Rp1487
(dp1488
g1459
g1467
sg1460
(lp1489
g1469
aS'stdc headers'
p1490
asg331
S'c:/marmalade/7.4/s3e/h/std/errno.h'
p1491
sbsS'IwSingleton.h'
p1492
g305
(g1455
g307
Ntp1493
Rp1494
(dp1495
g1459
g1331
sg1460
(lp1496
S"'Marmalade Studio'"
p1497
ag1327
asg331
g1415
sbsS'dlfcn.h'
p1498
g305
(g1455
g307
Ntp1499
Rp1500
(dp1501
g1459
g1467
sg1460
g1489
sg331
S'c:/marmalade/7.4/s3e/h/std/dlfcn.h'
p1502
sbsS'stdio_streambuf'
p1503
g305
(g1455
g307
Ntp1504
Rp1505
(dp1506
g1459
g1467
sg1460
g1468
sg331
S'c:/marmalade/7.4/s3e/h/std/c++/stdio_streambuf'
p1507
sbsS'sched.h'
p1508
g305
(g1455
g307
Ntp1509
Rp1510
(dp1511
g1459
g1467
sg1460
g1489
sg331
S'c:/marmalade/7.4/s3e/h/std/sched.h'
p1512
sbsS'IwGeomFMat2D.h'
p1513
g305
(g1455
g307
Ntp1514
Rp1515
(dp1516
g1459
g1167
sg1460
(lp1517
S"'Marmalade Studio'"
p1518
ag1163
asg331
g1183
sbsS's3eExt.h'
p1519
g305
(g1455
g307
Ntp1520
Rp1521
(dp1522
g1459
g1467
sg1460
g1483
sg331
S'c:/marmalade/7.4/s3e/h/s3eExt.h'
p1523
sbsS'grp.h'
p1524
g305
(g1455
g307
Ntp1525
Rp1526
(dp1527
g1459
g1467
sg1460
g1489
sg331
S'c:/marmalade/7.4/s3e/h/std/grp.h'
p1528
sbsS'list'
p1529
g305
(g1455
g307
Ntp1530
Rp1531
(dp1532
g1459
g1467
sg1460
g1468
sg331
S'c:/marmalade/7.4/s3e/h/std/c++/list'
p1533
sbsS'FinalYearProject.cpp'
p1534
g305
(g1455
g307
Ntp1535
Rp1536
(dp1537
g1459
g1086
sg1460
(lp1538
sg331
g1084
sbsS'IwGeomMat.h.tpl'
p1539
g305
(g1455
g307
Ntp1540
Rp1541
(dp1542
g1459
g1167
sg1460
g1517
sg331
g1231
sbsS'istream'
p1543
g305
(g1455
g307
Ntp1544
Rp1545
(dp1546
g1459
g1467
sg1460
g1468
sg331
S'c:/marmalade/7.4/s3e/h/std/c++/istream'
p1547
sbsS'jpeglib.h'
p1548
g305
(g1455
g307
Ntp1549
Rp1550
(dp1551
g1459
g1044
sg1460
(lp1552
g1039
ag1029
asg331
g1049
sbsS'iw2d_public.defines.txt'
p1553
g305
(g1455
g307
Ntp1554
Rp1555
(dp1556
g1459
g1133
sg1460
(lp1557
S"'Marmalade Studio'"
p1558
ag1129
asg331
g1134
sbsS'iostream.h'
p1559
g305
(g1455
g307
Ntp1560
Rp1561
(dp1562
g1459
g1467
sg1460
g1468
sg331
S'c:/marmalade/7.4/s3e/h/std/c++/iostream.h'
p1563
sbsS'string'
p1564
g305
(g1455
g307
Ntp1565
Rp1566
(dp1567
g1459
g1467
sg1460
g1468
sg331
S'c:/marmalade/7.4/s3e/h/std/c++/string'
p1568
sbsS'IwMemory.h'
p1569
g305
(g1455
g307
Ntp1570
Rp1571
(dp1572
g1459
g1331
sg1460
g1496
sg331
g1370
sbsS'IwGeomPlane.h'
p1573
g305
(g1455
g307
Ntp1574
Rp1575
(dp1576
g1459
g1167
sg1460
g1517
sg331
g1197
sbsS'iw2d.config.txt'
p1577
g305
(g1455
g307
Ntp1578
Rp1579
(dp1580
g1459
g1133
sg1460
g1557
sg331
g1131
sbsS'iomanip'
p1581
g305
(g1455
g307
Ntp1582
Rp1583
(dp1584
g1459
g1467
sg1460
g1468
sg331
S'c:/marmalade/7.4/s3e/h/std/c++/iomanip'
p1585
sbsS'iwgeom.mkf'
p1586
g305
(g1455
g307
Ntp1587
Rp1588
(dp1589
g1459
g1174
sg1460
g1517
sg331
g1172
sbsS'IwGxError.h'
p1590
g305
(g1455
g307
Ntp1591
Rp1592
(dp1593
g1459
g1267
sg1460
(lp1594
S"'Marmalade Studio'"
p1595
ag1263
asg331
g1300
sbsS'IwGeom.h'
p1596
g305
(g1455
g307
Ntp1597
Rp1598
(dp1599
g1459
g1167
sg1460
g1517
sg331
g1229
sbsS'IwGeomVec4.h'
p1600
g305
(g1455
g307
Ntp1601
Rp1602
(dp1603
g1459
g1167
sg1460
g1517
sg331
g1215
sbsS'dir.h'
p1604
g305
(g1455
g307
Ntp1605
Rp1606
(dp1607
g1459
g1467
sg1460
(lp1608
g1469
aS'stdc headers'
p1609
aS'sys'
p1610
asg331
S'c:/marmalade/7.4/s3e/h/std/sys/dir.h'
p1611
sbsS'locale.h'
p1612
g305
(g1455
g307
Ntp1613
Rp1614
(dp1615
g1459
g1467
sg1460
g1489
sg331
S'c:/marmalade/7.4/s3e/h/std/locale.h'
p1616
sbsS'vector'
p1617
g305
(g1455
g307
Ntp1618
Rp1619
(dp1620
g1459
g1467
sg1460
g1468
sg331
S'c:/marmalade/7.4/s3e/h/std/c++/vector'
p1621
sbsS'IwManaged.h'
p1622
g305
(g1455
g307
Ntp1623
Rp1624
(dp1625
g1459
g1331
sg1460
g1496
sg331
g1352
sbsS's3eCompass.h'
p1626
g305
(g1455
g307
Ntp1627
Rp1628
(dp1629
g1459
g1467
sg1460
g1483
sg331
S'c:/marmalade/7.4/s3e/h/s3eCompass.h'
p1630
sbsS'cderror.h'
p1631
g305
(g1455
g307
Ntp1632
Rp1633
(dp1634
g1459
g1044
sg1460
g1552
sg331
g1057
sbsS'climits'
p1635
g305
(g1455
g307
Ntp1636
Rp1637
(dp1638
g1459
g1467
sg1460
g1468
sg331
S'c:/marmalade/7.4/s3e/h/std/c++/climits'
p1639
sbsS's3eVibra.h'
p1640
g305
(g1455
g307
Ntp1641
Rp1642
(dp1643
g1459
g1467
sg1460
g1483
sg331
S'c:/marmalade/7.4/s3e/h/s3eVibra.h'
p1644
sbsS'jversion.h'
p1645
g305
(g1455
g307
Ntp1646
Rp1647
(dp1648
g1459
g1044
sg1460
g1552
sg331
g1061
sbsS'fnmatch.h'
p1649
g305
(g1455
g307
Ntp1650
Rp1651
(dp1652
g1459
g1467
sg1460
g1489
sg331
S'c:/marmalade/7.4/s3e/h/std/fnmatch.h'
p1653
sbsS'IwGxState.h'
p1654
g305
(g1455
g307
Ntp1655
Rp1656
(dp1657
g1459
g1267
sg1460
g1594
sg331
g1282
sbsS's3eAudio.h'
p1658
g305
(g1455
g307
Ntp1659
Rp1660
(dp1661
g1459
g1467
sg1460
g1483
sg331
S'c:/marmalade/7.4/s3e/h/s3eAudio.h'
p1662
sbsS's3eSurface.h'
p1663
g305
(g1455
g307
Ntp1664
Rp1665
(dp1666
g1459
g1467
sg1460
g1483
sg331
S'c:/marmalade/7.4/s3e/h/s3eSurface.h'
p1667
sbsS'new'
p1668
g305
(g1455
g307
Ntp1669
Rp1670
(dp1671
g1459
g1467
sg1460
g1468
sg331
S'c:/marmalade/7.4/s3e/h/std/c++/new'
p1672
sbsS's3eWindow.h'
p1673
g305
(g1455
g307
Ntp1674
Rp1675
(dp1676
g1459
g1467
sg1460
(lp1677
g1469
aS'Extensions'
p1678
asg331
S'c:/marmalade/7.4/s3e/h/ext/s3eWindow.h'
p1679
sbsS'IwBuffer.h'
p1680
g305
(g1455
g307
Ntp1681
Rp1682
(dp1683
g1459
g1331
sg1460
g1496
sg331
g1342
sbsS'IwGeomQuat.h.tpl'
p1684
g305
(g1455
g307
Ntp1685
Rp1686
(dp1687
g1459
g1167
sg1460
g1517
sg331
g1199
sbsS's3eOSExec.h'
p1688
g305
(g1455
g307
Ntp1689
Rp1690
(dp1691
g1459
g1467
sg1460
g1677
sg331
S'c:/marmalade/7.4/s3e/h/ext/s3eOSExec.h'
p1692
sbsS'IwGxTransformSW.h'
p1693
g305
(g1455
g307
Ntp1694
Rp1695
(dp1696
g1459
g1267
sg1460
g1594
sg331
g1304
sbsS'IwGxMetrics.h'
p1697
g305
(g1455
g307
Ntp1698
Rp1699
(dp1700
g1459
g1267
sg1460
g1594
sg331
g1298
sbsS'iwgxfont.config.txt'
p1701
g305
(g1455
g307
Ntp1702
Rp1703
(dp1704
g1459
g1145
sg1460
g1461
sg331
g1148
sbsS'gl2platform.h'
p1705
g305
(g1455
g307
Ntp1706
Rp1707
(dp1708
g1459
g1467
sg1460
(lp1709
g1469
aS'GL'
p1710
aS'GLES 2.0'
p1711
asg331
S'c:/marmalade/7.4/s3e/h/GLES2/gl2platform.h'
p1712
sbsS'iw2dscenegraph.defines.txt'
p1713
g305
(g1455
g307
Ntp1714
Rp1715
(dp1716
g1459
g1109
sg1460
(lp1717
S"'Marmalade Studio'"
p1718
ag1105
asg331
g1107
sbsS'queue'
p1719
g305
(g1455
g307
Ntp1720
Rp1721
(dp1722
g1459
g1467
sg1460
g1468
sg331
S'c:/marmalade/7.4/s3e/h/std/c++/queue'
p1723
sbsS'time_1.h'
p1724
g305
(g1455
g307
Ntp1725
Rp1726
(dp1727
g1459
g1467
sg1460
g1608
sg331
S'c:/marmalade/7.4/s3e/h/std/sys/time.h'
p1728
sbsS'Iw2D.h'
p1729
g305
(g1455
g307
Ntp1730
Rp1731
(dp1732
g1459
g1133
sg1460
g1557
sg331
g1136
sbsS'IwGeomVec2.h'
p1733
g305
(g1455
g307
Ntp1734
Rp1735
(dp1736
g1459
g1167
sg1460
g1517
sg331
g1207
sbsS's3eDevice.h'
p1737
g305
(g1455
g307
Ntp1738
Rp1739
(dp1740
g1459
g1467
sg1460
g1483
sg331
S'c:/marmalade/7.4/s3e/h/s3eDevice.h'
p1741
sbsS'malloc.h'
p1742
g305
(g1455
g307
Ntp1743
Rp1744
(dp1745
g1459
g1467
sg1460
g1489
sg331
S'c:/marmalade/7.4/s3e/h/std/malloc.h'
p1746
sbsS'stdarg.h'
p1747
g305
(g1455
g307
Ntp1748
Rp1749
(dp1750
g1459
g1467
sg1460
g1489
sg331
S'c:/marmalade/7.4/s3e/h/std/stdarg.h'
p1751
sbsS'IwGeomCore.h'
p1752
g305
(g1455
g307
Ntp1753
Rp1754
(dp1755
g1459
g1167
sg1460
g1517
sg331
g1213
sbsS'Iw2DSceneGraph.h'
p1756
g305
(g1455
g307
Ntp1757
Rp1758
(dp1759
g1459
g1109
sg1460
g1717
sg331
g1115
sbsS'endian.h'
p1760
g305
(g1455
g307
Ntp1761
Rp1762
(dp1763
g1459
g1467
sg1460
g1489
sg331
S'c:/marmalade/7.4/s3e/h/std/endian.h'
p1764
sbsS'gl3ext.h'
p1765
g305
(g1455
g307
Ntp1766
Rp1767
(dp1768
g1459
g1467
sg1460
(lp1769
g1469
aS'GL'
p1770
aS'GLES 3.0'
p1771
asg331
S'c:/marmalade/7.4/s3e/h/GLES3/gl3ext.h'
p1772
sbsS'glob.h'
p1773
g305
(g1455
g307
Ntp1774
Rp1775
(dp1776
g1459
g1467
sg1460
g1489
sg331
S'c:/marmalade/7.4/s3e/h/std/glob.h'
p1777
sbsS'fstream'
p1778
g305
(g1455
g307
Ntp1779
Rp1780
(dp1781
g1459
g1467
sg1460
g1468
sg331
S'c:/marmalade/7.4/s3e/h/std/c++/fstream'
p1782
sbsS's3eCamera.h'
p1783
g305
(g1455
g307
Ntp1784
Rp1785
(dp1786
g1459
g1467
sg1460
g1483
sg331
S'c:/marmalade/7.4/s3e/h/s3eCamera.h'
p1787
sbsS'jconfig.h'
p1788
g305
(g1455
g307
Ntp1789
Rp1790
(dp1791
g1459
g1044
sg1460
g1552
sg331
g1055
sbsS'memory'
p1792
g305
(g1455
g307
Ntp1793
Rp1794
(dp1795
g1459
g1467
sg1460
g1468
sg331
S'c:/marmalade/7.4/s3e/h/std/c++/memory'
p1796
sbsS'egl.h'
p1797
g305
(g1455
g307
Ntp1798
Rp1799
(dp1800
g1459
g1467
sg1460
(lp1801
g1469
aS'GL'
p1802
aS'EGL'
p1803
asg331
S'c:/marmalade/7.4/s3e/h/EGL/egl.h'
p1804
sbsS'IwClip.inl'
p1805
g305
(g1455
g307
Ntp1806
Rp1807
(dp1808
g1459
g1267
sg1460
g1594
sg331
g1270
sbsS'IwMemManagerDL.h'
p1809
g305
(g1455
g307
Ntp1810
Rp1811
(dp1812
g1459
g1331
sg1460
g1496
sg331
g1425
sbsS'deque'
p1813
g305
(g1455
g307
Ntp1814
Rp1815
(dp1816
g1459
g1467
sg1460
g1468
sg331
S'c:/marmalade/7.4/s3e/h/std/c++/deque'
p1817
sbsS'IwString.h'
p1818
g305
(g1455
g307
Ntp1819
Rp1820
(dp1821
g1459
g1331
sg1460
g1496
sg331
g1408
sbsS'cwchar'
p1822
g305
(g1455
g307
Ntp1823
Rp1824
(dp1825
g1459
g1467
sg1460
g1468
sg331
S'c:/marmalade/7.4/s3e/h/std/c++/cwchar'
p1826
sbsS'iwutil.mkf'
p1827
g305
(g1455
g307
Ntp1828
Rp1829
(dp1830
g1459
g1414
sg1460
g1496
sg331
g1412
sbsS'csignal'
p1831
g305
(g1455
g307
Ntp1832
Rp1833
(dp1834
g1459
g1467
sg1460
g1468
sg331
S'c:/marmalade/7.4/s3e/h/std/c++/csignal'
p1835
sbsS'float.h'
p1836
g305
(g1455
g307
Ntp1837
Rp1838
(dp1839
g1459
g1467
sg1460
g1489
sg331
S'c:/marmalade/7.4/s3e/h/std/float.h'
p1840
sbsS'pthread_alloc'
p1841
g305
(g1455
g307
Ntp1842
Rp1843
(dp1844
g1459
g1467
sg1460
g1468
sg331
S'c:/marmalade/7.4/s3e/h/std/c++/pthread_alloc'
p1845
sbsS'getopt.h'
p1846
g305
(g1455
g307
Ntp1847
Rp1848
(dp1849
g1459
g1467
sg1460
g1489
sg331
S'c:/marmalade/7.4/s3e/h/std/getopt.h'
p1850
sbsS'IwOptimiseARM.h'
p1851
g305
(g1455
g307
Ntp1852
Rp1853
(dp1854
g1459
g1331
sg1460
g1496
sg331
g1384
sbsS'times.h'
p1855
g305
(g1455
g307
Ntp1856
Rp1857
(dp1858
g1459
g1467
sg1460
g1608
sg331
S'c:/marmalade/7.4/s3e/h/std/sys/times.h'
p1859
sbsS'IwGeomFSphere.h'
p1860
g305
(g1455
g307
Ntp1861
Rp1862
(dp1863
g1459
g1167
sg1460
g1517
sg331
g1177
sbsS'IwTypes.h'
p1864
g305
(g1455
g307
Ntp1865
Rp1866
(dp1867
g1459
g1331
sg1460
g1496
sg331
g1366
sbsS'unistd.h'
p1868
g305
(g1455
g307
Ntp1869
Rp1870
(dp1871
g1459
g1467
sg1460
g1489
sg331
S'c:/marmalade/7.4/s3e/h/std/unistd.h'
p1872
sbsS's3eCompression.h'
p1873
g305
(g1455
g307
Ntp1874
Rp1875
(dp1876
g1459
g1467
sg1460
g1483
sg331
S'c:/marmalade/7.4/s3e/h/s3eCompression.h'
p1877
sbsS'langinfo.h'
p1878
g305
(g1455
g307
Ntp1879
Rp1880
(dp1881
g1459
g1467
sg1460
g1489
sg331
S'c:/marmalade/7.4/s3e/h/std/langinfo.h'
p1882
sbsS's3edebugHeap.h'
p1883
g305
(g1455
g307
Ntp1884
Rp1885
(dp1886
g1459
g1467
sg1460
g1677
sg331
S'c:/marmalade/7.4/s3e/h/ext/s3edebugHeap.h'
p1887
sbsS'AirplayVersion.h'
p1888
g305
(g1455
g307
Ntp1889
Rp1890
(dp1891
g1459
g1467
sg1460
g1483
sg331
S'c:/marmalade/7.4/s3e/h/AirplayVersion.h'
p1892
sbsS'gl2extimg.h'
p1893
g305
(g1455
g307
Ntp1894
Rp1895
(dp1896
g1459
g1467
sg1460
g1709
sg331
S'c:/marmalade/7.4/s3e/h/GLES2/gl2extimg.h'
p1897
sbsS'app.config.txt'
p1898
g305
(g1455
g307
Ntp1899
Rp1900
(dp1901
g1459
(dp1902
sg1460
g4
sg331
S'c:/Users/lab422/Desktop/Sprint 1 Minimal Example/FinalYearProject/data/app.config.txt'
p1903
sbsS'IwGeomSqrt.h'
p1904
g305
(g1455
g307
Ntp1905
Rp1906
(dp1907
g1459
g1167
sg1460
g1517
sg331
g1237
sbsS'tiniconv_int.h'
p1908
g305
(g1455
g307
Ntp1909
Rp1910
(dp1911
g1459
g1078
sg1460
(lp1912
g1074
asg331
g1076
sbsS'syslog.h'
p1913
g305
(g1455
g307
Ntp1914
Rp1915
(dp1916
g1459
g1467
sg1460
g1489
sg331
S'c:/marmalade/7.4/s3e/h/std/syslog.h'
p1917
sbsS'IwGxFontTypes.h'
p1918
g305
(g1455
g307
Ntp1919
Rp1920
(dp1921
g1459
g1145
sg1460
g1461
sg331
g1152
sbsS'IwGeomFIntersect.h'
p1922
g305
(g1455
g307
Ntp1923
Rp1924
(dp1925
g1459
g1167
sg1460
g1517
sg331
g1168
sbsS'hash_map'
p1926
g305
(g1455
g307
Ntp1927
Rp1928
(dp1929
g1459
g1467
sg1460
g1468
sg331
S'c:/marmalade/7.4/s3e/h/std/c++/hash_map'
p1930
sbsS's3e.mkf'
p1931
g305
(g1455
g307
Ntp1932
Rp1933
(dp1934
g1459
(dp1935
sg1460
g1483
sg331
S'c:/marmalade/7.4/s3e/s3e.mkf'
p1936
sbsS'IwGeomMat2D.h.tpl'
p1937
g305
(g1455
g307
Ntp1938
Rp1939
(dp1940
g1459
g1167
sg1460
g1517
sg331
g1170
sbsS's3eOSReadString.h'
p1941
g305
(g1455
g307
Ntp1942
Rp1943
(dp1944
g1459
g1467
sg1460
g1677
sg331
S'c:/marmalade/7.4/s3e/h/ext/s3eOSReadString.h'
p1945
sbsS'map'
p1946
g305
(g1455
g307
Ntp1947
Rp1948
(dp1949
g1459
g1467
sg1460
g1468
sg331
S'c:/marmalade/7.4/s3e/h/std/c++/map'
p1950
sbsS'iwtween.mkf'
p1951
g305
(g1455
g307
Ntp1952
Rp1953
(dp1954
g1459
g1451
sg1460
(lp1955
g1442
asg331
g1449
sbsS'IwOptimiseSpeed.h'
p1956
g305
(g1455
g307
Ntp1957
Rp1958
(dp1959
g1459
g1331
sg1460
g1496
sg331
g1394
sbsS'msl_string.h'
p1960
g305
(g1455
g307
Ntp1961
Rp1962
(dp1963
g1459
g1467
sg1460
g1468
sg331
S'c:/marmalade/7.4/s3e/h/std/c++/msl_string.h'
p1964
sbsS'select.h'
p1965
g305
(g1455
g307
Ntp1966
Rp1967
(dp1968
g1459
g1467
sg1460
g1608
sg331
S'c:/marmalade/7.4/s3e/h/std/sys/select.h'
p1969
sbsS'zlib.mkf'
p1970
g305
(g1455
g307
Ntp1971
Rp1972
(dp1973
g1459
g1441
sg1460
(lp1974
g1431
asg331
g1439
sbsS'signal.h'
p1975
g305
(g1455
g307
Ntp1976
Rp1977
(dp1978
g1459
g1467
sg1460
g1489
sg331
S'c:/marmalade/7.4/s3e/h/std/signal.h'
p1979
sbsS'sigcontext.h'
p1980
g305
(g1455
g307
Ntp1981
Rp1982
(dp1983
g1459
g1467
sg1460
g1489
sg331
S'c:/marmalade/7.4/s3e/h/std/sigcontext.h'
p1984
sbsS'libpng.mkf'
p1985
g305
(g1455
g307
Ntp1986
Rp1987
(dp1988
g1459
g1038
sg1460
(lp1989
g1027
asg331
g1036
sbsS's3eClipboard.h'
p1990
g305
(g1455
g307
Ntp1991
Rp1992
(dp1993
g1459
g1467
sg1460
g1483
sg331
S'c:/marmalade/7.4/s3e/h/s3eClipboard.h'
p1994
sbsS'IwGxFuncTable.h'
p1995
g305
(g1455
g307
Ntp1996
Rp1997
(dp1998
g1459
g1267
sg1460
g1594
sg331
g1268
sbsS'IwResHandlerGROUP.h'
p1999
g305
(g1455
g307
Ntp2000
Rp2001
(dp2002
g1459
g1243
sg1460
(lp2003
g1103
ag1239
asg331
g1250
sbsS's3eDebug.h'
p2004
g305
(g1455
g307
Ntp2005
Rp2006
(dp2007
g1459
g1467
sg1460
g1483
sg331
S'c:/marmalade/7.4/s3e/h/s3eDebug.h'
p2008
sbsS'socket.h'
p2009
g305
(g1455
g307
Ntp2010
Rp2011
(dp2012
g1459
g1467
sg1460
g1608
sg331
S'c:/marmalade/7.4/s3e/h/std/sys/socket.h'
p2013
sbsS'glext.h'
p2014
g305
(g1455
g307
Ntp2015
Rp2016
(dp2017
g1459
g1467
sg1460
(lp2018
g1469
aS'GL'
p2019
aS'GLES 1.x'
p2020
asg331
S'c:/marmalade/7.4/s3e/h/GLES/glext.h'
p2021
sbsS'typeinfo.h'
p2022
g305
(g1455
g307
Ntp2023
Rp2024
(dp2025
g1459
g1467
sg1460
g1468
sg331
S'c:/marmalade/7.4/s3e/h/std/c++/typeinfo.h'
p2026
sbsS'typeinfo'
p2027
g305
(g1455
g307
Ntp2028
Rp2029
(dp2030
g1459
g1467
sg1460
g1468
sg331
S'c:/marmalade/7.4/s3e/h/std/c++/typeinfo'
p2031
sbsS'fstream.h'
p2032
g305
(g1455
g307
Ntp2033
Rp2034
(dp2035
g1459
g1467
sg1460
g1468
sg331
S'c:/marmalade/7.4/s3e/h/std/c++/fstream.h'
p2036
sbsS's3ePointer.h'
p2037
g305
(g1455
g307
Ntp2038
Rp2039
(dp2040
g1459
g1467
sg1460
g1483
sg331
S'c:/marmalade/7.4/s3e/h/s3ePointer.h'
p2041
sbsS'IwMemBucket.h'
p2042
g305
(g1455
g307
Ntp2043
Rp2044
(dp2045
g1459
g1331
sg1460
g1496
sg331
g1390
sbsS'PVRTexTool.h'
p2046
g305
(g1455
g307
Ntp2047
Rp2048
(dp2049
g1459
g1095
sg1460
(lp2050
g1087
ag1089
asg331
g1101
sbsS's3eGL.h'
p2051
g305
(g1455
g307
Ntp2052
Rp2053
(dp2054
g1459
g1467
sg1460
g1483
sg331
S'c:/marmalade/7.4/s3e/h/s3eGL.h'
p2055
sbsS'IwGeomFVec2.h'
p2056
g305
(g1455
g307
Ntp2057
Rp2058
(dp2059
g1459
g1167
sg1460
g1517
sg331
g1193
sbsS'IwGeomSVec4.h'
p2060
g305
(g1455
g307
Ntp2061
Rp2062
(dp2063
g1459
g1167
sg1460
g1517
sg331
g1191
sbsS'poll.h'
p2064
g305
(g1455
g307
Ntp2065
Rp2066
(dp2067
g1459
g1467
sg1460
g1489
sg331
S'c:/marmalade/7.4/s3e/h/std/poll.h'
p2068
sbsS'IwMatAnim.h'
p2069
g305
(g1455
g307
Ntp2070
Rp2071
(dp2072
g1459
g1267
sg1460
g1594
sg331
g1292
sbsS'PVRTexTool.defines.txt'
p2073
g305
(g1455
g307
Ntp2074
Rp2075
(dp2076
g1459
g1095
sg1460
(lp2077
g1087
ag1089
ag1091
asg331
g1096
sbsS'IwGx.h'
p2078
g305
(g1455
g307
Ntp2079
Rp2080
(dp2081
g1459
g1267
sg1460
g1594
sg331
g1274
sbsS'valarray'
p2082
g305
(g1455
g307
Ntp2083
Rp2084
(dp2085
g1459
g1467
sg1460
g1468
sg331
S'c:/marmalade/7.4/s3e/h/std/c++/valarray'
p2086
sbsS'iosfwd'
p2087
g305
(g1455
g307
Ntp2088
Rp2089
(dp2090
g1459
g1467
sg1460
g1468
sg331
S'c:/marmalade/7.4/s3e/h/std/c++/iosfwd'
p2091
sbsS'gl2.h'
p2092
g305
(g1455
g307
Ntp2093
Rp2094
(dp2095
g1459
g1467
sg1460
g1709
sg331
S'c:/marmalade/7.4/s3e/h/GLES2/gl2.h'
p2096
sbsS'jpegint.h'
p2097
g305
(g1455
g307
Ntp2098
Rp2099
(dp2100
g1459
g1044
sg1460
g1552
sg331
g1067
sbsS'stdiostream.h'
p2101
g305
(g1455
g307
Ntp2102
Rp2103
(dp2104
g1459
g1467
sg1460
g1468
sg331
S'c:/marmalade/7.4/s3e/h/std/c++/stdiostream.h'
p2105
sbsS'mem.h'
p2106
g305
(g1455
g307
Ntp2107
Rp2108
(dp2109
g1459
g1467
sg1460
g1468
sg331
S'c:/marmalade/7.4/s3e/h/std/c++/mem.h'
p2110
sbsS'jerror.h'
p2111
g305
(g1455
g307
Ntp2112
Rp2113
(dp2114
g1459
g1044
sg1460
g1552
sg331
g1042
sbsS'zconf.h'
p2115
g305
(g1455
g307
Ntp2116
Rp2117
(dp2118
g1459
g1436
sg1460
(lp2119
g1431
ag1029
asg331
g1434
sbsS's3e.config.txt'
p2120
g305
(g1455
g307
Ntp2121
Rp2122
(dp2123
g1459
g1467
sg1460
g1483
sg331
S'c:/marmalade/7.4/s3e/s3e.config.txt'
p2124
sbsS'numeric'
p2125
g305
(g1455
g307
Ntp2126
Rp2127
(dp2128
g1459
g1467
sg1460
g1468
sg331
S'c:/marmalade/7.4/s3e/h/std/c++/numeric'
p2129
sbsS'utime.h'
p2130
g305
(g1455
g307
Ntp2131
Rp2132
(dp2133
g1459
g1467
sg1460
g1489
sg331
S'c:/marmalade/7.4/s3e/h/std/utime.h'
p2134
sbsS'jdhuff.h'
p2135
g305
(g1455
g307
Ntp2136
Rp2137
(dp2138
g1459
g1044
sg1460
g1552
sg331
g1065
sbsS'IwGxStream.h'
p2139
g305
(g1455
g307
Ntp2140
Rp2141
(dp2142
g1459
g1267
sg1460
g1594
sg331
g1294
sbsS'IwImage.h'
p2143
g305
(g1455
g307
Ntp2144
Rp2145
(dp2146
g1459
g1331
sg1460
g1496
sg331
g1386
sbsS's3eImagePicker.h'
p2147
g305
(g1455
g307
Ntp2148
Rp2149
(dp2150
g1459
g1467
sg1460
g1677
sg331
S'c:/marmalade/7.4/s3e/h/ext/s3eImagePicker.h'
p2151
sbsS'IwTextParserITX.h'
p2152
g305
(g1455
g307
Ntp2153
Rp2154
(dp2155
g1459
g1331
sg1460
g1496
sg331
g1350
sbsS'stdlib.h'
p2156
g305
(g1455
g307
Ntp2157
Rp2158
(dp2159
g1459
g1467
sg1460
g1489
sg331
S'c:/marmalade/7.4/s3e/h/std/stdlib.h'
p2160
sbsS'IwCopyingPtr.h'
p2161
g305
(g1455
g307
Ntp2162
Rp2163
(dp2164
g1459
g1331
sg1460
g1496
sg331
g1336
sbsS'iostream'
p2165
g305
(g1455
g307
Ntp2166
Rp2167
(dp2168
g1459
g1467
sg1460
g1468
sg331
S'c:/marmalade/7.4/s3e/h/std/c++/iostream'
p2169
sbsS'png.h'
p2170
g305
(g1455
g307
Ntp2171
Rp2172
(dp2173
g1459
g1033
sg1460
(lp2174
g1027
ag1029
asg331
g1031
sbsS'stddef.h'
p2175
g305
(g1455
g307
Ntp2176
Rp2177
(dp2178
g1459
g1467
sg1460
g1489
sg331
S'c:/marmalade/7.4/s3e/h/std/stddef.h'
p2179
sbsS'setjmp_win32.h'
p2180
g305
(g1455
g307
Ntp2181
Rp2182
(dp2183
g1459
g1467
sg1460
g1489
sg331
S'c:/marmalade/7.4/s3e/h/std/setjmp_win32.h'
p2184
sbsS'IwGxPrint.h'
p2185
g305
(g1455
g307
Ntp2186
Rp2187
(dp2188
g1459
g1267
sg1460
g1594
sg331
g1272
sbsS'iwgx_public.defines.txt'
p2189
g305
(g1455
g307
Ntp2190
Rp2191
(dp2192
g1459
g1267
sg1460
g1594
sg331
g1309
sbsS'streambuf.h'
p2193
g305
(g1455
g307
Ntp2194
Rp2195
(dp2196
g1459
g1467
sg1460
g1468
sg331
S'c:/marmalade/7.4/s3e/h/std/c++/streambuf.h'
p2197
sbsS'IwGeomFPlane.h'
p2198
g305
(g1455
g307
Ntp2199
Rp2200
(dp2201
g1459
g1167
sg1460
g1517
sg331
g1233
sbsS'wchar.h'
p2202
g305
(g1455
g307
Ntp2203
Rp2204
(dp2205
g1459
g1467
sg1460
g1489
sg331
S'c:/marmalade/7.4/s3e/h/std/wchar.h'
p2206
sbsS's3eCameraCapture.h'
p2207
g305
(g1455
g307
Ntp2208
Rp2209
(dp2210
g1459
g1467
sg1460
g1677
sg331
S'c:/marmalade/7.4/s3e/h/ext/s3eCameraCapture.h'
p2211
sbsS'eglext.h'
p2212
g305
(g1455
g307
Ntp2213
Rp2214
(dp2215
g1459
g1467
sg1460
g1801
sg331
S'c:/marmalade/7.4/s3e/h/EGL/eglext.h'
p2216
sbsS'IwResHandlerImage.h'
p2217
g305
(g1455
g307
Ntp2218
Rp2219
(dp2220
g1459
g1243
sg1460
g2003
sg331
g1255
sbsS'strstream.h'
p2221
g305
(g1455
g307
Ntp2222
Rp2223
(dp2224
g1459
g1467
sg1460
g1468
sg331
S'c:/marmalade/7.4/s3e/h/std/c++/strstream.h'
p2225
sbsS'tiniconv.h'
p2226
g305
(g1455
g307
Ntp2227
Rp2228
(dp2229
g1459
g1078
sg1460
g1912
sg331
g1082
sbsS'IwGLExt.h'
p2230
g305
(g1455
g307
Ntp2231
Rp2232
(dp2233
g1459
g1124
sg1460
g1477
sg331
g1127
sbsS'app.icf'
p2234
g305
(g1455
g307
Ntp2235
Rp2236
(dp2237
g1459
(dp2238
sg1460
g4
sg331
S'c:/Users/lab422/Desktop/Sprint 1 Minimal Example/FinalYearProject/data/app.icf'
p2239
sbsS'IwClassFactory.h'
p2240
g305
(g1455
g307
Ntp2241
Rp2242
(dp2243
g1459
g1331
sg1460
g1496
sg331
g1364
sbsS'file.h'
p2244
g305
(g1455
g307
Ntp2245
Rp2246
(dp2247
g1459
g1467
sg1460
g1608
sg331
S'c:/marmalade/7.4/s3e/h/std/sys/file.h'
p2248
sbsS'cstring'
p2249
g305
(g1455
g307
Ntp2250
Rp2251
(dp2252
g1459
g1467
sg1460
g1468
sg331
S'c:/marmalade/7.4/s3e/h/std/c++/cstring'
p2253
sbsS'iwutil.config.txt'
p2254
g305
(g1455
g307
Ntp2255
Rp2256
(dp2257
g1459
g1331
sg1460
g1496
sg331
g1398
sbsS's3eSMS.h'
p2258
g305
(g1455
g307
Ntp2259
Rp2260
(dp2261
g1459
g1467
sg1460
g1677
sg331
S'c:/marmalade/7.4/s3e/h/ext/s3eSMS.h'
p2262
sbsS'limits.h'
p2263
g305
(g1455
g307
Ntp2264
Rp2265
(dp2266
g1459
g1467
sg1460
g1489
sg331
S'c:/marmalade/7.4/s3e/h/std/limits.h'
p2267
sbsS'iwgl.config.txt'
p2268
g305
(g1455
g307
Ntp2269
Rp2270
(dp2271
g1459
g1124
sg1460
g1477
sg331
g1122
sbsS'IwMaterial.h'
p2272
g305
(g1455
g307
Ntp2273
Rp2274
(dp2275
g1459
g1267
sg1460
g1594
sg331
g1288
sbsS'PVRTexTool_interface.cpp'
p2276
g305
(g1455
g307
Ntp2277
Rp2278
(dp2279
g1459
g1095
sg1460
g2077
sg331
g1093
sbsS'IwGxSurface.h'
p2280
g305
(g1455
g307
Ntp2281
Rp2282
(dp2283
g1459
g1267
sg1460
g1594
sg331
g1315
sbsS's3eSocket.h'
p2284
g305
(g1455
g307
Ntp2285
Rp2286
(dp2287
g1459
g1467
sg1460
g1483
sg331
S'c:/marmalade/7.4/s3e/h/s3eSocket.h'
p2288
sbsS'IwAutoFile.h'
p2289
g305
(g1455
g307
Ntp2290
Rp2291
(dp2292
g1459
g1331
sg1460
g1496
sg331
g1417
sbsS'ipc.h'
p2293
g305
(g1455
g307
Ntp2294
Rp2295
(dp2296
g1459
g1467
sg1460
g1608
sg331
S'c:/marmalade/7.4/s3e/h/std/sys/ipc.h'
p2297
sbsS'poll_1.h'
p2298
g305
(g1455
g307
Ntp2299
Rp2300
(dp2301
g1459
g1467
sg1460
g1608
sg331
S'c:/marmalade/7.4/s3e/h/std/sys/poll.h'
p2302
sbsS's3eThread.h'
p2303
g305
(g1455
g307
Ntp2304
Rp2305
(dp2306
g1459
g1467
sg1460
g1483
sg331
S'c:/marmalade/7.4/s3e/h/s3eThread.h'
p2307
sbsS'ucontext.h'
p2308
g305
(g1455
g307
Ntp2309
Rp2310
(dp2311
g1459
g1467
sg1460
g1489
sg331
S'c:/marmalade/7.4/s3e/h/std/ucontext.h'
p2312
sbsS'time.h'
p2313
g305
(g1455
g307
Ntp2314
Rp2315
(dp2316
g1459
g1467
sg1460
g1489
sg331
S'c:/marmalade/7.4/s3e/h/std/time.h'
p2317
sbsS'jchuff.h'
p2318
g305
(g1455
g307
Ntp2319
Rp2320
(dp2321
g1459
g1044
sg1460
g1552
sg331
g1047
sbsS's3eSoundRecord.h'
p2322
g305
(g1455
g307
Ntp2323
Rp2324
(dp2325
g1459
g1467
sg1460
g1483
sg331
S'c:/marmalade/7.4/s3e/h/s3eSoundRecord.h'
p2326
sbsS'IwFibre.h'
p2327
g305
(g1455
g307
Ntp2328
Rp2329
(dp2330
g1459
g1331
sg1460
g1496
sg331
g1406
sbsS's3eVersion.h'
p2331
g305
(g1455
g307
Ntp2332
Rp2333
(dp2334
g1459
g1467
sg1460
g1483
sg331
S'c:/marmalade/7.4/s3e/h/s3eVersion.h'
p2335
sbsS'IwGxFontGlyph.h'
p2336
g305
(g1455
g307
Ntp2337
Rp2338
(dp2339
g1459
g1145
sg1460
g1461
sg331
g1146
sbsS's3eTypes.h'
p2340
g305
(g1455
g307
Ntp2341
Rp2342
(dp2343
g1459
g1467
sg1460
g1483
sg331
S'c:/marmalade/7.4/s3e/h/s3eTypes.h'
p2344
sbsS'signal_2.h'
p2345
g305
(g1455
g307
Ntp2346
Rp2347
(dp2348
g1459
g1467
sg1460
g1468
sg331
S'c:/marmalade/7.4/s3e/h/std/c++/signal.h'
p2349
sbsS'termios.h'
p2350
g305
(g1455
g307
Ntp2351
Rp2352
(dp2353
g1459
g1467
sg1460
g1489
sg331
S'c:/marmalade/7.4/s3e/h/std/termios.h'
p2354
sbsS'iw2dscenegraph.mkf'
p2355
g305
(g1455
g307
Ntp2356
Rp2357
(dp2358
g1459
g1114
sg1460
g1717
sg331
g1112
sbsS'slist'
p2359
g305
(g1455
g307
Ntp2360
Rp2361
(dp2362
g1459
g1467
sg1460
g1468
sg331
S'c:/marmalade/7.4/s3e/h/std/c++/slist'
p2363
sbsS'cstdlib'
p2364
g305
(g1455
g307
Ntp2365
Rp2366
(dp2367
g1459
g1467
sg1460
g1468
sg331
S'c:/marmalade/7.4/s3e/h/std/c++/cstdlib'
p2368
sbsS's3eLocation.h'
p2369
g305
(g1455
g307
Ntp2370
Rp2371
(dp2372
g1459
g1467
sg1460
g1483
sg331
S'c:/marmalade/7.4/s3e/h/s3eLocation.h'
p2373
sbsS'IwMemBucketHelpers.h'
p2374
g305
(g1455
g307
Ntp2375
Rp2376
(dp2377
g1459
g1331
sg1460
g1496
sg331
g1378
sbsS's3eHash.h'
p2378
g305
(g1455
g307
Ntp2379
Rp2380
(dp2381
g1459
g1467
sg1460
g1483
sg331
S'c:/marmalade/7.4/s3e/h/s3eHash.h'
p2382
sbsS'IwGeomFMat.h'
p2383
g305
(g1455
g307
Ntp2384
Rp2385
(dp2386
g1459
g1167
sg1460
g1517
sg331
g1235
sbsS'type_traits.h'
p2387
g305
(g1455
g307
Ntp2388
Rp2389
(dp2390
g1459
g1467
sg1460
g1468
sg331
S'c:/marmalade/7.4/s3e/h/std/c++/type_traits.h'
p2391
sbsS'IwMenu.h'
p2392
g305
(g1455
g307
Ntp2393
Rp2394
(dp2395
g1459
g1331
sg1460
g1496
sg331
g1332
sbsS'IwResHandlerITX.h'
p2396
g305
(g1455
g307
Ntp2397
Rp2398
(dp2399
g1459
g1243
sg1460
g2003
sg331
g1246
sbsS'IwArray.h'
p2400
g305
(g1455
g307
Ntp2401
Rp2402
(dp2403
g1459
g1331
sg1460
g1496
sg331
g1396
sbsS'IwUTF8.h'
p2404
g305
(g1455
g307
Ntp2405
Rp2406
(dp2407
g1459
g1331
sg1460
g1496
sg331
g1400
sbsS'math_rvct.h'
p2408
g305
(g1455
g307
Ntp2409
Rp2410
(dp2411
g1459
g1467
sg1460
g1489
sg331
S'c:/marmalade/7.4/s3e/h/std/math_rvct.h'
p2412
sbsS'IwUtil.h'
p2413
g305
(g1455
g307
Ntp2414
Rp2415
(dp2416
g1459
g1331
sg1460
g1496
sg331
g1421
sbsS'IwFColour.h'
p2417
g305
(g1455
g307
Ntp2418
Rp2419
(dp2420
g1459
g1267
sg1460
g1594
sg331
g1278
sbsS'wctype.h'
p2421
g305
(g1455
g307
Ntp2422
Rp2423
(dp2424
g1459
g1467
sg1460
g1489
sg331
S'c:/marmalade/7.4/s3e/h/std/wctype.h'
p2425
sbsS'cstddef'
p2426
g305
(g1455
g307
Ntp2427
Rp2428
(dp2429
g1459
g1467
sg1460
g1468
sg331
S'c:/marmalade/7.4/s3e/h/std/c++/cstddef'
p2430
sbsS'assert.h'
p2431
g305
(g1455
g307
Ntp2432
Rp2433
(dp2434
g1459
g1467
sg1460
g1489
sg331
S'c:/marmalade/7.4/s3e/h/std/assert.h'
p2435
sbsS'mman.h'
p2436
g305
(g1455
g307
Ntp2437
Rp2438
(dp2439
g1459
g1467
sg1460
g1608
sg331
S'c:/marmalade/7.4/s3e/h/std/sys/mman.h'
p2440
sbsS'IwRandom.h'
p2441
g305
(g1455
g307
Ntp2442
Rp2443
(dp2444
g1459
g1331
sg1460
g1496
sg331
g1344
sbsS'libgen.h'
p2445
g305
(g1455
g307
Ntp2446
Rp2447
(dp2448
g1459
g1467
sg1460
g1489
sg331
S'c:/marmalade/7.4/s3e/h/std/libgen.h'
p2449
sbsS'utsname.h'
p2450
g305
(g1455
g307
Ntp2451
Rp2452
(dp2453
g1459
g1467
sg1460
g1608
sg331
S'c:/marmalade/7.4/s3e/h/std/sys/utsname.h'
p2454
sbsS'wait.h'
p2455
g305
(g1455
g307
Ntp2456
Rp2457
(dp2458
g1459
g1467
sg1460
g1608
sg331
S'c:/marmalade/7.4/s3e/h/std/sys/wait.h'
p2459
sbsS'param.h'
p2460
g305
(g1455
g307
Ntp2461
Rp2462
(dp2463
g1459
g1467
sg1460
g1608
sg331
S'c:/marmalade/7.4/s3e/h/std/sys/param.h'
p2464
sbsS'IwDivide.h'
p2465
g305
(g1455
g307
Ntp2466
Rp2467
(dp2468
g1459
g1331
sg1460
g1496
sg331
g1392
sbsS'Iw2DSceneGraphCore.cpp'
p2469
g305
(g1455
g307
Ntp2470
Rp2471
(dp2472
g1459
g1324
sg1460
(lp2473
S"'Marmalade Studio'"
p2474
ag1317
asg331
g1322
sbsS'IwResManager.h'
p2475
g305
(g1455
g307
Ntp2476
Rp2477
(dp2478
g1459
g1243
sg1460
g2003
sg331
g1244
sbsS'ostream'
p2479
g305
(g1455
g307
Ntp2480
Rp2481
(dp2482
g1459
g1467
sg1460
g1468
sg331
S'c:/marmalade/7.4/s3e/h/std/c++/ostream'
p2483
sbsS'cwctype'
p2484
g305
(g1455
g307
Ntp2485
Rp2486
(dp2487
g1459
g1467
sg1460
g1468
sg331
S'c:/marmalade/7.4/s3e/h/std/c++/cwctype'
p2488
sbsS'set'
p2489
g305
(g1455
g307
Ntp2490
Rp2491
(dp2492
g1459
g1467
sg1460
g1468
sg331
S'c:/marmalade/7.4/s3e/h/std/c++/set'
p2493
sbsS'IwGeomSQuat.h'
p2494
g305
(g1455
g307
Ntp2495
Rp2496
(dp2497
g1459
g1167
sg1460
g1517
sg331
g1211
sbsS'locale'
p2498
g305
(g1455
g307
Ntp2499
Rp2500
(dp2501
g1459
g1467
sg1460
g1468
sg331
S'c:/marmalade/7.4/s3e/h/std/c++/locale'
p2502
sbsS'cstdio'
p2503
g305
(g1455
g307
Ntp2504
Rp2505
(dp2506
g1459
g1467
sg1460
g1468
sg331
S'c:/marmalade/7.4/s3e/h/std/c++/cstdio'
p2507
sbsS'cdjpeg.h'
p2508
g305
(g1455
g307
Ntp2509
Rp2510
(dp2511
g1459
g1044
sg1460
g1552
sg331
g1051
sbsS'IwList.h'
p2512
g305
(g1455
g307
Ntp2513
Rp2514
(dp2515
g1459
g1331
sg1460
g1496
sg331
g1360
sbsS'inttypes.h'
p2516
g305
(g1455
g307
Ntp2517
Rp2518
(dp2519
g1459
g1467
sg1460
g1489
sg331
S'c:/marmalade/7.4/s3e/h/std/inttypes.h'
p2520
sbsS'dirent.h'
p2521
g305
(g1455
g307
Ntp2522
Rp2523
(dp2524
g1459
g1467
sg1460
g1489
sg331
S'c:/marmalade/7.4/s3e/h/std/dirent.h'
p2525
sbsS'IwGeomVec3.h'
p2526
g305
(g1455
g307
Ntp2527
Rp2528
(dp2529
g1459
g1167
sg1460
g1517
sg331
g1205
sbsS'transupp.h'
p2530
g305
(g1455
g307
Ntp2531
Rp2532
(dp2533
g1459
g1044
sg1460
g1552
sg331
g1063
sbsS'IwMath.h'
p2534
g305
(g1455
g307
Ntp2535
Rp2536
(dp2537
g1459
g1331
sg1460
g1496
sg331
g1404
sbsS'IwGeomQuat.h'
p2538
g305
(g1455
g307
Ntp2539
Rp2540
(dp2541
g1459
g1167
sg1460
g1517
sg331
g1187
sbsS'glplatform.h'
p2542
g305
(g1455
g307
Ntp2543
Rp2544
(dp2545
g1459
g1467
sg1460
g2018
sg331
S'c:/marmalade/7.4/s3e/h/GLES/glplatform.h'
p2546
sbsS'bitset'
p2547
g305
(g1455
g307
Ntp2548
Rp2549
(dp2550
g1459
g1467
sg1460
g1468
sg331
S'c:/marmalade/7.4/s3e/h/std/c++/bitset'
p2551
sbsS'alloca.h'
p2552
g305
(g1455
g307
Ntp2553
Rp2554
(dp2555
g1459
g1467
sg1460
g1489
sg331
S'c:/marmalade/7.4/s3e/h/std/alloca.h'
p2556
sbsS'IwResHandler.h'
p2557
g305
(g1455
g307
Ntp2558
Rp2559
(dp2560
g1459
g1243
sg1460
g2003
sg331
g1257
sbsS'IwResHandlerMTL.h'
p2561
g305
(g1455
g307
Ntp2562
Rp2563
(dp2564
g1459
g1267
sg1460
g1594
sg331
g1296
sbsS'IwRuntime.h'
p2565
g305
(g1455
g307
Ntp2566
Rp2567
(dp2568
g1459
g1331
sg1460
g1496
sg331
g1376
sbsS'limits'
p2569
g305
(g1455
g307
Ntp2570
Rp2571
(dp2572
g1459
g1467
sg1460
g1468
sg331
S'c:/marmalade/7.4/s3e/h/std/c++/limits'
p2573
sbsS'IwGeomBBox.h'
p2574
g305
(g1455
g307
Ntp2575
Rp2576
(dp2577
g1459
g1167
sg1460
g1517
sg331
g1217
sbsS's3eContacts.h'
p2578
g305
(g1455
g307
Ntp2579
Rp2580
(dp2581
g1459
g1467
sg1460
g1483
sg331
S'c:/marmalade/7.4/s3e/h/s3eContacts.h'
p2582
sbsS's3eLicense.h'
p2583
g305
(g1455
g307
Ntp2584
Rp2585
(dp2586
g1459
g1467
sg1460
g1483
sg331
S'c:/marmalade/7.4/s3e/h/s3eLicense.h'
p2587
sbsS'iwgx.config.txt'
p2588
g305
(g1455
g307
Ntp2589
Rp2590
(dp2591
g1459
g1267
sg1460
g1594
sg331
g1302
sbsS'IwTextParser.h'
p2592
g305
(g1455
g307
Ntp2593
Rp2594
(dp2595
g1459
g1331
sg1460
g1496
sg331
g1329
sbsS's3eTimer.h'
p2596
g305
(g1455
g307
Ntp2597
Rp2598
(dp2599
g1459
g1467
sg1460
g1483
sg331
S'c:/marmalade/7.4/s3e/h/s3eTimer.h'
p2600
sbsS'IwGeomVec.h'
p2601
g305
(g1455
g307
Ntp2602
Rp2603
(dp2604
g1459
g1167
sg1460
g1517
sg331
g1195
sbsS'IwSerialise.h'
p2605
g305
(g1455
g307
Ntp2606
Rp2607
(dp2608
g1459
g1331
sg1460
g1496
sg331
g1362
sbsS'cstdarg'
p2609
g305
(g1455
g307
Ntp2610
Rp2611
(dp2612
g1459
g1467
sg1460
g1468
sg331
S'c:/marmalade/7.4/s3e/h/std/c++/cstdarg'
p2613
sbsS'gl2ext.h'
p2614
g305
(g1455
g307
Ntp2615
Rp2616
(dp2617
g1459
g1467
sg1460
g1709
sg331
S'c:/marmalade/7.4/s3e/h/GLES2/gl2ext.h'
p2618
sbsS'IwChar.h'
p2619
g305
(g1455
g307
Ntp2620
Rp2621
(dp2622
g1459
g1331
sg1460
g1496
sg331
g1382
sbsS's3eSound.h'
p2623
g305
(g1455
g307
Ntp2624
Rp2625
(dp2626
g1459
g1467
sg1460
g1483
sg331
S'c:/marmalade/7.4/s3e/h/s3eSound.h'
p2627
sbsS'IwOptimiseThumb.h'
p2628
g305
(g1455
g307
Ntp2629
Rp2630
(dp2631
g1459
g1331
sg1460
g1496
sg331
g1419
sbsS'exception.h'
p2632
g305
(g1455
g307
Ntp2633
Rp2634
(dp2635
g1459
g1467
sg1460
g1468
sg331
S'c:/marmalade/7.4/s3e/h/std/c++/exception.h'
p2636
sbsS'iwgeom.config.txt'
p2637
g305
(g1455
g307
Ntp2638
Rp2639
(dp2640
g1459
g1167
sg1460
g1517
sg331
g1165
sbsS'iwgx.mkf'
p2641
g305
(g1455
g307
Ntp2642
Rp2643
(dp2644
g1459
g1308
sg1460
g1594
sg331
g1306
sbsS'gl.h'
p2645
g305
(g1455
g307
Ntp2646
Rp2647
(dp2648
g1459
g1467
sg1460
g2018
sg331
S'c:/marmalade/7.4/s3e/h/GLES/gl.h'
p2649
sbsS'zlib.h'
p2650
g305
(g1455
g307
Ntp2651
Rp2652
(dp2653
g1459
g1436
sg1460
g2119
sg331
g1437
sbsS'temp_defines_release.h'
p2654
g305
(g1455
g307
Ntp2655
Rp2656
(dp2657
g1459
(lp2658
sg1460
(lp2659
S"'generated files'"
p2660
asg331
S'c:/Users/lab422/Desktop/Sprint 1 Minimal Example/FinalYearProject/build_finalyearproject_vc12/temp_defines_release.h'
p2661
sbsS'iwgl.mkf'
p2662
g305
(g1455
g307
Ntp2663
Rp2664
(dp2665
g1459
g1121
sg1460
g1477
sg331
g1119
sbsS'IwColour.h'
p2666
g305
(g1455
g307
Ntp2667
Rp2668
(dp2669
g1459
g1267
sg1460
g1594
sg331
g1280
sbsS's3eLibrary.h'
p2670
g305
(g1455
g307
Ntp2671
Rp2672
(dp2673
g1459
g1467
sg1460
g1677
sg331
S'c:/marmalade/7.4/s3e/h/ext/s3eLibrary.h'
p2674
sbsS'types.h'
p2675
g305
(g1455
g307
Ntp2676
Rp2677
(dp2678
g1459
g1467
sg1460
g1608
sg331
S'c:/marmalade/7.4/s3e/h/std/sys/types.h'
p2679
sbsS'ifaddrs.h'
p2680
g305
(g1455
g307
Ntp2681
Rp2682
(dp2683
g1459
g1467
sg1460
g1489
sg331
S'c:/marmalade/7.4/s3e/h/std/ifaddrs.h'
p2684
sbsS'strstream'
p2685
g305
(g1455
g307
Ntp2686
Rp2687
(dp2688
g1459
g1467
sg1460
g1468
sg331
S'c:/marmalade/7.4/s3e/h/std/c++/strstream'
p2689
sbsS'IwTween.cpp'
p2690
g305
(g1455
g307
Ntp2691
Rp2692
(dp2693
g1459
g1446
sg1460
g1955
sg331
g1444
sbsS'exception'
p2694
g305
(g1455
g307
Ntp2695
Rp2696
(dp2697
g1459
g1467
sg1460
g1468
sg331
S'c:/marmalade/7.4/s3e/h/std/c++/exception'
p2698
sbsS'rlocks.h'
p2699
g305
(g1455
g307
Ntp2700
Rp2701
(dp2702
g1459
g1467
sg1460
g1468
sg331
S'c:/marmalade/7.4/s3e/h/std/c++/rlocks.h'
p2703
sbsS'ioctl.h'
p2704
g305
(g1455
g307
Ntp2705
Rp2706
(dp2707
g1459
g1467
sg1460
g1608
sg331
S'c:/marmalade/7.4/s3e/h/std/sys/ioctl.h'
p2708
sbsS'rope'
p2709
g305
(g1455
g307
Ntp2710
Rp2711
(dp2712
g1459
g1467
sg1460
g1468
sg331
S'c:/marmalade/7.4/s3e/h/std/c++/rope'
p2713
sbsS'jinclude.h'
p2714
g305
(g1455
g307
Ntp2715
Rp2716
(dp2717
g1459
g1044
sg1460
g1552
sg331
g1053
sbsS'IwEvent.h'
p2718
g305
(g1455
g307
Ntp2719
Rp2720
(dp2721
g1459
g1331
sg1460
g1496
sg331
g1402
sbsS'IwOptimiseSize.h'
p2722
g305
(g1455
g307
Ntp2723
Rp2724
(dp2725
g1459
g1331
sg1460
g1496
sg331
g1429
sbsS'iwgxfont_public.defines.txt'
p2726
g305
(g1455
g307
Ntp2727
Rp2728
(dp2729
g1459
g1145
sg1460
g1461
sg331
g1143
sbsS'iconv.h'
p2730
g305
(g1455
g307
Ntp2731
Rp2732
(dp2733
g1459
g1467
sg1460
g1489
sg331
S'c:/marmalade/7.4/s3e/h/std/iconv.h'
p2734
sbsS'sendfile.h'
p2735
g305
(g1455
g307
Ntp2736
Rp2737
(dp2738
g1459
g1467
sg1460
g1608
sg331
S'c:/marmalade/7.4/s3e/h/std/sys/sendfile.h'
p2739
sbsS'IwGeomSphere.h'
p2740
g305
(g1455
g307
Ntp2741
Rp2742
(dp2743
g1459
g1167
sg1460
g1517
sg331
g1225
sbsS'tiniconv.mkf'
p2744
g305
(g1455
g307
Ntp2745
Rp2746
(dp2747
g1459
g1081
sg1460
g1912
sg331
g1079
sbsS'IwResManagerClass.h'
p2748
g305
(g1455
g307
Ntp2749
Rp2750
(dp2751
g1459
g1243
sg1460
g2003
sg331
g1261
sbsS'jdct.h'
p2752
g305
(g1455
g307
Ntp2753
Rp2754
(dp2755
g1459
g1044
sg1460
g1552
sg331
g1059
sbsS'cctype'
p2756
g305
(g1455
g307
Ntp2757
Rp2758
(dp2759
g1459
g1467
sg1460
g1468
sg331
S'c:/marmalade/7.4/s3e/h/std/c++/cctype'
p2760
sbsS's3eConfig.h'
p2761
g305
(g1455
g307
Ntp2762
Rp2763
(dp2764
g1459
g1467
sg1460
g1483
sg331
S'c:/marmalade/7.4/s3e/h/s3eConfig.h'
p2765
sbsS'IwHashString.h'
p2766
g305
(g1455
g307
Ntp2767
Rp2768
(dp2769
g1459
g1331
sg1460
g1496
sg331
g1354
sbsS'stat.h'
p2770
g305
(g1455
g307
Ntp2771
Rp2772
(dp2773
g1459
g1467
sg1460
g1608
sg331
S'c:/marmalade/7.4/s3e/h/std/sys/stat.h'
p2774
sbsS'byteswap.h'
p2775
g305
(g1455
g307
Ntp2776
Rp2777
(dp2778
g1459
g1467
sg1460
g1489
sg331
S'c:/marmalade/7.4/s3e/h/std/byteswap.h'
p2779
sbsS'iwresmanager.mkf'
p2780
g305
(g1455
g307
Ntp2781
Rp2782
(dp2783
g1459
g1254
sg1460
g2003
sg331
g1252
sbsS'IwUtilInitTerm.h'
p2784
g305
(g1455
g307
Ntp2785
Rp2786
(dp2787
g1459
g1331
sg1460
g1496
sg331
g1334
sbsS'pthread_1.h'
p2788
g305
(g1455
g307
Ntp2789
Rp2790
(dp2791
g1459
g1467
sg1460
g1468
sg331
S'c:/marmalade/7.4/s3e/h/std/c++/pthread.h'
p2792
sbsS'iw2d.mkf'
p2793
g305
(g1455
g307
Ntp2794
Rp2795
(dp2796
g1459
g1140
sg1460
g1557
sg331
g1138
sbsS'complex'
p2797
g305
(g1455
g307
Ntp2798
Rp2799
(dp2800
g1459
g1467
sg1460
g1468
sg331
S'c:/marmalade/7.4/s3e/h/std/c++/complex'
p2801
sbsS's3e.icf'
p2802
g305
(g1455
g307
Ntp2803
Rp2804
(dp2805
g1459
g1467
sg1460
g1483
sg331
S'c:/marmalade/7.4/s3e/s3e.icf'
p2806
sbsS'IwVariableBitField.h'
p2807
g305
(g1455
g307
Ntp2808
Rp2809
(dp2810
g1459
g1331
sg1460
g1496
sg331
g1340
sbsS'sem.h'
p2811
g305
(g1455
g307
Ntp2812
Rp2813
(dp2814
g1459
g1467
sg1460
g1608
sg331
S'c:/marmalade/7.4/s3e/h/std/sys/sem.h'
p2815
sbsS'IwGxFontState.h'
p2816
g305
(g1455
g307
Ntp2817
Rp2818
(dp2819
g1459
g1145
sg1460
g1461
sg331
g1156
sbsS'stdio.h'
p2820
g305
(g1455
g307
Ntp2821
Rp2822
(dp2823
g1459
g1467
sg1460
g1489
sg331
S'c:/marmalade/7.4/s3e/h/std/stdio.h'
p2824
sbsS'jmemsys.h'
p2825
g305
(g1455
g307
Ntp2826
Rp2827
(dp2828
g1459
g1044
sg1460
g1552
sg331
g1045
sbsS'ios'
p2829
g305
(g1455
g307
Ntp2830
Rp2831
(dp2832
g1459
g1467
sg1460
g1468
sg331
S'c:/marmalade/7.4/s3e/h/std/c++/ios'
p2833
sbsS'IwTween.h'
p2834
g305
(g1455
g307
Ntp2835
Rp2836
(dp2837
g1459
g1446
sg1460
g1955
sg331
g1447
sbsS'IwGeomFVec4.h'
p2838
g305
(g1455
g307
Ntp2839
Rp2840
(dp2841
g1459
g1167
sg1460
g1517
sg331
g1185
sbsS'stack'
p2842
g305
(g1455
g307
Ntp2843
Rp2844
(dp2845
g1459
g1467
sg1460
g1468
sg331
S'c:/marmalade/7.4/s3e/h/std/c++/stack'
p2846
sbsS'new.h'
p2847
g305
(g1455
g307
Ntp2848
Rp2849
(dp2850
g1459
g1467
sg1460
g1468
sg331
S'c:/marmalade/7.4/s3e/h/std/c++/new.h'
p2851
sbsS's3eEMail.h'
p2852
g305
(g1455
g307
Ntp2853
Rp2854
(dp2855
g1459
g1467
sg1460
g1677
sg331
S'c:/marmalade/7.4/s3e/h/ext/s3eEMail.h'
p2856
sbsS's3eVideo.h'
p2857
g305
(g1455
g307
Ntp2858
Rp2859
(dp2860
g1459
g1467
sg1460
g1483
sg331
S'c:/marmalade/7.4/s3e/h/s3eVideo.h'
p2861
sbsS'pngconf.h'
p2862
g305
(g1455
g307
Ntp2863
Rp2864
(dp2865
g1459
g1033
sg1460
g2174
sg331
g1034
sbsS'pwd.h'
p2866
g305
(g1455
g307
Ntp2867
Rp2868
(dp2869
g1459
g1467
sg1460
g1489
sg331
S'c:/marmalade/7.4/s3e/h/std/pwd.h'
p2870
sbsS'gl3.h'
p2871
g305
(g1455
g307
Ntp2872
Rp2873
(dp2874
g1459
g1467
sg1460
g1769
sg331
S'c:/marmalade/7.4/s3e/h/GLES3/gl3.h'
p2875
sbsS'IwClip.h'
p2876
g305
(g1455
g307
Ntp2877
Rp2878
(dp2879
g1459
g1267
sg1460
g1594
sg331
g1284
sbsS'iwresmanager.config.txt'
p2880
g305
(g1455
g307
Ntp2881
Rp2882
(dp2883
g1459
g1243
sg1460
g2003
sg331
g1259
sbsS'IwGxShaderTechnique.h'
p2884
g305
(g1455
g307
Ntp2885
Rp2886
(dp2887
g1459
g1267
sg1460
g1594
sg331
g1311
sbsS'IwCore.h'
p2888
g305
(g1455
g307
Ntp2889
Rp2890
(dp2891
g1459
g1331
sg1460
g1496
sg331
g1348
sbsS'cfloat'
p2892
g305
(g1455
g307
Ntp2893
Rp2894
(dp2895
g1459
g1467
sg1460
g1468
sg331
S'c:/marmalade/7.4/s3e/h/std/c++/cfloat'
p2896
sbsS'IwGeomMat2D.h'
p2897
g305
(g1455
g307
Ntp2898
Rp2899
(dp2900
g1459
g1167
sg1460
g1517
sg331
g1223
sbsS'IwAllocator.h'
p2901
g305
(g1455
g307
Ntp2902
Rp2903
(dp2904
g1459
g1331
sg1460
g1496
sg331
g1368
sbsS'IwPath.h'
p2905
g305
(g1455
g307
Ntp2906
Rp2907
(dp2908
g1459
g1331
sg1460
g1496
sg331
g1423
sbsS'iwgxfont.mkf'
p2909
g305
(g1455
g307
Ntp2910
Rp2911
(dp2912
g1459
g1162
sg1460
g1461
sg331
g1160
sbsS'IwTexture.h'
p2913
g305
(g1455
g307
Ntp2914
Rp2915
(dp2916
g1459
g1267
sg1460
g1594
sg331
g1276
sbsS'IwGeomVec.h.tpl'
p2917
g305
(g1455
g307
Ntp2918
Rp2919
(dp2920
g1459
g1167
sg1460
g1517
sg331
g1175
sbsS's3eAccelerometer.h'
p2921
g305
(g1455
g307
Ntp2922
Rp2923
(dp2924
g1459
g1467
sg1460
g1483
sg331
S'c:/marmalade/7.4/s3e/h/s3eAccelerometer.h'
p2925
sbsS'setjmp.h'
p2926
g305
(g1455
g307
Ntp2927
Rp2928
(dp2929
g1459
g1467
sg1460
g1489
sg331
S'c:/marmalade/7.4/s3e/h/std/setjmp.h'
p2930
sbsS'IwFile.h'
p2931
g305
(g1455
g307
Ntp2932
Rp2933
(dp2934
g1459
g1331
sg1460
g1496
sg331
g1374
sbsS'IwTextParseable.h'
p2935
g305
(g1455
g307
Ntp2936
Rp2937
(dp2938
g1459
g1331
sg1460
g1496
sg331
g1372
sbsS'istream.h'
p2939
g305
(g1455
g307
Ntp2940
Rp2941
(dp2942
g1459
g1467
sg1460
g1468
sg331
S'c:/marmalade/7.4/s3e/h/std/c++/istream.h'
p2943
sbsS'stdint.h'
p2944
g305
(g1455
g307
Ntp2945
Rp2946
(dp2947
g1459
g1467
sg1460
g1489
sg331
S'c:/marmalade/7.4/s3e/h/std/stdint.h'
p2948
sbsS'semaphore.h'
p2949
g305
(g1455
g307
Ntp2950
Rp2951
(dp2952
g1459
g1467
sg1460
g1489
sg331
S'c:/marmalade/7.4/s3e/h/std/semaphore.h'
p2953
sbsS'ctime'
p2954
g305
(g1455
g307
Ntp2955
Rp2956
(dp2957
g1459
g1467
sg1460
g1468
sg331
S'c:/marmalade/7.4/s3e/h/std/c++/ctime'
p2958
sbsS'sstream'
p2959
g305
(g1455
g307
Ntp2960
Rp2961
(dp2962
g1459
g1467
sg1460
g1468
sg331
S'c:/marmalade/7.4/s3e/h/std/c++/sstream'
p2963
sbsS'IwGeomFBBox.h'
p2964
g305
(g1455
g307
Ntp2965
Rp2966
(dp2967
g1459
g1167
sg1460
g1517
sg331
g1189
sbsS'IwDebugPrim.h'
p2968
g305
(g1455
g307
Ntp2969
Rp2970
(dp2971
g1459
g1267
sg1460
g1594
sg331
g1265
sbsS'IwGxFontContainer.h'
p2972
g305
(g1455
g307
Ntp2973
Rp2974
(dp2975
g1459
g1145
sg1460
g1461
sg331
g1158
sbsS'IwGeomSVec3.h'
p2976
g305
(g1455
g307
Ntp2977
Rp2978
(dp2979
g1459
g1167
sg1460
g1517
sg331
g1201
sbsS'iw2dscenegraphcore.mkf'
p2980
g305
(g1455
g307
Ntp2981
Rp2982
(dp2983
g1459
g1321
sg1460
g2473
sg331
g1319
sbsS'cassert'
p2984
g305
(g1455
g307
Ntp2985
Rp2986
(dp2987
g1459
g1467
sg1460
g1468
sg331
S'c:/marmalade/7.4/s3e/h/std/c++/cassert'
p2988
sbsS'IwGeomFVec3.h'
p2989
g305
(g1455
g307
Ntp2990
Rp2991
(dp2992
g1459
g1167
sg1460
g1517
sg331
g1227
sbsS'streambuf'
p2993
g305
(g1455
g307
Ntp2994
Rp2995
(dp2996
g1459
g1467
sg1460
g1468
sg331
S'c:/marmalade/7.4/s3e/h/std/c++/streambuf'
p2997
sbsS's3eMetrics.h'
p2998
g305
(g1455
g307
Ntp2999
Rp3000
(dp3001
g1459
g1467
sg1460
g1677
sg331
S'c:/marmalade/7.4/s3e/h/ext/s3eMetrics.h'
p3002
sbsS'IwGxFont.h'
p3003
g305
(g1455
g307
Ntp3004
Rp3005
(dp3006
g1459
g1145
sg1460
g1461
sg331
g1150
sbsS's3eSecureStorage.h'
p3007
g305
(g1455
g307
Ntp3008
Rp3009
(dp3010
g1459
g1467
sg1460
g1483
sg331
S'c:/marmalade/7.4/s3e/h/s3eSecureStorage.h'
p3011
sbsS'string.h'
p3012
g305
(g1455
g307
Ntp3013
Rp3014
(dp3015
g1459
g1467
sg1460
g1489
sg331
S'c:/marmalade/7.4/s3e/h/std/string.h'
p3016
sbsS'IwResource.h'
p3017
g305
(g1455
g307
Ntp3018
Rp3019
(dp3020
g1459
g1331
sg1460
g1496
sg331
g1346
sbsS'IwGeomSVec2.h'
p3021
g305
(g1455
g307
Ntp3022
Rp3023
(dp3024
g1459
g1167
sg1460
g1517
sg331
g1221
sbsS'libjpeg.mkf'
p3025
g305
(g1455
g307
Ntp3026
Rp3027
(dp3028
g1459
g1073
sg1460
(lp3029
g1039
asg331
g1071
sbsS'IwGxDebug.h'
p3030
g305
(g1455
g307
Ntp3031
Rp3032
(dp3033
g1459
g1267
sg1460
g1594
sg331
g1290
sbsS'pthread_types.h'
p3034
g305
(g1455
g307
Ntp3035
Rp3036
(dp3037
g1459
g1467
sg1460
g1489
sg331
S'c:/marmalade/7.4/s3e/h/std/pthread_types.h'
p3038
sbsS'iomanip.h'
p3039
g305
(g1455
g307
Ntp3040
Rp3041
(dp3042
g1459
g1467
sg1460
g1468
sg331
S'c:/marmalade/7.4/s3e/h/std/c++/iomanip.h'
p3043
sbsS'IwKeymap.h'
p3044
g305
(g1455
g307
Ntp3045
Rp3046
(dp3047
g1459
g1331
sg1460
g1496
sg331
g1410
sbsS'IwDebug.h'
p3048
g305
(g1455
g307
Ntp3049
Rp3050
(dp3051
g1459
g1331
sg1460
g1496
sg331
g1338
sbsS's3eIOSBackgroundAudio.h'
p3052
g305
(g1455
g307
Ntp3053
Rp3054
(dp3055
g1459
g1467
sg1460
g1677
sg331
S'c:/marmalade/7.4/s3e/h/ext/s3eIOSBackgroundAudio.h'
p3056
sbsS'IwGeomMenu.h'
p3057
g305
(g1455
g307
Ntp3058
Rp3059
(dp3060
g1459
g1167
sg1460
g1517
sg331
g1181
sbsS'IwDivTable.h'
p3061
g305
(g1455
g307
Ntp3062
Rp3063
(dp3064
g1459
g1331
sg1460
g1496
sg331
g1427
sbsS'ctype.h'
p3065
g305
(g1455
g307
Ntp3066
Rp3067
(dp3068
g1459
g1467
sg1460
g1489
sg331
S'c:/marmalade/7.4/s3e/h/std/ctype.h'
p3069
sbsS'IwGeomMat.h'
p3070
g305
(g1455
g307
Ntp3071
Rp3072
(dp3073
g1459
g1167
sg1460
g1517
sg331
g1203
sbsS'IwResGroup.h'
p3074
g305
(g1455
g307
Ntp3075
Rp3076
(dp3077
g1459
g1243
sg1460
g2003
sg331
g1241
sbsS'signal_1.h'
p3078
g305
(g1455
g307
Ntp3079
Rp3080
(dp3081
g1459
g1467
sg1460
g1608
sg331
S'c:/marmalade/7.4/s3e/h/std/sys/signal.h'
p3082
sbsS'functional'
p3083
g305
(g1455
g307
Ntp3084
Rp3085
(dp3086
g1459
g1467
sg1460
g1468
sg331
S'c:/marmalade/7.4/s3e/h/std/c++/functional'
p3087
sbsS'shm.h'
p3088
g305
(g1455
g307
Ntp3089
Rp3090
(dp3091
g1459
g1467
sg1460
g1608
sg331
S'c:/marmalade/7.4/s3e/h/std/sys/shm.h'
p3092
sbsS'IwManagedList.h'
p3093
g305
(g1455
g307
Ntp3094
Rp3095
(dp3096
g1459
g1331
sg1460
g1496
sg331
g1358
sbsS'prctl.h'
p3097
g305
(g1455
g307
Ntp3098
Rp3099
(dp3100
g1459
g1467
sg1460
g1608
sg331
S'c:/marmalade/7.4/s3e/h/std/sys/prctl.h'
p3101
sbsS'un.h'
p3102
g305
(g1455
g307
Ntp3103
Rp3104
(dp3105
g1459
g1467
sg1460
g1608
sg331
S'c:/marmalade/7.4/s3e/h/std/sys/un.h'
p3106
sbsS'temp_defines_debug.h'
p3107
g305
(g1455
g307
Ntp3108
Rp3109
(dp3110
g1459
(lp3111
sg1460
(lp3112
g2660
asg331
S'c:/Users/lab422/Desktop/Sprint 1 Minimal Example/FinalYearProject/build_finalyearproject_vc12/temp_defines_debug.h'
p3113
sbsS'utility'
p3114
g305
(g1455
g307
Ntp3115
Rp3116
(dp3117
g1459
g1467
sg1460
g1468
sg331
S'c:/marmalade/7.4/s3e/h/std/c++/utility'
p3118
sbsS'IwGeomLegacy.h'
p3119
g305
(g1455
g307
Ntp3120
Rp3121
(dp3122
g1459
g1167
sg1460
g1517
sg331
g1209
sbsS'IwTPage.h'
p3123
g305
(g1455
g307
Ntp3124
Rp3125
(dp3126
g1459
g1267
sg1460
g1594
sg331
g1286
sbsS'IwResSerialise.h'
p3127
g305
(g1455
g307
Ntp3128
Rp3129
(dp3130
g1459
g1243
sg1460
g2003
sg331
g1248
sbsS's3eCrypto.h'
p3131
g305
(g1455
g307
Ntp3132
Rp3133
(dp3134
g1459
g1467
sg1460
g1483
sg331
S'c:/marmalade/7.4/s3e/h/s3eCrypto.h'
p3135
sbsS's3eKeyboard.h'
p3136
g305
(g1455
g307
Ntp3137
Rp3138
(dp3139
g1459
g1467
sg1460
g1483
sg331
S'c:/marmalade/7.4/s3e/h/s3eKeyboard.h'
p3140
sbsS'fcntl.h'
p3141
g305
(g1455
g307
Ntp3142
Rp3143
(dp3144
g1459
g1467
sg1460
g1489
sg331
S'c:/marmalade/7.4/s3e/h/std/fcntl.h'
p3145
sbsS'Iw2DSceneGraphCore.h'
p3146
g305
(g1455
g307
Ntp3147
Rp3148
(dp3149
g1459
g1324
sg1460
g2473
sg331
g1325
sbsS'memory.h'
p3150
g305
(g1455
g307
Ntp3151
Rp3152
(dp3153
g1459
g1467
sg1460
g1489
sg331
S'c:/marmalade/7.4/s3e/h/std/memory.h'
p3154
sbsS'pthread.h'
p3155
g305
(g1455
g307
Ntp3156
Rp3157
(dp3158
g1459
g1467
sg1460
g1489
sg331
S'c:/marmalade/7.4/s3e/h/std/pthread.h'
p3159
sbsS'IwGeomIntersect.h'
p3160
g305
(g1455
g307
Ntp3161
Rp3162
(dp3163
g1459
g1167
sg1460
g1517
sg331
g1219
sbsS'algorithm'
p3164
g305
(g1455
g307
Ntp3165
Rp3166
(dp3167
g1459
g1467
sg1460
g1468
sg331
S'c:/marmalade/7.4/s3e/h/std/c++/algorithm'
p3168
sbsS'egl_1.h'
p3169
g305
(g1455
g307
Ntp3170
Rp3171
(dp3172
g1459
g1467
sg1460
g2018
sg331
S'c:/marmalade/7.4/s3e/h/GLES/egl.h'
p3173
sbsS'Iw2DSceneGraph.cpp'
p3174
g305
(g1455
g307
Ntp3175
Rp3176
(dp3177
g1459
g1109
sg1460
g1717
sg331
g1110
sbsS'ostream.h'
p3178
g305
(g1455
g307
Ntp3179
Rp3180
(dp3181
g1459
g1467
sg1460
g1468
sg331
S'c:/marmalade/7.4/s3e/h/std/c++/ostream.h'
p3182
sbsS'stl_user_config.h'
p3183
g305
(g1455
g307
Ntp3184
Rp3185
(dp3186
g1459
g1467
sg1460
g1468
sg331
S'c:/marmalade/7.4/s3e/h/std/c++/stl_user_config.h'
p3187
sbsS'IwProfileMenu.h'
p3188
g305
(g1455
g307
Ntp3189
Rp3190
(dp3191
g1459
g1331
sg1460
g1496
sg331
g1356
sbsS'MarmaladeVersion.h'
p3192
g305
(g1455
g307
Ntp3193
Rp3194
(dp3195
g1459
g1467
sg1460
g1483
sg331
S'c:/marmalade/7.4/s3e/h/MarmaladeVersion.h'
p3196
sbsS'gl3platform.h'
p3197
g305
(g1455
g307
Ntp3198
Rp3199
(dp3200
g1459
g1467
sg1460
g1769
sg331
S'c:/marmalade/7.4/s3e/h/GLES3/gl3platform.h'
p3201
sbsS'ios.h'
p3202
g305
(g1455
g307
Ntp3203
Rp3204
(dp3205
g1459
g1467
sg1460
g1468
sg331
S'c:/marmalade/7.4/s3e/h/std/c++/ios.h'
p3206
sbsS'IwImageHelper.h'
p3207
g305
(g1455
g307
Ntp3208
Rp3209
(dp3210
g1459
g1331
sg1460
g1496
sg331
g1388
sbsS'hash_set'
p3211
g305
(g1455
g307
Ntp3212
Rp3213
(dp3214
g1459
g1467
sg1460
g1468
sg331
S'c:/marmalade/7.4/s3e/h/std/c++/hash_set'
p3215
sbsS'IwGeomFQuat.h'
p3216
g305
(g1455
g307
Ntp3217
Rp3218
(dp3219
g1459
g1167
sg1460
g1517
sg331
g1179
sbsS'jmorecfg.h'
p3220
g305
(g1455
g307
Ntp3221
Rp3222
(dp3223
g1459
g1044
sg1460
g1552
sg331
g1069
sbsS'eglplatform.h'
p3224
g305
(g1455
g307
Ntp3225
Rp3226
(dp3227
g1459
g1467
sg1460
g1801
sg331
S'c:/marmalade/7.4/s3e/h/EGL/eglplatform.h'
p3228
sbsS'cmath'
p3229
g305
(g1455
g307
Ntp3230
Rp3231
(dp3232
g1459
g1467
sg1460
g1468
sg331
S'c:/marmalade/7.4/s3e/h/std/c++/cmath'
p3233
sbsS'math_gcc.h'
p3234
g305
(g1455
g307
Ntp3235
Rp3236
(dp3237
g1459
g1467
sg1460
g1489
sg331
S'c:/marmalade/7.4/s3e/h/std/math_gcc.h'
p3238
sbsS's3eMemory.h'
p3239
g305
(g1455
g307
Ntp3240
Rp3241
(dp3242
g1459
g1467
sg1460
g1483
sg331
S'c:/marmalade/7.4/s3e/h/s3eMemory.h'
p3243
sbsS'strings.h'
p3244
g305
(g1455
g307
Ntp3245
Rp3246
(dp3247
g1459
g1467
sg1460
g1489
sg331
S'c:/marmalade/7.4/s3e/h/std/strings.h'
p3248
sbsS's3eFile.h'
p3249
g305
(g1455
g307
Ntp3250
Rp3251
(dp3252
g1459
g1467
sg1460
g1483
sg331
S'c:/marmalade/7.4/s3e/h/s3eFile.h'
p3253
sbsS'IwGxTypes.h'
p3254
g305
(g1455
g307
Ntp3255
Rp3256
(dp3257
g1459
g1267
sg1460
g1594
sg331
g1313
sbsS'cerrno'
p3258
g305
(g1455
g307
Ntp3259
Rp3260
(dp3261
g1459
g1467
sg1460
g1468
sg331
S'c:/marmalade/7.4/s3e/h/std/c++/cerrno'
p3262
sbsS'resource.h'
p3263
g305
(g1455
g307
Ntp3264
Rp3265
(dp3266
g1459
g1467
sg1460
g1608
sg331
S'c:/marmalade/7.4/s3e/h/std/sys/resource.h'
p3267
sbsS'clocale'
p3268
g305
(g1455
g307
Ntp3269
Rp3270
(dp3271
g1459
g1467
sg1460
g1468
sg331
S'c:/marmalade/7.4/s3e/h/std/c++/clocale'
p3272
sbsS'pvrtextool.mkf'
p3273
g305
(g1455
g307
Ntp3274
Rp3275
(dp3276
g1459
g1100
sg1460
g2050
sg331
g1098
sbsS'csetjmp'
p3277
g305
(g1455
g307
Ntp3278
Rp3279
(dp3280
g1459
g1467
sg1460
g1468
sg331
S'c:/marmalade/7.4/s3e/h/std/c++/csetjmp'
p3281
sbsS'netdb.h'
p3282
g305
(g1455
g307
Ntp3283
Rp3284
(dp3285
g1459
g1467
sg1460
g1489
sg331
S'c:/marmalade/7.4/s3e/h/std/netdb.h'
p3286
sbsS's3eAndroidJNI.h'
p3287
g305
(g1455
g307
Ntp3288
Rp3289
(dp3290
g1459
g1467
sg1460
g1677
sg331
S'c:/marmalade/7.4/s3e/h/ext/s3eAndroidJNI.h'
p3291
sbsS'stdexcept'
p3292
g305
(g1455
g307
Ntp3293
Rp3294
(dp3295
g1459
g1467
sg1460
g1468
sg331
S'c:/marmalade/7.4/s3e/h/std/c++/stdexcept'
p3296
sbsS'math.h'
p3297
g305
(g1455
g307
Ntp3298
Rp3299
(dp3300
g1459
g1467
sg1460
g1489
sg331
S'c:/marmalade/7.4/s3e/h/std/math.h'
p3301
sbsS'stdbool.h'
p3302
g305
(g1455
g307
Ntp3303
Rp3304
(dp3305
g1459
g1467
sg1460
g1489
sg331
S'c:/marmalade/7.4/s3e/h/std/stdbool.h'
p3306
sbsS'uio.h'
p3307
g305
(g1455
g307
Ntp3308
Rp3309
(dp3310
g1459
g1467
sg1460
g1608
sg331
S'c:/marmalade/7.4/s3e/h/std/sys/uio.h'
p3311
sbsS'IwUncopyable.h'
p3312
g305
(g1455
g307
Ntp3313
Rp3314
(dp3315
g1459
g1331
sg1460
g1496
sg331
g1380
sbssS'juice_build_type'
p3316
g4
sS'tests'
p3317
(lp3318
sS'project_name'
p3319
g313
sS'root_file'
p3320
g120
sS'current_root'
p3321
S'c:/Users/lab422/Desktop/Sprint 1 Minimal Example/FinalYearProject'
p3322
sS'dependencies'
p3323
(lp3324
sS'include_paths'
p3325
(lp3326
S'c:/marmalade/7.4/modules/iwutil/h'
p3327
aS'c:/marmalade/7.4/modules/third_party/libjpeg/h'
p3328
aS'c:/marmalade/7.4/modules/third_party/zlib/h'
p3329
aS'c:/marmalade/7.4/modules/third_party/libpng/h'
p3330
aS'c:/marmalade/7.4/modules/iw2dscenegraphcore/h'
p3331
aS'c:/marmalade/7.4/modules/iw2dscenegraph/h'
p3332
aS'c:/marmalade/7.4/modules/iw2d/h'
p3333
aS'c:/marmalade/7.4/modules/iwgx/h'
p3334
aS'c:/marmalade/7.4/modules/iwgl/h'
p3335
aS'c:/marmalade/7.4/modules/iwgeom/h'
p3336
aS'c:/marmalade/7.4/modules/iwresmanager/h'
p3337
aS'c:/marmalade/7.4/extensions/pvrtextool/h'
p3338
aS'c:/marmalade/7.4/modules/iwgxfont/h'
p3339
aS'c:/marmalade/7.4/modules/third_party/tiniconv/source'
p3340
aS'c:/marmalade/7.4/modules/iwtween/h'
p3341
aS'c:/marmalade/7.4/s3e/h'
p3342
aS'c:/marmalade/7.4/s3e/h/ext'
p3343
aS'c:/marmalade/7.4/s3e/h/std'
p3344
aS'c:/marmalade/7.4/s3e/h/std/c++'
p3345
aS'c:/marmalade/7.4/s3e/h/ext_legacy'
p3346
aS'c:/marmalade/7.4/s3e/h/legacy'
p3347
asS'weak_frameworks'
p3348
(lp3349
sS'extprojects'
p3350
(dp3351
sg569
(dp3352
g563
(lp3353
(g78
S'.'
p3354
I0
tp3355
assS'macro_types'
p3356
(dp3357
g504
I1
sg505
I0
sg506
I0
sg507
I0
sg508
I0
sg509
I0
sg510
I0
sg511
I0
sg512
I0
sg514
I0
sg515
I0
sg516
I0
sg517
I0
sg518
I0
sg520
I0
sg522
I0
sg523
I0
sg524
I0
sg525
I0
sg526
I0
sg527
I1
sg528
I0
sg529
I0
sg530
I0
sg531
I0
sg532
I01
sg533
I1
sg534
I0
sg535
I0
sg536
I0
sg537
I0
sg538
I0
sg540
I0
sg541
I0
ssS'commands'
p3358
(lp3359
sg571
(g1020
S'VC12'
p3360
S'X86ARM'
p3361
tp3362
sS'build_libs'
p3363
(dp3364
sg573
g0
sS'frameworks'
p3365
(lp3366
sS'environ'
p3367
(dp3368
sS'target_name_debug'
p3369
g313
sS'builders'
p3370
(dp3371
g563
(dp3372
S'.S'
p3373
(dp3374
S'rvct'
p3375
(lp3376
S'.obj'
p3377
aS'echo ARM Assembling(RVCT) ${SOURCE}...'
p3378
aS'c:/marmalade/7.4/s3e\\rvct\\bin\\armasm -o ${TARGET} ${SOURCE}'
p3379
asg427
(lp3380
g3377
aS'echo ARM Assembling(GCC) ${SOURCE}...'
p3381
aS'c:/marmalade/7.4/s3e\\gcc\\bin\\arm-none-eabi-gcc -c -o ${TARGET} ${SOURCE}'
p3382
asS'ppu'
p3383
(lp3384
S'.a'
p3385
aS'echo PPU Assembling(SNC) ${SOURCE}...'
p3386
aS'c:/marmalade/7.4/s3e\\rvct\\bin\\armasm -o ${TARGET} ${SOURCE}'
p3387
assS'.s'
p3388
g3374
sS'.vp'
p3389
(lp3390
NaS'"C:/Marmalade/7.4/s3e/python/python.exe" "c:/marmalade/7.4/modules/iwgx/tools/compile_shaders.py" ${SOURCE}'
p3391
asssS'extproject_names'
p3392
(lp3393
sbtp3394
.