((dp0
S'arm_dbg_args'
p1
S'-via:"c:\\Users\\Ben\\Desktop\\College\\FYP\\FinalYearProject\\build_finalyearproject_vc11\\FinalYearProject_vc11_arm_debug.via" -qemu'
p2
sS'game-icf'
p3
S''
p4
sS'dist'
p5
NsS'csproj'
p6
g4
sS'module_path_append'
p7
NsS'global_path'
p8
S'c:\\users\\ben\\desktop\\college\\fyp'
p9
sS'system_path'
p10
S'c:\\marmalade\\7.4\\s3e\\makefile_builder'
p11
sS'android_x86_dbg_args'
p12
S'../../tools/DeployTool/DeployTool.exe --dir "c:\\Users\\Ben\\Desktop\\College\\FYP\\FinalYearProject\\build_finalyearproject_vc11"'
p13
sS'no-emit'
p14
NsS'arm-float-abi'
p15
g4
sS'arm_rel_rtsm_args'
p16
S'-via:"c:\\Users\\Ben\\Desktop\\College\\FYP\\FinalYearProject\\build_finalyearproject_vc11\\FinalYearProject_vc11_arm_release.via" -qemu'
p17
sS'amd64'
p18
NsS'line-width'
p19
I80
sS'gcc_dbg_args'
p20
S'-via:"c:\\Users\\Ben\\Desktop\\College\\FYP\\FinalYearProject\\build_finalyearproject_vc11\\FinalYearProject_vc11_gcc_debug.via" -qemu'
p21
sS'android-x86'
p22
NsS'x86_dbg_exe'
p23
S'c:/marmalade/7.4/s3e\\win32\\s3e_simulator_debug.exe'
p24
sS'disable-runtime-checks'
p25
NsS'release'
p26
NsS'no-make'
p27
NsS'xcode-x86-build-settings'
p28
g4
sS'optimise-size'
p29
NsS'output-name-debug'
p30
g4
sS'arm-fpu'
p31
g4
sS'proj_name'
p32
S'FinalYearProject_vc11'
p33
sS'rvct-version'
p34
S'none'
p35
sS'compiler'
p36
g4
sS'execute'
p37
NsS'compile-static'
p38
NsS'msvc-project'
p39
NsS'buildenv'
p40
g4
sS'quick'
p41
NsS'module_path'
p42
NsS'mkf_default'
p43
S's3e-default.mkf'
p44
sS'use-release-std-libs'
p45
NsS'using_perforce'
p46
I00
sS'tizen-x86'
p47
NsS'mips-s3e'
p48
NsS's3e-api-lib-name'
p49
S's3e_api_iwgl'
p50
sS'ios-no-pic'
p51
NsS'shared-arm-lib'
p52
NsS'arm-cpu'
p53
g4
sS'compile-thumb'
p54
NsS'no-ide'
p55
NsS'msvc-version'
p56
S'6.0'
p57
sS'arm'
p58
NsS'builddir'
p59
g4
sS'compile-debug-as-release'
p60
I0
sS'arm-arch'
p61
g4
sS'brief'
p62
NsS'dll'
p63
NsS'buildenv-toolset'
p64
g4
sS'version'
p65
NsS'ccache'
p66
I0
sS'offline'
p67
NsS'ios-version'
p68
g4
sS'hub_data'
p69
g4
sS'fake_vc_call'
p70
NsS'jobs'
p71
I0
sS'linkflags'
p72
NsS'debug'
p73
NsS'xcode-build-order'
p74
g4
sS'gcc_rel_rtsm_args'
p75
S'-via:"c:\\Users\\Ben\\Desktop\\College\\FYP\\FinalYearProject\\build_finalyearproject_vc11\\FinalYearProject_vc11_gcc_release.via" -qemu'
p76
sS'done_defaults'
p77
I1
sS'path'
p78
NsS's3e-data-dir'
p79
S'c:/Users/Ben/Desktop/College/FYP/FinalYearProject\\data'
p80
sS'enable-exceptions'
p81
NsS'osx-dll'
p82
NsS'extension'
p83
g4
sS'no-vc6'
p84
NsS'non-interactive'
p85
NsS'win32-console'
p86
NsS'dist-format'
p87
g4
sS's3e-force-arch'
p88
NsS'dump_defines'
p89
NsS'use_prebuilt'
p90
NsS'gcc-version'
p91
g4
sS'x86_dbg_args'
p92
S'-via:"c:\\Users\\Ben\\Desktop\\College\\FYP\\FinalYearProject\\build_finalyearproject_vc11\\FinalYearProject_vc11_debug.via"'
p93
sS'tizen_x86_dbg_args'
p94
g13
sS'arm-debugger'
p95
g4
sS'use_temp_extension'
p96
NsS'verbose'
p97
I0
sS'log'
p98
NsS'no-strip'
p99
NsS'rebuild'
p100
NsS'win32-simulator-dll'
p101
NsS'strict'
p102
NsS'mips_dbg_args'
p103
g13
sS'enable-global-path'
p104
NsS'cflags'
p105
NsS'dist-dir'
p106
g4
sS'xcode-arm-build-settings'
p107
g4
sS'jflags'
p108
NsS'csprojSDKRefs'
p109
g4
sS'tizen_x86_rel_exe'
p110
S'c:\\marmalade\\7.4\\s3e\\makefile_builder\\tool_launcher.exe'
p111
sS'test-assets'
p112
g4
sS'distcc'
p113
NsS'external-compiler'
p114
NsS'no-distcc'
p115
NsS'preinclude'
p116
NsS'using_sdk'
p117
I01
sS'nologo'
p118
NsS'warn-level'
p119
I2
sS'mips_dbg_exe'
p120
g111
sS'mkb_in'
p121
S'c:/Users/Ben/Desktop/College/FYP/FinalYearProject/FinalYearProject.mkb'
p122
sS'tizen_x86_dbg_exe'
p123
g111
sS'arm_dbg_exe'
p124
S'c:/marmalade/7.4/s3e\\bin\\armdebug.exe'
p125
sS'csprojDLLRef'
p126
NsS'tizen_x86_rel_args'
p127
g13
sS'android_x86_dbg_exe'
p128
g111
sS'test-config'
p129
g4
sS'list-targets'
p130
NsS'arm_rel_exe'
p131
g111
sS'arm_rel_args'
p132
g13
sS'makedeps'
p133
NsS'android_x86_rel_exe'
p134
g111
sS'default-buildenv'
p135
S'VC11'
p136
sS'x86_rel_exe'
p137
g24
sS'preprocess-java'
p138
NsS'mips_rel_args'
p139
g13
sS'defines'
p140
NsS'lib'
p141
NsS'global_argv'
p142
(lp143
S'C:\\Marmalade\\7.4\\s3e\\makefile_builder\\mkb.py'
p144
aS'C:\\Users\\Ben\\Desktop\\College\\FYP\\FinalYearProject\\FinalYearProject.mkb'
p145
asS'make'
p146
NsS'optimise-speed'
p147
NsS'internal'
p148
NsS'enable-stdinc'
p149
NsS'deploy-only'
p150
NsS'x86'
p151
NsS'deploy'
p152
g4
sS'x86_run_exe'
p153
S'c:/marmalade/7.4/s3e\\win32\\s3e_console.exe'
p154
sS'x86_rel_args'
p155
S'-via:"c:\\Users\\Ben\\Desktop\\College\\FYP\\FinalYearProject\\build_finalyearproject_vc11\\FinalYearProject_vc11_release.via"'
p156
sS'gcc_rel_args'
p157
g13
sS'mips'
p158
NsS'xcode-build-settings'
p159
g4
sS'incredibuild'
p160
NsS'strict-compile'
p161
NsS'use-auto-subdirs'
p162
NsS'mips_rel_exe'
p163
g111
sS'android_x86_rel_args'
p164
g13
sS'app-icf'
p165
g4
sS'deployargs'
p166
NsS'iosnativedebug'
p167
NsS'mkf_in'
p168
(lp169
S'c:\\marmalade\\7.4\\s3e\\s3e-default.mkf'
p170
aS'c:\\marmalade\\7.4\\modules\\iwutil\\iwutil.mkf'
p171
aS'c:\\marmalade\\7.4\\modules\\third_party\\libjpeg\\libjpeg.mkf'
p172
aS'c:\\marmalade\\7.4\\modules\\third_party\\libpng\\libpng.mkf'
p173
aS'c:\\marmalade\\7.4\\modules\\third_party\\zlib\\zlib.mkf'
p174
aS'c:\\marmalade\\7.4\\modules\\iw2dscenegraphcore\\iw2dscenegraphcore.mkf'
p175
aS'c:\\marmalade\\7.4\\modules\\iw2dscenegraph\\iw2dscenegraph.mkf'
p176
aS'c:\\marmalade\\7.4\\modules\\iw2d\\iw2d.mkf'
p177
aS'c:\\marmalade\\7.4\\modules\\iwgx\\iwgx.mkf'
p178
aS'c:\\marmalade\\7.4\\modules\\iwgl\\iwgl.mkf'
p179
aS'c:\\marmalade\\7.4\\modules\\iwgeom\\iwgeom.mkf'
p180
aS'c:\\marmalade\\7.4\\modules\\iwresmanager\\iwresmanager.mkf'
p181
aS'c:\\marmalade\\7.4\\extensions\\pvrtextool\\pvrtextool.mkf'
p182
aS'c:\\marmalade\\7.4\\modules\\iwgxfont\\iwgxfont.mkf'
p183
aS'c:\\marmalade\\7.4\\modules\\third_party\\tiniconv\\tiniconv.mkf'
p184
aS'c:\\users\\ben\\desktop\\college\\fyp\\finalyearproject\\soundengine\\soundengine.mkf'
p185
aS'c:\\users\\ben\\desktop\\college\\fyp\\finalyearproject\\box2d\\box2d.mkf'
p186
aS'c:\\marmalade\\7.4\\modules\\third_party\\curl\\curl.mkf'
p187
aS'c:\\marmalade\\7.4\\modules\\third_party\\openssl\\openssl.mkf'
p188
aS'c:\\marmalade\\7.4\\modules\\iwtween\\iwtween.mkf'
p189
asS'strict-mkb'
p190
NsS'executeargs'
p191
NsS'clean'
p192
NsS'no-asm'
p193
NsS'output-name'
p194
g4
sS'no-modules'
p195
NsS'find_define'
p196
g4
s(dp197
S'c:\\marmalade\\7.4\\s3e\\makefile_builder\\plugins\\Emitter.pyc'
p198
F1415334512.0
sS'c:\\marmalade\\7.4\\s3e\\makefile_builder\\templates\\ws8_ext_sln.pyc'
p199
F1415334512.0
sS'c:\\marmalade\\7.4\\s3e\\makefile_builder\\templates\\MainWindow.xib'
p200
F1415332874.0
sS'c:\\marmalade\\7.4\\s3e\\makefile_builder\\templates\\template.suo'
p201
F1415332874.0
sS'c:\\marmalade\\7.4\\s3e\\makefile_builder\\plugins\\xcode4_schememanagement.py'
p202
F1415332874.0
sS'c:\\marmalade\\7.4\\s3e\\makefile_builder\\templates\\ws81_sln.pyc'
p203
F1415334512.0
sS'c:\\marmalade\\7.4\\s3e\\makefile_builder\\templates\\win8_ext_csproj.pyc'
p204
F1415334512.0
sS'c:\\marmalade\\7.4\\s3e\\makefile_builder\\mkb_option.pyc'
p205
F1415334512.0
sS'c:\\marmalade\\7.4\\s3e\\makefile_builder\\plugins\\s3e_xcode.py'
p206
F1415332874.0
sS'c:\\marmalade\\7.4\\s3e\\makefile_builder\\plugins\\s3e_scons.pyc'
p207
F1415334512.0
sS'c:\\marmalade\\7.4\\s3e\\makefile_builder\\templates\\win8_vcxproj.pyc'
p208
F1415334512.0
sS'c:\\marmalade\\7.4\\s3e\\makefile_builder\\plugins\\null.pyc'
p209
F1415334512.0
sS'c:\\marmalade\\7.4\\s3e\\makefile_builder\\templates\\vc8_user.pyc'
p210
F1415334512.0
sS'c:\\marmalade\\7.4\\s3e\\makefile_builder\\templates\\wp81_ext_sln.pyc'
p211
F1415334512.0
sS'c:\\marmalade\\7.4\\s3e\\makefile_builder\\templates\\scons.pyc'
p212
F1415334512.0
sS'c:\\marmalade\\7.4\\s3e\\makefile_builder\\templates\\wp8_ext_csproj.pyc'
p213
F1415334512.0
sS'c:\\marmalade\\7.4\\s3e\\makefile_builder\\templates\\xcode_pbxuser.py'
p214
F1415332874.0
sS'c:\\marmalade\\7.4\\s3e\\makefile_builder\\plugins\\s3e_qmake.py'
p215
F1415332874.0
sS'c:\\marmalade\\7.4\\s3e\\makefile_builder\\plugins\\iphone.pyc'
p216
F1415334512.0
sS'c:\\marmalade\\7.4\\s3e\\makefile_builder\\templates\\ws81_ext_csproj.pyc'
p217
F1415334512.0
sS'c:\\marmalade\\7.4\\s3e\\makefile_builder\\templates\\vc6_opt.pyc'
p218
F1415334512.0
sS'c:\\marmalade\\7.4\\s3e\\makefile_builder\\plugins\\s3e_win8.pyc'
p219
F1415334512.0
sS'c:\\marmalade\\7.4\\s3e\\makefile_builder\\mkb_main.pyc'
p220
F1415334512.0
sS'c:\\marmalade\\7.4\\s3e\\makefile_builder\\templates\\wp8_csproj.pyc'
p221
F1415334512.0
sS'c:\\marmalade\\7.4\\s3e\\makefile_builder\\templates\\win32_vcproj.pyc'
p222
F1415334512.0
sS'c:\\marmalade\\7.4\\s3e\\makefile_builder\\templates\\win8_sln.pyc'
p223
F1415334512.0
sS'c:\\marmalade\\7.4\\s3e\\makefile_builder\\mkb_launcher.exe'
p224
F1415333332.0
sS'c:\\marmalade\\7.4\\s3e\\makefile_builder\\plugins\\osx_xcode.pyc'
p225
F1415334512.0
sS'c:\\marmalade\\7.4\\s3e\\makefile_builder\\plugins'
p226
F1418148458.4072645
sS'c:\\marmalade\\7.4\\s3e\\makefile_builder\\templates\\wp8_csproj_user.pyc'
p227
F1415334512.0
sS'c:\\marmalade\\7.4\\s3e\\makefile_builder\\plugins\\win32_vc6.pyc'
p228
F1415334512.0
sS'c:\\marmalade\\7.4\\s3e\\makefile_builder\\plugins\\s3e_vc6.pyc'
p229
F1415334512.0
sS'c:\\marmalade\\7.4\\s3e\\makefile_builder\\templates\\vc10_user.pyc'
p230
F1415334512.0
sS'c:\\marmalade\\7.4\\s3e\\makefile_builder\\docs\\deprecated.defines.txt'
p231
F1415332874.0
sS'c:\\marmalade\\7.4\\s3e\\makefile_builder\\templates\\wp81_csproj_user.pyc'
p232
F1415334512.0
sS'c:\\marmalade\\7.4\\s3e\\makefile_builder\\templates\\ws81_ext_sln.pyc'
p233
F1415334512.0
sS'c:\\marmalade\\7.4\\s3e\\makefile_builder\\templates\\make.py'
p234
F1415332874.0
sS'c:\\marmalade\\7.4\\s3e\\makefile_builder\\plugins\\wp81_wp81.pyc'
p235
F1415334512.0
sS'c:\\marmalade\\7.4\\s3e\\makefile_builder\\plugins\\s3e_qmake.pyc'
p236
F1418148458.0634904
sS'c:\\marmalade\\7.4\\s3e\\makefile_builder\\templates\\mips_linker_script'
p237
F1415332874.0
sS'c:\\marmalade\\7.4\\s3e\\makefile_builder\\plugins\\deploy.pyc'
p238
F1415334512.0
sS'c:\\marmalade\\7.4\\s3e\\makefile_builder\\plugins\\ws81_ws81.pyc'
p239
F1415334512.0
sS'c:\\marmalade\\7.4\\s3e\\makefile_builder\\mkb.py'
p240
F1415332874.0
sS'c:\\marmalade\\7.4\\s3e\\makefile_builder\\docs\\options.txt'
p241
F1415332874.0
sS'c:\\marmalade\\7.4\\s3e\\makefile_builder\\mkb_parser.pyc'
p242
F1415334512.0
sS'c:\\marmalade\\7.4\\s3e\\makefile_builder\\templates\\qmake_user.py'
p243
F1415332874.0
sS'c:\\marmalade\\7.4\\s3e\\makefile_builder\\docs\\mkb.defines.txt'
p244
F1415332874.0
sS'c:\\marmalade\\7.4\\s3e\\makefile_builder\\deployment.pyc'
p245
F1415334512.0
sS'c:\\marmalade\\7.4\\s3e\\makefile_builder\\plugins\\wp8_wp8.pyc'
p246
F1415334512.0
sS'c:\\marmalade\\7.4\\s3e\\makefile_builder\\plugins\\linux_scons.pyc'
p247
F1415334512.0
sS'c:\\marmalade\\7.4\\s3e\\makefile_builder\\plugins\\s3e_web.pyc'
p248
F1415334512.0
sS'c:\\marmalade\\7.4\\s3e\\makefile_builder\\plugins\\S3EEmitter.pyc'
p249
F1415334512.0
sS'c:\\marmalade\\7.4\\s3e\\makefile_builder\\plugins\\Win8Emitter.pyc'
p250
F1415334512.0
sS'c:\\marmalade\\7.4\\s3e\\makefile_builder\\templates\\xcode4_arm.xcscheme'
p251
F1415332874.0
sS'c:\\marmalade\\7.4\\s3e\\makefile_builder\\plugins\\vc6_utils.pyc'
p252
F1415334512.0
sS'c:\\marmalade\\7.4\\s3e\\makefile_builder\\templates\\wp8_vcxproj.pyc'
p253
F1415334512.0
sS'c:\\marmalade\\7.4\\s3e\\makefile_builder\\templates\\xcode4.xcscheme'
p254
F1415332874.0
sS'c:\\marmalade\\7.4\\s3e\\makefile_builder\\plugins\\MakeEmitter.pyc'
p255
F1415334512.0
sS'c:\\marmalade\\7.4\\s3e\\makefile_builder\\plugins\\java.pyc'
p256
F1415334512.0
sS'c:\\marmalade\\7.4\\s3e\\makefile_builder\\plugins\\XcodeEmitter.pyc'
p257
F1418148457.5164497
sS'c:\\marmalade\\7.4\\s3e\\makefile_builder\\plugins\\XcodeEmitter.py'
p258
F1415332874.0
sS'c:\\marmalade\\7.4\\s3e\\makefile_builder\\mkb_globals.pyc'
p259
F1415334512.0
sS'c:\\marmalade\\7.4\\s3e\\makefile_builder\\tool_launcher.exe'
p260
F1415333332.0
sS'c:\\marmalade\\7.4\\s3e\\makefile_builder\\mkb_util.pyc'
p261
F1415334512.0
sS'c:\\marmalade\\7.4\\s3e\\makefile_builder\\plugins\\xcode4_schememanagement.pyc'
p262
F1418148457.57898
sS'c:\\marmalade\\7.4\\s3e\\makefile_builder\\templates\\ws8_sln.pyc'
p263
F1415334512.0
sS'c:\\marmalade\\7.4\\s3e\\makefile_builder\\templates\\win32_sln.pyc'
p264
F1415334512.0
sS'c:\\marmalade\\7.4\\s3e\\makefile_builder\\templates\\wp81_ext_csproj.pyc'
p265
F1415334512.0
sS'c:\\marmalade\\7.4\\s3e\\makefile_builder\\plugins\\s3e_wp81.pyc'
p266
F1415334512.0
sS'c:\\marmalade\\7.4\\s3e\\makefile_builder\\plugins\\s3e_wp8.pyc'
p267
F1415334512.0
sS'c:\\marmalade\\7.4\\s3e\\makefile_builder\\templates\\qmake.py'
p268
F1415332874.0
sS'c:\\marmalade\\7.4\\s3e\\makefile_builder\\templates\\gdb_start.txt'
p269
F1415332874.0
sS'c:\\marmalade\\7.4\\s3e\\makefile_builder\\templates'
p270
F1417645594.9650323
sS'c:\\marmalade\\7.4\\s3e\\makefile_builder\\templates\\ws8_ext_csproj.pyc'
p271
F1415334512.0
sS'c:\\marmalade\\7.4\\s3e\\makefile_builder\\templates\\win8_csproj_user.pyc'
p272
F1415334512.0
sS'c:\\marmalade\\7.4\\s3e\\makefile_builder\\templates\\vc7_suo.pyc'
p273
F1415334512.0
sS'c:\\marmalade\\7.4\\s3e\\makefile_builder\\plugins\\VisualStudioEmitter.pyc'
p274
F1415334512.0
sS'c:\\marmalade\\7.4\\s3e\\makefile_builder\\templates\\linker_script'
p275
F1415332874.0
sS'c:\\marmalade\\7.4\\s3e\\makefile_builder\\docs\\deprecated.options.txt'
p276
F1415332874.0
sS'c:\\marmalade\\7.4\\s3e\\makefile_builder\\plugins\\s3e_xcode.pyc'
p277
F1418148458.4072645
sS'c:\\marmalade\\7.4\\s3e\\makefile_builder\\plugins\\s3e_ws8.pyc'
p278
F1415334512.0
sS'c:\\marmalade\\7.4\\s3e\\makefile_builder\\templates\\xcode4_DeployTool.xcscheme'
p279
F1415332874.0
sS'c:\\marmalade\\7.4\\s3e\\makefile_builder\\templates\\ws8_csproj_user.pyc'
p280
F1415334512.0
sS'c:\\marmalade\\7.4\\s3e\\makefile_builder\\plugins\\osx_scons.pyc'
p281
F1415334512.0
sS'c:\\marmalade\\7.4\\s3e\\makefile_builder\\templates\\ws81_csproj.pyc'
p282
F1415334512.0
sS'c:\\marmalade\\7.4\\s3e\\makefile_builder\\templates\\wp8_sln.pyc'
p283
F1415334512.0
sS'c:\\marmalade\\7.4\\s3e\\makefile_builder\\docs'
p284
F1417645595.0951257
sS'c:\\marmalade\\7.4\\s3e\\makefile_builder\\plugins\\ws8_ws8.pyc'
p285
F1415334512.0
sS'c:\\marmalade\\7.4\\s3e\\makefile_builder\\docs\\deployment_options.txt'
p286
F1415332874.0
sS'c:\\marmalade\\7.4\\s3e\\makefile_builder\\templates\\win32_vcxproj_filters.pyc'
p287
F1415334512.0
sS'c:\\marmalade\\7.4\\s3e\\makefile_builder\\templates\\win32_dsw.pyc'
p288
F1415334512.0
sS'c:\\marmalade\\7.4\\s3e\\makefile_builder\\plugins\\s3e_ws81.pyc'
p289
F1415334512.0
sS'c:\\marmalade\\7.4\\s3e\\makefile_builder\\plugins\\SConsEmitter.pyc'
p290
F1415334512.0
sS'c:\\marmalade\\7.4\\s3e\\makefile_builder\\templates\\wp81_vcxproj.pyc'
p291
F1415334512.0
sS'c:\\marmalade\\7.4\\s3e\\makefile_builder\\plugins\\win8_utils.pyc'
p292
F1415334512.0
sS'c:\\marmalade\\7.4\\s3e\\makefile_builder\\templates\\template.opt'
p293
F1415332874.0
sS'c:\\marmalade\\7.4\\s3e\\makefile_builder\\plugins\\vc7_utils.pyc'
p294
F1415334512.0
sS'c:\\marmalade\\7.4\\s3e\\makefile_builder\\templates\\win32_dsp.pyc'
p295
F1415334512.0
sS'c:\\marmalade\\7.4\\s3e\\makefile_builder\\plugins\\s3e_make.pyc'
p296
F1415334512.0
sS'c:\\marmalade\\7.4\\s3e\\makefile_builder\\templates\\rvct_linker_script'
p297
F1415332874.0
sS'c:\\marmalade\\7.4\\s3e\\makefile_builder\\templates\\win8_csproj.pyc'
p298
F1415334512.0
sS'c:\\marmalade\\7.4\\s3e\\makefile_builder\\templates\\xcode.py'
p299
F1415332874.0
sS'c:\\marmalade\\7.4\\s3e\\makefile_builder\\templates\\ws8_vcxproj.pyc'
p300
F1415334512.0
sS'c:\\marmalade\\7.4\\s3e\\makefile_builder\\templates\\wp81_csproj.pyc'
p301
F1415334512.0
sS'c:\\marmalade\\7.4\\s3e\\makefile_builder\\mkb_upstream.pyc'
p302
F1415334512.0
sS'c:\\marmalade\\7.4\\s3e\\makefile_builder\\templates\\win32_vcxproj.pyc'
p303
F1415334512.0
sS'c:\\marmalade\\7.4\\s3e\\makefile_builder\\templates\\ws8_csproj.pyc'
p304
F1415334512.0
sS'c:\\marmalade\\7.4\\s3e\\makefile_builder\\docs\\parse_options.pyc'
p305
F1415334514.0
sS'c:\\marmalade\\7.4\\s3e\\makefile_builder\\templates\\Info.plist'
p306
F1415332874.0
sS'c:\\marmalade\\7.4\\s3e\\makefile_builder\\templates\\wp81_sln.pyc'
p307
F1415334512.0
sS'c:\\marmalade\\7.4\\s3e\\makefile_builder\\templates\\ws81_csproj_user.pyc'
p308
F1415334512.0
sS'c:\\marmalade\\7.4\\s3e\\makefile_builder\\templates\\ws81_vcxproj.pyc'
p309
F1415334512.0
sccopy_reg
_reconstructor
p310
(cmkb_main
MkbFile
p311
c__builtin__
object
p312
Ntp313
Rp314
(dp315
g5
(lp316
sS'target_name'
p317
S'FinalYearProject'
p318
sS'current_file'
p319
g122
sS'package_path'
p320
(lp321
sS'post_build'
p322
(lp323
(lp324
S'c:/marmalade/7.4/s3e/tools'
p325
aS'C:\\Marmalade\\7.4\\s3e\\python\\python.exe .\\process_map.py "$(TargetPath)"'
p326
aa(S'c:\\marmalade\\7.4\\s3e\\bin'
p327
S'"s3e_plink" -l "$(TargetPath)" '
p328
g151
tp329
asS'librarys'
p330
(lp331
g310
(cmkb_main
Library
p332
g312
Ntp333
Rp334
(dp335
S'name'
p336
S'vc6_compat.lib'
p337
sS'expand_name'
p338
I00
sS'include_spec_rvct_objs'
p339
(lp340
sS'include_all_objs'
p341
I00
sS'share_arm'
p342
I00
sS'arch'
p343
S'x86'
p344
sS'nodebug'
p345
I00
sg36
Nsbag310
(g332
g312
Ntp346
Rp347
(dp348
g336
S'iwutil'
p349
sg338
I01
sg339
(lp350
sg341
Nsg342
Nsg343
Nsg345
I00
sg36
Nsbag310
(g332
g312
Ntp351
Rp352
(dp353
g336
S'jpeg'
p354
sg338
I01
sg339
g350
sg341
Nsg342
Nsg343
Nsg345
I00
sg36
Nsbag310
(g332
g312
Ntp355
Rp356
(dp357
g336
S'z'
p358
sg338
I01
sg339
g350
sg341
Nsg342
Nsg343
Nsg345
I00
sg36
Nsbag310
(g332
g312
Ntp359
Rp360
(dp361
g336
S'png'
p362
sg338
I01
sg339
g350
sg341
Nsg342
Nsg343
Nsg345
I00
sg36
Nsbag310
(g332
g312
Ntp363
Rp364
(dp365
g336
S'iw2d'
p366
sg338
I01
sg339
g350
sg341
Nsg342
Nsg343
Nsg345
I00
sg36
Nsbag310
(g332
g312
Ntp367
Rp368
(dp369
g336
S'ATI_Compress_MT_VC7.lib'
p370
sg338
I00
sg339
g350
sg341
Nsg342
Nsg343
S'x86'
p371
sg345
I00
sg36
Nsbag310
(g332
g312
Ntp372
Rp373
(dp374
g336
S'iwgx'
p375
sg338
I01
sg339
g350
sg341
Nsg342
Nsg343
Nsg345
I00
sg36
Nsbag310
(g332
g312
Ntp376
Rp377
(dp378
g336
S'iwgl'
p379
sg338
I01
sg339
g350
sg341
Nsg342
Nsg343
Nsg345
I00
sg36
Nsbag310
(g332
g312
Ntp380
Rp381
(dp382
g336
S'iwgeom'
p383
sg338
I01
sg339
g350
sg341
Nsg342
Nsg343
Nsg345
I00
sg36
Nsbag310
(g332
g312
Ntp384
Rp385
(dp386
g336
S'iwresmanager'
p387
sg338
I01
sg339
g350
sg341
Nsg342
Nsg343
Nsg345
I00
sg36
Nsbag310
(g332
g312
Ntp388
Rp389
(dp390
g336
S'iwgxfont'
p391
sg338
I01
sg339
g350
sg341
Nsg342
Nsg343
Nsg345
I00
sg36
Nsbag310
(g332
g312
Ntp392
Rp393
(dp394
g336
S'tiniconv'
p395
sg338
I01
sg339
g350
sg341
Nsg342
Nsg343
Nsg345
I00
sg36
Nsbag310
(g332
g312
Ntp396
Rp397
(dp398
g336
S'openssl'
p399
sg338
I01
sg339
g350
sg341
Nsg342
Nsg343
Nsg345
I00
sg36
Nsbag310
(g332
g312
Ntp400
Rp401
(dp402
g336
S'curl'
p403
sg338
I01
sg339
g350
sg341
Nsg342
Nsg343
Nsg345
I00
sg36
Nsbag310
(g332
g312
Ntp404
Rp405
(dp406
g336
S's3e_cpp'
p407
sg338
I01
sg339
g340
sg341
I00
sg342
I00
sg343
Nsg345
I00
sg36
Nsbag310
(g332
g312
Ntp408
Rp409
(dp410
g336
S's3e'
p411
sg338
I01
sg339
(lp412
S'iwcrt.o'
p413
asg341
I00
sg342
I00
sg343
Nsg345
I00
sg36
Nsbag310
(g332
g312
Ntp414
Rp415
(dp416
g336
g50
sg338
I01
sg339
g340
sg341
I00
sg342
I00
sg343
S'x86'
p417
sg345
I01
sg36
Nsbag310
(g332
g312
Ntp418
Rp419
(dp420
g336
g50
sg338
I01
sg339
g340
sg341
I00
sg342
I00
sg343
S'!x86'
p421
sg345
I01
sg36
Nsbag310
(g332
g312
Ntp422
Rp423
(dp424
g336
S'stdc++'
p425
sg338
I00
sg339
g340
sg341
I00
sg342
I00
sg343
S'mips'
p426
sg345
I00
sg36
Nsbag310
(g332
g312
Ntp427
Rp428
(dp429
g336
S'c'
p430
sg338
I00
sg339
g340
sg341
I00
sg342
I00
sg343
S'mips'
p431
sg345
I00
sg36
Nsbag310
(g332
g312
Ntp432
Rp433
(dp434
g336
S'm'
p435
sg338
I00
sg339
g340
sg341
I00
sg342
I00
sg343
S'mips'
p436
sg345
I00
sg36
Nsbag310
(g332
g312
Ntp437
Rp438
(dp439
g336
S'gcc'
p440
sg338
I00
sg339
g340
sg341
I00
sg342
I00
sg343
S'mips'
p441
sg345
I00
sg36
Nsbag310
(g332
g312
Ntp442
Rp443
(dp444
g336
S'stdc++'
p445
sg338
I00
sg339
g340
sg341
I00
sg342
I00
sg343
S'gcc_x86_android'
p446
sg345
I00
sg36
Nsbag310
(g332
g312
Ntp447
Rp448
(dp449
g336
g430
sg338
I00
sg339
g340
sg341
I00
sg342
I00
sg343
S'gcc_x86_android'
p450
sg345
I00
sg36
Nsbag310
(g332
g312
Ntp451
Rp452
(dp453
g336
g435
sg338
I00
sg339
g340
sg341
I00
sg342
I00
sg343
S'gcc_x86_android'
p454
sg345
I00
sg36
Nsbag310
(g332
g312
Ntp455
Rp456
(dp457
g336
g440
sg338
I00
sg339
g340
sg341
I00
sg342
I00
sg343
S'gcc_x86_android'
p458
sg345
I00
sg36
NsbasS'library_paths'
p459
(lp460
g310
(cmkb_main
LibraryPath
p461
g312
Ntp462
Rp463
(dp464
S'expand_path'
p465
I01
sg336
S'c:/marmalade/7.4/modules/iwutil'
p466
sbag310
(g461
g312
Ntp467
Rp468
(dp469
g465
I01
sg336
S'c:/marmalade/7.4/modules/third_party/libjpeg'
p470
sbag310
(g461
g312
Ntp471
Rp472
(dp473
g465
I01
sg336
S'c:/marmalade/7.4/modules/third_party/zlib'
p474
sbag310
(g461
g312
Ntp475
Rp476
(dp477
g465
I01
sg336
S'c:/marmalade/7.4/modules/third_party/libpng'
p478
sbag310
(g461
g312
Ntp479
Rp480
(dp481
g465
I01
sg336
S'c:/marmalade/7.4/modules/iw2d'
p482
sbag310
(g461
g312
Ntp483
Rp484
(dp485
g465
I00
sg336
S'c:/marmalade/7.4/modules/iwgx/atitools'
p486
sbag310
(g461
g312
Ntp487
Rp488
(dp489
g465
I01
sg336
S'c:/marmalade/7.4/modules/iwgx'
p490
sbag310
(g461
g312
Ntp491
Rp492
(dp493
g465
I01
sg336
S'c:/marmalade/7.4/modules/iwgl'
p494
sbag310
(g461
g312
Ntp495
Rp496
(dp497
g465
I01
sg336
S'c:/marmalade/7.4/modules/iwgeom'
p498
sbag310
(g461
g312
Ntp499
Rp500
(dp501
g465
I01
sg336
S'c:/marmalade/7.4/modules/iwresmanager'
p502
sbag310
(g461
g312
Ntp503
Rp504
(dp505
g465
I01
sg336
S'c:/marmalade/7.4/modules/iwgxfont'
p506
sbag310
(g461
g312
Ntp507
Rp508
(dp509
g465
I01
sg336
S'c:/marmalade/7.4/modules/third_party/tiniconv'
p510
sbag310
(g461
g312
Ntp511
Rp512
(dp513
g465
I01
sg336
S'c:/marmalade/7.4/modules/third_party/openssl'
p514
sbag310
(g461
g312
Ntp515
Rp516
(dp517
g465
I01
sg336
S'c:/marmalade/7.4/modules/third_party/curl'
p518
sbag310
(g461
g312
Ntp519
Rp520
(dp521
g465
I01
sg336
S'c:/marmalade/7.4/s3e'
p522
sbasS'macros'
p523
(dp524
S'IW_USE_CALLSTACK'
p525
NsS'IW_MKF_IWGEOM'
p526
NsS'I3D_PLATFORM_S3E'
p527
NsS'IW_MKF_IW2DSCENEGRAPHCORE'
p528
NsS'IW_ASSERTION_CHANNEL_2D'
p529
S'1'
p530
sS'IW_MKF_LIBJPEG'
p531
NsS'I3D_OS_S3E'
p532
NsS'IW_MKF_PVRTEXTOOL'
p533
NsS'IW_MKF_TINICONV'
p534
NsS'IW_APP_VERSION'
p535
S'"1.0"'
p536
sS'__S3E__'
p537
NsS'IW_MKF_IWRESMANAGER'
p538
NsS'IW_MKF_IWUTIL'
p539
NsS'IW_PLATFORM_S3E'
p540
NsS'IW_MKF_CURL'
p541
NsS'IW_APP_NAME'
p542
S'"FinalYearProject"'
p543
sS'IW_MKF_S3E_DEFAULT'
p544
NsS'IW_MKF_IWGXFONT'
p545
NsS'IW_MKF_IWTWEEN'
p546
NsS'IW_MKF_ZLIB'
p547
NsS'IW_MKF_IWGX'
p548
NsS'IW_MKF_IW2DSCENEGRAPH'
p549
NsS'IW_MKF_SOUNDENGINE'
p550
NsS'IW_USE_ASSERTIONS'
p551
NsS'_CRT_SECURE_NO_DEPRECATE'
p552
NsS'IW_MKF_IWGL'
p553
NsS'IW_MKF_LIBPNG'
p554
NsS'IW_TRACE_CHANNEL_IW_2DSCENEGRAPH'
p555
g530
sS'IW_DEBUG'
p556
NsS'IW_USE_TRACING'
p557
NsS'IW_ASSERTION_CHANNEL_IW_2DSCENEGRAPH'
p558
g530
sS'IW_TRACE_CHANNEL_PVRTEXTOOL'
p559
g530
sS'IW_MKF_BOX2D'
p560
NsS'IW_SDK'
p561
NsS'S3E_INCLUDE_LEGACY'
p562
NsS'IW_TRACE_CHANNEL_PVRTEXTOOL_VERBOSE'
p563
S'2'
p564
sS'IW_MKF_OPENSSL'
p565
NsS'IW_MKF_IW2D'
p566
NsS'IW_ASSERTION_CHANNEL_PVRTEXTOOL'
p567
g530
ssS'done_warnings'
p568
(dp569
sS'subprojects'
p570
(dp571
g174
S'zlib'
p572
sg189
S'iwtween'
p573
sg170
S's3e-default.mkf'
p574
sg172
S'libjpeg'
p575
sg175
S'iw2dscenegraphcore'
p576
sg178
S'iwgx'
p577
sg180
S'iwgeom'
p578
sg188
S'openssl'
p579
sg171
S'iwutil'
p580
sg176
S'iw2dscenegraph'
p581
sg184
S'tiniconv'
p582
sg179
S'iwgl'
p583
sg182
S'PVRTexTool'
p584
sg177
S'iw2d'
p585
sg183
S'iwgxfont'
p586
sg181
S'iwresmanager'
p587
sg173
S'libpng'
p588
sg187
S'curl'
p589
sg186
S'Box2d'
p590
sg185
S'SoundEngine'
p591
ssS'deployments'
p592
(dp593
S'Default'
p594
g310
(cdeployment
Deployment
p595
g312
Ntp596
Rp597
(dp598
S'got_version'
p599
I0
sS'assets'
p600
g594
sS'mkb'
p601
g314
sS'target'
p602
Nsg343
(lp603
sS'options'
p604
(dp605
S'iphone-link-lib'
p606
(lp607
sS'game-icf'
p608
NsS'android-tm'
p609
NsS'winmobile-icon32'
p610
NsS'ws8-logo-image150x150'
p611
NsS'wp81-logo-image150x150'
p612
NsS'ws81-product-version'
p613
NsS'osx-ext-dll'
p614
(lp615
S'c:/marmalade/7.4/extensions/pvrtextool/lib/osx/libPVRTexTool.dylib'
p616
asS'iphone-provisioning-profile'
p617
NsS'win32-icon'
p618
NsS'ws8-splash-screen-image620x300'
p619
NsS'wp81-extra-pri'
p620
(lp621
sS'ws8-ext-capabilities'
p622
(lp623
sS'android-icon-hdpi'
p624
NsS'iphone-ipad-only'
p625
NsS'iphone-splash-full-orient'
p626
NsS'wp8-tile-fliptemplate-supports-large'
p627
NsS'iphone-show-status-bar'
p628
NsS'roku-requires-mkv'
p629
NsS'long-caption'
p630
NsS'android-pkgname'
p631
NsS'wp81-publisher-display-name'
p632
NsS'blackberry-permissions-read-device-identifying-information'
p633
NsS'ws81-certificate-end-date'
p634
NsS'psp-dlgcontentid'
p635
NsS'iphone-minimum-ios-version'
p636
NsS'target-folder'
p637
NsS'tizen-dist1-CA-path'
p638
NsS'symbian-icon2-format'
p639
NsS'tizen-author-key'
p640
NsS'firefoxos-icon-128X128'
p641
NsS'iphone-region'
p642
NsS'uiq3-icon3-mask'
p643
NsS'brew-encoding'
p644
NsS'android-x86'
p645
NsS'nds-initialcode'
p646
NsS'iphone-persistent-wifi'
p647
NsS'psp-snd0'
p648
NsS'roku-icon-focus-hd'
p649
NsS'osx-appid'
p650
NsS'winmobile-install-folder'
p651
NsS'android-external-res'
p652
(lp653
sS'ws8-product-version'
p654
NsS'brew-priviledges'
p655
NsS'iphone-icon-ipad-search'
p656
NsS'iphone-icon-ipad'
p657
NsS'iphone-skip-icon-generation'
p658
NsS'roku-hidden'
p659
NsS'psp-titlename'
p660
NsS'wp81-product-version'
p661
NsS'symbian-icon1-mask'
p662
NsS'psp-parentallevel'
p663
NsS'iphone-launch-storyboard'
p664
NsS'splashscreen-use-all'
p665
NsS'wp8-author'
p666
NsS'symbian-disable-ecompxl'
p667
NsS'splashscreen-auto-onblack'
p668
NsS'iphone-icon-dir'
p669
NsS'iphone-icon-extra'
p670
NsS'win32-ext-dll'
p671
(lp672
S'c:/marmalade/7.4/extensions/pvrtextool/lib/win32/PVRTexTool.dll'
p673
asS'iphone-development-key'
p674
NsS'winmobile-icon48'
p675
NsS'android-unsigned'
p676
NsS'osx-appstore-category'
p677
NsS'version-revision'
p678
NsS'roku-icon-focus-sd'
p679
NsS'android-keystore'
p680
NsS'winmobile-png90'
p681
NsS'iphone-icon-ipad-high-res'
p682
NsS'iphone-disable-ipad'
p683
NsS'ws81-splash-screen-background'
p684
NsS'wp8-ext-capabilities'
p685
(lp686
sS'brew-icon-large'
p687
NsS'symbian-icon1-mask-black'
p688
NsS'iphone-nosign'
p689
NsS'iphone-bundle-localisations'
p690
NsS'winmobile-png60'
p691
NsS'blackberry-permissions-access-shared'
p692
NsS'blackberry-author'
p693
NsS'android-icon-xxxhdpi'
p694
NsS'olddeploytoolstyle'
p695
NsS'android_icon_gallery'
p696
NsS'wp81-splash-screen-background'
p697
NsS'winmobile-cab-compress'
p698
NsS'iphone-info-plist'
p699
NsS'ws81-ext-managed-dll'
p700
(lp701
sS'ws8-distribution-pfx-password'
p702
NsS'symbian-key'
p703
NsS'app-icf'
p704
NsS'blackberry-storepass'
p705
NsS'wp8-tile-fliptemplate-back-title'
p706
NsS'brew-compress-loader'
p707
NsS'win32-pref-windowposy'
p708
NsS'win32-pref-windowposx'
p709
NsS'roku-requires-audiometadata'
p710
NsS'wp8-exclude-low-mem'
p711
NsS'wp8-tile-fliptemplate-title'
p712
NsS'iphone-icon-ipad-search-high-res'
p713
NsS'iphone-link-libdir'
p714
(lp715
sS'wp81-ext-capabilities'
p716
(lp717
sS'blackberry-permissions-read-geolocation'
p718
NsS'ws81-ext-device-capabilities'
p719
(lp720
sS'tizen-signed'
p721
NsS'android-extra-application-manifest'
p722
(lp723
sS'ws8-ext-native-dll'
p724
(lp725
sS'symbian-icon2-mask'
p726
NsS'iphone-launch-extra'
p727
NsS'webos-memory'
p728
NsS'android-keypass'
p729
NsS'name'
p730
NsS'uiq3-icon2-format'
p731
NsS'roku-splash-screen-sd'
p732
NsS'auto-derbh'
p733
NsS'roku-icon-side-sd'
p734
NsS'android-external-assets'
p735
(lp736
sS'nds-publicsavedatasize'
p737
NsS'splashscreen'
p738
NsS'brew-mif'
p739
NsS'iphone-icon-settings-high-res'
p740
NsS'android-manifest'
p741
NsS'ws81-splash-screen-image620x300'
p742
NsS'wp81-product-name'
p743
NsS's3e-compression'
p744
NsS'tizen-author-password'
p745
NsS'wp8-tile-fliptemplate-back-content'
p746
NsS'blackberry-extra-descriptor'
p747
(lp748
sS'symbian-icon1'
p749
NsS'symbian-icon2'
p750
NsS'android-extra-styles-file'
p751
NsS'wp81-publisher-id'
p752
NsS'nds-bannertitle-jp'
p753
NsS'wp81-logo-image44x44'
p754
NsS'osx-sign-for-store'
p755
NsS'symbian7-uid'
p756
NsS'wp8-tile-fliptemplate-large-back-content'
p757
NsS'wp81-phone-publisher-id'
p758
NsS'nds-bannertitle-cn'
p759
NsS'iphone-distribution-key'
p760
NsS'android-icon-gallery'
p761
NsS'blackberry-keystore'
p762
NsS'ws8-extra-res'
p763
(lp764
sS'caption'
p765
NsS'android-extra-manifest'
p766
(lp767
sS'wp81-ext-sdk-ref'
p768
(lp769
sS'android-icon-xxhdpi'
p770
NsS'version-minor'
p771
NsS'iphone-skip-launch-generation'
p772
NsS'iphone-link-libdirs'
p773
(lp774
sS'iphone-icon-large'
p775
NsS'symbian-keypwd'
p776
NsS'symbian8-uid'
p777
NsS'symbian-cert-key'
p778
NsS'winmobile-ampd-part-number'
p779
NsS'arch'
p780
NsS'nds-romheadertemplate'
p781
NsS'webos-icon'
p782
NsS'wp81-ext-device-capabilities'
p783
(lp784
sS'psp-dlgprotectdocument'
p785
NsS'ws8-splash-screen-background'
p786
NsS'android-icon-mdpi'
p787
NsS'nds-icon'
p788
NsS'ws8-custom-manifest-fill'
p789
NsS'iphone-development-cert'
p790
NsS'blackberry-phone-icon'
p791
NsS'iphone-enable-4inch-retina'
p792
NsS'ws8-custom-manifest'
p793
NsS'version-major'
p794
NsS'wp8-genre-isgame'
p795
NsS'uiq3-uid'
p796
NsS'iphone-splash-retina-generate'
p797
NsS'tizen-hw-acceleration'
p798
NsS'iphone_bundle_localisations'
p799
NsS'tizen-dist1-key'
p800
NsS'wp81-custom-manifest-fill'
p801
NsS'wp8-custom-manifest'
p802
NsS'nds-bannertitle-ge'
p803
NsS'iphone-sign-for-distribution'
p804
NsS'wp8-tile-fliptemplate-medium-back-image'
p805
NsS'wp8-publisher-id'
p806
NsS'icon'
p807
NsS'wp8-exclude-wxga'
p808
NsS'wp81-identity-name'
p809
NsS'uiq3-icon2-mask'
p810
NsS'iphone-splashscreen-portrait'
p811
NsS'iphone-icon-high-res'
p812
NsS'ws81-distribution-pfx-password'
p813
NsS'playbook-author'
p814
NsS'android-icon-xhdpi'
p815
NsS'linux-ext-lib'
p816
(lp817
sS'blackberry-permissions-access-internet'
p818
NsS'wp8-exclude-720p'
p819
NsS'lgtv-use-drm'
p820
NsS'symbian-platsecflags'
p821
NsS'ws8-description'
p822
NsS'blackberry-playbook-icon'
p823
NsS'copyright'
p824
NsS'win32-gles-directory'
p825
NsS'version'
p826
NsS'iphone-uiviewcontroller-based-status-bar'
p827
NsS'ws81-logo-image150x150'
p828
NsS'osx-signing-identity-app'
p829
NsS'tizen-project-url'
p830
NsS'symbian-icon-svg'
p831
NsS'android-aliasname'
p832
NsS'psp-dlgmanual'
p833
NsS'brew-uid'
p834
NsS'symbian-locationsupport'
p835
NsS'wp81-logo-image50x50'
p836
NsS'ws8-ext-managed-dll'
p837
(lp838
sS'nds-bannertitle-it'
p839
NsS'ws81-custom-manifest-fill'
p840
NsS'ws8-ext-sdk-manifest-part'
p841
(lp842
sS'uiq3-icon1-mask'
p843
NsS'winmobile-icon16'
p844
NsS'ws8-product-name'
p845
NsS'blackberry-cskpass'
p846
NsS'winmobile-start-menu-folder'
p847
NsS'brew-clsid'
p848
NsS'roku-requires-bluetooth'
p849
NsS'ws8-ext-device-capabilities'
p850
(lp851
sS'blackberry-permissions-use-camera'
p852
NsS'ws81-extra-pri'
p853
(lp854
sS'iphone-prerendered-icon'
p855
NsS'iphone-appid'
p856
NsS'ws8-identity-name'
p857
NsS'tizen-dist2-CA-path'
p858
NsS'android-external-jars'
p859
(lp860
sS'winmobile-icon64'
p861
NsS'blackberry-permissions-post-notification'
p862
NsS'winmobile-setup-dll'
p863
NsS'firefoxos-manifest'
p864
NsS'win8-winrt-extra-res'
p865
(lp866
sS'wp81-ext-sdk-manifest-part'
p867
(lp868
sS'symbian9-uid'
p869
NsS'iphone-icon-ipad-ios7'
p870
NsS'winmobile-trace-file'
p871
NsS'roku-splash-color'
p872
NsS'psp-appversion'
p873
NsS'ws8-publisher-id'
p874
NsS'android-supports-gl-texture'
p875
(lp876
sS'winmobile-png45'
p877
NsS'wp81-extra-res'
p878
(lp879
sS'android-storepass'
p880
NsS'osx-signing-identity-inst'
p881
NsS'android-custom-activity'
p882
NsS'psp-discversion'
p883
NsS'wp81-ext-managed-dll'
p884
(lp885
sS'psp-copyright'
p886
NsS'embed-icf'
p887
NsS'tizen-manifest'
p888
NsS'osx-icon'
p889
NsS'webos-appinfo'
p890
NsS'psp-dlghealthwarning'
p891
NsS'webos-appid'
p892
NsS'roku-icon-side-hd'
p893
NsS'iphone-icon-ipad-search-high-res-ios7'
p894
NsS'ws81-ext-sdk-manifest-part'
p895
(lp896
sS'loader_name_prefix'
p897
NsS'iphone-launch-dir'
p898
NsS'nds-titlename'
p899
NsS'ws81-logo-image50x50'
p900
NsS'wp81-custom-manifest'
p901
NsS'osx-entitlements-plist'
p902
NsS'psp-dlgicon0'
p903
NsS'winmobile-nouninstall'
p904
NsS'psp-discid'
p905
NsS'tizen-dist2-password'
p906
NsS'ws8-ext-sdk-ref'
p907
(lp908
sS'iphone-extra-string'
p909
(lp910
sS'version-string'
p911
NsS'iphone-icon-high-res-ios7'
p912
NsS'blackberry-permissions-record-audio'
p913
NsS'ws8-certificate-end-date'
p914
NsS'tizen-so'
p915
(lp916
sS'wp8-tile-fliptemplate-small-image'
p917
NsS'playbook-authorid'
p918
NsS'iphone-signing-identity'
p919
NsS'roku-persist-quota'
p920
NsS'nds-bannertitle-fr'
p921
NsS'ws8-distribution-pfx'
p922
NsS'ws8-publisher-display-name'
p923
NsS'brew-icon-small'
p924
NsS'psp-dlgpic2'
p925
NsS'psp-dlgpic0'
p926
NsS'psp-pic0'
p927
NsS'psp-pic1'
p928
NsS'win32-pref-windowtitle'
p929
NsS'psp-icon0'
p930
NsS'psp-icon1'
p931
NsS'ws81-identity-name'
p932
NsS'winmobile-icon'
p933
NsS'iphone-no-splash'
p934
NsS'iphone-splash'
p935
NsS'iphone-app-fonts'
p936
NsS'wp8-ext-native-dll'
p937
(lp938
sS'wp81-splash-screen-image480x800'
p939
NsS'ws81-distribution-cer'
p940
NsS'iphone-backgroundmode-audio'
p941
NsS'uiq3-icon2'
p942
NsS'uiq3-icon3'
p943
NsS'uiq3-icon1'
p944
NsS'uiq3-icon1-format'
p945
NsS'ws8-logo-image50x50'
p946
NsS'symbian-icon2-mask-black'
p947
NsS'symbian-run-on-install'
p948
NsS'wp81-description'
p949
NsS'ws81-publisher-display-name'
p950
NsS'firefoxos-xulrunner'
p951
NsS'symbian-soundrecordsupport'
p952
NsS'nds-bannertitle-sp'
p953
NsS'psp-producer'
p954
NsS'iphone-apple-wwdr-cert'
p955
NsS'android-icon-nonstandard'
p956
NsS'win32-pref-processtitle'
p957
NsS'nds-bannertitle-hn'
p958
NsS'tizen-dist2-key'
p959
NsS'brew-depends'
p960
NsS'ws81-custom-manifest'
p961
NsS'iphone-icon-ipad-search-ios7'
p962
NsS'brew-icon-medium'
p963
NsS'iphone-bundle-url-name'
p964
NsS'wp8-tile-fliptemplate-large-front-image'
p965
NsS'tizen-dist2-CA-root-path'
p966
NsS'ws81-description'
p967
NsS'uiq3-icon3-format'
p968
NsS'ws81-logo-image30x30'
p969
NsS'win8-phone-extra-res'
p970
(lp971
sS'iphone-signing-host'
p972
NsS'tizen-icon'
p973
NsS'osx-info-plist'
p974
NsS'symbian-icon1-format'
p975
NsS'win8-store-extra-res'
p976
(lp977
sS'blackberry-authorid'
p978
NsS'ws81-publisher-id'
p979
NsS'ws81-distribution-pfx'
p980
NsS'wp8-description'
p981
NsS'iphone-link-opts'
p982
(lp983
sS'ws81-ext-sdk-ref'
p984
(lp985
sS'roku-splash-min-time'
p986
NsS'wp8-tile-fliptemplate-medium-front-image'
p987
NsS'provider'
p988
NsS'playbook-keystore'
p989
NsS'tizen-appid'
p990
NsS'wp8-extra-res'
p991
(lp992
sS'symbian-osexecsupport'
p993
NsS'android-install-location'
p994
NsS'nds-privatesavedatasize'
p995
NsS'playbook-storepass'
p996
NsS'android-icon-ldpi'
p997
NsS'manufacturer'
p998
NsS'itunes-artwork'
p999
NsS'iphone-extra-sections'
p1000
NsS'ws81-product-name'
p1001
NsS'ws81-ext-native-dll'
p1002
(lp1003
sS'ws8-extra-pri'
p1004
(lp1005
sS'wp8-product-id'
p1006
NsS'ws8-logo-image30x30'
p1007
NsS'wp8-ext-managed-dll'
p1008
(lp1009
sS'iphone-splashscreen-landscape'
p1010
NsS'symbian-maxheapsize'
p1011
NsS'nds-makercode'
p1012
NsS'priv-sign-key'
p1013
NsS'networking'
p1014
NsS'android-icon'
p1015
NsS'iphone-icon-settings'
p1016
NsS'wp81-phone-product-id'
p1017
NsS'firefoxos-icon-60X60'
p1018
NsS'iphone-distribution-cert'
p1019
NsS'android_extra_strings'
p1020
NsS'nds-bannertitle-en'
p1021
NsS'playbook-cskpass'
p1022
NsS'android-so'
p1023
(lp1024
sS'wp8-higher-mem'
p1025
NsS'wp8-ext-sdk-ref'
p1026
(lp1027
sS'wp8-fast-resume-mode'
p1028
NsS'roku-splash-screen-hd'
p1029
NsS'iphone-bundle-url-schemes'
p1030
NsS'roku-screensaver-private'
p1031
NsS'osx-extra-res'
p1032
(lp1033
sS'ws81-extra-res'
p1034
(lp1035
sS'playbook-icon'
p1036
NsS'uid'
p1037
NsS'pkguid-as-uid'
p1038
NsS'wp81-ext-native-dll'
p1039
(lp1040
sS'tizen-dist1-password'
p1041
NsS'roku-screensaver-title'
p1042
NsS'osx-minimum-osx-version'
p1043
NsS'symbian-cert'
p1044
NsS'iphone-icon'
p1045
NsS'ws81-ext-capabilities'
p1046
(lp1047
sS'ws8-distribution-cer'
p1048
NsS'playbook-access-shared'
p1049
NsS'iphone-icon-ipad-high-res-ios7'
p1050
NsS'iphone-link-libs'
p1051
(lp1052
sS'wp8-exclude-wvga'
p1053
NsS'assets'
p1054
NsS'wp8-tile-fliptemplate-large-back-image'
p1055
NsS'wp8-custom-manifest-fill'
p1056
NsS'pub-sign-key'
p1057
NsS'android-extra-strings'
p1058
NsS'tizen-author-CA-path'
p1059
Nssg336
g594
sbssS'platform'
p1060
S'S3E'
p1061
sg65
S'1.0'
p1062
sS'arcade_platform'
p1063
g4
sS'extensions'
p1064
(dp1065
sS'source_groups_tree'
p1066
(dp1067
S'(libpng)'
p1068
(dp1069
S'h'
p1070
(dp1071
S'c:/marmalade/7.4/modules/third_party/libpng/h/png.h'
p1072
(lp1073
I1
a(dp1074
asS'c:/marmalade/7.4/modules/third_party/libpng/h/pngconf.h'
p1075
(lp1076
I1
ag1074
assS'c:/marmalade/7.4/modules/third_party/libpng/libpng.mkf'
p1077
(lp1078
I1
a(dp1079
assS'(libjpeg)'
p1080
(dp1081
g1070
(dp1082
S'c:/marmalade/7.4/modules/third_party/libjpeg/h/jerror.h'
p1083
(lp1084
I1
a(dp1085
asS'c:/marmalade/7.4/modules/third_party/libjpeg/h/jmemsys.h'
p1086
(lp1087
I1
ag1085
asS'c:/marmalade/7.4/modules/third_party/libjpeg/h/jinclude.h'
p1088
(lp1089
I1
ag1085
asS'c:/marmalade/7.4/modules/third_party/libjpeg/h/jpeglib.h'
p1090
(lp1091
I1
ag1085
asS'c:/marmalade/7.4/modules/third_party/libjpeg/h/cdjpeg.h'
p1092
(lp1093
I1
ag1085
asS'c:/marmalade/7.4/modules/third_party/libjpeg/h/jchuff.h'
p1094
(lp1095
I1
ag1085
asS'c:/marmalade/7.4/modules/third_party/libjpeg/h/jconfig.h'
p1096
(lp1097
I1
ag1085
asS'c:/marmalade/7.4/modules/third_party/libjpeg/h/cderror.h'
p1098
(lp1099
I1
ag1085
asS'c:/marmalade/7.4/modules/third_party/libjpeg/h/jdct.h'
p1100
(lp1101
I1
ag1085
asS'c:/marmalade/7.4/modules/third_party/libjpeg/h/jversion.h'
p1102
(lp1103
I1
ag1085
asS'c:/marmalade/7.4/modules/third_party/libjpeg/h/transupp.h'
p1104
(lp1105
I1
ag1085
asS'c:/marmalade/7.4/modules/third_party/libjpeg/h/jdhuff.h'
p1106
(lp1107
I1
ag1085
asS'c:/marmalade/7.4/modules/third_party/libjpeg/h/jpegint.h'
p1108
(lp1109
I1
ag1085
asS'c:/marmalade/7.4/modules/third_party/libjpeg/h/jmorecfg.h'
p1110
(lp1111
I1
ag1085
assS'c:/marmalade/7.4/modules/third_party/libjpeg/libjpeg.mkf'
p1112
(lp1113
I1
a(dp1114
assS'(tiniconv)'
p1115
(dp1116
S'c:/marmalade/7.4/modules/third_party/tiniconv/source/tiniconv_int.h'
p1117
(lp1118
I1
a(dp1119
asS'c:/marmalade/7.4/modules/third_party/tiniconv/tiniconv.mkf'
p1120
(lp1121
I1
a(dp1122
asS'c:/marmalade/7.4/modules/third_party/tiniconv/source/tiniconv.h'
p1123
(lp1124
I1
ag1119
assS'(Box2d)'
p1125
(dp1126
S'c:/users/ben/desktop/college/fyp/finalyearproject/box2d/box2d.mkf'
p1127
(lp1128
I1
a(dp1129
asS'c:/users/ben/desktop/college/fyp/finalyearproject/box2d/Box2D/Box2D.h'
p1130
(lp1131
I1
a(dp1132
asS'Rope'
p1133
(dp1134
S'c:/users/ben/desktop/college/fyp/finalyearproject/box2d/Box2D/Rope/b2Rope.h'
p1135
(lp1136
I1
ag1132
asS'c:/users/ben/desktop/college/fyp/finalyearproject/box2d/Box2D/Rope/b2Rope.cpp'
p1137
(lp1138
I1
ag1132
assS'Collision'
p1139
(dp1140
S'c:/users/ben/desktop/college/fyp/finalyearproject/box2d/Box2D/Collision/b2CollidePolygon.cpp'
p1141
(lp1142
I1
ag1132
asS'c:/users/ben/desktop/college/fyp/finalyearproject/box2d/Box2D/Collision/b2Collision.cpp'
p1143
(lp1144
I1
ag1132
asS'c:/users/ben/desktop/college/fyp/finalyearproject/box2d/Box2D/Collision/b2TimeOfImpact.h'
p1145
(lp1146
I1
ag1132
asS'c:/users/ben/desktop/college/fyp/finalyearproject/box2d/Box2D/Collision/b2DynamicTree.h'
p1147
(lp1148
I1
ag1132
asS'c:/users/ben/desktop/college/fyp/finalyearproject/box2d/Box2D/Collision/b2BroadPhase.cpp'
p1149
(lp1150
I1
ag1132
asS'c:/users/ben/desktop/college/fyp/finalyearproject/box2d/Box2D/Collision/b2BroadPhase.h'
p1151
(lp1152
I1
ag1132
asS'c:/users/ben/desktop/college/fyp/finalyearproject/box2d/Box2D/Collision/b2CollideEdge.cpp'
p1153
(lp1154
I1
ag1132
asS'Shapes'
p1155
(dp1156
S'c:/users/ben/desktop/college/fyp/finalyearproject/box2d/Box2D/Collision/Shapes/b2CircleShape.h'
p1157
(lp1158
I1
ag1132
asS'c:/users/ben/desktop/college/fyp/finalyearproject/box2d/Box2D/Collision/Shapes/b2EdgeShape.h'
p1159
(lp1160
I1
ag1132
asS'c:/users/ben/desktop/college/fyp/finalyearproject/box2d/Box2D/Collision/Shapes/b2ChainShape.h'
p1161
(lp1162
I1
ag1132
asS'c:/users/ben/desktop/college/fyp/finalyearproject/box2d/Box2D/Collision/Shapes/b2Shape.h'
p1163
(lp1164
I1
ag1132
asS'c:/users/ben/desktop/college/fyp/finalyearproject/box2d/Box2D/Collision/Shapes/b2EdgeShape.cpp'
p1165
(lp1166
I1
ag1132
asS'c:/users/ben/desktop/college/fyp/finalyearproject/box2d/Box2D/Collision/Shapes/b2PolygonShape.cpp'
p1167
(lp1168
I1
ag1132
asS'c:/users/ben/desktop/college/fyp/finalyearproject/box2d/Box2D/Collision/Shapes/b2ChainShape.cpp'
p1169
(lp1170
I1
ag1132
asS'c:/users/ben/desktop/college/fyp/finalyearproject/box2d/Box2D/Collision/Shapes/b2CircleShape.cpp'
p1171
(lp1172
I1
ag1132
asS'c:/users/ben/desktop/college/fyp/finalyearproject/box2d/Box2D/Collision/Shapes/b2PolygonShape.h'
p1173
(lp1174
I1
ag1132
assS'c:/users/ben/desktop/college/fyp/finalyearproject/box2d/Box2D/Collision/b2Collision.h'
p1175
(lp1176
I1
ag1132
asS'c:/users/ben/desktop/college/fyp/finalyearproject/box2d/Box2D/Collision/b2DynamicTree.cpp'
p1177
(lp1178
I1
ag1132
asS'c:/users/ben/desktop/college/fyp/finalyearproject/box2d/Box2D/Collision/b2CollideCircle.cpp'
p1179
(lp1180
I1
ag1132
asS'c:/users/ben/desktop/college/fyp/finalyearproject/box2d/Box2D/Collision/b2TimeOfImpact.cpp'
p1181
(lp1182
I1
ag1132
asS'c:/users/ben/desktop/college/fyp/finalyearproject/box2d/Box2D/Collision/b2Distance.h'
p1183
(lp1184
I1
ag1132
asS'c:/users/ben/desktop/college/fyp/finalyearproject/box2d/Box2D/Collision/b2Distance.cpp'
p1185
(lp1186
I1
ag1132
assS'Common'
p1187
(dp1188
S'c:/users/ben/desktop/college/fyp/finalyearproject/box2d/Box2D/Common/b2StackAllocator.h'
p1189
(lp1190
I1
ag1132
asS'c:/users/ben/desktop/college/fyp/finalyearproject/box2d/Box2D/Common/b2Draw.h'
p1191
(lp1192
I1
ag1132
asS'c:/users/ben/desktop/college/fyp/finalyearproject/box2d/Box2D/Common/b2Timer.h'
p1193
(lp1194
I1
ag1132
asS'c:/users/ben/desktop/college/fyp/finalyearproject/box2d/Box2D/Common/b2BlockAllocator.cpp'
p1195
(lp1196
I1
ag1132
asS'c:/users/ben/desktop/college/fyp/finalyearproject/box2d/Box2D/Common/b2Timer.cpp'
p1197
(lp1198
I1
ag1132
asS'c:/users/ben/desktop/college/fyp/finalyearproject/box2d/Box2D/Common/b2BlockAllocator.h'
p1199
(lp1200
I1
ag1132
asS'c:/users/ben/desktop/college/fyp/finalyearproject/box2d/Box2D/Common/b2Settings.cpp'
p1201
(lp1202
I1
ag1132
asS'c:/users/ben/desktop/college/fyp/finalyearproject/box2d/Box2D/Common/b2Settings.h'
p1203
(lp1204
I1
ag1132
asS'c:/users/ben/desktop/college/fyp/finalyearproject/box2d/Box2D/Common/b2Math.cpp'
p1205
(lp1206
I1
ag1132
asS'c:/users/ben/desktop/college/fyp/finalyearproject/box2d/Box2D/Common/b2Math.h'
p1207
(lp1208
I1
ag1132
asS'c:/users/ben/desktop/college/fyp/finalyearproject/box2d/Box2D/Common/b2Draw.cpp'
p1209
(lp1210
I1
ag1132
asS'c:/users/ben/desktop/college/fyp/finalyearproject/box2d/Box2D/Common/b2StackAllocator.cpp'
p1211
(lp1212
I1
ag1132
asS'c:/users/ben/desktop/college/fyp/finalyearproject/box2d/Box2D/Common/b2GrowableStack.h'
p1213
(lp1214
I1
ag1132
assS'Dynamics'
p1215
(dp1216
S'c:/users/ben/desktop/college/fyp/finalyearproject/box2d/Box2D/Dynamics/b2Body.cpp'
p1217
(lp1218
I1
ag1132
asS'c:/users/ben/desktop/college/fyp/finalyearproject/box2d/Box2D/Dynamics/b2World.h'
p1219
(lp1220
I1
ag1132
asS'c:/users/ben/desktop/college/fyp/finalyearproject/box2d/Box2D/Dynamics/b2ContactManager.cpp'
p1221
(lp1222
I1
ag1132
asS'c:/users/ben/desktop/college/fyp/finalyearproject/box2d/Box2D/Dynamics/b2Island.cpp'
p1223
(lp1224
I1
ag1132
asS'Contacts'
p1225
(dp1226
S'c:/users/ben/desktop/college/fyp/finalyearproject/box2d/Box2D/Dynamics/Contacts/b2ContactSolver.cpp'
p1227
(lp1228
I1
ag1132
asS'c:/users/ben/desktop/college/fyp/finalyearproject/box2d/Box2D/Dynamics/Contacts/b2EdgeAndPolygonContact.h'
p1229
(lp1230
I1
ag1132
asS'c:/users/ben/desktop/college/fyp/finalyearproject/box2d/Box2D/Dynamics/Contacts/b2ChainAndPolygonContact.cpp'
p1231
(lp1232
I1
ag1132
asS'c:/users/ben/desktop/college/fyp/finalyearproject/box2d/Box2D/Dynamics/Contacts/b2ChainAndCircleContact.cpp'
p1233
(lp1234
I1
ag1132
asS'c:/users/ben/desktop/college/fyp/finalyearproject/box2d/Box2D/Dynamics/Contacts/b2CircleContact.cpp'
p1235
(lp1236
I1
ag1132
asS'c:/users/ben/desktop/college/fyp/finalyearproject/box2d/Box2D/Dynamics/Contacts/b2ChainAndCircleContact.h'
p1237
(lp1238
I1
ag1132
asS'c:/users/ben/desktop/college/fyp/finalyearproject/box2d/Box2D/Dynamics/Contacts/b2CircleContact.h'
p1239
(lp1240
I1
ag1132
asS'c:/users/ben/desktop/college/fyp/finalyearproject/box2d/Box2D/Dynamics/Contacts/b2PolygonContact.cpp'
p1241
(lp1242
I1
ag1132
asS'c:/users/ben/desktop/college/fyp/finalyearproject/box2d/Box2D/Dynamics/Contacts/b2PolygonAndCircleContact.h'
p1243
(lp1244
I1
ag1132
asS'c:/users/ben/desktop/college/fyp/finalyearproject/box2d/Box2D/Dynamics/Contacts/b2ContactSolver.h'
p1245
(lp1246
I1
ag1132
asS'c:/users/ben/desktop/college/fyp/finalyearproject/box2d/Box2D/Dynamics/Contacts/b2ChainAndPolygonContact.h'
p1247
(lp1248
I1
ag1132
asS'c:/users/ben/desktop/college/fyp/finalyearproject/box2d/Box2D/Dynamics/Contacts/b2EdgeAndCircleContact.h'
p1249
(lp1250
I1
ag1132
asS'c:/users/ben/desktop/college/fyp/finalyearproject/box2d/Box2D/Dynamics/Contacts/b2EdgeAndCircleContact.cpp'
p1251
(lp1252
I1
ag1132
asS'c:/users/ben/desktop/college/fyp/finalyearproject/box2d/Box2D/Dynamics/Contacts/b2PolygonContact.h'
p1253
(lp1254
I1
ag1132
asS'c:/users/ben/desktop/college/fyp/finalyearproject/box2d/Box2D/Dynamics/Contacts/b2Contact.cpp'
p1255
(lp1256
I1
ag1132
asS'c:/users/ben/desktop/college/fyp/finalyearproject/box2d/Box2D/Dynamics/Contacts/b2EdgeAndPolygonContact.cpp'
p1257
(lp1258
I1
ag1132
asS'c:/users/ben/desktop/college/fyp/finalyearproject/box2d/Box2D/Dynamics/Contacts/b2PolygonAndCircleContact.cpp'
p1259
(lp1260
I1
ag1132
asS'c:/users/ben/desktop/college/fyp/finalyearproject/box2d/Box2D/Dynamics/Contacts/b2Contact.h'
p1261
(lp1262
I1
ag1132
assS'Joints'
p1263
(dp1264
S'c:/users/ben/desktop/college/fyp/finalyearproject/box2d/Box2D/Dynamics/Joints/b2MouseJoint.h'
p1265
(lp1266
I1
ag1132
asS'c:/users/ben/desktop/college/fyp/finalyearproject/box2d/Box2D/Dynamics/Joints/b2RevoluteJoint.h'
p1267
(lp1268
I1
ag1132
asS'c:/users/ben/desktop/college/fyp/finalyearproject/box2d/Box2D/Dynamics/Joints/b2PrismaticJoint.h'
p1269
(lp1270
I1
ag1132
asS'c:/users/ben/desktop/college/fyp/finalyearproject/box2d/Box2D/Dynamics/Joints/b2MouseJoint.cpp'
p1271
(lp1272
I1
ag1132
asS'c:/users/ben/desktop/college/fyp/finalyearproject/box2d/Box2D/Dynamics/Joints/b2WheelJoint.cpp'
p1273
(lp1274
I1
ag1132
asS'c:/users/ben/desktop/college/fyp/finalyearproject/box2d/Box2D/Dynamics/Joints/b2GearJoint.h'
p1275
(lp1276
I1
ag1132
asS'c:/users/ben/desktop/college/fyp/finalyearproject/box2d/Box2D/Dynamics/Joints/b2RopeJoint.h'
p1277
(lp1278
I1
ag1132
asS'c:/users/ben/desktop/college/fyp/finalyearproject/box2d/Box2D/Dynamics/Joints/b2RevoluteJoint.cpp'
p1279
(lp1280
I1
ag1132
asS'c:/users/ben/desktop/college/fyp/finalyearproject/box2d/Box2D/Dynamics/Joints/b2PrismaticJoint.cpp'
p1281
(lp1282
I1
ag1132
asS'c:/users/ben/desktop/college/fyp/finalyearproject/box2d/Box2D/Dynamics/Joints/b2PulleyJoint.h'
p1283
(lp1284
I1
ag1132
asS'c:/users/ben/desktop/college/fyp/finalyearproject/box2d/Box2D/Dynamics/Joints/b2DistanceJoint.h'
p1285
(lp1286
I1
ag1132
asS'c:/users/ben/desktop/college/fyp/finalyearproject/box2d/Box2D/Dynamics/Joints/b2WeldJoint.h'
p1287
(lp1288
I1
ag1132
asS'c:/users/ben/desktop/college/fyp/finalyearproject/box2d/Box2D/Dynamics/Joints/b2MotorJoint.h'
p1289
(lp1290
I1
ag1132
asS'c:/users/ben/desktop/college/fyp/finalyearproject/box2d/Box2D/Dynamics/Joints/b2RopeJoint.cpp'
p1291
(lp1292
I1
ag1132
asS'c:/users/ben/desktop/college/fyp/finalyearproject/box2d/Box2D/Dynamics/Joints/b2MotorJoint.cpp'
p1293
(lp1294
I1
ag1132
asS'c:/users/ben/desktop/college/fyp/finalyearproject/box2d/Box2D/Dynamics/Joints/b2WheelJoint.h'
p1295
(lp1296
I1
ag1132
asS'c:/users/ben/desktop/college/fyp/finalyearproject/box2d/Box2D/Dynamics/Joints/b2Joint.h'
p1297
(lp1298
I1
ag1132
asS'c:/users/ben/desktop/college/fyp/finalyearproject/box2d/Box2D/Dynamics/Joints/b2FrictionJoint.cpp'
p1299
(lp1300
I1
ag1132
asS'c:/users/ben/desktop/college/fyp/finalyearproject/box2d/Box2D/Dynamics/Joints/b2FrictionJoint.h'
p1301
(lp1302
I1
ag1132
asS'c:/users/ben/desktop/college/fyp/finalyearproject/box2d/Box2D/Dynamics/Joints/b2WeldJoint.cpp'
p1303
(lp1304
I1
ag1132
asS'c:/users/ben/desktop/college/fyp/finalyearproject/box2d/Box2D/Dynamics/Joints/b2PulleyJoint.cpp'
p1305
(lp1306
I1
ag1132
asS'c:/users/ben/desktop/college/fyp/finalyearproject/box2d/Box2D/Dynamics/Joints/b2GearJoint.cpp'
p1307
(lp1308
I1
ag1132
asS'c:/users/ben/desktop/college/fyp/finalyearproject/box2d/Box2D/Dynamics/Joints/b2Joint.cpp'
p1309
(lp1310
I1
ag1132
asS'c:/users/ben/desktop/college/fyp/finalyearproject/box2d/Box2D/Dynamics/Joints/b2DistanceJoint.cpp'
p1311
(lp1312
I1
ag1132
assS'c:/users/ben/desktop/college/fyp/finalyearproject/box2d/Box2D/Dynamics/b2ContactManager.h'
p1313
(lp1314
I1
ag1132
asS'c:/users/ben/desktop/college/fyp/finalyearproject/box2d/Box2D/Dynamics/b2Body.h'
p1315
(lp1316
I1
ag1132
asS'c:/users/ben/desktop/college/fyp/finalyearproject/box2d/Box2D/Dynamics/b2Fixture.cpp'
p1317
(lp1318
I1
ag1132
asS'c:/users/ben/desktop/college/fyp/finalyearproject/box2d/Box2D/Dynamics/b2WorldCallbacks.cpp'
p1319
(lp1320
I1
ag1132
asS'c:/users/ben/desktop/college/fyp/finalyearproject/box2d/Box2D/Dynamics/b2World.cpp'
p1321
(lp1322
I1
ag1132
asS'c:/users/ben/desktop/college/fyp/finalyearproject/box2d/Box2D/Dynamics/b2TimeStep.h'
p1323
(lp1324
I1
ag1132
asS'c:/users/ben/desktop/college/fyp/finalyearproject/box2d/Box2D/Dynamics/b2WorldCallbacks.h'
p1325
(lp1326
I1
ag1132
asS'c:/users/ben/desktop/college/fyp/finalyearproject/box2d/Box2D/Dynamics/b2Island.h'
p1327
(lp1328
I1
ag1132
asS'c:/users/ben/desktop/college/fyp/finalyearproject/box2d/Box2D/Dynamics/b2Fixture.h'
p1329
(lp1330
I1
ag1132
asssS'(SoundEngine)'
p1331
(dp1332
S'c:/users/ben/desktop/college/fyp/finalyearproject/soundengine/source/IwSoundGroup.cpp'
p1333
(lp1334
I1
a(dp1335
asS'c:/users/ben/desktop/college/fyp/finalyearproject/soundengine/h/IwSoundManager.h'
p1336
(lp1337
I1
ag1335
asS'c:/users/ben/desktop/college/fyp/finalyearproject/soundengine/h/IwSoundData.h'
p1338
(lp1339
I1
ag1335
asS'Docs'
p1340
(dp1341
S'c:/users/ben/desktop/college/fyp/finalyearproject/soundengine/docs/iwsound.config.txt'
p1342
(lp1343
I1
ag1335
assS'c:/users/ben/desktop/college/fyp/finalyearproject/soundengine/source/IwResHandlerWAV.cpp'
p1344
(lp1345
I1
ag1335
asS'c:/users/ben/desktop/college/fyp/finalyearproject/soundengine/source/IwSoundSpec.cpp'
p1346
(lp1347
I1
ag1335
asS'c:/users/ben/desktop/college/fyp/finalyearproject/soundengine/h/IwSoundPCM.h'
p1348
(lp1349
I1
ag1335
asS'c:/users/ben/desktop/college/fyp/finalyearproject/soundengine/h/IwSoundSpec.h'
p1350
(lp1351
I1
ag1335
asS'c:/users/ben/desktop/college/fyp/finalyearproject/soundengine/h/IwSoundInst.h'
p1352
(lp1353
I1
ag1335
asS'c:/users/ben/desktop/college/fyp/finalyearproject/soundengine/source/IwSoundWAV.cpp'
p1354
(lp1355
I1
ag1335
asS'c:/users/ben/desktop/college/fyp/finalyearproject/soundengine/soundengine.mkf'
p1356
(lp1357
I1
a(dp1358
asS'c:/users/ben/desktop/college/fyp/finalyearproject/soundengine/h/IwSoundParams.h'
p1359
(lp1360
I1
ag1335
asS'c:/users/ben/desktop/college/fyp/finalyearproject/soundengine/h/IwSoundWAV.h'
p1361
(lp1362
I1
ag1335
asS'c:/users/ben/desktop/college/fyp/finalyearproject/soundengine/source/IwSoundPCM.cpp'
p1363
(lp1364
I1
ag1335
asS'c:/users/ben/desktop/college/fyp/finalyearproject/soundengine/source/IwSoundInst.cpp'
p1365
(lp1366
I1
ag1335
asS'c:/users/ben/desktop/college/fyp/finalyearproject/soundengine/source/IwSoundParams.cpp'
p1367
(lp1368
I1
ag1335
asS'c:/users/ben/desktop/college/fyp/finalyearproject/soundengine/h/IwSound.h'
p1369
(lp1370
I1
ag1335
asS'c:/users/ben/desktop/college/fyp/finalyearproject/soundengine/source/IwSoundManager.cpp'
p1371
(lp1372
I1
ag1335
asS'c:/users/ben/desktop/college/fyp/finalyearproject/soundengine/h/IwSoundGroup.h'
p1373
(lp1374
I1
ag1335
asS'c:/users/ben/desktop/college/fyp/finalyearproject/soundengine/h/IwResHandlerWAV.h'
p1375
(lp1376
I1
ag1335
asS'c:/users/ben/desktop/college/fyp/finalyearproject/soundengine/h/IwSoundADPCM.h'
p1377
(lp1378
I1
ag1335
asS'c:/users/ben/desktop/college/fyp/finalyearproject/soundengine/source/IwSoundData.cpp'
p1379
(lp1380
I1
ag1335
asS'c:/users/ben/desktop/college/fyp/finalyearproject/soundengine/source/IwSoundADPCM.cpp'
p1381
(lp1382
I1
ag1335
assS'(curl)'
p1383
(dp1384
S'c:/marmalade/7.4/modules/third_party/curl/curl.mkf'
p1385
(lp1386
I1
a(dp1387
assS'source'
p1388
(dp1389
S'c:/Users/Ben/Desktop/College/FYP/FinalYearProject/source/Grenade.h'
p1390
(lp1391
I1
a(dp1392
asS'c:/Users/Ben/Desktop/College/FYP/FinalYearProject/source/NetworkManager.cpp'
p1393
(lp1394
I1
ag1392
asS'c:/Users/Ben/Desktop/College/FYP/FinalYearProject/source/NetworkManager.h'
p1395
(lp1396
I1
ag1392
asS'c:/Users/Ben/Desktop/College/FYP/FinalYearProject/source/CollisionIdentifier.h'
p1397
(lp1398
I1
ag1392
asS'c:/Users/Ben/Desktop/College/FYP/FinalYearProject/source/Menu.h'
p1399
(lp1400
I1
ag1392
asS'c:/Users/Ben/Desktop/College/FYP/FinalYearProject/source/input.h'
p1401
(lp1402
I1
ag1392
asS'c:/Users/Ben/Desktop/College/FYP/FinalYearProject/source/PlayerManager.h'
p1403
(lp1404
I1
ag1392
asS'c:/Users/Ben/Desktop/College/FYP/FinalYearProject/source/MainMenu.cpp'
p1405
(lp1406
I1
ag1392
asS'c:/Users/Ben/Desktop/College/FYP/FinalYearProject/source/scene.cpp'
p1407
(lp1408
I1
ag1392
asS'c:/Users/Ben/Desktop/College/FYP/FinalYearProject/source/Net.cpp'
p1409
(lp1410
I1
ag1392
asS'c:/Users/Ben/Desktop/College/FYP/FinalYearProject/source/FinalYearProject.cpp'
p1411
(lp1412
I1
ag1392
asS'c:/Users/Ben/Desktop/College/FYP/FinalYearProject/source/PacketStream.h'
p1413
(lp1414
I1
ag1392
asS'c:/Users/Ben/Desktop/College/FYP/FinalYearProject/source/Bullet.h'
p1415
(lp1416
I1
ag1392
asS'c:/Users/Ben/Desktop/College/FYP/FinalYearProject/source/HUD.h'
p1417
(lp1418
I1
ag1392
asS'c:/Users/Ben/Desktop/College/FYP/FinalYearProject/source/scene.h'
p1419
(lp1420
I1
ag1392
asS'c:/Users/Ben/Desktop/College/FYP/FinalYearProject/source/BulletManager.h'
p1421
(lp1422
I1
ag1392
asS'c:/Users/Ben/Desktop/College/FYP/FinalYearProject/source/Scoreboard.cpp'
p1423
(lp1424
I1
ag1392
asS'c:/Users/Ben/Desktop/College/FYP/FinalYearProject/source/audio.cpp'
p1425
(lp1426
I1
ag1392
asS'c:/Users/Ben/Desktop/College/FYP/FinalYearProject/source/PickUp.h'
p1427
(lp1428
I1
ag1392
asS'c:/Users/Ben/Desktop/College/FYP/FinalYearProject/source/Map.h'
p1429
(lp1430
I1
ag1392
asS'c:/Users/Ben/Desktop/College/FYP/FinalYearProject/source/Weapon.cpp'
p1431
(lp1432
I1
ag1392
asS'c:/Users/Ben/Desktop/College/FYP/FinalYearProject/source/CurlHelper.h'
p1433
(lp1434
I1
ag1392
asS'c:/Users/Ben/Desktop/College/FYP/FinalYearProject/source/audio.h'
p1435
(lp1436
I1
ag1392
asS'c:/Users/Ben/Desktop/College/FYP/FinalYearProject/source/PickUp.cpp'
p1437
(lp1438
I1
ag1392
asS'c:/Users/Ben/Desktop/College/FYP/FinalYearProject/source/Weapon.h'
p1439
(lp1440
I1
ag1392
asS'c:/Users/Ben/Desktop/College/FYP/FinalYearProject/source/Menu.cpp'
p1441
(lp1442
I1
ag1392
asS'c:/Users/Ben/Desktop/College/FYP/FinalYearProject/source/Platform.h'
p1443
(lp1444
I1
ag1392
asS'c:/Users/Ben/Desktop/College/FYP/FinalYearProject/source/GameLobbyMenu.cpp'
p1445
(lp1446
I1
ag1392
asS'c:/Users/Ben/Desktop/College/FYP/FinalYearProject/source/Grenade.cpp'
p1447
(lp1448
I1
ag1392
asS'c:/Users/Ben/Desktop/College/FYP/FinalYearProject/source/BulletManager.cpp'
p1449
(lp1450
I1
ag1392
asS'c:/Users/Ben/Desktop/College/FYP/FinalYearProject/source/Net.h'
p1451
(lp1452
I1
ag1392
asS'c:/Users/Ben/Desktop/College/FYP/FinalYearProject/source/CurlHelper.cpp'
p1453
(lp1454
I1
ag1392
asS'c:/Users/Ben/Desktop/College/FYP/FinalYearProject/source/Player.cpp'
p1455
(lp1456
I1
ag1392
asS'c:/Users/Ben/Desktop/College/FYP/FinalYearProject/source/Map.cpp'
p1457
(lp1458
I1
ag1392
asS'c:/Users/Ben/Desktop/College/FYP/FinalYearProject/source/ContactListener.cpp'
p1459
(lp1460
I1
ag1392
asS'c:/Users/Ben/Desktop/College/FYP/FinalYearProject/source/Scoreboard.h'
p1461
(lp1462
I1
ag1392
asS'c:/Users/Ben/Desktop/College/FYP/FinalYearProject/source/ObjectFactory.h'
p1463
(lp1464
I1
ag1392
asS'c:/Users/Ben/Desktop/College/FYP/FinalYearProject/source/ObjectFactory.cpp'
p1465
(lp1466
I1
ag1392
asS'c:/Users/Ben/Desktop/College/FYP/FinalYearProject/source/Game.cpp'
p1467
(lp1468
I1
ag1392
asS'c:/Users/Ben/Desktop/College/FYP/FinalYearProject/source/Target.h'
p1469
(lp1470
I1
ag1392
asS'c:/Users/Ben/Desktop/College/FYP/FinalYearProject/source/GameLobbyMenu.h'
p1471
(lp1472
I1
ag1392
asS'c:/Users/Ben/Desktop/College/FYP/FinalYearProject/source/ContactListener.h'
p1473
(lp1474
I1
ag1392
asS'c:/Users/Ben/Desktop/College/FYP/FinalYearProject/source/input.cpp'
p1475
(lp1476
I1
ag1392
asS'c:/Users/Ben/Desktop/College/FYP/FinalYearProject/source/Bullet.cpp'
p1477
(lp1478
I1
ag1392
asS'c:/Users/Ben/Desktop/College/FYP/FinalYearProject/source/HUD.cpp'
p1479
(lp1480
I1
ag1392
asS'c:/Users/Ben/Desktop/College/FYP/FinalYearProject/source/CollisionIdentifier.cpp'
p1481
(lp1482
I1
ag1392
asS'c:/Users/Ben/Desktop/College/FYP/FinalYearProject/source/PlayerManager.cpp'
p1483
(lp1484
I1
ag1392
asS'c:/Users/Ben/Desktop/College/FYP/FinalYearProject/source/Game.h'
p1485
(lp1486
I1
ag1392
asS'c:/Users/Ben/Desktop/College/FYP/FinalYearProject/source/PacketStream.cpp'
p1487
(lp1488
I1
ag1392
asS'c:/Users/Ben/Desktop/College/FYP/FinalYearProject/source/resources.h'
p1489
(lp1490
I1
ag1392
asS'c:/Users/Ben/Desktop/College/FYP/FinalYearProject/source/Player.h'
p1491
(lp1492
I1
ag1392
asS'c:/Users/Ben/Desktop/College/FYP/FinalYearProject/source/MainMenu.h'
p1493
(lp1494
I1
ag1392
asS'c:/Users/Ben/Desktop/College/FYP/FinalYearProject/source/resources.cpp'
p1495
(lp1496
I1
ag1392
asS'c:/Users/Ben/Desktop/College/FYP/FinalYearProject/source/Target.cpp'
p1497
(lp1498
I1
ag1392
asS'c:/Users/Ben/Desktop/College/FYP/FinalYearProject/source/Platform.cpp'
p1499
(lp1500
I1
ag1392
assS'Extensions'
p1501
(dp1502
S'PVRTexTool'
p1503
(dp1504
S'interface'
p1505
(dp1506
S'c:/marmalade/7.4/extensions/pvrtextool/interface/PVRTexTool_interface.cpp'
p1507
(lp1508
I1
a(dp1509
asS'c:/marmalade/7.4/extensions/pvrtextool/interface/PVRTexTool.defines.txt'
p1510
(lp1511
I1
ag1509
assS'c:/marmalade/7.4/extensions/pvrtextool/pvrtextool.mkf'
p1512
(lp1513
I1
a(dp1514
asS'c:/marmalade/7.4/extensions/pvrtextool/h/PVRTexTool.h'
p1515
(lp1516
I1
ag1509
asssS'(openssl)'
p1517
(dp1518
S'c:/marmalade/7.4/modules/third_party/openssl/openssl/cast.h'
p1519
(lp1520
I1
a(dp1521
asS'c:/marmalade/7.4/modules/third_party/openssl/openssl/aes.h'
p1522
(lp1523
I1
ag1521
asS'c:/marmalade/7.4/modules/third_party/openssl/openssl/ripemd.h'
p1524
(lp1525
I1
ag1521
asS'c:/marmalade/7.4/modules/third_party/openssl/openssl/evp.h'
p1526
(lp1527
I1
ag1521
asS'c:/marmalade/7.4/modules/third_party/openssl/openssl/symhacks.h'
p1528
(lp1529
I1
ag1521
asS'c:/marmalade/7.4/modules/third_party/openssl/openssl/x509.h'
p1530
(lp1531
I1
ag1521
asS'c:/marmalade/7.4/modules/third_party/openssl/openssl/ssl23.h'
p1532
(lp1533
I1
ag1521
asS'c:/marmalade/7.4/modules/third_party/openssl/openssl/des.h'
p1534
(lp1535
I1
ag1521
asS'c:/marmalade/7.4/modules/third_party/openssl/openssl/camellia.h'
p1536
(lp1537
I1
ag1521
asS'c:/marmalade/7.4/modules/third_party/openssl/openssl/seed.h'
p1538
(lp1539
I1
ag1521
asS'c:/marmalade/7.4/modules/third_party/openssl/openssl/pem2.h'
p1540
(lp1541
I1
ag1521
asS'c:/marmalade/7.4/modules/third_party/openssl/openssl/crypto.h'
p1542
(lp1543
I1
ag1521
asS'c:/marmalade/7.4/modules/third_party/openssl/openssl/buffer.h'
p1544
(lp1545
I1
ag1521
asS'c:/marmalade/7.4/modules/third_party/openssl/openssl/lhash.h'
p1546
(lp1547
I1
ag1521
asS'c:/marmalade/7.4/modules/third_party/openssl/openssl/conf.h'
p1548
(lp1549
I1
ag1521
asS'c:/marmalade/7.4/modules/third_party/openssl/openssl/hmac.h'
p1550
(lp1551
I1
ag1521
asS'c:/marmalade/7.4/modules/third_party/openssl/openssl/rsa.h'
p1552
(lp1553
I1
ag1521
asS'c:/marmalade/7.4/modules/third_party/openssl/openssl/rc4.h'
p1554
(lp1555
I1
ag1521
asS'c:/marmalade/7.4/modules/third_party/openssl/openssl/objects.h'
p1556
(lp1557
I1
ag1521
asS'c:/marmalade/7.4/modules/third_party/openssl/openssl/engine.h'
p1558
(lp1559
I1
ag1521
asS'c:/marmalade/7.4/modules/third_party/openssl/openssl/obj_mac.h'
p1560
(lp1561
I1
ag1521
asS'c:/marmalade/7.4/modules/third_party/openssl/openssl/ossl_typ.h'
p1562
(lp1563
I1
ag1521
asS'c:/marmalade/7.4/modules/third_party/openssl/openssl/ecdsa.h'
p1564
(lp1565
I1
ag1521
asS'c:/marmalade/7.4/modules/third_party/openssl/openssl/e_os2.h'
p1566
(lp1567
I1
ag1521
asS'c:/marmalade/7.4/modules/third_party/openssl/openssl/dsa.h'
p1568
(lp1569
I1
ag1521
asS'c:/marmalade/7.4/modules/third_party/openssl/openssl/cms.h'
p1570
(lp1571
I1
ag1521
asS'c:/marmalade/7.4/modules/third_party/openssl/openssl/mdc2.h'
p1572
(lp1573
I1
ag1521
asS'c:/marmalade/7.4/modules/third_party/openssl/openssl/ocsp.h'
p1574
(lp1575
I1
ag1521
asS'c:/marmalade/7.4/modules/third_party/openssl/openssl/rand.h'
p1576
(lp1577
I1
ag1521
asS'c:/marmalade/7.4/modules/third_party/openssl/openssl/comp.h'
p1578
(lp1579
I1
ag1521
asS'c:/marmalade/7.4/modules/third_party/openssl/openssl/safestack.h'
p1580
(lp1581
I1
ag1521
asS'c:/marmalade/7.4/modules/third_party/openssl/openssl/ui_compat.h'
p1582
(lp1583
I1
ag1521
asS'c:/marmalade/7.4/modules/third_party/openssl/openssl/x509v3.h'
p1584
(lp1585
I1
ag1521
asS'c:/marmalade/7.4/modules/third_party/openssl/openssl/ts.h'
p1586
(lp1587
I1
ag1521
asS'c:/marmalade/7.4/modules/third_party/openssl/openssl/sha.h'
p1588
(lp1589
I1
ag1521
asS'c:/marmalade/7.4/modules/third_party/openssl/openssl/opensslconf.h'
p1590
(lp1591
I1
ag1521
asS'c:/marmalade/7.4/modules/third_party/openssl/openssl/x509_vfy.h'
p1592
(lp1593
I1
ag1521
asS'c:/marmalade/7.4/modules/third_party/openssl/openssl/ecdh.h'
p1594
(lp1595
I1
ag1521
asS'c:/marmalade/7.4/modules/third_party/openssl/openssl/ui.h'
p1596
(lp1597
I1
ag1521
asS'c:/marmalade/7.4/modules/third_party/openssl/openssl/whrlpool.h'
p1598
(lp1599
I1
ag1521
asS'c:/marmalade/7.4/modules/third_party/openssl/openssl/bn.h'
p1600
(lp1601
I1
ag1521
asS'c:/marmalade/7.4/modules/third_party/openssl/openssl/pkcs7.h'
p1602
(lp1603
I1
ag1521
asS'c:/marmalade/7.4/modules/third_party/openssl/openssl/asn1t.h'
p1604
(lp1605
I1
ag1521
asS'c:/marmalade/7.4/modules/third_party/openssl/openssl/pkcs12.h'
p1606
(lp1607
I1
ag1521
asS'c:/marmalade/7.4/modules/third_party/openssl/openssl/idea.h'
p1608
(lp1609
I1
ag1521
asS'c:/marmalade/7.4/modules/third_party/openssl/openssl/krb5_asn.h'
p1610
(lp1611
I1
ag1521
asS'c:/marmalade/7.4/modules/third_party/openssl/openssl/ebcdic.h'
p1612
(lp1613
I1
ag1521
asS'c:/marmalade/7.4/modules/third_party/openssl/openssl/opensslv.h'
p1614
(lp1615
I1
ag1521
asS'c:/marmalade/7.4/modules/third_party/openssl/openssl/txt_db.h'
p1616
(lp1617
I1
ag1521
asS'c:/marmalade/7.4/modules/third_party/openssl/openssl/pqueue.h'
p1618
(lp1619
I1
ag1521
asS'c:/marmalade/7.4/modules/third_party/openssl/openssl/md4.h'
p1620
(lp1621
I1
ag1521
asS'c:/marmalade/7.4/modules/third_party/openssl/openssl/ssl.h'
p1622
(lp1623
I1
ag1521
asS'c:/marmalade/7.4/modules/third_party/openssl/openssl/ec.h'
p1624
(lp1625
I1
ag1521
asS'c:/marmalade/7.4/modules/third_party/openssl/openssl/dso.h'
p1626
(lp1627
I1
ag1521
asS'c:/marmalade/7.4/modules/third_party/openssl/openssl/asn1.h'
p1628
(lp1629
I1
ag1521
asS'c:/marmalade/7.4/modules/third_party/openssl/openssl/rc5.h'
p1630
(lp1631
I1
ag1521
asS'c:/marmalade/7.4/modules/third_party/openssl/openssl/des_old.h'
p1632
(lp1633
I1
ag1521
asS'c:/marmalade/7.4/modules/third_party/openssl/openssl/stack.h'
p1634
(lp1635
I1
ag1521
asS'c:/marmalade/7.4/modules/third_party/openssl/openssl/kssl.h'
p1636
(lp1637
I1
ag1521
asS'c:/marmalade/7.4/modules/third_party/openssl/openssl/err.h'
p1638
(lp1639
I1
ag1521
asS'c:/marmalade/7.4/modules/third_party/openssl/openssl/rc2.h'
p1640
(lp1641
I1
ag1521
asS'c:/marmalade/7.4/modules/third_party/openssl/openssl/bio.h'
p1642
(lp1643
I1
ag1521
asS'c:/marmalade/7.4/modules/third_party/openssl/openssl/blowfish.h'
p1644
(lp1645
I1
ag1521
asS'c:/marmalade/7.4/modules/third_party/openssl/openssl/conf_api.h'
p1646
(lp1647
I1
ag1521
asS'c:/marmalade/7.4/modules/third_party/openssl/openssl.mkf'
p1648
(lp1649
I1
a(dp1650
asS'c:/marmalade/7.4/modules/third_party/openssl/openssl/ssl3.h'
p1651
(lp1652
I1
ag1521
asS'c:/marmalade/7.4/modules/third_party/openssl/openssl/ssl2.h'
p1653
(lp1654
I1
ag1521
asS'c:/marmalade/7.4/modules/third_party/openssl/openssl/dh.h'
p1655
(lp1656
I1
ag1521
asS'c:/marmalade/7.4/modules/third_party/openssl/openssl/modes.h'
p1657
(lp1658
I1
ag1521
asS'c:/marmalade/7.4/modules/third_party/openssl/openssl/tls1.h'
p1659
(lp1660
I1
ag1521
asS'c:/marmalade/7.4/modules/third_party/openssl/openssl/pem.h'
p1661
(lp1662
I1
ag1521
asS'c:/marmalade/7.4/modules/third_party/openssl/openssl/md5.h'
p1663
(lp1664
I1
ag1521
asS'c:/marmalade/7.4/modules/third_party/openssl/openssl/dtls1.h'
p1665
(lp1666
I1
ag1521
asS'c:/marmalade/7.4/modules/third_party/openssl/openssl/asn1_mac.h'
p1667
(lp1668
I1
ag1521
assS"'Marmalade Studio'"
p1669
(dp1670
S'iw2dscenegraph'
p1671
(dp1672
S'c:/marmalade/7.4/modules/iw2dscenegraph/docs/iw2dscenegraph.defines.txt'
p1673
(lp1674
I1
a(dp1675
asS'c:/marmalade/7.4/modules/iw2dscenegraph/iw2dscenegraph.mkf'
p1676
(lp1677
I1
a(dp1678
asS'c:/marmalade/7.4/modules/iw2dscenegraph/source/Iw2DSceneGraph.cpp'
p1679
(lp1680
I1
ag1675
asS'c:/marmalade/7.4/modules/iw2dscenegraph/h/Iw2DSceneGraph.h'
p1681
(lp1682
I1
ag1675
assS'iwgl'
p1683
(dp1684
S'c:/marmalade/7.4/modules/iwgl/docs/iwgl.config.txt'
p1685
(lp1686
I1
a(dp1687
asS'c:/marmalade/7.4/modules/iwgl/iwgl.mkf'
p1688
(lp1689
I1
a(dp1690
asS'c:/marmalade/7.4/modules/iwgl/h/IwGL.h'
p1691
(lp1692
I1
ag1687
asS'c:/marmalade/7.4/modules/iwgl/h/IwGLExt.h'
p1693
(lp1694
I1
ag1687
assS'iw2d'
p1695
(dp1696
S'c:/marmalade/7.4/modules/iw2d/docs/iw2d.config.txt'
p1697
(lp1698
I1
a(dp1699
asS'c:/marmalade/7.4/modules/iw2d/docs/iw2d_public.defines.txt'
p1700
(lp1701
I1
ag1699
asS'c:/marmalade/7.4/modules/iw2d/h/Iw2D.h'
p1702
(lp1703
I1
ag1699
asS'c:/marmalade/7.4/modules/iw2d/iw2d.mkf'
p1704
(lp1705
I1
a(dp1706
assS'iwgxfont'
p1707
(dp1708
S'c:/marmalade/7.4/modules/iwgxfont/h/IwGxFontTypes.h'
p1709
(lp1710
I1
a(dp1711
asS'c:/marmalade/7.4/modules/iwgxfont/docs/iwgxfont_public.defines.txt'
p1712
(lp1713
I1
ag1711
asS'c:/marmalade/7.4/modules/iwgxfont/h/IwGxFontGlyph.h'
p1714
(lp1715
I1
ag1711
asS'c:/marmalade/7.4/modules/iwgxfont/docs/iwgxfont.config.txt'
p1716
(lp1717
I1
ag1711
asS'c:/marmalade/7.4/modules/iwgxfont/h/IwGxFont.h'
p1718
(lp1719
I1
ag1711
asS'c:/marmalade/7.4/modules/iwgxfont/h/IwGxFontPreparedData.h'
p1720
(lp1721
I1
ag1711
asS'c:/marmalade/7.4/modules/iwgxfont/h/IwGxFontState.h'
p1722
(lp1723
I1
ag1711
asS'c:/marmalade/7.4/modules/iwgxfont/h/IwGxFontContainer.h'
p1724
(lp1725
I1
ag1711
asS'c:/marmalade/7.4/modules/iwgxfont/iwgxfont.mkf'
p1726
(lp1727
I1
a(dp1728
assS'iwgeom'
p1729
(dp1730
S'c:/marmalade/7.4/modules/iwgeom/docs/iwgeom.config.txt'
p1731
(lp1732
I1
a(dp1733
asS'c:/marmalade/7.4/modules/iwgeom/h/IwGeomFIntersect.h'
p1734
(lp1735
I1
ag1733
asS'c:/marmalade/7.4/modules/iwgeom/h/IwGeomMat2D.h.tpl'
p1736
(lp1737
I1
ag1733
asS'c:/marmalade/7.4/modules/iwgeom/iwgeom.mkf'
p1738
(lp1739
I1
a(dp1740
asS'c:/marmalade/7.4/modules/iwgeom/h/IwGeomVec.h.tpl'
p1741
(lp1742
I1
ag1733
asS'c:/marmalade/7.4/modules/iwgeom/h/IwGeomFSphere.h'
p1743
(lp1744
I1
ag1733
asS'c:/marmalade/7.4/modules/iwgeom/h/IwGeomFQuat.h'
p1745
(lp1746
I1
ag1733
asS'c:/marmalade/7.4/modules/iwgeom/h/IwGeomMenu.h'
p1747
(lp1748
I1
ag1733
asS'c:/marmalade/7.4/modules/iwgeom/h/IwGeomFMat2D.h'
p1749
(lp1750
I1
ag1733
asS'c:/marmalade/7.4/modules/iwgeom/h/IwGeomFVec4.h'
p1751
(lp1752
I1
ag1733
asS'c:/marmalade/7.4/modules/iwgeom/h/IwGeomQuat.h'
p1753
(lp1754
I1
ag1733
asS'c:/marmalade/7.4/modules/iwgeom/h/IwGeomFBBox.h'
p1755
(lp1756
I1
ag1733
asS'c:/marmalade/7.4/modules/iwgeom/h/IwGeomSVec4.h'
p1757
(lp1758
I1
ag1733
asS'c:/marmalade/7.4/modules/iwgeom/h/IwGeomFVec2.h'
p1759
(lp1760
I1
ag1733
asS'c:/marmalade/7.4/modules/iwgeom/h/IwGeomVec.h'
p1761
(lp1762
I1
ag1733
asS'c:/marmalade/7.4/modules/iwgeom/h/IwGeomPlane.h'
p1763
(lp1764
I1
ag1733
asS'c:/marmalade/7.4/modules/iwgeom/h/IwGeomQuat.h.tpl'
p1765
(lp1766
I1
ag1733
asS'c:/marmalade/7.4/modules/iwgeom/h/IwGeomSVec3.h'
p1767
(lp1768
I1
ag1733
asS'c:/marmalade/7.4/modules/iwgeom/h/IwGeomMat.h'
p1769
(lp1770
I1
ag1733
asS'c:/marmalade/7.4/modules/iwgeom/h/IwGeomVec3.h'
p1771
(lp1772
I1
ag1733
asS'c:/marmalade/7.4/modules/iwgeom/h/IwGeomVec2.h'
p1773
(lp1774
I1
ag1733
asS'c:/marmalade/7.4/modules/iwgeom/h/IwGeomLegacy.h'
p1775
(lp1776
I1
ag1733
asS'c:/marmalade/7.4/modules/iwgeom/h/IwGeomSQuat.h'
p1777
(lp1778
I1
ag1733
asS'c:/marmalade/7.4/modules/iwgeom/h/IwGeomCore.h'
p1779
(lp1780
I1
ag1733
asS'c:/marmalade/7.4/modules/iwgeom/h/IwGeomVec4.h'
p1781
(lp1782
I1
ag1733
asS'c:/marmalade/7.4/modules/iwgeom/h/IwGeomBBox.h'
p1783
(lp1784
I1
ag1733
asS'c:/marmalade/7.4/modules/iwgeom/h/IwGeomSVec2.h'
p1785
(lp1786
I1
ag1733
asS'c:/marmalade/7.4/modules/iwgeom/h/IwGeomMat2D.h'
p1787
(lp1788
I1
ag1733
asS'c:/marmalade/7.4/modules/iwgeom/h/IwGeomSphere.h'
p1789
(lp1790
I1
ag1733
asS'c:/marmalade/7.4/modules/iwgeom/h/IwGeomFVec3.h'
p1791
(lp1792
I1
ag1733
asS'c:/marmalade/7.4/modules/iwgeom/h/IwGeom.h'
p1793
(lp1794
I1
ag1733
asS'c:/marmalade/7.4/modules/iwgeom/h/IwGeomMat.h.tpl'
p1795
(lp1796
I1
ag1733
asS'c:/marmalade/7.4/modules/iwgeom/h/IwGeomIntersect.h'
p1797
(lp1798
I1
ag1733
asS'c:/marmalade/7.4/modules/iwgeom/h/IwGeomFPlane.h'
p1799
(lp1800
I1
ag1733
asS'c:/marmalade/7.4/modules/iwgeom/h/IwGeomFMat.h'
p1801
(lp1802
I1
ag1733
asS'c:/marmalade/7.4/modules/iwgeom/h/IwGeomSqrt.h'
p1803
(lp1804
I1
ag1733
assS'iwresmanager'
p1805
(dp1806
S'c:/marmalade/7.4/modules/iwresmanager/h/IwResGroup.h'
p1807
(lp1808
I1
a(dp1809
asS'c:/marmalade/7.4/modules/iwresmanager/h/IwResManagerClass.h'
p1810
(lp1811
I1
ag1809
asS'c:/marmalade/7.4/modules/iwresmanager/h/IwResHandlerITX.h'
p1812
(lp1813
I1
ag1809
asS'c:/marmalade/7.4/modules/iwresmanager/h/IwResSerialise.h'
p1814
(lp1815
I1
ag1809
asS'c:/marmalade/7.4/modules/iwresmanager/h/IwResHandlerGROUP.h'
p1816
(lp1817
I1
ag1809
asS'c:/marmalade/7.4/modules/iwresmanager/iwresmanager.mkf'
p1818
(lp1819
I1
a(dp1820
asS'c:/marmalade/7.4/modules/iwresmanager/h/IwResHandlerImage.h'
p1821
(lp1822
I1
ag1809
asS'c:/marmalade/7.4/modules/iwresmanager/h/IwResHandler.h'
p1823
(lp1824
I1
ag1809
asS'c:/marmalade/7.4/modules/iwresmanager/docs/iwresmanager.config.txt'
p1825
(lp1826
I1
ag1809
asS'c:/marmalade/7.4/modules/iwresmanager/h/IwResManager.h'
p1827
(lp1828
I1
ag1809
assS'iwgx'
p1829
(dp1830
S'c:/marmalade/7.4/modules/iwgx/h/IwDebugPrim.h'
p1831
(lp1832
I1
a(dp1833
asS'c:/marmalade/7.4/modules/iwgx/h/IwGxFuncTable.h'
p1834
(lp1835
I1
ag1833
asS'c:/marmalade/7.4/modules/iwgx/h/IwClip.inl'
p1836
(lp1837
I1
ag1833
asS'c:/marmalade/7.4/modules/iwgx/h/IwGxPrint.h'
p1838
(lp1839
I1
ag1833
asS'c:/marmalade/7.4/modules/iwgx/h/IwGx.h'
p1840
(lp1841
I1
ag1833
asS'c:/marmalade/7.4/modules/iwgx/h/IwTexture.h'
p1842
(lp1843
I1
ag1833
asS'c:/marmalade/7.4/modules/iwgx/h/IwColour.h'
p1844
(lp1845
I1
ag1833
asS'c:/marmalade/7.4/modules/iwgx/h/IwGxState.h'
p1846
(lp1847
I1
ag1833
asS'c:/marmalade/7.4/modules/iwgx/h/IwClip.h'
p1848
(lp1849
I1
ag1833
asS'c:/marmalade/7.4/modules/iwgx/h/IwTPage.h'
p1850
(lp1851
I1
ag1833
asS'c:/marmalade/7.4/modules/iwgx/h/IwMaterial.h'
p1852
(lp1853
I1
ag1833
asS'c:/marmalade/7.4/modules/iwgx/h/IwGxDebug.h'
p1854
(lp1855
I1
ag1833
asS'c:/marmalade/7.4/modules/iwgx/h/IwGxShaderTechnique.h'
p1856
(lp1857
I1
ag1833
asS'c:/marmalade/7.4/modules/iwgx/h/IwMatAnim.h'
p1858
(lp1859
I1
ag1833
asS'c:/marmalade/7.4/modules/iwgx/h/IwGxStream.h'
p1860
(lp1861
I1
ag1833
asS'c:/marmalade/7.4/modules/iwgx/h/IwResHandlerMTL.h'
p1862
(lp1863
I1
ag1833
asS'c:/marmalade/7.4/modules/iwgx/h/IwGxMetrics.h'
p1864
(lp1865
I1
ag1833
asS'c:/marmalade/7.4/modules/iwgx/h/IwGxError.h'
p1866
(lp1867
I1
ag1833
asS'c:/marmalade/7.4/modules/iwgx/docs/iwgx.config.txt'
p1868
(lp1869
I1
ag1833
asS'c:/marmalade/7.4/modules/iwgx/h/IwGxTransformSW.h'
p1870
(lp1871
I1
ag1833
asS'c:/marmalade/7.4/modules/iwgx/iwgx.mkf'
p1872
(lp1873
I1
a(dp1874
asS'c:/marmalade/7.4/modules/iwgx/docs/iwgx_public.defines.txt'
p1875
(lp1876
I1
ag1833
asS'c:/marmalade/7.4/modules/iwgx/h/IwFColour.h'
p1877
(lp1878
I1
ag1833
asS'c:/marmalade/7.4/modules/iwgx/h/IwGxTypes.h'
p1879
(lp1880
I1
ag1833
asS'c:/marmalade/7.4/modules/iwgx/h/IwGxSurface.h'
p1881
(lp1882
I1
ag1833
assS'iw2dscenegraphcore'
p1883
(dp1884
S'c:/marmalade/7.4/modules/iw2dscenegraphcore/iw2dscenegraphcore.mkf'
p1885
(lp1886
I1
a(dp1887
asS'c:/marmalade/7.4/modules/iw2dscenegraphcore/source/Iw2DSceneGraphCore.cpp'
p1888
(lp1889
I1
a(dp1890
asS'c:/marmalade/7.4/modules/iw2dscenegraphcore/h/Iw2DSceneGraphCore.h'
p1891
(lp1892
I1
ag1890
assS'iwutil'
p1893
(dp1894
S'c:/marmalade/7.4/modules/iwutil/h/IwTextParser.h'
p1895
(lp1896
I1
a(dp1897
asS'c:/marmalade/7.4/modules/iwutil/h/IwMenu.h'
p1898
(lp1899
I1
ag1897
asS'c:/marmalade/7.4/modules/iwutil/h/IwUtilInitTerm.h'
p1900
(lp1901
I1
ag1897
asS'c:/marmalade/7.4/modules/iwutil/h/IwMemManagerDL.h'
p1902
(lp1903
I1
ag1897
asS'c:/marmalade/7.4/modules/iwutil/h/IwCopyingPtr.h'
p1904
(lp1905
I1
ag1897
asS'c:/marmalade/7.4/modules/iwutil/h/IwDebug.h'
p1906
(lp1907
I1
ag1897
asS'c:/marmalade/7.4/modules/iwutil/h/IwVariableBitField.h'
p1908
(lp1909
I1
ag1897
asS'c:/marmalade/7.4/modules/iwutil/iwutil.mkf'
p1910
(lp1911
I1
a(dp1912
asS'c:/marmalade/7.4/modules/iwutil/h/IwBuffer.h'
p1913
(lp1914
I1
ag1897
asS'c:/marmalade/7.4/modules/iwutil/h/IwRandom.h'
p1915
(lp1916
I1
ag1897
asS'c:/marmalade/7.4/modules/iwutil/h/IwFibre.h'
p1917
(lp1918
I1
ag1897
asS'c:/marmalade/7.4/modules/iwutil/h/IwResource.h'
p1919
(lp1920
I1
ag1897
asS'c:/marmalade/7.4/modules/iwutil/h/IwCore.h'
p1921
(lp1922
I1
ag1897
asS'c:/marmalade/7.4/modules/iwutil/h/IwTextParserITX.h'
p1923
(lp1924
I1
ag1897
asS'c:/marmalade/7.4/modules/iwutil/h/IwManaged.h'
p1925
(lp1926
I1
ag1897
asS'c:/marmalade/7.4/modules/iwutil/h/IwHashString.h'
p1927
(lp1928
I1
ag1897
asS'c:/marmalade/7.4/modules/iwutil/h/IwProfileMenu.h'
p1929
(lp1930
I1
ag1897
asS'c:/marmalade/7.4/modules/iwutil/h/IwManagedList.h'
p1931
(lp1932
I1
ag1897
asS'c:/marmalade/7.4/modules/iwutil/h/IwList.h'
p1933
(lp1934
I1
ag1897
asS'c:/marmalade/7.4/modules/iwutil/h/IwSerialise.h'
p1935
(lp1936
I1
ag1897
asS'c:/marmalade/7.4/modules/iwutil/h/IwClassFactory.h'
p1937
(lp1938
I1
ag1897
asS'c:/marmalade/7.4/modules/iwutil/h/IwTypes.h'
p1939
(lp1940
I1
ag1897
asS'c:/marmalade/7.4/modules/iwutil/h/IwAllocator.h'
p1941
(lp1942
I1
ag1897
asS'c:/marmalade/7.4/modules/iwutil/h/IwMemory.h'
p1943
(lp1944
I1
ag1897
asS'c:/marmalade/7.4/modules/iwutil/h/IwTextParseable.h'
p1945
(lp1946
I1
ag1897
asS'c:/marmalade/7.4/modules/iwutil/h/IwRuntime.h'
p1947
(lp1948
I1
ag1897
asS'c:/marmalade/7.4/modules/iwutil/h/IwMemBucketHelpers.h'
p1949
(lp1950
I1
ag1897
asS'c:/marmalade/7.4/modules/iwutil/h/IwUncopyable.h'
p1951
(lp1952
I1
ag1897
asS'c:/marmalade/7.4/modules/iwutil/h/IwOptimiseSpeed.h'
p1953
(lp1954
I1
ag1897
asS'c:/marmalade/7.4/modules/iwutil/h/IwOptimiseARM.h'
p1955
(lp1956
I1
ag1897
asS'c:/marmalade/7.4/modules/iwutil/h/IwImage.h'
p1957
(lp1958
I1
ag1897
asS'c:/marmalade/7.4/modules/iwutil/h/IwImageHelper.h'
p1959
(lp1960
I1
ag1897
asS'c:/marmalade/7.4/modules/iwutil/h/IwMemBucket.h'
p1961
(lp1962
I1
ag1897
asS'c:/marmalade/7.4/modules/iwutil/h/IwDivide.h'
p1963
(lp1964
I1
ag1897
asS'c:/marmalade/7.4/modules/iwutil/h/IwChar.h'
p1965
(lp1966
I1
ag1897
asS'c:/marmalade/7.4/modules/iwutil/docs/iwutil.config.txt'
p1967
(lp1968
I1
ag1897
asS'c:/marmalade/7.4/modules/iwutil/h/IwUTF8.h'
p1969
(lp1970
I1
ag1897
asS'c:/marmalade/7.4/modules/iwutil/h/IwEvent.h'
p1971
(lp1972
I1
ag1897
asS'c:/marmalade/7.4/modules/iwutil/h/IwMath.h'
p1973
(lp1974
I1
ag1897
asS'c:/marmalade/7.4/modules/iwutil/h/IwAutoFile.h'
p1975
(lp1976
I1
ag1897
asS'c:/marmalade/7.4/modules/iwutil/h/IwString.h'
p1977
(lp1978
I1
ag1897
asS'c:/marmalade/7.4/modules/iwutil/h/IwKeymap.h'
p1979
(lp1980
I1
ag1897
asS'c:/marmalade/7.4/modules/iwutil/h/IwSingleton.h'
p1981
(lp1982
I1
ag1897
asS'c:/marmalade/7.4/modules/iwutil/h/IwFile.h'
p1983
(lp1984
I1
ag1897
asS'c:/marmalade/7.4/modules/iwutil/h/IwOptimiseThumb.h'
p1985
(lp1986
I1
ag1897
asS'c:/marmalade/7.4/modules/iwutil/h/IwUtil.h'
p1987
(lp1988
I1
ag1897
asS'c:/marmalade/7.4/modules/iwutil/h/IwPath.h'
p1989
(lp1990
I1
ag1897
asS'c:/marmalade/7.4/modules/iwutil/h/IwArray.h'
p1991
(lp1992
I1
ag1897
asS'c:/marmalade/7.4/modules/iwutil/h/IwDivTable.h'
p1993
(lp1994
I1
ag1897
asS'c:/marmalade/7.4/modules/iwutil/h/IwOptimiseSize.h'
p1995
(lp1996
I1
ag1897
asssS'(zlib)'
p1997
(dp1998
g1070
(dp1999
S'c:/marmalade/7.4/modules/third_party/zlib/h/zconf.h'
p2000
(lp2001
I1
a(dp2002
asS'c:/marmalade/7.4/modules/third_party/zlib/h/zlib.h'
p2003
(lp2004
I1
ag2002
assS'c:/marmalade/7.4/modules/third_party/zlib/zlib.mkf'
p2005
(lp2006
I1
a(dp2007
assS'(iwtween)'
p2008
(dp2009
S'c:/marmalade/7.4/modules/iwtween/source/IwTween.cpp'
p2010
(lp2011
I1
a(dp2012
asS'c:/marmalade/7.4/modules/iwtween/h/IwTween.h'
p2013
(lp2014
I1
ag2012
asS'c:/marmalade/7.4/modules/iwtween/iwtween.mkf'
p2015
(lp2016
I1
a(dp2017
assS'(s3e-default)'
p2018
(dp2019
S'c:/marmalade/7.4/s3e/s3e-default.mkf'
p2020
(lp2021
I1
a(dp2022
asssS'files'
p2023
(dp2024
S'HUD.cpp'
p2025
g310
(cmkb_main
File
p2026
g312
Ntp2027
Rp2028
(dp2029
S'flags'
p2030
g1392
sS'group'
p2031
(lp2032
g1388
asg336
g1479
sbsS'b2World.cpp'
p2033
g310
(g2026
g312
Ntp2034
Rp2035
(dp2036
g2030
g1132
sg2031
(lp2037
g1125
ag1215
asg336
g1321
sbsS'iterator'
p2038
g310
(g2026
g312
Ntp2039
Rp2040
(dp2041
g2030
(dp2042
sg2031
(lp2043
S"'Marmalade System (S3E)'"
p2044
aS'stdc headers'
p2045
aS'c++'
p2046
asg336
S'c:/marmalade/7.4/s3e/h/std/c++/iterator'
p2047
sbsS'IwGL.h'
p2048
g310
(g2026
g312
Ntp2049
Rp2050
(dp2051
g2030
g1687
sg2031
(lp2052
g1669
ag1683
asg336
g1691
sbsS'ctime'
p2053
g310
(g2026
g312
Ntp2054
Rp2055
(dp2056
g2030
g2042
sg2031
g2043
sg336
S'c:/marmalade/7.4/s3e/h/std/c++/ctime'
p2057
sbsS'b2PrismaticJoint.h'
p2058
g310
(g2026
g312
Ntp2059
Rp2060
(dp2061
g2030
g1132
sg2031
(lp2062
g1125
aS'Dynamics'
p2063
ag1263
asg336
g1269
sbsS'errno.h'
p2064
g310
(g2026
g312
Ntp2065
Rp2066
(dp2067
g2030
g2042
sg2031
(lp2068
g2044
aS'stdc headers'
p2069
asg336
S'c:/marmalade/7.4/s3e/h/std/errno.h'
p2070
sbsS'b2Joint.cpp'
p2071
g310
(g2026
g312
Ntp2072
Rp2073
(dp2074
g2030
g1132
sg2031
g2062
sg336
g1309
sbsS'IwSingleton.h'
p2075
g310
(g2026
g312
Ntp2076
Rp2077
(dp2078
g2030
g1897
sg2031
(lp2079
S"'Marmalade Studio'"
p2080
ag1893
asg336
g1981
sbsS'getopt.h'
p2081
g310
(g2026
g312
Ntp2082
Rp2083
(dp2084
g2030
g2042
sg2031
g2068
sg336
S'c:/marmalade/7.4/s3e/h/std/getopt.h'
p2085
sbsS'dlfcn.h'
p2086
g310
(g2026
g312
Ntp2087
Rp2088
(dp2089
g2030
g2042
sg2031
g2068
sg336
S'c:/marmalade/7.4/s3e/h/std/dlfcn.h'
p2090
sbsS'IwSoundWAV.cpp'
p2091
g310
(g2026
g312
Ntp2092
Rp2093
(dp2094
g2030
g1335
sg2031
(lp2095
g1331
asg336
g1354
sbsS'sched.h'
p2096
g310
(g2026
g312
Ntp2097
Rp2098
(dp2099
g2030
g2042
sg2031
g2068
sg336
S'c:/marmalade/7.4/s3e/h/std/sched.h'
p2100
sbsS'IwSoundPCM.h'
p2101
g310
(g2026
g312
Ntp2102
Rp2103
(dp2104
g2030
g1335
sg2031
g2095
sg336
g1348
sbsS'IwGeomFMat2D.h'
p2105
g310
(g2026
g312
Ntp2106
Rp2107
(dp2108
g2030
g1733
sg2031
(lp2109
S"'Marmalade Studio'"
p2110
ag1729
asg336
g1749
sbsS'Target.cpp'
p2111
g310
(g2026
g312
Ntp2112
Rp2113
(dp2114
g2030
g1392
sg2031
g2032
sg336
g1497
sbsS'cassert'
p2115
g310
(g2026
g312
Ntp2116
Rp2117
(dp2118
g2030
g2042
sg2031
g2043
sg336
S'c:/marmalade/7.4/s3e/h/std/c++/cassert'
p2119
sbsS'grp.h'
p2120
g310
(g2026
g312
Ntp2121
Rp2122
(dp2123
g2030
g2042
sg2031
g2068
sg336
S'c:/marmalade/7.4/s3e/h/std/grp.h'
p2124
sbsS'b2PulleyJoint.h'
p2125
g310
(g2026
g312
Ntp2126
Rp2127
(dp2128
g2030
g1132
sg2031
g2062
sg336
g1283
sbsS'list'
p2129
g310
(g2026
g312
Ntp2130
Rp2131
(dp2132
g2030
g2042
sg2031
g2043
sg336
S'c:/marmalade/7.4/s3e/h/std/c++/list'
p2133
sbsS'IwSoundSpec.cpp'
p2134
g310
(g2026
g312
Ntp2135
Rp2136
(dp2137
g2030
g1335
sg2031
g2095
sg336
g1346
sbsS'FinalYearProject.cpp'
p2138
g310
(g2026
g312
Ntp2139
Rp2140
(dp2141
g2030
g1392
sg2031
g2032
sg336
g1411
sbsS'IwGeomMat.h.tpl'
p2142
g310
(g2026
g312
Ntp2143
Rp2144
(dp2145
g2030
g1733
sg2031
g2109
sg336
g1795
sbsS'b2Distance.cpp'
p2146
g310
(g2026
g312
Ntp2147
Rp2148
(dp2149
g2030
g1132
sg2031
(lp2150
g1125
ag1139
asg336
g1185
sbsS'jpeglib.h'
p2151
g310
(g2026
g312
Ntp2152
Rp2153
(dp2154
g2030
g1085
sg2031
(lp2155
g1080
ag1070
asg336
g1090
sbsS'iw2d_public.defines.txt'
p2156
g310
(g2026
g312
Ntp2157
Rp2158
(dp2159
g2030
g1699
sg2031
(lp2160
S"'Marmalade Studio'"
p2161
ag1695
asg336
g1700
sbsS'iostream.h'
p2162
g310
(g2026
g312
Ntp2163
Rp2164
(dp2165
g2030
g2042
sg2031
g2043
sg336
S'c:/marmalade/7.4/s3e/h/std/c++/iostream.h'
p2166
sbsS'IwSoundADPCM.h'
p2167
g310
(g2026
g312
Ntp2168
Rp2169
(dp2170
g2030
g1335
sg2031
g2095
sg336
g1377
sbsS'b2ChainShape.cpp'
p2171
g310
(g2026
g312
Ntp2172
Rp2173
(dp2174
g2030
g1132
sg2031
(lp2175
g1125
aS'Collision'
p2176
ag1155
asg336
g1169
sbsS'dso.h'
p2177
g310
(g2026
g312
Ntp2178
Rp2179
(dp2180
g2030
g1521
sg2031
(lp2181
g1517
asg336
g1626
sbsS'b2WheelJoint.h'
p2182
g310
(g2026
g312
Ntp2183
Rp2184
(dp2185
g2030
g1132
sg2031
g2062
sg336
g1295
sbsS'IwMemory.h'
p2186
g310
(g2026
g312
Ntp2187
Rp2188
(dp2189
g2030
g1897
sg2031
g2079
sg336
g1943
sbsS'b2DynamicTree.cpp'
p2190
g310
(g2026
g312
Ntp2191
Rp2192
(dp2193
g2030
g1132
sg2031
g2150
sg336
g1177
sbsS'b2CircleContact.cpp'
p2194
g310
(g2026
g312
Ntp2195
Rp2196
(dp2197
g2030
g1132
sg2031
(lp2198
g1125
aS'Dynamics'
p2199
ag1225
asg336
g1235
sbsS'IwGeomPlane.h'
p2200
g310
(g2026
g312
Ntp2201
Rp2202
(dp2203
g2030
g1733
sg2031
g2109
sg336
g1763
sbsS'iw2d.config.txt'
p2204
g310
(g2026
g312
Ntp2205
Rp2206
(dp2207
g2030
g1699
sg2031
g2160
sg336
g1697
sbsS'iomanip'
p2208
g310
(g2026
g312
Ntp2209
Rp2210
(dp2211
g2030
g2042
sg2031
g2043
sg336
S'c:/marmalade/7.4/s3e/h/std/c++/iomanip'
p2212
sbsS'bio.h'
p2213
g310
(g2026
g312
Ntp2214
Rp2215
(dp2216
g2030
g1521
sg2031
g2181
sg336
g1642
sbsS'iwgeom.mkf'
p2217
g310
(g2026
g312
Ntp2218
Rp2219
(dp2220
g2030
g1740
sg2031
g2109
sg336
g1738
sbsS'IwGxError.h'
p2221
g310
(g2026
g312
Ntp2222
Rp2223
(dp2224
g2030
g1833
sg2031
(lp2225
S"'Marmalade Studio'"
p2226
ag1829
asg336
g1866
sbsS'IwGeom.h'
p2227
g310
(g2026
g312
Ntp2228
Rp2229
(dp2230
g2030
g1733
sg2031
g2109
sg336
g1793
sbsS'scene.cpp'
p2231
g310
(g2026
g312
Ntp2232
Rp2233
(dp2234
g2030
g1392
sg2031
g2032
sg336
g1407
sbsS's3e.h'
p2235
g310
(g2026
g312
Ntp2236
Rp2237
(dp2238
g2030
g2042
sg2031
(lp2239
g2044
asg336
S'c:/marmalade/7.4/s3e/h/s3e.h'
p2240
sbsS'ripemd.h'
p2241
g310
(g2026
g312
Ntp2242
Rp2243
(dp2244
g2030
g1521
sg2031
g2181
sg336
g1524
sbsS'IwGeomVec4.h'
p2245
g310
(g2026
g312
Ntp2246
Rp2247
(dp2248
g2030
g1733
sg2031
g2109
sg336
g1781
sbsS'dir.h'
p2249
g310
(g2026
g312
Ntp2250
Rp2251
(dp2252
g2030
g2042
sg2031
(lp2253
g2044
aS'stdc headers'
p2254
aS'sys'
p2255
asg336
S'c:/marmalade/7.4/s3e/h/std/sys/dir.h'
p2256
sbsS'b2EdgeAndPolygonContact.h'
p2257
g310
(g2026
g312
Ntp2258
Rp2259
(dp2260
g2030
g1132
sg2031
g2198
sg336
g1229
sbsS'locale.h'
p2261
g310
(g2026
g312
Ntp2262
Rp2263
(dp2264
g2030
g2042
sg2031
g2068
sg336
S'c:/marmalade/7.4/s3e/h/std/locale.h'
p2265
sbsS'err.h'
p2266
g310
(g2026
g312
Ntp2267
Rp2268
(dp2269
g2030
g1521
sg2031
g2181
sg336
g1638
sbsS'evp.h'
p2270
g310
(g2026
g312
Ntp2271
Rp2272
(dp2273
g2030
g1521
sg2031
g2181
sg336
g1526
sbsS'vector'
p2274
g310
(g2026
g312
Ntp2275
Rp2276
(dp2277
g2030
g2042
sg2031
g2043
sg336
S'c:/marmalade/7.4/s3e/h/std/c++/vector'
p2278
sbsS'IwManaged.h'
p2279
g310
(g2026
g312
Ntp2280
Rp2281
(dp2282
g2030
g1897
sg2031
g2079
sg336
g1925
sbsS'Scoreboard.cpp'
p2283
g310
(g2026
g312
Ntp2284
Rp2285
(dp2286
g2030
g1392
sg2031
g2032
sg336
g1423
sbsS'x509v3.h'
p2287
g310
(g2026
g312
Ntp2288
Rp2289
(dp2290
g2030
g1521
sg2031
g2181
sg336
g1584
sbsS'cderror.h'
p2291
g310
(g2026
g312
Ntp2292
Rp2293
(dp2294
g2030
g1085
sg2031
g2155
sg336
g1098
sbsS'climits'
p2295
g310
(g2026
g312
Ntp2296
Rp2297
(dp2298
g2030
g2042
sg2031
g2043
sg336
S'c:/marmalade/7.4/s3e/h/std/c++/climits'
p2299
sbsS's3eVibra.h'
p2300
g310
(g2026
g312
Ntp2301
Rp2302
(dp2303
g2030
g2042
sg2031
g2239
sg336
S'c:/marmalade/7.4/s3e/h/s3eVibra.h'
p2304
sbsS'jversion.h'
p2305
g310
(g2026
g312
Ntp2306
Rp2307
(dp2308
g2030
g1085
sg2031
g2155
sg336
g1102
sbsS'fnmatch.h'
p2309
g310
(g2026
g312
Ntp2310
Rp2311
(dp2312
g2030
g2042
sg2031
g2068
sg336
S'c:/marmalade/7.4/s3e/h/std/fnmatch.h'
p2313
sbsS'IwGxState.h'
p2314
g310
(g2026
g312
Ntp2315
Rp2316
(dp2317
g2030
g1833
sg2031
g2225
sg336
g1846
sbsS'rope'
p2318
g310
(g2026
g312
Ntp2319
Rp2320
(dp2321
g2030
g2042
sg2031
g2043
sg336
S'c:/marmalade/7.4/s3e/h/std/c++/rope'
p2322
sbsS's3eAudio.h'
p2323
g310
(g2026
g312
Ntp2324
Rp2325
(dp2326
g2030
g2042
sg2031
g2239
sg336
S'c:/marmalade/7.4/s3e/h/s3eAudio.h'
p2327
sbsS'pem2.h'
p2328
g310
(g2026
g312
Ntp2329
Rp2330
(dp2331
g2030
g1521
sg2031
g2181
sg336
g1540
sbsS'b2CollideCircle.cpp'
p2332
g310
(g2026
g312
Ntp2333
Rp2334
(dp2335
g2030
g1132
sg2031
g2150
sg336
g1179
sbsS'Map.cpp'
p2336
g310
(g2026
g312
Ntp2337
Rp2338
(dp2339
g2030
g1392
sg2031
g2032
sg336
g1457
sbsS's3eSurface.h'
p2340
g310
(g2026
g312
Ntp2341
Rp2342
(dp2343
g2030
g2042
sg2031
g2239
sg336
S'c:/marmalade/7.4/s3e/h/s3eSurface.h'
p2344
sbsS'new'
p2345
g310
(g2026
g312
Ntp2346
Rp2347
(dp2348
g2030
g2042
sg2031
g2043
sg336
S'c:/marmalade/7.4/s3e/h/std/c++/new'
p2349
sbsS's3eWindow.h'
p2350
g310
(g2026
g312
Ntp2351
Rp2352
(dp2353
g2030
g2042
sg2031
(lp2354
g2044
aS'Extensions'
p2355
asg336
S'c:/marmalade/7.4/s3e/h/ext/s3eWindow.h'
p2356
sbsS'IwBuffer.h'
p2357
g310
(g2026
g312
Ntp2358
Rp2359
(dp2360
g2030
g1897
sg2031
g2079
sg336
g1913
sbsS'assert.h'
p2361
g310
(g2026
g312
Ntp2362
Rp2363
(dp2364
g2030
g2042
sg2031
g2068
sg336
S'c:/marmalade/7.4/s3e/h/std/assert.h'
p2365
sbsS'stdio_streambuf'
p2366
g310
(g2026
g312
Ntp2367
Rp2368
(dp2369
g2030
g2042
sg2031
g2043
sg336
S'c:/marmalade/7.4/s3e/h/std/c++/stdio_streambuf'
p2370
sbsS'IwGeomQuat.h.tpl'
p2371
g310
(g2026
g312
Ntp2372
Rp2373
(dp2374
g2030
g1733
sg2031
g2109
sg336
g1765
sbsS's3eOSExec.h'
p2375
g310
(g2026
g312
Ntp2376
Rp2377
(dp2378
g2030
g2042
sg2031
g2354
sg336
S'c:/marmalade/7.4/s3e/h/ext/s3eOSExec.h'
p2379
sbsS'b2ContactSolver.cpp'
p2380
g310
(g2026
g312
Ntp2381
Rp2382
(dp2383
g2030
g1132
sg2031
g2198
sg336
g1227
sbsS'NetworkManager.h'
p2384
g310
(g2026
g312
Ntp2385
Rp2386
(dp2387
g2030
g1392
sg2031
g2032
sg336
g1395
sbsS'IwGxTransformSW.h'
p2388
g310
(g2026
g312
Ntp2389
Rp2390
(dp2391
g2030
g1833
sg2031
g2225
sg336
g1870
sbsS'b2ContactSolver.h'
p2392
g310
(g2026
g312
Ntp2393
Rp2394
(dp2395
g2030
g1132
sg2031
g2198
sg336
g1245
sbsS'b2World.h'
p2396
g310
(g2026
g312
Ntp2397
Rp2398
(dp2399
g2030
g1132
sg2031
g2037
sg336
g1219
sbsS'iwgxfont.config.txt'
p2400
g310
(g2026
g312
Ntp2401
Rp2402
(dp2403
g2030
g1711
sg2031
(lp2404
S"'Marmalade Studio'"
p2405
ag1707
asg336
g1716
sbsS'gl2platform.h'
p2406
g310
(g2026
g312
Ntp2407
Rp2408
(dp2409
g2030
g2042
sg2031
(lp2410
g2044
aS'GL'
p2411
aS'GLES 2.0'
p2412
asg336
S'c:/marmalade/7.4/s3e/h/GLES2/gl2platform.h'
p2413
sbsS'iw2dscenegraph.defines.txt'
p2414
g310
(g2026
g312
Ntp2415
Rp2416
(dp2417
g2030
g1675
sg2031
(lp2418
S"'Marmalade Studio'"
p2419
ag1671
asg336
g1673
sbsS'queue'
p2420
g310
(g2026
g312
Ntp2421
Rp2422
(dp2423
g2030
g2042
sg2031
g2043
sg336
S'c:/marmalade/7.4/s3e/h/std/c++/queue'
p2424
sbsS'fstream.h'
p2425
g310
(g2026
g312
Ntp2426
Rp2427
(dp2428
g2030
g2042
sg2031
g2043
sg336
S'c:/marmalade/7.4/s3e/h/std/c++/fstream.h'
p2429
sbsS'time_1.h'
p2430
g310
(g2026
g312
Ntp2431
Rp2432
(dp2433
g2030
g2042
sg2031
g2253
sg336
S'c:/marmalade/7.4/s3e/h/std/sys/time.h'
p2434
sbsS'ebcdic.h'
p2435
g310
(g2026
g312
Ntp2436
Rp2437
(dp2438
g2030
g1521
sg2031
g2181
sg336
g1612
sbsS'IwGeomVec2.h'
p2439
g310
(g2026
g312
Ntp2440
Rp2441
(dp2442
g2030
g1733
sg2031
g2109
sg336
g1773
sbsS'opensslv.h'
p2443
g310
(g2026
g312
Ntp2444
Rp2445
(dp2446
g2030
g1521
sg2031
g2181
sg336
g1614
sbsS'sendfile.h'
p2447
g310
(g2026
g312
Ntp2448
Rp2449
(dp2450
g2030
g2042
sg2031
g2253
sg336
S'c:/marmalade/7.4/s3e/h/std/sys/sendfile.h'
p2451
sbsS'malloc.h'
p2452
g310
(g2026
g312
Ntp2453
Rp2454
(dp2455
g2030
g2042
sg2031
g2068
sg336
S'c:/marmalade/7.4/s3e/h/std/malloc.h'
p2456
sbsS'stdarg.h'
p2457
g310
(g2026
g312
Ntp2458
Rp2459
(dp2460
g2030
g2042
sg2031
g2068
sg336
S'c:/marmalade/7.4/s3e/h/std/stdarg.h'
p2461
sbsS'IwGeomCore.h'
p2462
g310
(g2026
g312
Ntp2463
Rp2464
(dp2465
g2030
g1733
sg2031
g2109
sg336
g1779
sbsS'Iw2DSceneGraph.h'
p2466
g310
(g2026
g312
Ntp2467
Rp2468
(dp2469
g2030
g1675
sg2031
g2418
sg336
g1681
sbsS'endian.h'
p2470
g310
(g2026
g312
Ntp2471
Rp2472
(dp2473
g2030
g2042
sg2031
g2068
sg336
S'c:/marmalade/7.4/s3e/h/std/endian.h'
p2474
sbsS'gl3ext.h'
p2475
g310
(g2026
g312
Ntp2476
Rp2477
(dp2478
g2030
g2042
sg2031
(lp2479
g2044
aS'GL'
p2480
aS'GLES 3.0'
p2481
asg336
S'c:/marmalade/7.4/s3e/h/GLES3/gl3ext.h'
p2482
sbsS'glob.h'
p2483
g310
(g2026
g312
Ntp2484
Rp2485
(dp2486
g2030
g2042
sg2031
g2068
sg336
S'c:/marmalade/7.4/s3e/h/std/glob.h'
p2487
sbsS'conf.h'
p2488
g310
(g2026
g312
Ntp2489
Rp2490
(dp2491
g2030
g1521
sg2031
g2181
sg336
g1548
sbsS'fstream'
p2492
g310
(g2026
g312
Ntp2493
Rp2494
(dp2495
g2030
g2042
sg2031
g2043
sg336
S'c:/marmalade/7.4/s3e/h/std/c++/fstream'
p2496
sbsS'buffer.h'
p2497
g310
(g2026
g312
Ntp2498
Rp2499
(dp2500
g2030
g1521
sg2031
g2181
sg336
g1544
sbsS's3eCamera.h'
p2501
g310
(g2026
g312
Ntp2502
Rp2503
(dp2504
g2030
g2042
sg2031
g2239
sg336
S'c:/marmalade/7.4/s3e/h/s3eCamera.h'
p2505
sbsS'PlayerManager.h'
p2506
g310
(g2026
g312
Ntp2507
Rp2508
(dp2509
g2030
g1392
sg2031
g2032
sg336
g1403
sbsS'jconfig.h'
p2510
g310
(g2026
g312
Ntp2511
Rp2512
(dp2513
g2030
g1085
sg2031
g2155
sg336
g1096
sbsS'memory'
p2514
g310
(g2026
g312
Ntp2515
Rp2516
(dp2517
g2030
g2042
sg2031
g2043
sg336
S'c:/marmalade/7.4/s3e/h/std/c++/memory'
p2518
sbsS'HUD.h'
p2519
g310
(g2026
g312
Ntp2520
Rp2521
(dp2522
g2030
g1392
sg2031
g2032
sg336
g1417
sbsS'egl.h'
p2523
g310
(g2026
g312
Ntp2524
Rp2525
(dp2526
g2030
g2042
sg2031
(lp2527
g2044
aS'GL'
p2528
aS'EGL'
p2529
asg336
S'c:/marmalade/7.4/s3e/h/EGL/egl.h'
p2530
sbsS'IwClip.inl'
p2531
g310
(g2026
g312
Ntp2532
Rp2533
(dp2534
g2030
g1833
sg2031
g2225
sg336
g1836
sbsS'IwMemManagerDL.h'
p2535
g310
(g2026
g312
Ntp2536
Rp2537
(dp2538
g2030
g1897
sg2031
g2079
sg336
g1902
sbsS'deque'
p2539
g310
(g2026
g312
Ntp2540
Rp2541
(dp2542
g2030
g2042
sg2031
g2043
sg336
S'c:/marmalade/7.4/s3e/h/std/c++/deque'
p2543
sbsS'b2WheelJoint.cpp'
p2544
g310
(g2026
g312
Ntp2545
Rp2546
(dp2547
g2030
g1132
sg2031
g2062
sg336
g1273
sbsS'IwString.h'
p2548
g310
(g2026
g312
Ntp2549
Rp2550
(dp2551
g2030
g1897
sg2031
g2079
sg336
g1977
sbsS'CurlHelper.cpp'
p2552
g310
(g2026
g312
Ntp2553
Rp2554
(dp2555
g2030
g1392
sg2031
g2032
sg336
g1453
sbsS'cwchar'
p2556
g310
(g2026
g312
Ntp2557
Rp2558
(dp2559
g2030
g2042
sg2031
g2043
sg336
S'c:/marmalade/7.4/s3e/h/std/c++/cwchar'
p2560
sbsS'b2Math.cpp'
p2561
g310
(g2026
g312
Ntp2562
Rp2563
(dp2564
g2030
g1132
sg2031
(lp2565
g1125
ag1187
asg336
g1205
sbsS'iwutil.mkf'
p2566
g310
(g2026
g312
Ntp2567
Rp2568
(dp2569
g2030
g1912
sg2031
g2079
sg336
g1910
sbsS'csignal'
p2570
g310
(g2026
g312
Ntp2571
Rp2572
(dp2573
g2030
g2042
sg2031
g2043
sg336
S'c:/marmalade/7.4/s3e/h/std/c++/csignal'
p2574
sbsS'pthread_types.h'
p2575
g310
(g2026
g312
Ntp2576
Rp2577
(dp2578
g2030
g2042
sg2031
g2068
sg336
S'c:/marmalade/7.4/s3e/h/std/pthread_types.h'
p2579
sbsS'b2DistanceJoint.cpp'
p2580
g310
(g2026
g312
Ntp2581
Rp2582
(dp2583
g2030
g1132
sg2031
g2062
sg336
g1311
sbsS'MainMenu.h'
p2584
g310
(g2026
g312
Ntp2585
Rp2586
(dp2587
g2030
g1392
sg2031
g2032
sg336
g1493
sbsS'pthread_alloc'
p2588
g310
(g2026
g312
Ntp2589
Rp2590
(dp2591
g2030
g2042
sg2031
g2043
sg336
S'c:/marmalade/7.4/s3e/h/std/c++/pthread_alloc'
p2592
sbsS'b2ChainAndPolygonContact.cpp'
p2593
g310
(g2026
g312
Ntp2594
Rp2595
(dp2596
g2030
g1132
sg2031
g2198
sg336
g1231
sbsS'IwOptimiseARM.h'
p2597
g310
(g2026
g312
Ntp2598
Rp2599
(dp2600
g2030
g1897
sg2031
g2079
sg336
g1955
sbsS'times.h'
p2601
g310
(g2026
g312
Ntp2602
Rp2603
(dp2604
g2030
g2042
sg2031
g2253
sg336
S'c:/marmalade/7.4/s3e/h/std/sys/times.h'
p2605
sbsS'IwGeomFSphere.h'
p2606
g310
(g2026
g312
Ntp2607
Rp2608
(dp2609
g2030
g1733
sg2031
g2109
sg336
g1743
sbsS'b2DistanceJoint.h'
p2610
g310
(g2026
g312
Ntp2611
Rp2612
(dp2613
g2030
g1132
sg2031
g2062
sg336
g1285
sbsS'seed.h'
p2614
g310
(g2026
g312
Ntp2615
Rp2616
(dp2617
g2030
g1521
sg2031
g2181
sg336
g1538
sbsS'b2CircleShape.cpp'
p2618
g310
(g2026
g312
Ntp2619
Rp2620
(dp2621
g2030
g1132
sg2031
g2175
sg336
g1171
sbsS'whrlpool.h'
p2622
g310
(g2026
g312
Ntp2623
Rp2624
(dp2625
g2030
g1521
sg2031
g2181
sg336
g1598
sbsS'PickUp.h'
p2626
g310
(g2026
g312
Ntp2627
Rp2628
(dp2629
g2030
g1392
sg2031
g2032
sg336
g1427
sbsS'IwTypes.h'
p2630
g310
(g2026
g312
Ntp2631
Rp2632
(dp2633
g2030
g1897
sg2031
g2079
sg336
g1939
sbsS'IwGxMetrics.h'
p2634
g310
(g2026
g312
Ntp2635
Rp2636
(dp2637
g2030
g1833
sg2031
g2225
sg336
g1864
sbsS's3eIOSBackgroundAudio.h'
p2638
g310
(g2026
g312
Ntp2639
Rp2640
(dp2641
g2030
g2042
sg2031
g2354
sg336
S'c:/marmalade/7.4/s3e/h/ext/s3eIOSBackgroundAudio.h'
p2642
sbsS'audio.cpp'
p2643
g310
(g2026
g312
Ntp2644
Rp2645
(dp2646
g2030
g1392
sg2031
g2032
sg336
g1425
sbsS'Grenade.h'
p2647
g310
(g2026
g312
Ntp2648
Rp2649
(dp2650
g2030
g1392
sg2031
g2032
sg336
g1390
sbsS's3eCompression.h'
p2651
g310
(g2026
g312
Ntp2652
Rp2653
(dp2654
g2030
g2042
sg2031
g2239
sg336
S'c:/marmalade/7.4/s3e/h/s3eCompression.h'
p2655
sbsS'langinfo.h'
p2656
g310
(g2026
g312
Ntp2657
Rp2658
(dp2659
g2030
g2042
sg2031
g2068
sg336
S'c:/marmalade/7.4/s3e/h/std/langinfo.h'
p2660
sbsS's3edebugHeap.h'
p2661
g310
(g2026
g312
Ntp2662
Rp2663
(dp2664
g2030
g2042
sg2031
g2354
sg336
S'c:/marmalade/7.4/s3e/h/ext/s3edebugHeap.h'
p2665
sbsS'AirplayVersion.h'
p2666
g310
(g2026
g312
Ntp2667
Rp2668
(dp2669
g2030
g2042
sg2031
g2239
sg336
S'c:/marmalade/7.4/s3e/h/AirplayVersion.h'
p2670
sbsS'b2TimeOfImpact.cpp'
p2671
g310
(g2026
g312
Ntp2672
Rp2673
(dp2674
g2030
g1132
sg2031
g2150
sg336
g1181
sbsS'Grenade.cpp'
p2675
g310
(g2026
g312
Ntp2676
Rp2677
(dp2678
g2030
g1392
sg2031
g2032
sg336
g1447
sbsS'gl2extimg.h'
p2679
g310
(g2026
g312
Ntp2680
Rp2681
(dp2682
g2030
g2042
sg2031
g2410
sg336
S'c:/marmalade/7.4/s3e/h/GLES2/gl2extimg.h'
p2683
sbsS'app.config.txt'
p2684
g310
(g2026
g312
Ntp2685
Rp2686
(dp2687
g2030
(dp2688
sg2031
g4
sg336
S'c:/Users/Ben/Desktop/College/FYP/FinalYearProject/data/app.config.txt'
p2689
sbsS'IwGeomSqrt.h'
p2690
g310
(g2026
g312
Ntp2691
Rp2692
(dp2693
g2030
g1733
sg2031
g2109
sg336
g1803
sbsS'tiniconv_int.h'
p2694
g310
(g2026
g312
Ntp2695
Rp2696
(dp2697
g2030
g1119
sg2031
(lp2698
g1115
asg336
g1117
sbsS'modes.h'
p2699
g310
(g2026
g312
Ntp2700
Rp2701
(dp2702
g2030
g1521
sg2031
g2181
sg336
g1657
sbsS'syslog.h'
p2703
g310
(g2026
g312
Ntp2704
Rp2705
(dp2706
g2030
g2042
sg2031
g2068
sg336
S'c:/marmalade/7.4/s3e/h/std/syslog.h'
p2707
sbsS'camellia.h'
p2708
g310
(g2026
g312
Ntp2709
Rp2710
(dp2711
g2030
g1521
sg2031
g2181
sg336
g1536
sbsS'IwGxFontTypes.h'
p2712
g310
(g2026
g312
Ntp2713
Rp2714
(dp2715
g2030
g1711
sg2031
g2404
sg336
g1709
sbsS'IwGeomFIntersect.h'
p2716
g310
(g2026
g312
Ntp2717
Rp2718
(dp2719
g2030
g1733
sg2031
g2109
sg336
g1734
sbsS'hash_map'
p2720
g310
(g2026
g312
Ntp2721
Rp2722
(dp2723
g2030
g2042
sg2031
g2043
sg336
S'c:/marmalade/7.4/s3e/h/std/c++/hash_map'
p2724
sbsS'PlayerManager.cpp'
p2725
g310
(g2026
g312
Ntp2726
Rp2727
(dp2728
g2030
g1392
sg2031
g2032
sg336
g1483
sbsS'Scoreboard.h'
p2729
g310
(g2026
g312
Ntp2730
Rp2731
(dp2732
g2030
g1392
sg2031
g2032
sg336
g1461
sbsS'IwGeomMat2D.h.tpl'
p2733
g310
(g2026
g312
Ntp2734
Rp2735
(dp2736
g2030
g1733
sg2031
g2109
sg336
g1736
sbsS's3eOSReadString.h'
p2737
g310
(g2026
g312
Ntp2738
Rp2739
(dp2740
g2030
g2042
sg2031
g2354
sg336
S'c:/marmalade/7.4/s3e/h/ext/s3eOSReadString.h'
p2741
sbsS'IwSound.h'
p2742
g310
(g2026
g312
Ntp2743
Rp2744
(dp2745
g2030
g1335
sg2031
g2095
sg336
g1369
sbsS'map'
p2746
g310
(g2026
g312
Ntp2747
Rp2748
(dp2749
g2030
g2042
sg2031
g2043
sg336
S'c:/marmalade/7.4/s3e/h/std/c++/map'
p2750
sbsS'iwtween.mkf'
p2751
g310
(g2026
g312
Ntp2752
Rp2753
(dp2754
g2030
g2017
sg2031
(lp2755
g2008
asg336
g2015
sbsS'b2Body.cpp'
p2756
g310
(g2026
g312
Ntp2757
Rp2758
(dp2759
g2030
g1132
sg2031
g2037
sg336
g1217
sbsS'IwOptimiseSpeed.h'
p2760
g310
(g2026
g312
Ntp2761
Rp2762
(dp2763
g2030
g1897
sg2031
g2079
sg336
g1953
sbsS'b2ContactManager.h'
p2764
g310
(g2026
g312
Ntp2765
Rp2766
(dp2767
g2030
g1132
sg2031
g2037
sg336
g1313
sbsS'ostream'
p2768
g310
(g2026
g312
Ntp2769
Rp2770
(dp2771
g2030
g2042
sg2031
g2043
sg336
S'c:/marmalade/7.4/s3e/h/std/c++/ostream'
p2772
sbsS'msl_string.h'
p2773
g310
(g2026
g312
Ntp2774
Rp2775
(dp2776
g2030
g2042
sg2031
g2043
sg336
S'c:/marmalade/7.4/s3e/h/std/c++/msl_string.h'
p2777
sbsS'b2CircleContact.h'
p2778
g310
(g2026
g312
Ntp2779
Rp2780
(dp2781
g2030
g1132
sg2031
g2198
sg336
g1239
sbsS'b2Settings.cpp'
p2782
g310
(g2026
g312
Ntp2783
Rp2784
(dp2785
g2030
g1132
sg2031
g2565
sg336
g1201
sbsS'sigcontext.h'
p2786
g310
(g2026
g312
Ntp2787
Rp2788
(dp2789
g2030
g2042
sg2031
g2068
sg336
S'c:/marmalade/7.4/s3e/h/std/sigcontext.h'
p2790
sbsS'select.h'
p2791
g310
(g2026
g312
Ntp2792
Rp2793
(dp2794
g2030
g2042
sg2031
g2253
sg336
S'c:/marmalade/7.4/s3e/h/std/sys/select.h'
p2795
sbsS'b2RevoluteJoint.cpp'
p2796
g310
(g2026
g312
Ntp2797
Rp2798
(dp2799
g2030
g1132
sg2031
g2062
sg336
g1279
sbsS'b2PolygonAndCircleContact.h'
p2800
g310
(g2026
g312
Ntp2801
Rp2802
(dp2803
g2030
g1132
sg2031
g2198
sg336
g1243
sbsS'zlib.mkf'
p2804
g310
(g2026
g312
Ntp2805
Rp2806
(dp2807
g2030
g2007
sg2031
(lp2808
g1997
asg336
g2005
sbsS'rc5.h'
p2809
g310
(g2026
g312
Ntp2810
Rp2811
(dp2812
g2030
g1521
sg2031
g2181
sg336
g1630
sbsS'signal.h'
p2813
g310
(g2026
g312
Ntp2814
Rp2815
(dp2816
g2030
g2042
sg2031
g2068
sg336
S'c:/marmalade/7.4/s3e/h/std/signal.h'
p2817
sbsS'iwgl.config.txt'
p2818
g310
(g2026
g312
Ntp2819
Rp2820
(dp2821
g2030
g1687
sg2031
g2052
sg336
g1685
sbsS'IwGeomMenu.h'
p2822
g310
(g2026
g312
Ntp2823
Rp2824
(dp2825
g2030
g1733
sg2031
g2109
sg336
g1747
sbsS'libpng.mkf'
p2826
g310
(g2026
g312
Ntp2827
Rp2828
(dp2829
g2030
g1079
sg2031
(lp2830
g1068
asg336
g1077
sbsS'b2Math.h'
p2831
g310
(g2026
g312
Ntp2832
Rp2833
(dp2834
g2030
g1132
sg2031
g2565
sg336
g1207
sbsS'b2StackAllocator.h'
p2835
g310
(g2026
g312
Ntp2836
Rp2837
(dp2838
g2030
g1132
sg2031
g2565
sg336
g1189
sbsS'IwGxFuncTable.h'
p2839
g310
(g2026
g312
Ntp2840
Rp2841
(dp2842
g2030
g1833
sg2031
g2225
sg336
g1834
sbsS'IwResHandlerGROUP.h'
p2843
g310
(g2026
g312
Ntp2844
Rp2845
(dp2846
g2030
g1809
sg2031
(lp2847
S"'Marmalade Studio'"
p2848
ag1805
asg336
g1816
sbsS's3eDebug.h'
p2849
g310
(g2026
g312
Ntp2850
Rp2851
(dp2852
g2030
g2042
sg2031
g2239
sg336
S'c:/marmalade/7.4/s3e/h/s3eDebug.h'
p2853
sbsS'socket.h'
p2854
g310
(g2026
g312
Ntp2855
Rp2856
(dp2857
g2030
g2042
sg2031
g2253
sg336
S'c:/marmalade/7.4/s3e/h/std/sys/socket.h'
p2858
sbsS'glext.h'
p2859
g310
(g2026
g312
Ntp2860
Rp2861
(dp2862
g2030
g2042
sg2031
(lp2863
g2044
aS'GL'
p2864
aS'GLES 1.x'
p2865
asg336
S'c:/marmalade/7.4/s3e/h/GLES/glext.h'
p2866
sbsS'netdb.h'
p2867
g310
(g2026
g312
Ntp2868
Rp2869
(dp2870
g2030
g2042
sg2031
g2068
sg336
S'c:/marmalade/7.4/s3e/h/std/netdb.h'
p2871
sbsS'unistd.h'
p2872
g310
(g2026
g312
Ntp2873
Rp2874
(dp2875
g2030
g2042
sg2031
g2068
sg336
S'c:/marmalade/7.4/s3e/h/std/unistd.h'
p2876
sbsS'typeinfo.h'
p2877
g310
(g2026
g312
Ntp2878
Rp2879
(dp2880
g2030
g2042
sg2031
g2043
sg336
S'c:/marmalade/7.4/s3e/h/std/c++/typeinfo.h'
p2881
sbsS'typeinfo'
p2882
g310
(g2026
g312
Ntp2883
Rp2884
(dp2885
g2030
g2042
sg2031
g2043
sg336
S'c:/marmalade/7.4/s3e/h/std/c++/typeinfo'
p2886
sbsS'ui.h'
p2887
g310
(g2026
g312
Ntp2888
Rp2889
(dp2890
g2030
g1521
sg2031
g2181
sg336
g1596
sbsS'iwsound.config.txt'
p2891
g310
(g2026
g312
Ntp2892
Rp2893
(dp2894
g2030
g1335
sg2031
(lp2895
g1331
ag1340
asg336
g1342
sbsS'ctype.h'
p2896
g310
(g2026
g312
Ntp2897
Rp2898
(dp2899
g2030
g2042
sg2031
g2068
sg336
S'c:/marmalade/7.4/s3e/h/std/ctype.h'
p2900
sbsS'b2Rope.cpp'
p2901
g310
(g2026
g312
Ntp2902
Rp2903
(dp2904
g2030
g1132
sg2031
(lp2905
g1125
ag1133
asg336
g1137
sbsS's3ePointer.h'
p2906
g310
(g2026
g312
Ntp2907
Rp2908
(dp2909
g2030
g2042
sg2031
g2239
sg336
S'c:/marmalade/7.4/s3e/h/s3ePointer.h'
p2910
sbsS'iw2d.mkf'
p2911
g310
(g2026
g312
Ntp2912
Rp2913
(dp2914
g2030
g1706
sg2031
g2160
sg336
g1704
sbsS'PVRTexTool.h'
p2915
g310
(g2026
g312
Ntp2916
Rp2917
(dp2918
g2030
g1509
sg2031
(lp2919
g1501
ag1503
asg336
g1515
sbsS'box2d.mkf'
p2920
g310
(g2026
g312
Ntp2921
Rp2922
(dp2923
g2030
g1129
sg2031
(lp2924
g1125
asg336
g1127
sbsS'b2EdgeShape.cpp'
p2925
g310
(g2026
g312
Ntp2926
Rp2927
(dp2928
g2030
g1132
sg2031
g2175
sg336
g1165
sbsS's3eGL.h'
p2929
g310
(g2026
g312
Ntp2930
Rp2931
(dp2932
g2030
g2042
sg2031
g2239
sg336
S'c:/marmalade/7.4/s3e/h/s3eGL.h'
p2933
sbsS'functional'
p2934
g310
(g2026
g312
Ntp2935
Rp2936
(dp2937
g2030
g2042
sg2031
g2043
sg336
S'c:/marmalade/7.4/s3e/h/std/c++/functional'
p2938
sbsS'crypto.h'
p2939
g310
(g2026
g312
Ntp2940
Rp2941
(dp2942
g2030
g1521
sg2031
g2181
sg336
g1542
sbsS'IwGeomFVec2.h'
p2943
g310
(g2026
g312
Ntp2944
Rp2945
(dp2946
g2030
g1733
sg2031
g2109
sg336
g1759
sbsS'IwGeomSVec4.h'
p2947
g310
(g2026
g312
Ntp2948
Rp2949
(dp2950
g2030
g1733
sg2031
g2109
sg336
g1757
sbsS's3e.mkf'
p2951
g310
(g2026
g312
Ntp2952
Rp2953
(dp2954
g2030
(dp2955
sg2031
g2239
sg336
S'c:/marmalade/7.4/s3e/s3e.mkf'
p2956
sbsS'poll.h'
p2957
g310
(g2026
g312
Ntp2958
Rp2959
(dp2960
g2030
g2042
sg2031
g2068
sg336
S'c:/marmalade/7.4/s3e/h/std/poll.h'
p2961
sbsS'IwMatAnim.h'
p2962
g310
(g2026
g312
Ntp2963
Rp2964
(dp2965
g2030
g1833
sg2031
g2225
sg336
g1858
sbsS'b2EdgeAndPolygonContact.cpp'
p2966
g310
(g2026
g312
Ntp2967
Rp2968
(dp2969
g2030
g1132
sg2031
g2198
sg336
g1257
sbsS'IwGeomFVec4.h'
p2970
g310
(g2026
g312
Ntp2971
Rp2972
(dp2973
g2030
g1733
sg2031
g2109
sg336
g1751
sbsS'b2BlockAllocator.h'
p2974
g310
(g2026
g312
Ntp2975
Rp2976
(dp2977
g2030
g1132
sg2031
g2565
sg336
g1199
sbsS'IwGx.h'
p2978
g310
(g2026
g312
Ntp2979
Rp2980
(dp2981
g2030
g1833
sg2031
g2225
sg336
g1840
sbsS'kssl.h'
p2982
g310
(g2026
g312
Ntp2983
Rp2984
(dp2985
g2030
g1521
sg2031
g2181
sg336
g1636
sbsS'valarray'
p2986
g310
(g2026
g312
Ntp2987
Rp2988
(dp2989
g2030
g2042
sg2031
g2043
sg336
S'c:/marmalade/7.4/s3e/h/std/c++/valarray'
p2990
sbsS'iosfwd'
p2991
g310
(g2026
g312
Ntp2992
Rp2993
(dp2994
g2030
g2042
sg2031
g2043
sg336
S'c:/marmalade/7.4/s3e/h/std/c++/iosfwd'
p2995
sbsS'gl2.h'
p2996
g310
(g2026
g312
Ntp2997
Rp2998
(dp2999
g2030
g2042
sg2031
g2410
sg336
S'c:/marmalade/7.4/s3e/h/GLES2/gl2.h'
p3000
sbsS'asn1.h'
p3001
g310
(g2026
g312
Ntp3002
Rp3003
(dp3004
g2030
g1521
sg2031
g2181
sg336
g1628
sbsS'obj_mac.h'
p3005
g310
(g2026
g312
Ntp3006
Rp3007
(dp3008
g2030
g1521
sg2031
g2181
sg336
g1560
sbsS'jpegint.h'
p3009
g310
(g2026
g312
Ntp3010
Rp3011
(dp3012
g2030
g1085
sg2031
g2155
sg336
g1108
sbsS'b2Joint.h'
p3013
g310
(g2026
g312
Ntp3014
Rp3015
(dp3016
g2030
g1132
sg2031
g2062
sg336
g1297
sbsS'IwResManagerClass.h'
p3017
g310
(g2026
g312
Ntp3018
Rp3019
(dp3020
g2030
g1809
sg2031
g2847
sg336
g1810
sbsS'safestack.h'
p3021
g310
(g2026
g312
Ntp3022
Rp3023
(dp3024
g2030
g1521
sg2031
g2181
sg336
g1580
sbsS'stdiostream.h'
p3025
g310
(g2026
g312
Ntp3026
Rp3027
(dp3028
g2030
g2042
sg2031
g2043
sg336
S'c:/marmalade/7.4/s3e/h/std/c++/stdiostream.h'
p3029
sbsS'ui_compat.h'
p3030
g310
(g2026
g312
Ntp3031
Rp3032
(dp3033
g2030
g1521
sg2031
g2181
sg336
g1582
sbsS'mem.h'
p3034
g310
(g2026
g312
Ntp3035
Rp3036
(dp3037
g2030
g2042
sg2031
g2043
sg336
S'c:/marmalade/7.4/s3e/h/std/c++/mem.h'
p3038
sbsS'jerror.h'
p3039
g310
(g2026
g312
Ntp3040
Rp3041
(dp3042
g2030
g1085
sg2031
g2155
sg336
g1083
sbsS'x509_vfy.h'
p3043
g310
(g2026
g312
Ntp3044
Rp3045
(dp3046
g2030
g1521
sg2031
g2181
sg336
g1592
sbsS'zconf.h'
p3047
g310
(g2026
g312
Ntp3048
Rp3049
(dp3050
g2030
g2002
sg2031
(lp3051
g1997
ag1070
asg336
g2000
sbsS's3e.config.txt'
p3052
g310
(g2026
g312
Ntp3053
Rp3054
(dp3055
g2030
g2042
sg2031
g2239
sg336
S'c:/marmalade/7.4/s3e/s3e.config.txt'
p3056
sbsS'numeric'
p3057
g310
(g2026
g312
Ntp3058
Rp3059
(dp3060
g2030
g2042
sg2031
g2043
sg336
S'c:/marmalade/7.4/s3e/h/std/c++/numeric'
p3061
sbsS'utime.h'
p3062
g310
(g2026
g312
Ntp3063
Rp3064
(dp3065
g2030
g2042
sg2031
g2068
sg336
S'c:/marmalade/7.4/s3e/h/std/utime.h'
p3066
sbsS'md5.h'
p3067
g310
(g2026
g312
Ntp3068
Rp3069
(dp3070
g2030
g1521
sg2031
g2181
sg336
g1663
sbsS'jdhuff.h'
p3071
g310
(g2026
g312
Ntp3072
Rp3073
(dp3074
g2030
g1085
sg2031
g2155
sg336
g1106
sbsS'IwResHandlerWAV.cpp'
p3075
g310
(g2026
g312
Ntp3076
Rp3077
(dp3078
g2030
g1335
sg2031
g2095
sg336
g1344
sbsS'b2Body.h'
p3079
g310
(g2026
g312
Ntp3080
Rp3081
(dp3082
g2030
g1132
sg2031
g2037
sg336
g1315
sbsS'b2PolygonContact.cpp'
p3083
g310
(g2026
g312
Ntp3084
Rp3085
(dp3086
g2030
g1132
sg2031
g2198
sg336
g1241
sbsS'stdio.h'
p3087
g310
(g2026
g312
Ntp3088
Rp3089
(dp3090
g2030
g2042
sg2031
g2068
sg336
S'c:/marmalade/7.4/s3e/h/std/stdio.h'
p3091
sbsS'b2WeldJoint.cpp'
p3092
g310
(g2026
g312
Ntp3093
Rp3094
(dp3095
g2030
g1132
sg2031
g2062
sg336
g1303
sbsS'IwImage.h'
p3096
g310
(g2026
g312
Ntp3097
Rp3098
(dp3099
g2030
g1897
sg2031
g2079
sg336
g1957
sbsS's3eImagePicker.h'
p3100
g310
(g2026
g312
Ntp3101
Rp3102
(dp3103
g2030
g2042
sg2031
g2354
sg336
S'c:/marmalade/7.4/s3e/h/ext/s3eImagePicker.h'
p3104
sbsS'Weapon.cpp'
p3105
g310
(g2026
g312
Ntp3106
Rp3107
(dp3108
g2030
g1392
sg2031
g2032
sg336
g1431
sbsS'stdlib.h'
p3109
g310
(g2026
g312
Ntp3110
Rp3111
(dp3112
g2030
g2042
sg2031
g2068
sg336
S'c:/marmalade/7.4/s3e/h/std/stdlib.h'
p3113
sbsS'symhacks.h'
p3114
g310
(g2026
g312
Ntp3115
Rp3116
(dp3117
g2030
g1521
sg2031
g2181
sg336
g1528
sbsS'Weapon.h'
p3118
g310
(g2026
g312
Ntp3119
Rp3120
(dp3121
g2030
g1392
sg2031
g2032
sg336
g1439
sbsS'IwCopyingPtr.h'
p3122
g310
(g2026
g312
Ntp3123
Rp3124
(dp3125
g2030
g1897
sg2031
g2079
sg336
g1904
sbsS'iostream'
p3126
g310
(g2026
g312
Ntp3127
Rp3128
(dp3129
g2030
g2042
sg2031
g2043
sg336
S'c:/marmalade/7.4/s3e/h/std/c++/iostream'
p3130
sbsS'png.h'
p3131
g310
(g2026
g312
Ntp3132
Rp3133
(dp3134
g2030
g1074
sg2031
(lp3135
g1068
ag1070
asg336
g1072
sbsS'hmac.h'
p3136
g310
(g2026
g312
Ntp3137
Rp3138
(dp3139
g2030
g1521
sg2031
g2181
sg336
g1550
sbsS'b2Contact.h'
p3140
g310
(g2026
g312
Ntp3141
Rp3142
(dp3143
g2030
g1132
sg2031
g2198
sg336
g1261
sbsS'stddef.h'
p3144
g310
(g2026
g312
Ntp3145
Rp3146
(dp3147
g2030
g2042
sg2031
g2068
sg336
S'c:/marmalade/7.4/s3e/h/std/stddef.h'
p3148
sbsS'setjmp_win32.h'
p3149
g310
(g2026
g312
Ntp3150
Rp3151
(dp3152
g2030
g2042
sg2031
g2068
sg336
S'c:/marmalade/7.4/s3e/h/std/setjmp_win32.h'
p3153
sbsS'IwGxPrint.h'
p3154
g310
(g2026
g312
Ntp3155
Rp3156
(dp3157
g2030
g1833
sg2031
g2225
sg336
g1838
sbsS'iwgx_public.defines.txt'
p3158
g310
(g2026
g312
Ntp3159
Rp3160
(dp3161
g2030
g1833
sg2031
g2225
sg336
g1875
sbsS'streambuf.h'
p3162
g310
(g2026
g312
Ntp3163
Rp3164
(dp3165
g2030
g2042
sg2031
g2043
sg336
S'c:/marmalade/7.4/s3e/h/std/c++/streambuf.h'
p3166
sbsS'resources.cpp'
p3167
g310
(g2026
g312
Ntp3168
Rp3169
(dp3170
g2030
g1392
sg2031
g2032
sg336
g1495
sbsS'IwGeomFPlane.h'
p3171
g310
(g2026
g312
Ntp3172
Rp3173
(dp3174
g2030
g1733
sg2031
g2109
sg336
g1799
sbsS'b2PolygonAndCircleContact.cpp'
p3175
g310
(g2026
g312
Ntp3176
Rp3177
(dp3178
g2030
g1132
sg2031
g2198
sg336
g1259
sbsS'un.h'
p3179
g310
(g2026
g312
Ntp3180
Rp3181
(dp3182
g2030
g2042
sg2031
g2253
sg336
S'c:/marmalade/7.4/s3e/h/std/sys/un.h'
p3183
sbsS'BulletManager.h'
p3184
g310
(g2026
g312
Ntp3185
Rp3186
(dp3187
g2030
g1392
sg2031
g2032
sg336
g1421
sbsS'wchar.h'
p3188
g310
(g2026
g312
Ntp3189
Rp3190
(dp3191
g2030
g2042
sg2031
g2068
sg336
S'c:/marmalade/7.4/s3e/h/std/wchar.h'
p3192
sbsS's3eCameraCapture.h'
p3193
g310
(g2026
g312
Ntp3194
Rp3195
(dp3196
g2030
g2042
sg2031
g2354
sg336
S'c:/marmalade/7.4/s3e/h/ext/s3eCameraCapture.h'
p3197
sbsS'eglext.h'
p3198
g310
(g2026
g312
Ntp3199
Rp3200
(dp3201
g2030
g2042
sg2031
g2527
sg336
S'c:/marmalade/7.4/s3e/h/EGL/eglext.h'
p3202
sbsS'IwResHandlerImage.h'
p3203
g310
(g2026
g312
Ntp3204
Rp3205
(dp3206
g2030
g1809
sg2031
g2847
sg336
g1821
sbsS'strstream.h'
p3207
g310
(g2026
g312
Ntp3208
Rp3209
(dp3210
g2030
g2042
sg2031
g2043
sg336
S'c:/marmalade/7.4/s3e/h/std/c++/strstream.h'
p3211
sbsS's3eCompass.h'
p3212
g310
(g2026
g312
Ntp3213
Rp3214
(dp3215
g2030
g2042
sg2031
g2239
sg336
S'c:/marmalade/7.4/s3e/h/s3eCompass.h'
p3216
sbsS'tiniconv.h'
p3217
g310
(g2026
g312
Ntp3218
Rp3219
(dp3220
g2030
g1119
sg2031
g2698
sg336
g1123
sbsS'IwGLExt.h'
p3221
g310
(g2026
g312
Ntp3222
Rp3223
(dp3224
g2030
g1687
sg2031
g2052
sg336
g1693
sbsS'b2EdgeAndCircleContact.cpp'
p3225
g310
(g2026
g312
Ntp3226
Rp3227
(dp3228
g2030
g1132
sg2031
g2198
sg336
g1251
sbsS'app.icf'
p3229
g310
(g2026
g312
Ntp3230
Rp3231
(dp3232
g2030
(dp3233
sg2031
g4
sg336
S'c:/Users/Ben/Desktop/College/FYP/FinalYearProject/data/app.icf'
p3234
sbsS'IwClassFactory.h'
p3235
g310
(g2026
g312
Ntp3236
Rp3237
(dp3238
g2030
g1897
sg2031
g2079
sg336
g1937
sbsS'file.h'
p3239
g310
(g2026
g312
Ntp3240
Rp3241
(dp3242
g2030
g2042
sg2031
g2253
sg336
S'c:/marmalade/7.4/s3e/h/std/sys/file.h'
p3243
sbsS'b2Timer.h'
p3244
g310
(g2026
g312
Ntp3245
Rp3246
(dp3247
g2030
g1132
sg2031
g2565
sg336
g1193
sbsS'cstring'
p3248
g310
(g2026
g312
Ntp3249
Rp3250
(dp3251
g2030
g2042
sg2031
g2043
sg336
S'c:/marmalade/7.4/s3e/h/std/c++/cstring'
p3252
sbsS'IwSoundInst.cpp'
p3253
g310
(g2026
g312
Ntp3254
Rp3255
(dp3256
g2030
g1335
sg2031
g2095
sg336
g1365
sbsS'b2Collision.h'
p3257
g310
(g2026
g312
Ntp3258
Rp3259
(dp3260
g2030
g1132
sg2031
g2150
sg336
g1175
sbsS'iwutil.config.txt'
p3261
g310
(g2026
g312
Ntp3262
Rp3263
(dp3264
g2030
g1897
sg2031
g2079
sg336
g1967
sbsS's3eSMS.h'
p3265
g310
(g2026
g312
Ntp3266
Rp3267
(dp3268
g2030
g2042
sg2031
g2354
sg336
S'c:/marmalade/7.4/s3e/h/ext/s3eSMS.h'
p3269
sbsS'aes.h'
p3270
g310
(g2026
g312
Ntp3271
Rp3272
(dp3273
g2030
g1521
sg2031
g2181
sg336
g1522
sbsS'Net.cpp'
p3274
g310
(g2026
g312
Ntp3275
Rp3276
(dp3277
g2030
g1392
sg2031
g2032
sg336
g1409
sbsS'b2ChainAndPolygonContact.h'
p3278
g310
(g2026
g312
Ntp3279
Rp3280
(dp3281
g2030
g1132
sg2031
g2198
sg336
g1247
sbsS'scene.h'
p3282
g310
(g2026
g312
Ntp3283
Rp3284
(dp3285
g2030
g1392
sg2031
g2032
sg336
g1419
sbsS'IwMaterial.h'
p3286
g310
(g2026
g312
Ntp3287
Rp3288
(dp3289
g2030
g1833
sg2031
g2225
sg336
g1852
sbsS'b2ContactManager.cpp'
p3290
g310
(g2026
g312
Ntp3291
Rp3292
(dp3293
g2030
g1132
sg2031
g2037
sg336
g1221
sbsS'ossl_typ.h'
p3294
g310
(g2026
g312
Ntp3295
Rp3296
(dp3297
g2030
g1521
sg2031
g2181
sg336
g1562
sbsS'PVRTexTool_interface.cpp'
p3298
g310
(g2026
g312
Ntp3299
Rp3300
(dp3301
g2030
g1509
sg2031
(lp3302
g1501
ag1503
ag1505
asg336
g1507
sbsS'idea.h'
p3303
g310
(g2026
g312
Ntp3304
Rp3305
(dp3306
g2030
g1521
sg2031
g2181
sg336
g1608
sbsS'IwGxSurface.h'
p3307
g310
(g2026
g312
Ntp3308
Rp3309
(dp3310
g2030
g1833
sg2031
g2225
sg336
g1881
sbsS's3eSocket.h'
p3311
g310
(g2026
g312
Ntp3312
Rp3313
(dp3314
g2030
g2042
sg2031
g2239
sg336
S'c:/marmalade/7.4/s3e/h/s3eSocket.h'
p3315
sbsS'asn1t.h'
p3316
g310
(g2026
g312
Ntp3317
Rp3318
(dp3319
g2030
g1521
sg2031
g2181
sg336
g1604
sbsS'IwAutoFile.h'
p3320
g310
(g2026
g312
Ntp3321
Rp3322
(dp3323
g2030
g1897
sg2031
g2079
sg336
g1975
sbsS'ipc.h'
p3324
g310
(g2026
g312
Ntp3325
Rp3326
(dp3327
g2030
g2042
sg2031
g2253
sg336
S'c:/marmalade/7.4/s3e/h/std/sys/ipc.h'
p3328
sbsS'poll_1.h'
p3329
g310
(g2026
g312
Ntp3330
Rp3331
(dp3332
g2030
g2042
sg2031
g2253
sg336
S'c:/marmalade/7.4/s3e/h/std/sys/poll.h'
p3333
sbsS's3eThread.h'
p3334
g310
(g2026
g312
Ntp3335
Rp3336
(dp3337
g2030
g2042
sg2031
g2239
sg336
S'c:/marmalade/7.4/s3e/h/s3eThread.h'
p3338
sbsS'ucontext.h'
p3339
g310
(g2026
g312
Ntp3340
Rp3341
(dp3342
g2030
g2042
sg2031
g2068
sg336
S'c:/marmalade/7.4/s3e/h/std/ucontext.h'
p3343
sbsS'time.h'
p3344
g310
(g2026
g312
Ntp3345
Rp3346
(dp3347
g2030
g2042
sg2031
g2068
sg336
S'c:/marmalade/7.4/s3e/h/std/time.h'
p3348
sbsS'jchuff.h'
p3349
g310
(g2026
g312
Ntp3350
Rp3351
(dp3352
g2030
g1085
sg2031
g2155
sg336
g1094
sbsS'new.h'
p3353
g310
(g2026
g312
Ntp3354
Rp3355
(dp3356
g2030
g2042
sg2031
g2043
sg336
S'c:/marmalade/7.4/s3e/h/std/c++/new.h'
p3357
sbsS'IwSoundPCM.cpp'
p3358
g310
(g2026
g312
Ntp3359
Rp3360
(dp3361
g2030
g1335
sg2031
g2095
sg336
g1363
sbsS's3eSoundRecord.h'
p3362
g310
(g2026
g312
Ntp3363
Rp3364
(dp3365
g2030
g2042
sg2031
g2239
sg336
S'c:/marmalade/7.4/s3e/h/s3eSoundRecord.h'
p3366
sbsS'IwFibre.h'
p3367
g310
(g2026
g312
Ntp3368
Rp3369
(dp3370
g2030
g1897
sg2031
g2079
sg336
g1917
sbsS's3eClipboard.h'
p3371
g310
(g2026
g312
Ntp3372
Rp3373
(dp3374
g2030
g2042
sg2031
g2239
sg336
S'c:/marmalade/7.4/s3e/h/s3eClipboard.h'
p3375
sbsS'input.cpp'
p3376
g310
(g2026
g312
Ntp3377
Rp3378
(dp3379
g2030
g1392
sg2031
g2032
sg336
g1475
sbsS'e_os2.h'
p3380
g310
(g2026
g312
Ntp3381
Rp3382
(dp3383
g2030
g1521
sg2031
g2181
sg336
g1566
sbsS'b2TimeStep.h'
p3384
g310
(g2026
g312
Ntp3385
Rp3386
(dp3387
g2030
g1132
sg2031
g2037
sg336
g1323
sbsS'IwSoundGroup.h'
p3388
g310
(g2026
g312
Ntp3389
Rp3390
(dp3391
g2030
g1335
sg2031
g2095
sg336
g1373
sbsS'b2BroadPhase.h'
p3392
g310
(g2026
g312
Ntp3393
Rp3394
(dp3395
g2030
g1132
sg2031
g2150
sg336
g1151
sbsS'IwSoundWAV.h'
p3396
g310
(g2026
g312
Ntp3397
Rp3398
(dp3399
g2030
g1335
sg2031
g2095
sg336
g1361
sbsS'b2Shape.h'
p3400
g310
(g2026
g312
Ntp3401
Rp3402
(dp3403
g2030
g1132
sg2031
g2175
sg336
g1163
sbsS'IwGxFontGlyph.h'
p3404
g310
(g2026
g312
Ntp3405
Rp3406
(dp3407
g2030
g1711
sg2031
g2404
sg336
g1714
sbsS'des.h'
p3408
g310
(g2026
g312
Ntp3409
Rp3410
(dp3411
g2030
g1521
sg2031
g2181
sg336
g1534
sbsS'b2ChainAndCircleContact.h'
p3412
g310
(g2026
g312
Ntp3413
Rp3414
(dp3415
g2030
g1132
sg2031
g2198
sg336
g1237
sbsS'iwgxfont.mkf'
p3416
g310
(g2026
g312
Ntp3417
Rp3418
(dp3419
g2030
g1728
sg2031
g2404
sg336
g1726
sbsS'IwSoundSpec.h'
p3420
g310
(g2026
g312
Ntp3421
Rp3422
(dp3423
g2030
g1335
sg2031
g2095
sg336
g1350
sbsS'Map.h'
p3424
g310
(g2026
g312
Ntp3425
Rp3426
(dp3427
g2030
g1392
sg2031
g2032
sg336
g1429
sbsS'signal_2.h'
p3428
g310
(g2026
g312
Ntp3429
Rp3430
(dp3431
g2030
g2042
sg2031
g2043
sg336
S'c:/marmalade/7.4/s3e/h/std/c++/signal.h'
p3432
sbsS'limits.h'
p3433
g310
(g2026
g312
Ntp3434
Rp3435
(dp3436
g2030
g2042
sg2031
g2068
sg336
S'c:/marmalade/7.4/s3e/h/std/limits.h'
p3437
sbsS'termios.h'
p3438
g310
(g2026
g312
Ntp3439
Rp3440
(dp3441
g2030
g2042
sg2031
g2068
sg336
S'c:/marmalade/7.4/s3e/h/std/termios.h'
p3442
sbsS's3eEMail.h'
p3443
g310
(g2026
g312
Ntp3444
Rp3445
(dp3446
g2030
g2042
sg2031
g2354
sg336
S'c:/marmalade/7.4/s3e/h/ext/s3eEMail.h'
p3447
sbsS'iw2dscenegraph.mkf'
p3448
g310
(g2026
g312
Ntp3449
Rp3450
(dp3451
g2030
g1678
sg2031
g2418
sg336
g1676
sbsS'ssl3.h'
p3452
g310
(g2026
g312
Ntp3453
Rp3454
(dp3455
g2030
g1521
sg2031
g2181
sg336
g1651
sbsS'b2BroadPhase.cpp'
p3456
g310
(g2026
g312
Ntp3457
Rp3458
(dp3459
g2030
g1132
sg2031
g2150
sg336
g1149
sbsS'b2MotorJoint.h'
p3460
g310
(g2026
g312
Ntp3461
Rp3462
(dp3463
g2030
g1132
sg2031
g2062
sg336
g1289
sbsS'slist'
p3464
g310
(g2026
g312
Ntp3465
Rp3466
(dp3467
g2030
g2042
sg2031
g2043
sg336
S'c:/marmalade/7.4/s3e/h/std/c++/slist'
p3468
sbsS'cstdlib'
p3469
g310
(g2026
g312
Ntp3470
Rp3471
(dp3472
g2030
g2042
sg2031
g2043
sg336
S'c:/marmalade/7.4/s3e/h/std/c++/cstdlib'
p3473
sbsS's3eLocation.h'
p3474
g310
(g2026
g312
Ntp3475
Rp3476
(dp3477
g2030
g2042
sg2031
g2239
sg336
S'c:/marmalade/7.4/s3e/h/s3eLocation.h'
p3478
sbsS'pqueue.h'
p3479
g310
(g2026
g312
Ntp3480
Rp3481
(dp3482
g2030
g1521
sg2031
g2181
sg336
g1618
sbsS'IwMemBucketHelpers.h'
p3483
g310
(g2026
g312
Ntp3484
Rp3485
(dp3486
g2030
g1897
sg2031
g2079
sg336
g1949
sbsS's3eHash.h'
p3487
g310
(g2026
g312
Ntp3488
Rp3489
(dp3490
g2030
g2042
sg2031
g2239
sg336
S'c:/marmalade/7.4/s3e/h/s3eHash.h'
p3491
sbsS'IwSoundGroup.cpp'
p3492
g310
(g2026
g312
Ntp3493
Rp3494
(dp3495
g2030
g1335
sg2031
g2095
sg336
g1333
sbsS'IwGeomFMat.h'
p3496
g310
(g2026
g312
Ntp3497
Rp3498
(dp3499
g2030
g1733
sg2031
g2109
sg336
g1801
sbsS'type_traits.h'
p3500
g310
(g2026
g312
Ntp3501
Rp3502
(dp3503
g2030
g2042
sg2031
g2043
sg336
S'c:/marmalade/7.4/s3e/h/std/c++/type_traits.h'
p3504
sbsS'b2BlockAllocator.cpp'
p3505
g310
(g2026
g312
Ntp3506
Rp3507
(dp3508
g2030
g1132
sg2031
g2565
sg336
g1195
sbsS'IwMenu.h'
p3509
g310
(g2026
g312
Ntp3510
Rp3511
(dp3512
g2030
g1897
sg2031
g2079
sg336
g1898
sbsS'IwResHandlerITX.h'
p3513
g310
(g2026
g312
Ntp3514
Rp3515
(dp3516
g2030
g1809
sg2031
g2847
sg336
g1812
sbsS'IwSoundData.h'
p3517
g310
(g2026
g312
Ntp3518
Rp3519
(dp3520
g2030
g1335
sg2031
g2095
sg336
g1338
sbsS'IwArray.h'
p3521
g310
(g2026
g312
Ntp3522
Rp3523
(dp3524
g2030
g1897
sg2031
g2079
sg336
g1991
sbsS'IwUTF8.h'
p3525
g310
(g2026
g312
Ntp3526
Rp3527
(dp3528
g2030
g1897
sg2031
g2079
sg336
g1969
sbsS'math_rvct.h'
p3529
g310
(g2026
g312
Ntp3530
Rp3531
(dp3532
g2030
g2042
sg2031
g2068
sg336
S'c:/marmalade/7.4/s3e/h/std/math_rvct.h'
p3533
sbsS'IwUtil.h'
p3534
g310
(g2026
g312
Ntp3535
Rp3536
(dp3537
g2030
g1897
sg2031
g2079
sg336
g1987
sbsS'ssl23.h'
p3538
g310
(g2026
g312
Ntp3539
Rp3540
(dp3541
g2030
g1521
sg2031
g2181
sg336
g1532
sbsS'b2MouseJoint.h'
p3542
g310
(g2026
g312
Ntp3543
Rp3544
(dp3545
g2030
g1132
sg2031
g2062
sg336
g1265
sbsS'stack.h'
p3546
g310
(g2026
g312
Ntp3547
Rp3548
(dp3549
g2030
g1521
sg2031
g2181
sg336
g1634
sbsS'wctype.h'
p3550
g310
(g2026
g312
Ntp3551
Rp3552
(dp3553
g2030
g2042
sg2031
g2068
sg336
S'c:/marmalade/7.4/s3e/h/std/wctype.h'
p3554
sbsS'b2RevoluteJoint.h'
p3555
g310
(g2026
g312
Ntp3556
Rp3557
(dp3558
g2030
g1132
sg2031
g2062
sg336
g1267
sbsS'b2Island.cpp'
p3559
g310
(g2026
g312
Ntp3560
Rp3561
(dp3562
g2030
g1132
sg2031
g2037
sg336
g1223
sbsS'cstddef'
p3563
g310
(g2026
g312
Ntp3564
Rp3565
(dp3566
g2030
g2042
sg2031
g2043
sg336
S'c:/marmalade/7.4/s3e/h/std/c++/cstddef'
p3567
sbsS'b2Draw.h'
p3568
g310
(g2026
g312
Ntp3569
Rp3570
(dp3571
g2030
g1132
sg2031
g2565
sg336
g1191
sbsS'pem.h'
p3572
g310
(g2026
g312
Ntp3573
Rp3574
(dp3575
g2030
g1521
sg2031
g2181
sg336
g1661
sbsS'mman.h'
p3576
g310
(g2026
g312
Ntp3577
Rp3578
(dp3579
g2030
g2042
sg2031
g2253
sg336
S'c:/marmalade/7.4/s3e/h/std/sys/mman.h'
p3580
sbsS'IwRandom.h'
p3581
g310
(g2026
g312
Ntp3582
Rp3583
(dp3584
g2030
g1897
sg2031
g2079
sg336
g1915
sbsS'libgen.h'
p3585
g310
(g2026
g312
Ntp3586
Rp3587
(dp3588
g2030
g2042
sg2031
g2068
sg336
S'c:/marmalade/7.4/s3e/h/std/libgen.h'
p3589
sbsS'utsname.h'
p3590
g310
(g2026
g312
Ntp3591
Rp3592
(dp3593
g2030
g2042
sg2031
g2253
sg336
S'c:/marmalade/7.4/s3e/h/std/sys/utsname.h'
p3594
sbsS'wait.h'
p3595
g310
(g2026
g312
Ntp3596
Rp3597
(dp3598
g2030
g2042
sg2031
g2253
sg336
S'c:/marmalade/7.4/s3e/h/std/sys/wait.h'
p3599
sbsS'Bullet.cpp'
p3600
g310
(g2026
g312
Ntp3601
Rp3602
(dp3603
g2030
g1392
sg2031
g2032
sg336
g1477
sbsS'b2TimeOfImpact.h'
p3604
g310
(g2026
g312
Ntp3605
Rp3606
(dp3607
g2030
g1132
sg2031
g2150
sg336
g1145
sbsS'param.h'
p3608
g310
(g2026
g312
Ntp3609
Rp3610
(dp3611
g2030
g2042
sg2031
g2253
sg336
S'c:/marmalade/7.4/s3e/h/std/sys/param.h'
p3612
sbsS'b2FrictionJoint.cpp'
p3613
g310
(g2026
g312
Ntp3614
Rp3615
(dp3616
g2030
g1132
sg2031
g2062
sg336
g1299
sbsS'IwDivide.h'
p3617
g310
(g2026
g312
Ntp3618
Rp3619
(dp3620
g2030
g1897
sg2031
g2079
sg336
g1963
sbsS'Iw2DSceneGraphCore.cpp'
p3621
g310
(g2026
g312
Ntp3622
Rp3623
(dp3624
g2030
g1890
sg2031
(lp3625
S"'Marmalade Studio'"
p3626
ag1883
asg336
g1888
sbsS'b2Fixture.cpp'
p3627
g310
(g2026
g312
Ntp3628
Rp3629
(dp3630
g2030
g1132
sg2031
g2037
sg336
g1317
sbsS'b2Rope.h'
p3631
g310
(g2026
g312
Ntp3632
Rp3633
(dp3634
g2030
g1132
sg2031
g2905
sg336
g1135
sbsS'IwResManager.h'
p3635
g310
(g2026
g312
Ntp3636
Rp3637
(dp3638
g2030
g1809
sg2031
g2847
sg336
g1827
sbsS'IwSoundManager.h'
p3639
g310
(g2026
g312
Ntp3640
Rp3641
(dp3642
g2030
g1335
sg2031
g2095
sg336
g1336
sbsS'cwctype'
p3643
g310
(g2026
g312
Ntp3644
Rp3645
(dp3646
g2030
g2042
sg2031
g2043
sg336
S'c:/marmalade/7.4/s3e/h/std/c++/cwctype'
p3647
sbsS'Box2D.h'
p3648
g310
(g2026
g312
Ntp3649
Rp3650
(dp3651
g2030
g1132
sg2031
g2924
sg336
g1130
sbsS'ecdsa.h'
p3652
g310
(g2026
g312
Ntp3653
Rp3654
(dp3655
g2030
g1521
sg2031
g2181
sg336
g1564
sbsS'alloca.h'
p3656
g310
(g2026
g312
Ntp3657
Rp3658
(dp3659
g2030
g2042
sg2031
g2068
sg336
S'c:/marmalade/7.4/s3e/h/std/alloca.h'
p3660
sbsS'set'
p3661
g310
(g2026
g312
Ntp3662
Rp3663
(dp3664
g2030
g2042
sg2031
g2043
sg336
S'c:/marmalade/7.4/s3e/h/std/c++/set'
p3665
sbsS'IwGeomSQuat.h'
p3666
g310
(g2026
g312
Ntp3667
Rp3668
(dp3669
g2030
g1733
sg2031
g2109
sg336
g1777
sbsS'locale'
p3670
g310
(g2026
g312
Ntp3671
Rp3672
(dp3673
g2030
g2042
sg2031
g2043
sg336
S'c:/marmalade/7.4/s3e/h/std/c++/locale'
p3674
sbsS'IwCore.h'
p3675
g310
(g2026
g312
Ntp3676
Rp3677
(dp3678
g2030
g1897
sg2031
g2079
sg336
g1921
sbsS'cstdio'
p3679
g310
(g2026
g312
Ntp3680
Rp3681
(dp3682
g2030
g2042
sg2031
g2043
sg336
S'c:/marmalade/7.4/s3e/h/std/c++/cstdio'
p3683
sbsS'bn.h'
p3684
g310
(g2026
g312
Ntp3685
Rp3686
(dp3687
g2030
g1521
sg2031
g2181
sg336
g1600
sbsS'cdjpeg.h'
p3688
g310
(g2026
g312
Ntp3689
Rp3690
(dp3691
g2030
g1085
sg2031
g2155
sg336
g1092
sbsS'audio.h'
p3692
g310
(g2026
g312
Ntp3693
Rp3694
(dp3695
g2030
g1392
sg2031
g2032
sg336
g1435
sbsS'IwList.h'
p3696
g310
(g2026
g312
Ntp3697
Rp3698
(dp3699
g2030
g1897
sg2031
g2079
sg336
g1933
sbsS'stack'
p3700
g310
(g2026
g312
Ntp3701
Rp3702
(dp3703
g2030
g2042
sg2031
g2043
sg336
S'c:/marmalade/7.4/s3e/h/std/c++/stack'
p3704
sbsS'rsa.h'
p3705
g310
(g2026
g312
Ntp3706
Rp3707
(dp3708
g2030
g1521
sg2031
g2181
sg336
g1552
sbsS'inttypes.h'
p3709
g310
(g2026
g312
Ntp3710
Rp3711
(dp3712
g2030
g2042
sg2031
g2068
sg336
S'c:/marmalade/7.4/s3e/h/std/inttypes.h'
p3713
sbsS'b2PulleyJoint.cpp'
p3714
g310
(g2026
g312
Ntp3715
Rp3716
(dp3717
g2030
g1132
sg2031
g2062
sg336
g1305
sbsS'dirent.h'
p3718
g310
(g2026
g312
Ntp3719
Rp3720
(dp3721
g2030
g2042
sg2031
g2068
sg336
S'c:/marmalade/7.4/s3e/h/std/dirent.h'
p3722
sbsS'IwGeomVec3.h'
p3723
g310
(g2026
g312
Ntp3724
Rp3725
(dp3726
g2030
g1733
sg2031
g2109
sg336
g1771
sbsS'Menu.cpp'
p3727
g310
(g2026
g312
Ntp3728
Rp3729
(dp3730
g2030
g1392
sg2031
g2032
sg336
g1441
sbsS'transupp.h'
p3731
g310
(g2026
g312
Ntp3732
Rp3733
(dp3734
g2030
g1085
sg2031
g2155
sg336
g1104
sbsS'IwMath.h'
p3735
g310
(g2026
g312
Ntp3736
Rp3737
(dp3738
g2030
g1897
sg2031
g2079
sg336
g1973
sbsS'IwGeomQuat.h'
p3739
g310
(g2026
g312
Ntp3740
Rp3741
(dp3742
g2030
g1733
sg2031
g2109
sg336
g1753
sbsS'pkcs12.h'
p3743
g310
(g2026
g312
Ntp3744
Rp3745
(dp3746
g2030
g1521
sg2031
g2181
sg336
g1606
sbsS'b2CircleShape.h'
p3747
g310
(g2026
g312
Ntp3748
Rp3749
(dp3750
g2030
g1132
sg2031
g2175
sg336
g1157
sbsS'glplatform.h'
p3751
g310
(g2026
g312
Ntp3752
Rp3753
(dp3754
g2030
g2042
sg2031
g2863
sg336
S'c:/marmalade/7.4/s3e/h/GLES/glplatform.h'
p3755
sbsS's3e-default.mkf'
p3756
g310
(g2026
g312
Ntp3757
Rp3758
(dp3759
g2030
g2022
sg2031
(lp3760
g2018
asg336
g2020
sbsS'bitset'
p3761
g310
(g2026
g312
Ntp3762
Rp3763
(dp3764
g2030
g2042
sg2031
g2043
sg336
S'c:/marmalade/7.4/s3e/h/std/c++/bitset'
p3765
sbsS'IwSerialise.h'
p3766
g310
(g2026
g312
Ntp3767
Rp3768
(dp3769
g2030
g1897
sg2031
g2079
sg336
g1935
sbsS'IwChar.h'
p3770
g310
(g2026
g312
Ntp3771
Rp3772
(dp3773
g2030
g1897
sg2031
g2079
sg336
g1965
sbsS'IwResHandlerMTL.h'
p3774
g310
(g2026
g312
Ntp3775
Rp3776
(dp3777
g2030
g1833
sg2031
g2225
sg336
g1862
sbsS'IwRuntime.h'
p3778
g310
(g2026
g312
Ntp3779
Rp3780
(dp3781
g2030
g1897
sg2031
g2079
sg336
g1947
sbsS'limits'
p3782
g310
(g2026
g312
Ntp3783
Rp3784
(dp3785
g2030
g2042
sg2031
g2043
sg336
S'c:/marmalade/7.4/s3e/h/std/c++/limits'
p3786
sbsS'txt_db.h'
p3787
g310
(g2026
g312
Ntp3788
Rp3789
(dp3790
g2030
g1521
sg2031
g2181
sg336
g1616
sbsS's3eContacts.h'
p3791
g310
(g2026
g312
Ntp3792
Rp3793
(dp3794
g2030
g2042
sg2031
g2239
sg336
S'c:/marmalade/7.4/s3e/h/s3eContacts.h'
p3795
sbsS's3eLicense.h'
p3796
g310
(g2026
g312
Ntp3797
Rp3798
(dp3799
g2030
g2042
sg2031
g2239
sg336
S'c:/marmalade/7.4/s3e/h/s3eLicense.h'
p3800
sbsS'iwgx.config.txt'
p3801
g310
(g2026
g312
Ntp3802
Rp3803
(dp3804
g2030
g1833
sg2031
g2225
sg336
g1868
sbsS'IwTextParser.h'
p3805
g310
(g2026
g312
Ntp3806
Rp3807
(dp3808
g2030
g1897
sg2031
g2079
sg336
g1895
sbsS'Player.h'
p3809
g310
(g2026
g312
Ntp3810
Rp3811
(dp3812
g2030
g1392
sg2031
g2032
sg336
g1491
sbsS's3eTimer.h'
p3813
g310
(g2026
g312
Ntp3814
Rp3815
(dp3816
g2030
g2042
sg2031
g2239
sg336
S'c:/marmalade/7.4/s3e/h/s3eTimer.h'
p3817
sbsS'IwGeomVec.h'
p3818
g310
(g2026
g312
Ntp3819
Rp3820
(dp3821
g2030
g1733
sg2031
g2109
sg336
g1761
sbsS'IwGxFontPreparedData.h'
p3822
g310
(g2026
g312
Ntp3823
Rp3824
(dp3825
g2030
g1711
sg2031
g2404
sg336
g1720
sbsS'CollisionIdentifier.cpp'
p3826
g310
(g2026
g312
Ntp3827
Rp3828
(dp3829
g2030
g1392
sg2031
g2032
sg336
g1481
sbsS'cstdarg'
p3830
g310
(g2026
g312
Ntp3831
Rp3832
(dp3833
g2030
g2042
sg2031
g2043
sg336
S'c:/marmalade/7.4/s3e/h/std/c++/cstdarg'
p3834
sbsS'Player.cpp'
p3835
g310
(g2026
g312
Ntp3836
Rp3837
(dp3838
g2030
g1392
sg2031
g2032
sg336
g1455
sbsS'istream'
p3839
g310
(g2026
g312
Ntp3840
Rp3841
(dp3842
g2030
g2042
sg2031
g2043
sg336
S'c:/marmalade/7.4/s3e/h/std/c++/istream'
p3843
sbsS'IwResHandler.h'
p3844
g310
(g2026
g312
Ntp3845
Rp3846
(dp3847
g2030
g1809
sg2031
g2847
sg336
g1823
sbsS'b2MouseJoint.cpp'
p3848
g310
(g2026
g312
Ntp3849
Rp3850
(dp3851
g2030
g1132
sg2031
g2062
sg336
g1271
sbsS'b2FrictionJoint.h'
p3852
g310
(g2026
g312
Ntp3853
Rp3854
(dp3855
g2030
g1132
sg2031
g2062
sg336
g1301
sbsS's3eSound.h'
p3856
g310
(g2026
g312
Ntp3857
Rp3858
(dp3859
g2030
g2042
sg2031
g2239
sg336
S'c:/marmalade/7.4/s3e/h/s3eSound.h'
p3860
sbsS'b2PrismaticJoint.cpp'
p3861
g310
(g2026
g312
Ntp3862
Rp3863
(dp3864
g2030
g1132
sg2031
g2062
sg336
g1281
sbsS'IwVariableBitField.h'
p3865
g310
(g2026
g312
Ntp3866
Rp3867
(dp3868
g2030
g1897
sg2031
g2079
sg336
g1908
sbsS'Bullet.h'
p3869
g310
(g2026
g312
Ntp3870
Rp3871
(dp3872
g2030
g1392
sg2031
g2032
sg336
g1415
sbsS'b2DynamicTree.h'
p3873
g310
(g2026
g312
Ntp3874
Rp3875
(dp3876
g2030
g1132
sg2031
g2150
sg336
g1147
sbsS'iwgeom.config.txt'
p3877
g310
(g2026
g312
Ntp3878
Rp3879
(dp3880
g2030
g1733
sg2031
g2109
sg336
g1731
sbsS'cast.h'
p3881
g310
(g2026
g312
Ntp3882
Rp3883
(dp3884
g2030
g1521
sg2031
g2181
sg336
g1519
sbsS'ContactListener.h'
p3885
g310
(g2026
g312
Ntp3886
Rp3887
(dp3888
g2030
g1392
sg2031
g2032
sg336
g1473
sbsS'iwgx.mkf'
p3889
g310
(g2026
g312
Ntp3890
Rp3891
(dp3892
g2030
g1874
sg2031
g2225
sg336
g1872
sbsS'gl.h'
p3893
g310
(g2026
g312
Ntp3894
Rp3895
(dp3896
g2030
g2042
sg2031
g2863
sg336
S'c:/marmalade/7.4/s3e/h/GLES/gl.h'
p3897
sbsS'GameLobbyMenu.h'
p3898
g310
(g2026
g312
Ntp3899
Rp3900
(dp3901
g2030
g1392
sg2031
g2032
sg336
g1471
sbsS'zlib.h'
p3902
g310
(g2026
g312
Ntp3903
Rp3904
(dp3905
g2030
g2002
sg2031
g3051
sg336
g2003
sbsS'temp_defines_release.h'
p3906
g310
(g2026
g312
Ntp3907
Rp3908
(dp3909
g2030
(lp3910
sg2031
(lp3911
S"'generated files'"
p3912
asg336
S'c:/Users/Ben/Desktop/College/FYP/FinalYearProject/build_finalyearproject_vc11/temp_defines_release.h'
p3913
sbsS'iwgl.mkf'
p3914
g310
(g2026
g312
Ntp3915
Rp3916
(dp3917
g2030
g1690
sg2031
g2052
sg336
g1688
sbsS'IwColour.h'
p3918
g310
(g2026
g312
Ntp3919
Rp3920
(dp3921
g2030
g1833
sg2031
g2225
sg336
g1844
sbsS's3eLibrary.h'
p3922
g310
(g2026
g312
Ntp3923
Rp3924
(dp3925
g2030
g2042
sg2031
g2354
sg336
S'c:/marmalade/7.4/s3e/h/ext/s3eLibrary.h'
p3926
sbsS'types.h'
p3927
g310
(g2026
g312
Ntp3928
Rp3929
(dp3930
g2030
g2042
sg2031
g2253
sg336
S'c:/marmalade/7.4/s3e/h/std/sys/types.h'
p3931
sbsS'ifaddrs.h'
p3932
g310
(g2026
g312
Ntp3933
Rp3934
(dp3935
g2030
g2042
sg2031
g2068
sg336
S'c:/marmalade/7.4/s3e/h/std/ifaddrs.h'
p3936
sbsS'b2CollidePolygon.cpp'
p3937
g310
(g2026
g312
Ntp3938
Rp3939
(dp3940
g2030
g1132
sg2031
g2150
sg336
g1141
sbsS'strstream'
p3941
g310
(g2026
g312
Ntp3942
Rp3943
(dp3944
g2030
g2042
sg2031
g2043
sg336
S'c:/marmalade/7.4/s3e/h/std/c++/strstream'
p3945
sbsS'b2ChainShape.h'
p3946
g310
(g2026
g312
Ntp3947
Rp3948
(dp3949
g2030
g1132
sg2031
g2175
sg336
g1161
sbsS'IwTween.cpp'
p3950
g310
(g2026
g312
Ntp3951
Rp3952
(dp3953
g2030
g2012
sg2031
g2755
sg336
g2010
sbsS'b2MotorJoint.cpp'
p3954
g310
(g2026
g312
Ntp3955
Rp3956
(dp3957
g2030
g1132
sg2031
g2062
sg336
g1293
sbsS'b2EdgeShape.h'
p3958
g310
(g2026
g312
Ntp3959
Rp3960
(dp3961
g2030
g1132
sg2031
g2175
sg336
g1159
sbsS'exception'
p3962
g310
(g2026
g312
Ntp3963
Rp3964
(dp3965
g2030
g2042
sg2031
g2043
sg336
S'c:/marmalade/7.4/s3e/h/std/c++/exception'
p3966
sbsS'rlocks.h'
p3967
g310
(g2026
g312
Ntp3968
Rp3969
(dp3970
g2030
g2042
sg2031
g2043
sg336
S'c:/marmalade/7.4/s3e/h/std/c++/rlocks.h'
p3971
sbsS'b2Settings.h'
p3972
g310
(g2026
g312
Ntp3973
Rp3974
(dp3975
g2030
g1132
sg2031
g2565
sg336
g1203
sbsS'IwGeomBBox.h'
p3976
g310
(g2026
g312
Ntp3977
Rp3978
(dp3979
g2030
g1733
sg2031
g2109
sg336
g1783
sbsS'ioctl.h'
p3980
g310
(g2026
g312
Ntp3981
Rp3982
(dp3983
g2030
g2042
sg2031
g2253
sg336
S'c:/marmalade/7.4/s3e/h/std/sys/ioctl.h'
p3984
sbsS'sem.h'
p3985
g310
(g2026
g312
Ntp3986
Rp3987
(dp3988
g2030
g2042
sg2031
g2253
sg336
S'c:/marmalade/7.4/s3e/h/std/sys/sem.h'
p3989
sbsS'b2GearJoint.cpp'
p3990
g310
(g2026
g312
Ntp3991
Rp3992
(dp3993
g2030
g1132
sg2031
g2062
sg336
g1307
sbsS'jinclude.h'
p3994
g310
(g2026
g312
Ntp3995
Rp3996
(dp3997
g2030
g1085
sg2031
g2155
sg336
g1088
sbsS'ObjectFactory.cpp'
p3998
g310
(g2026
g312
Ntp3999
Rp4000
(dp4001
g2030
g1392
sg2031
g2032
sg336
g1465
sbsS'Iw2DSceneGraphCore.h'
p4002
g310
(g2026
g312
Ntp4003
Rp4004
(dp4005
g2030
g1890
sg2031
g3625
sg336
g1891
sbsS'IwEvent.h'
p4006
g310
(g2026
g312
Ntp4007
Rp4008
(dp4009
g2030
g1897
sg2031
g2079
sg336
g1971
sbsS'IwOptimiseSize.h'
p4010
g310
(g2026
g312
Ntp4011
Rp4012
(dp4013
g2030
g1897
sg2031
g2079
sg336
g1995
sbsS'iwgxfont_public.defines.txt'
p4014
g310
(g2026
g312
Ntp4015
Rp4016
(dp4017
g2030
g1711
sg2031
g2404
sg336
g1712
sbsS'iconv.h'
p4018
g310
(g2026
g312
Ntp4019
Rp4020
(dp4021
g2030
g2042
sg2031
g2068
sg336
S'c:/marmalade/7.4/s3e/h/std/iconv.h'
p4022
sbsS'b2Distance.h'
p4023
g310
(g2026
g312
Ntp4024
Rp4025
(dp4026
g2030
g1132
sg2031
g2150
sg336
g1183
sbsS's3eDevice.h'
p4027
g310
(g2026
g312
Ntp4028
Rp4029
(dp4030
g2030
g2042
sg2031
g2239
sg336
S'c:/marmalade/7.4/s3e/h/s3eDevice.h'
p4031
sbsS'BulletManager.cpp'
p4032
g310
(g2026
g312
Ntp4033
Rp4034
(dp4035
g2030
g1392
sg2031
g2032
sg336
g1449
sbsS'IwGeomSphere.h'
p4036
g310
(g2026
g312
Ntp4037
Rp4038
(dp4039
g2030
g1733
sg2031
g2109
sg336
g1789
sbsS'tiniconv.mkf'
p4040
g310
(g2026
g312
Ntp4041
Rp4042
(dp4043
g2030
g1122
sg2031
g2698
sg336
g1120
sbsS'ts.h'
p4044
g310
(g2026
g312
Ntp4045
Rp4046
(dp4047
g2030
g1521
sg2031
g2181
sg336
g1586
sbsS'b2WeldJoint.h'
p4048
g310
(g2026
g312
Ntp4049
Rp4050
(dp4051
g2030
g1132
sg2031
g2062
sg336
g1287
sbsS'ecdh.h'
p4052
g310
(g2026
g312
Ntp4053
Rp4054
(dp4055
g2030
g1521
sg2031
g2181
sg336
g1594
sbsS'jdct.h'
p4056
g310
(g2026
g312
Ntp4057
Rp4058
(dp4059
g2030
g1085
sg2031
g2155
sg336
g1100
sbsS'cctype'
p4060
g310
(g2026
g312
Ntp4061
Rp4062
(dp4063
g2030
g2042
sg2031
g2043
sg336
S'c:/marmalade/7.4/s3e/h/std/c++/cctype'
p4064
sbsS'IwSoundADPCM.cpp'
p4065
g310
(g2026
g312
Ntp4066
Rp4067
(dp4068
g2030
g1335
sg2031
g2095
sg336
g1381
sbsS'ocsp.h'
p4069
g310
(g2026
g312
Ntp4070
Rp4071
(dp4072
g2030
g1521
sg2031
g2181
sg336
g1574
sbsS's3eConfig.h'
p4073
g310
(g2026
g312
Ntp4074
Rp4075
(dp4076
g2030
g2042
sg2031
g2239
sg336
S'c:/marmalade/7.4/s3e/h/s3eConfig.h'
p4077
sbsS'IwHashString.h'
p4078
g310
(g2026
g312
Ntp4079
Rp4080
(dp4081
g2030
g1897
sg2031
g2079
sg336
g1927
sbsS'stat.h'
p4082
g310
(g2026
g312
Ntp4083
Rp4084
(dp4085
g2030
g2042
sg2031
g2253
sg336
S'c:/marmalade/7.4/s3e/h/std/sys/stat.h'
p4086
sbsS'byteswap.h'
p4087
g310
(g2026
g312
Ntp4088
Rp4089
(dp4090
g2030
g2042
sg2031
g2068
sg336
S'c:/marmalade/7.4/s3e/h/std/byteswap.h'
p4091
sbsS'iwresmanager.mkf'
p4092
g310
(g2026
g312
Ntp4093
Rp4094
(dp4095
g2030
g1820
sg2031
g2847
sg336
g1818
sbsS'b2ChainAndCircleContact.cpp'
p4096
g310
(g2026
g312
Ntp4097
Rp4098
(dp4099
g2030
g1132
sg2031
g2198
sg336
g1233
sbsS'lhash.h'
p4100
g310
(g2026
g312
Ntp4101
Rp4102
(dp4103
g2030
g1521
sg2031
g2181
sg336
g1546
sbsS'IwUtilInitTerm.h'
p4104
g310
(g2026
g312
Ntp4105
Rp4106
(dp4107
g2030
g1897
sg2031
g2079
sg336
g1900
sbsS's3eVersion.h'
p4108
g310
(g2026
g312
Ntp4109
Rp4110
(dp4111
g2030
g2042
sg2031
g2239
sg336
S'c:/marmalade/7.4/s3e/h/s3eVersion.h'
p4112
sbsS'curl.mkf'
p4113
g310
(g2026
g312
Ntp4114
Rp4115
(dp4116
g2030
g1387
sg2031
(lp4117
g1383
asg336
g1385
sbsS'pthread_1.h'
p4118
g310
(g2026
g312
Ntp4119
Rp4120
(dp4121
g2030
g2042
sg2031
g2043
sg336
S'c:/marmalade/7.4/s3e/h/std/c++/pthread.h'
p4122
sbsS'IwMemBucket.h'
p4123
g310
(g2026
g312
Ntp4124
Rp4125
(dp4126
g2030
g1897
sg2031
g2079
sg336
g1961
sbsS'complex'
p4127
g310
(g2026
g312
Ntp4128
Rp4129
(dp4130
g2030
g2042
sg2031
g2043
sg336
S'c:/marmalade/7.4/s3e/h/std/c++/complex'
p4131
sbsS'algorithm'
p4132
g310
(g2026
g312
Ntp4133
Rp4134
(dp4135
g2030
g2042
sg2031
g2043
sg336
S'c:/marmalade/7.4/s3e/h/std/c++/algorithm'
p4136
sbsS'b2RopeJoint.cpp'
p4137
g310
(g2026
g312
Ntp4138
Rp4139
(dp4140
g2030
g1132
sg2031
g2062
sg336
g1291
sbsS's3e.icf'
p4141
g310
(g2026
g312
Ntp4142
Rp4143
(dp4144
g2030
g2042
sg2031
g2239
sg336
S'c:/marmalade/7.4/s3e/s3e.icf'
p4145
sbsS'NetworkManager.cpp'
p4146
g310
(g2026
g312
Ntp4147
Rp4148
(dp4149
g2030
g1392
sg2031
g2032
sg336
g1393
sbsS'resources.h'
p4150
g310
(g2026
g312
Ntp4151
Rp4152
(dp4153
g2030
g1392
sg2031
g2032
sg336
g1489
sbsS'IwGxFontState.h'
p4154
g310
(g2026
g312
Ntp4155
Rp4156
(dp4157
g2030
g1711
sg2031
g2404
sg336
g1722
sbsS'b2PolygonContact.h'
p4158
g310
(g2026
g312
Ntp4159
Rp4160
(dp4161
g2030
g1132
sg2031
g2198
sg336
g1253
sbsS'Game.h'
p4162
g310
(g2026
g312
Ntp4163
Rp4164
(dp4165
g2030
g1392
sg2031
g2032
sg336
g1485
sbsS'jmemsys.h'
p4166
g310
(g2026
g312
Ntp4167
Rp4168
(dp4169
g2030
g1085
sg2031
g2155
sg336
g1086
sbsS'ios'
p4170
g310
(g2026
g312
Ntp4171
Rp4172
(dp4173
g2030
g2042
sg2031
g2043
sg336
S'c:/marmalade/7.4/s3e/h/std/c++/ios'
p4174
sbsS'b2Island.h'
p4175
g310
(g2026
g312
Ntp4176
Rp4177
(dp4178
g2030
g1132
sg2031
g2037
sg336
g1327
sbsS'b2StackAllocator.cpp'
p4179
g310
(g2026
g312
Ntp4180
Rp4181
(dp4182
g2030
g1132
sg2031
g2565
sg336
g1211
sbsS'IwTween.h'
p4183
g310
(g2026
g312
Ntp4184
Rp4185
(dp4186
g2030
g2012
sg2031
g2755
sg336
g2013
sbsS'PVRTexTool.defines.txt'
p4187
g310
(g2026
g312
Ntp4188
Rp4189
(dp4190
g2030
g1509
sg2031
g3302
sg336
g1510
sbsS'Iw2D.h'
p4191
g310
(g2026
g312
Ntp4192
Rp4193
(dp4194
g2030
g1699
sg2031
g2160
sg336
g1702
sbsS'IwSoundParams.h'
p4195
g310
(g2026
g312
Ntp4196
Rp4197
(dp4198
g2030
g1335
sg2031
g2095
sg336
g1359
sbsS'IwFColour.h'
p4199
g310
(g2026
g312
Ntp4200
Rp4201
(dp4202
g2030
g1833
sg2031
g2225
sg336
g1877
sbsS'Menu.h'
p4203
g310
(g2026
g312
Ntp4204
Rp4205
(dp4206
g2030
g1392
sg2031
g2032
sg336
g1399
sbsS'PickUp.cpp'
p4207
g310
(g2026
g312
Ntp4208
Rp4209
(dp4210
g2030
g1392
sg2031
g2032
sg336
g1437
sbsS's3eVideo.h'
p4211
g310
(g2026
g312
Ntp4212
Rp4213
(dp4214
g2030
g2042
sg2031
g2239
sg336
S'c:/marmalade/7.4/s3e/h/s3eVideo.h'
p4215
sbsS'IwFile.h'
p4216
g310
(g2026
g312
Ntp4217
Rp4218
(dp4219
g2030
g1897
sg2031
g2079
sg336
g1983
sbsS'pwd.h'
p4220
g310
(g2026
g312
Ntp4221
Rp4222
(dp4223
g2030
g2042
sg2031
g2068
sg336
S'c:/marmalade/7.4/s3e/h/std/pwd.h'
p4224
sbsS'gl3.h'
p4225
g310
(g2026
g312
Ntp4226
Rp4227
(dp4228
g2030
g2042
sg2031
g2479
sg336
S'c:/marmalade/7.4/s3e/h/GLES3/gl3.h'
p4229
sbsS'b2GrowableStack.h'
p4230
g310
(g2026
g312
Ntp4231
Rp4232
(dp4233
g2030
g1132
sg2031
g2565
sg336
g1213
sbsS'IwClip.h'
p4234
g310
(g2026
g312
Ntp4235
Rp4236
(dp4237
g2030
g1833
sg2031
g2225
sg336
g1848
sbsS'IwSoundInst.h'
p4238
g310
(g2026
g312
Ntp4239
Rp4240
(dp4241
g2030
g1335
sg2031
g2095
sg336
g1352
sbsS'iwresmanager.config.txt'
p4242
g310
(g2026
g312
Ntp4243
Rp4244
(dp4245
g2030
g1809
sg2031
g2847
sg336
g1825
sbsS'IwGxShaderTechnique.h'
p4246
g310
(g2026
g312
Ntp4247
Rp4248
(dp4249
g2030
g1833
sg2031
g2225
sg336
g1856
sbsS'objects.h'
p4250
g310
(g2026
g312
Ntp4251
Rp4252
(dp4253
g2030
g1521
sg2031
g2181
sg336
g1556
sbsS'des_old.h'
p4254
g310
(g2026
g312
Ntp4255
Rp4256
(dp4257
g2030
g1521
sg2031
g2181
sg336
g1632
sbsS'cfloat'
p4258
g310
(g2026
g312
Ntp4259
Rp4260
(dp4261
g2030
g2042
sg2031
g2043
sg336
S'c:/marmalade/7.4/s3e/h/std/c++/cfloat'
p4262
sbsS'IwGeomMat2D.h'
p4263
g310
(g2026
g312
Ntp4264
Rp4265
(dp4266
g2030
g1733
sg2031
g2109
sg336
g1787
sbsS'IwAllocator.h'
p4267
g310
(g2026
g312
Ntp4268
Rp4269
(dp4270
g2030
g1897
sg2031
g2079
sg336
g1941
sbsS'MainMenu.cpp'
p4271
g310
(g2026
g312
Ntp4272
Rp4273
(dp4274
g2030
g1392
sg2031
g2032
sg336
g1405
sbsS'IwPath.h'
p4275
g310
(g2026
g312
Ntp4276
Rp4277
(dp4278
g2030
g1897
sg2031
g2079
sg336
g1989
sbsS's3eTypes.h'
p4279
g310
(g2026
g312
Ntp4280
Rp4281
(dp4282
g2030
g2042
sg2031
g2239
sg336
S'c:/marmalade/7.4/s3e/h/s3eTypes.h'
p4283
sbsS'IwTexture.h'
p4284
g310
(g2026
g312
Ntp4285
Rp4286
(dp4287
g2030
g1833
sg2031
g2225
sg336
g1842
sbsS'IwGeomVec.h.tpl'
p4288
g310
(g2026
g312
Ntp4289
Rp4290
(dp4291
g2030
g1733
sg2031
g2109
sg336
g1741
sbsS'CurlHelper.h'
p4292
g310
(g2026
g312
Ntp4293
Rp4294
(dp4295
g2030
g1392
sg2031
g2032
sg336
g1433
sbsS's3eAccelerometer.h'
p4296
g310
(g2026
g312
Ntp4297
Rp4298
(dp4299
g2030
g2042
sg2031
g2239
sg336
S'c:/marmalade/7.4/s3e/h/s3eAccelerometer.h'
p4300
sbsS'ContactListener.cpp'
p4301
g310
(g2026
g312
Ntp4302
Rp4303
(dp4304
g2030
g1392
sg2031
g2032
sg336
g1459
sbsS'setjmp.h'
p4305
g310
(g2026
g312
Ntp4306
Rp4307
(dp4308
g2030
g2042
sg2031
g2068
sg336
S'c:/marmalade/7.4/s3e/h/std/setjmp.h'
p4309
sbsS'GameLobbyMenu.cpp'
p4310
g310
(g2026
g312
Ntp4311
Rp4312
(dp4313
g2030
g1392
sg2031
g2032
sg336
g1445
sbsS'md4.h'
p4314
g310
(g2026
g312
Ntp4315
Rp4316
(dp4317
g2030
g1521
sg2031
g2181
sg336
g1620
sbsS'PacketStream.cpp'
p4318
g310
(g2026
g312
Ntp4319
Rp4320
(dp4321
g2030
g1392
sg2031
g2032
sg336
g1487
sbsS'dh.h'
p4322
g310
(g2026
g312
Ntp4323
Rp4324
(dp4325
g2030
g1521
sg2031
g2181
sg336
g1655
sbsS'IwSoundParams.cpp'
p4326
g310
(g2026
g312
Ntp4327
Rp4328
(dp4329
g2030
g1335
sg2031
g2095
sg336
g1367
sbsS'b2WorldCallbacks.h'
p4330
g310
(g2026
g312
Ntp4331
Rp4332
(dp4333
g2030
g1132
sg2031
g2037
sg336
g1325
sbsS'b2Timer.cpp'
p4334
g310
(g2026
g312
Ntp4335
Rp4336
(dp4337
g2030
g1132
sg2031
g2565
sg336
g1197
sbsS'pngconf.h'
p4338
g310
(g2026
g312
Ntp4339
Rp4340
(dp4341
g2030
g1074
sg2031
g3135
sg336
g1075
sbsS'IwTextParseable.h'
p4342
g310
(g2026
g312
Ntp4343
Rp4344
(dp4345
g2030
g1897
sg2031
g2079
sg336
g1945
sbsS'istream.h'
p4346
g310
(g2026
g312
Ntp4347
Rp4348
(dp4349
g2030
g2042
sg2031
g2043
sg336
S'c:/marmalade/7.4/s3e/h/std/c++/istream.h'
p4350
sbsS'stdint.h'
p4351
g310
(g2026
g312
Ntp4352
Rp4353
(dp4354
g2030
g2042
sg2031
g2068
sg336
S'c:/marmalade/7.4/s3e/h/std/stdint.h'
p4355
sbsS'string'
p4356
g310
(g2026
g312
Ntp4357
Rp4358
(dp4359
g2030
g2042
sg2031
g2043
sg336
S'c:/marmalade/7.4/s3e/h/std/c++/string'
p4360
sbsS'semaphore.h'
p4361
g310
(g2026
g312
Ntp4362
Rp4363
(dp4364
g2030
g2042
sg2031
g2068
sg336
S'c:/marmalade/7.4/s3e/h/std/semaphore.h'
p4365
sbsS'ssl.h'
p4366
g310
(g2026
g312
Ntp4367
Rp4368
(dp4369
g2030
g1521
sg2031
g2181
sg336
g1622
sbsS'conf_api.h'
p4370
g310
(g2026
g312
Ntp4371
Rp4372
(dp4373
g2030
g1521
sg2031
g2181
sg336
g1646
sbsS'sstream'
p4374
g310
(g2026
g312
Ntp4375
Rp4376
(dp4377
g2030
g2042
sg2031
g2043
sg336
S'c:/marmalade/7.4/s3e/h/std/c++/sstream'
p4378
sbsS'b2Draw.cpp'
p4379
g310
(g2026
g312
Ntp4380
Rp4381
(dp4382
g2030
g1132
sg2031
g2565
sg336
g1209
sbsS'ec.h'
p4383
g310
(g2026
g312
Ntp4384
Rp4385
(dp4386
g2030
g1521
sg2031
g2181
sg336
g1624
sbsS'opensslconf.h'
p4387
g310
(g2026
g312
Ntp4388
Rp4389
(dp4390
g2030
g1521
sg2031
g2181
sg336
g1590
sbsS'IwGeomFBBox.h'
p4391
g310
(g2026
g312
Ntp4392
Rp4393
(dp4394
g2030
g1733
sg2031
g2109
sg336
g1755
sbsS'IwDebugPrim.h'
p4395
g310
(g2026
g312
Ntp4396
Rp4397
(dp4398
g2030
g1833
sg2031
g2225
sg336
g1831
sbsS'b2PolygonShape.h'
p4399
g310
(g2026
g312
Ntp4400
Rp4401
(dp4402
g2030
g1132
sg2031
g2175
sg336
g1173
sbsS'gl2ext.h'
p4403
g310
(g2026
g312
Ntp4404
Rp4405
(dp4406
g2030
g2042
sg2031
g2410
sg336
S'c:/marmalade/7.4/s3e/h/GLES2/gl2ext.h'
p4407
sbsS'IwGxFontContainer.h'
p4408
g310
(g2026
g312
Ntp4409
Rp4410
(dp4411
g2030
g1711
sg2031
g2404
sg336
g1724
sbsS'IwGeomSVec3.h'
p4412
g310
(g2026
g312
Ntp4413
Rp4414
(dp4415
g2030
g1733
sg2031
g2109
sg336
g1767
sbsS'iw2dscenegraphcore.mkf'
p4416
g310
(g2026
g312
Ntp4417
Rp4418
(dp4419
g2030
g1887
sg2031
g3625
sg336
g1885
sbsS's3eExt.h'
p4420
g310
(g2026
g312
Ntp4421
Rp4422
(dp4423
g2030
g2042
sg2031
g2239
sg336
S'c:/marmalade/7.4/s3e/h/s3eExt.h'
p4424
sbsS'IwGeomFVec3.h'
p4425
g310
(g2026
g312
Ntp4426
Rp4427
(dp4428
g2030
g1733
sg2031
g2109
sg336
g1791
sbsS'comp.h'
p4429
g310
(g2026
g312
Ntp4430
Rp4431
(dp4432
g2030
g1521
sg2031
g2181
sg336
g1578
sbsS'streambuf'
p4433
g310
(g2026
g312
Ntp4434
Rp4435
(dp4436
g2030
g2042
sg2031
g2043
sg336
S'c:/marmalade/7.4/s3e/h/std/c++/streambuf'
p4437
sbsS's3eMetrics.h'
p4438
g310
(g2026
g312
Ntp4439
Rp4440
(dp4441
g2030
g2042
sg2031
g2354
sg336
S'c:/marmalade/7.4/s3e/h/ext/s3eMetrics.h'
p4442
sbsS'IwGxFont.h'
p4443
g310
(g2026
g312
Ntp4444
Rp4445
(dp4446
g2030
g1711
sg2031
g2404
sg336
g1718
sbsS'Platform.h'
p4447
g310
(g2026
g312
Ntp4448
Rp4449
(dp4450
g2030
g1392
sg2031
g2032
sg336
g1443
sbsS's3eSecureStorage.h'
p4451
g310
(g2026
g312
Ntp4452
Rp4453
(dp4454
g2030
g2042
sg2031
g2239
sg336
S'c:/marmalade/7.4/s3e/h/s3eSecureStorage.h'
p4455
sbsS'string.h'
p4456
g310
(g2026
g312
Ntp4457
Rp4458
(dp4459
g2030
g2042
sg2031
g2068
sg336
S'c:/marmalade/7.4/s3e/h/std/string.h'
p4460
sbsS'IwResource.h'
p4461
g310
(g2026
g312
Ntp4462
Rp4463
(dp4464
g2030
g1897
sg2031
g2079
sg336
g1919
sbsS'IwGeomSVec2.h'
p4465
g310
(g2026
g312
Ntp4466
Rp4467
(dp4468
g2030
g1733
sg2031
g2109
sg336
g1785
sbsS'libjpeg.mkf'
p4469
g310
(g2026
g312
Ntp4470
Rp4471
(dp4472
g2030
g1114
sg2031
(lp4473
g1080
asg336
g1112
sbsS'openssl.mkf'
p4474
g310
(g2026
g312
Ntp4475
Rp4476
(dp4477
g2030
g1650
sg2031
g2181
sg336
g1648
sbsS'IwGxDebug.h'
p4478
g310
(g2026
g312
Ntp4479
Rp4480
(dp4481
g2030
g1833
sg2031
g2225
sg336
g1854
sbsS'float.h'
p4482
g310
(g2026
g312
Ntp4483
Rp4484
(dp4485
g2030
g2042
sg2031
g2068
sg336
S'c:/marmalade/7.4/s3e/h/std/float.h'
p4486
sbsS'iomanip.h'
p4487
g310
(g2026
g312
Ntp4488
Rp4489
(dp4490
g2030
g2042
sg2031
g2043
sg336
S'c:/marmalade/7.4/s3e/h/std/c++/iomanip.h'
p4491
sbsS'blowfish.h'
p4492
g310
(g2026
g312
Ntp4493
Rp4494
(dp4495
g2030
g1521
sg2031
g2181
sg336
g1644
sbsS'IwKeymap.h'
p4496
g310
(g2026
g312
Ntp4497
Rp4498
(dp4499
g2030
g1897
sg2031
g2079
sg336
g1979
sbsS'IwDebug.h'
p4500
g310
(g2026
g312
Ntp4501
Rp4502
(dp4503
g2030
g1897
sg2031
g2079
sg336
g1906
sbsS'IwOptimiseThumb.h'
p4504
g310
(g2026
g312
Ntp4505
Rp4506
(dp4507
g2030
g1897
sg2031
g2079
sg336
g1985
sbsS'krb5_asn.h'
p4508
g310
(g2026
g312
Ntp4509
Rp4510
(dp4511
g2030
g1521
sg2031
g2181
sg336
g1610
sbsS'pkcs7.h'
p4512
g310
(g2026
g312
Ntp4513
Rp4514
(dp4515
g2030
g1521
sg2031
g2181
sg336
g1602
sbsS'b2CollideEdge.cpp'
p4516
g310
(g2026
g312
Ntp4517
Rp4518
(dp4519
g2030
g1132
sg2031
g2150
sg336
g1153
sbsS'IwDivTable.h'
p4520
g310
(g2026
g312
Ntp4521
Rp4522
(dp4523
g2030
g1897
sg2031
g2079
sg336
g1993
sbsS'CollisionIdentifier.h'
p4524
g310
(g2026
g312
Ntp4525
Rp4526
(dp4527
g2030
g1392
sg2031
g2032
sg336
g1397
sbsS'IwGeomMat.h'
p4528
g310
(g2026
g312
Ntp4529
Rp4530
(dp4531
g2030
g1733
sg2031
g2109
sg336
g1769
sbsS'IwResGroup.h'
p4532
g310
(g2026
g312
Ntp4533
Rp4534
(dp4535
g2030
g1809
sg2031
g2847
sg336
g1807
sbsS'signal_1.h'
p4536
g310
(g2026
g312
Ntp4537
Rp4538
(dp4539
g2030
g2042
sg2031
g2253
sg336
S'c:/marmalade/7.4/s3e/h/std/sys/signal.h'
p4540
sbsS'IwSoundData.cpp'
p4541
g310
(g2026
g312
Ntp4542
Rp4543
(dp4544
g2030
g1335
sg2031
g2095
sg336
g1379
sbsS'rand.h'
p4545
g310
(g2026
g312
Ntp4546
Rp4547
(dp4548
g2030
g1521
sg2031
g2181
sg336
g1576
sbsS'b2GearJoint.h'
p4549
g310
(g2026
g312
Ntp4550
Rp4551
(dp4552
g2030
g1132
sg2031
g2062
sg336
g1275
sbsS'mdc2.h'
p4553
g310
(g2026
g312
Ntp4554
Rp4555
(dp4556
g2030
g1521
sg2031
g2181
sg336
g1572
sbsS'shm.h'
p4557
g310
(g2026
g312
Ntp4558
Rp4559
(dp4560
g2030
g2042
sg2031
g2253
sg336
S'c:/marmalade/7.4/s3e/h/std/sys/shm.h'
p4561
sbsS'IwManagedList.h'
p4562
g310
(g2026
g312
Ntp4563
Rp4564
(dp4565
g2030
g1897
sg2031
g2079
sg336
g1931
sbsS'engine.h'
p4566
g310
(g2026
g312
Ntp4567
Rp4568
(dp4569
g2030
g1521
sg2031
g2181
sg336
g1558
sbsS'exception.h'
p4570
g310
(g2026
g312
Ntp4571
Rp4572
(dp4573
g2030
g2042
sg2031
g2043
sg336
S'c:/marmalade/7.4/s3e/h/std/c++/exception.h'
p4574
sbsS'Game.cpp'
p4575
g310
(g2026
g312
Ntp4576
Rp4577
(dp4578
g2030
g1392
sg2031
g2032
sg336
g1467
sbsS'prctl.h'
p4579
g310
(g2026
g312
Ntp4580
Rp4581
(dp4582
g2030
g2042
sg2031
g2253
sg336
S'c:/marmalade/7.4/s3e/h/std/sys/prctl.h'
p4583
sbsS'IwGxStream.h'
p4584
g310
(g2026
g312
Ntp4585
Rp4586
(dp4587
g2030
g1833
sg2031
g2225
sg336
g1860
sbsS'temp_defines_debug.h'
p4588
g310
(g2026
g312
Ntp4589
Rp4590
(dp4591
g2030
(lp4592
sg2031
(lp4593
g3912
asg336
S'c:/Users/Ben/Desktop/College/FYP/FinalYearProject/build_finalyearproject_vc11/temp_defines_debug.h'
p4594
sbsS'utility'
p4595
g310
(g2026
g312
Ntp4596
Rp4597
(dp4598
g2030
g2042
sg2031
g2043
sg336
S'c:/marmalade/7.4/s3e/h/std/c++/utility'
p4599
sbsS'rc4.h'
p4600
g310
(g2026
g312
Ntp4601
Rp4602
(dp4603
g2030
g1521
sg2031
g2181
sg336
g1554
sbsS'input.h'
p4604
g310
(g2026
g312
Ntp4605
Rp4606
(dp4607
g2030
g1392
sg2031
g2032
sg336
g1401
sbsS'b2PolygonShape.cpp'
p4608
g310
(g2026
g312
Ntp4609
Rp4610
(dp4611
g2030
g1132
sg2031
g2175
sg336
g1167
sbsS'b2Collision.cpp'
p4612
g310
(g2026
g312
Ntp4613
Rp4614
(dp4615
g2030
g1132
sg2031
g2150
sg336
g1143
sbsS'x509.h'
p4616
g310
(g2026
g312
Ntp4617
Rp4618
(dp4619
g2030
g1521
sg2031
g2181
sg336
g1530
sbsS'IwGeomLegacy.h'
p4620
g310
(g2026
g312
Ntp4621
Rp4622
(dp4623
g2030
g1733
sg2031
g2109
sg336
g1775
sbsS'IwTPage.h'
p4624
g310
(g2026
g312
Ntp4625
Rp4626
(dp4627
g2030
g1833
sg2031
g2225
sg336
g1850
sbsS'Platform.cpp'
p4628
g310
(g2026
g312
Ntp4629
Rp4630
(dp4631
g2030
g1392
sg2031
g2032
sg336
g1499
sbsS'IwResSerialise.h'
p4632
g310
(g2026
g312
Ntp4633
Rp4634
(dp4635
g2030
g1809
sg2031
g2847
sg336
g1814
sbsS's3eCrypto.h'
p4636
g310
(g2026
g312
Ntp4637
Rp4638
(dp4639
g2030
g2042
sg2031
g2239
sg336
S'c:/marmalade/7.4/s3e/h/s3eCrypto.h'
p4640
sbsS's3eKeyboard.h'
p4641
g310
(g2026
g312
Ntp4642
Rp4643
(dp4644
g2030
g2042
sg2031
g2239
sg336
S'c:/marmalade/7.4/s3e/h/s3eKeyboard.h'
p4645
sbsS'ssl2.h'
p4646
g310
(g2026
g312
Ntp4647
Rp4648
(dp4649
g2030
g1521
sg2031
g2181
sg336
g1653
sbsS'b2RopeJoint.h'
p4650
g310
(g2026
g312
Ntp4651
Rp4652
(dp4653
g2030
g1132
sg2031
g2062
sg336
g1277
sbsS'fcntl.h'
p4654
g310
(g2026
g312
Ntp4655
Rp4656
(dp4657
g2030
g2042
sg2031
g2068
sg336
S'c:/marmalade/7.4/s3e/h/std/fcntl.h'
p4658
sbsS'dtls1.h'
p4659
g310
(g2026
g312
Ntp4660
Rp4661
(dp4662
g2030
g1521
sg2031
g2181
sg336
g1665
sbsS'Target.h'
p4663
g310
(g2026
g312
Ntp4664
Rp4665
(dp4666
g2030
g1392
sg2031
g2032
sg336
g1469
sbsS'rc2.h'
p4667
g310
(g2026
g312
Ntp4668
Rp4669
(dp4670
g2030
g1521
sg2031
g2181
sg336
g1640
sbsS'memory.h'
p4671
g310
(g2026
g312
Ntp4672
Rp4673
(dp4674
g2030
g2042
sg2031
g2068
sg336
S'c:/marmalade/7.4/s3e/h/std/memory.h'
p4675
sbsS'IwGeomFQuat.h'
p4676
g310
(g2026
g312
Ntp4677
Rp4678
(dp4679
g2030
g1733
sg2031
g2109
sg336
g1745
sbsS'ObjectFactory.h'
p4680
g310
(g2026
g312
Ntp4681
Rp4682
(dp4683
g2030
g1392
sg2031
g2032
sg336
g1463
sbsS'pthread.h'
p4684
g310
(g2026
g312
Ntp4685
Rp4686
(dp4687
g2030
g2042
sg2031
g2068
sg336
S'c:/marmalade/7.4/s3e/h/std/pthread.h'
p4688
sbsS'IwGeomIntersect.h'
p4689
g310
(g2026
g312
Ntp4690
Rp4691
(dp4692
g2030
g1733
sg2031
g2109
sg336
g1797
sbsS'b2WorldCallbacks.cpp'
p4693
g310
(g2026
g312
Ntp4694
Rp4695
(dp4696
g2030
g1132
sg2031
g2037
sg336
g1319
sbsS'egl_1.h'
p4697
g310
(g2026
g312
Ntp4698
Rp4699
(dp4700
g2030
g2042
sg2031
g2863
sg336
S'c:/marmalade/7.4/s3e/h/GLES/egl.h'
p4701
sbsS'Iw2DSceneGraph.cpp'
p4702
g310
(g2026
g312
Ntp4703
Rp4704
(dp4705
g2030
g1675
sg2031
g2418
sg336
g1679
sbsS'ostream.h'
p4706
g310
(g2026
g312
Ntp4707
Rp4708
(dp4709
g2030
g2042
sg2031
g2043
sg336
S'c:/marmalade/7.4/s3e/h/std/c++/ostream.h'
p4710
sbsS'stl_user_config.h'
p4711
g310
(g2026
g312
Ntp4712
Rp4713
(dp4714
g2030
g2042
sg2031
g2043
sg336
S'c:/marmalade/7.4/s3e/h/std/c++/stl_user_config.h'
p4715
sbsS'sha.h'
p4716
g310
(g2026
g312
Ntp4717
Rp4718
(dp4719
g2030
g1521
sg2031
g2181
sg336
g1588
sbsS'IwProfileMenu.h'
p4720
g310
(g2026
g312
Ntp4721
Rp4722
(dp4723
g2030
g1897
sg2031
g2079
sg336
g1929
sbsS'cms.h'
p4724
g310
(g2026
g312
Ntp4725
Rp4726
(dp4727
g2030
g1521
sg2031
g2181
sg336
g1570
sbsS'tls1.h'
p4728
g310
(g2026
g312
Ntp4729
Rp4730
(dp4731
g2030
g1521
sg2031
g2181
sg336
g1659
sbsS'MarmaladeVersion.h'
p4732
g310
(g2026
g312
Ntp4733
Rp4734
(dp4735
g2030
g2042
sg2031
g2239
sg336
S'c:/marmalade/7.4/s3e/h/MarmaladeVersion.h'
p4736
sbsS'IwResHandlerWAV.h'
p4737
g310
(g2026
g312
Ntp4738
Rp4739
(dp4740
g2030
g1335
sg2031
g2095
sg336
g1375
sbsS'gl3platform.h'
p4741
g310
(g2026
g312
Ntp4742
Rp4743
(dp4744
g2030
g2042
sg2031
g2479
sg336
S'c:/marmalade/7.4/s3e/h/GLES3/gl3platform.h'
p4745
sbsS'dsa.h'
p4746
g310
(g2026
g312
Ntp4747
Rp4748
(dp4749
g2030
g1521
sg2031
g2181
sg336
g1568
sbsS'ios.h'
p4750
g310
(g2026
g312
Ntp4751
Rp4752
(dp4753
g2030
g2042
sg2031
g2043
sg336
S'c:/marmalade/7.4/s3e/h/std/c++/ios.h'
p4754
sbsS'IwImageHelper.h'
p4755
g310
(g2026
g312
Ntp4756
Rp4757
(dp4758
g2030
g1897
sg2031
g2079
sg336
g1959
sbsS'hash_set'
p4759
g310
(g2026
g312
Ntp4760
Rp4761
(dp4762
g2030
g2042
sg2031
g2043
sg336
S'c:/marmalade/7.4/s3e/h/std/c++/hash_set'
p4763
sbsS'PacketStream.h'
p4764
g310
(g2026
g312
Ntp4765
Rp4766
(dp4767
g2030
g1392
sg2031
g2032
sg336
g1413
sbsS'jmorecfg.h'
p4768
g310
(g2026
g312
Ntp4769
Rp4770
(dp4771
g2030
g1085
sg2031
g2155
sg336
g1110
sbsS'eglplatform.h'
p4772
g310
(g2026
g312
Ntp4773
Rp4774
(dp4775
g2030
g2042
sg2031
g2527
sg336
S'c:/marmalade/7.4/s3e/h/EGL/eglplatform.h'
p4776
sbsS'cmath'
p4777
g310
(g2026
g312
Ntp4778
Rp4779
(dp4780
g2030
g2042
sg2031
g2043
sg336
S'c:/marmalade/7.4/s3e/h/std/c++/cmath'
p4781
sbsS'b2EdgeAndCircleContact.h'
p4782
g310
(g2026
g312
Ntp4783
Rp4784
(dp4785
g2030
g1132
sg2031
g2198
sg336
g1249
sbsS'math_gcc.h'
p4786
g310
(g2026
g312
Ntp4787
Rp4788
(dp4789
g2030
g2042
sg2031
g2068
sg336
S'c:/marmalade/7.4/s3e/h/std/math_gcc.h'
p4790
sbsS's3eMemory.h'
p4791
g310
(g2026
g312
Ntp4792
Rp4793
(dp4794
g2030
g2042
sg2031
g2239
sg336
S'c:/marmalade/7.4/s3e/h/s3eMemory.h'
p4795
sbsS'Net.h'
p4796
g310
(g2026
g312
Ntp4797
Rp4798
(dp4799
g2030
g1392
sg2031
g2032
sg336
g1451
sbsS'strings.h'
p4800
g310
(g2026
g312
Ntp4801
Rp4802
(dp4803
g2030
g2042
sg2031
g2068
sg336
S'c:/marmalade/7.4/s3e/h/std/strings.h'
p4804
sbsS's3eFile.h'
p4805
g310
(g2026
g312
Ntp4806
Rp4807
(dp4808
g2030
g2042
sg2031
g2239
sg336
S'c:/marmalade/7.4/s3e/h/s3eFile.h'
p4809
sbsS'asn1_mac.h'
p4810
g310
(g2026
g312
Ntp4811
Rp4812
(dp4813
g2030
g1521
sg2031
g2181
sg336
g1667
sbsS'IwGxTypes.h'
p4814
g310
(g2026
g312
Ntp4815
Rp4816
(dp4817
g2030
g1833
sg2031
g2225
sg336
g1879
sbsS'b2Fixture.h'
p4818
g310
(g2026
g312
Ntp4819
Rp4820
(dp4821
g2030
g1132
sg2031
g2037
sg336
g1329
sbsS'cerrno'
p4822
g310
(g2026
g312
Ntp4823
Rp4824
(dp4825
g2030
g2042
sg2031
g2043
sg336
S'c:/marmalade/7.4/s3e/h/std/c++/cerrno'
p4826
sbsS'IwSoundManager.cpp'
p4827
g310
(g2026
g312
Ntp4828
Rp4829
(dp4830
g2030
g1335
sg2031
g2095
sg336
g1371
sbsS'soundengine.mkf'
p4831
g310
(g2026
g312
Ntp4832
Rp4833
(dp4834
g2030
g1358
sg2031
g2095
sg336
g1356
sbsS'resource.h'
p4835
g310
(g2026
g312
Ntp4836
Rp4837
(dp4838
g2030
g2042
sg2031
g2253
sg336
S'c:/marmalade/7.4/s3e/h/std/sys/resource.h'
p4839
sbsS'clocale'
p4840
g310
(g2026
g312
Ntp4841
Rp4842
(dp4843
g2030
g2042
sg2031
g2043
sg336
S'c:/marmalade/7.4/s3e/h/std/c++/clocale'
p4844
sbsS'pvrtextool.mkf'
p4845
g310
(g2026
g312
Ntp4846
Rp4847
(dp4848
g2030
g1514
sg2031
g2919
sg336
g1512
sbsS'csetjmp'
p4849
g310
(g2026
g312
Ntp4850
Rp4851
(dp4852
g2030
g2042
sg2031
g2043
sg336
S'c:/marmalade/7.4/s3e/h/std/c++/csetjmp'
p4853
sbsS'IwTextParserITX.h'
p4854
g310
(g2026
g312
Ntp4855
Rp4856
(dp4857
g2030
g1897
sg2031
g2079
sg336
g1923
sbsS's3eAndroidJNI.h'
p4858
g310
(g2026
g312
Ntp4859
Rp4860
(dp4861
g2030
g2042
sg2031
g2354
sg336
S'c:/marmalade/7.4/s3e/h/ext/s3eAndroidJNI.h'
p4862
sbsS'stdexcept'
p4863
g310
(g2026
g312
Ntp4864
Rp4865
(dp4866
g2030
g2042
sg2031
g2043
sg336
S'c:/marmalade/7.4/s3e/h/std/c++/stdexcept'
p4867
sbsS'math.h'
p4868
g310
(g2026
g312
Ntp4869
Rp4870
(dp4871
g2030
g2042
sg2031
g2068
sg336
S'c:/marmalade/7.4/s3e/h/std/math.h'
p4872
sbsS'stdbool.h'
p4873
g310
(g2026
g312
Ntp4874
Rp4875
(dp4876
g2030
g2042
sg2031
g2068
sg336
S'c:/marmalade/7.4/s3e/h/std/stdbool.h'
p4877
sbsS'uio.h'
p4878
g310
(g2026
g312
Ntp4879
Rp4880
(dp4881
g2030
g2042
sg2031
g2253
sg336
S'c:/marmalade/7.4/s3e/h/std/sys/uio.h'
p4882
sbsS'IwUncopyable.h'
p4883
g310
(g2026
g312
Ntp4884
Rp4885
(dp4886
g2030
g1897
sg2031
g2079
sg336
g1951
sbsS'b2Contact.cpp'
p4887
g310
(g2026
g312
Ntp4888
Rp4889
(dp4890
g2030
g1132
sg2031
g2198
sg336
g1255
sbssS'juice_build_type'
p4891
g4
sS'tests'
p4892
(lp4893
sS'project_name'
p4894
g318
sS'root_file'
p4895
g122
sS'current_root'
p4896
S'c:/Users/Ben/Desktop/College/FYP/FinalYearProject'
p4897
sS'dependencies'
p4898
(lp4899
sS'include_paths'
p4900
(lp4901
S'c:/marmalade/7.4/modules/iwutil/h'
p4902
aS'c:/marmalade/7.4/modules/third_party/libjpeg/h'
p4903
aS'c:/marmalade/7.4/modules/third_party/zlib/h'
p4904
aS'c:/marmalade/7.4/modules/third_party/libpng/h'
p4905
aS'c:/marmalade/7.4/modules/iw2dscenegraphcore/h'
p4906
aS'c:/marmalade/7.4/modules/iw2dscenegraph/h'
p4907
aS'c:/marmalade/7.4/modules/iw2d/h'
p4908
aS'c:/marmalade/7.4/modules/iwgx/h'
p4909
aS'c:/marmalade/7.4/modules/iwgl/h'
p4910
aS'c:/marmalade/7.4/modules/iwgeom/h'
p4911
aS'c:/marmalade/7.4/modules/iwresmanager/h'
p4912
aS'c:/marmalade/7.4/extensions/pvrtextool/h'
p4913
aS'c:/marmalade/7.4/modules/iwgxfont/h'
p4914
aS'c:/marmalade/7.4/modules/third_party/tiniconv/source'
p4915
aS'c:/users/ben/desktop/college/fyp/finalyearproject/soundengine/h'
p4916
aS'c:/users/ben/desktop/college/fyp/finalyearproject/soundengine/source'
p4917
aS'c:/users/ben/desktop/college/fyp/finalyearproject/box2d'
p4918
aS'c:/marmalade/7.4/modules/third_party/curl/source'
p4919
aS'c:/marmalade/7.4/modules/third_party/curl/include'
p4920
aS'c:/marmalade/7.4/modules/third_party/openssl'
p4921
aS'c:/marmalade/7.4/modules/third_party/openssl/openssl'
p4922
aS'c:/marmalade/7.4/modules/iwtween/h'
p4923
aS'c:/marmalade/7.4/s3e/h'
p4924
aS'c:/marmalade/7.4/s3e/h/ext'
p4925
aS'c:/marmalade/7.4/s3e/h/std'
p4926
aS'c:/marmalade/7.4/s3e/h/std/c++'
p4927
aS'c:/marmalade/7.4/s3e/h/ext_legacy'
p4928
aS'c:/marmalade/7.4/s3e/h/legacy'
p4929
asS'weak_frameworks'
p4930
(lp4931
sS'extprojects'
p4932
(dp4933
sg600
(dp4934
g594
(lp4935
(S'c:/Users/Ben/Desktop/College/FYP/FinalYearProject/data/audio'
p4936
S'audio'
p4937
I0
tp4938
a(S'c:/Users/Ben/Desktop/College/FYP/FinalYearProject/data/texture'
p4939
S'texture'
p4940
I0
tp4941
a(S'c:/Users/Ben/Desktop/College/FYP/FinalYearProject/data/fonts'
p4942
S'fonts'
p4943
I0
tp4944
assS'macro_types'
p4945
(dp4946
g525
I1
sg526
I0
sg527
I0
sg528
I0
sg529
I0
sg531
I0
sg532
I0
sg533
I0
sg534
I0
sg535
I0
sg537
I0
sg538
I0
sg539
I0
sg540
I0
sg541
I0
sg542
I0
sg544
I0
sg545
I0
sg546
I0
sg547
I0
sg548
I0
sg549
I0
sg550
I0
sg551
I1
sg552
I0
sg553
I0
sg554
I0
sg555
I0
sg556
I01
sg557
I1
sg558
I0
sg559
I0
sg560
I0
sg561
I0
sg562
I0
sg563
I0
sg565
I0
sg566
I0
sg567
I0
ssS'commands'
p4947
(lp4948
sg602
(g1061
S'VC11'
p4949
S'X86ARM'
p4950
tp4951
sS'build_libs'
p4952
(dp4953
sg604
g0
sS'frameworks'
p4954
(lp4955
sS'environ'
p4956
(dp4957
sS'target_name_debug'
p4958
g318
sS'builders'
p4959
(dp4960
g594
(dp4961
S'.S'
p4962
(dp4963
S'rvct'
p4964
(lp4965
S'.obj'
p4966
aS'echo ARM Assembling(RVCT) ${SOURCE}...'
p4967
aS'c:/marmalade/7.4/s3e\\rvct\\bin\\armasm -o ${TARGET} ${SOURCE}'
p4968
asg440
(lp4969
g4966
aS'echo ARM Assembling(GCC) ${SOURCE}...'
p4970
aS'c:/marmalade/7.4/s3e\\gcc\\bin\\arm-none-eabi-gcc -c -o ${TARGET} ${SOURCE}'
p4971
asS'ppu'
p4972
(lp4973
S'.a'
p4974
aS'echo PPU Assembling(SNC) ${SOURCE}...'
p4975
aS'c:/marmalade/7.4/s3e\\rvct\\bin\\armasm -o ${TARGET} ${SOURCE}'
p4976
assS'.s'
p4977
g4963
sS'.vp'
p4978
(lp4979
NaS'"C:/Marmalade/7.4/s3e/python/python.exe" "c:/marmalade/7.4/modules/iwgx/tools/compile_shaders.py" ${SOURCE}'
p4980
asssS'extproject_names'
p4981
(lp4982
sbtp4983
.